 AdobeXMP

 Timestamp is 54ca084f (Thu Jan 29 15:45:43 2015)

 Preferred load address is 0000000180000000

 Start         Length     Name                   Class
 0001:00000000 000000b1H .text$di                CODE
 0001:000000c0 0008629eH .text$mn                CODE
 0001:00086360 00010520H .text$x                 CODE
 0001:00096880 0000011cH .text$yd                CODE
 0002:00000000 00000398H .idata$5                DATA
 0002:00000398 00000008H .CRT$XCA                DATA
 0002:000003a0 00000038H .CRT$XCU                DATA
 0002:000003d8 00000008H .CRT$XCZ                DATA
 0002:000003e0 00000008H .CRT$XIA                DATA
 0002:000003e8 00000008H .CRT$XIAA               DATA
 0002:000003f0 00000010H .CRT$XIC                DATA
 0002:00000400 00000008H .CRT$XIZ                DATA
 0002:00000410 00014470H .rdata                  DATA
 0002:00014880 0000003cH .rdata$debug            DATA
 0002:000148c0 00009b1cH .rdata$r                DATA
 0002:0001e3e0 00000008H .rtc$IAA                DATA
 0002:0001e3e8 00000008H .rtc$IZZ                DATA
 0002:0001e3f0 00000008H .rtc$TAA                DATA
 0002:0001e3f8 00000008H .rtc$TZZ                DATA
 0002:0001e400 000193a0H .xdata                  DATA
 0002:000377a0 0000030cH .xdata$x                DATA
 0002:00037ab0 000012d4H .edata                  DATA
 0002:00038d84 00000050H .idata$2                DATA
 0002:00038dd4 00000014H .idata$3                DATA
 0002:00038de8 00000398H .idata$4                DATA
 0002:00039180 00000e92H .idata$6                DATA
 0003:00000000 000002c4H .data                   DATA
 0003:000002d0 00004f86H .data$r                 DATA
 0003:00005260 00000ab8H .bss                    DATA
 0004:00000000 00006264H .pdata                  DATA
 0005:00000000 000000a0H .rsrc$01                DATA
 0005:000000a0 000006b8H .rsrc$02                DATA

  Address         Publics by Value              Rva+Base               Lib:Object

 0000:00000000       __guard_fids_count         0000000000000000     <absolute>
 0000:00000000       __guard_fids_table         0000000000000000     <absolute>
 0000:00000000       ___safe_se_handler_count   0000000000000000     <absolute>
 0000:00000000       ___safe_se_handler_table   0000000000000000     <absolute>
 0000:00000000       __guard_flags              0000000000000000     <absolute>
 0000:00000000       __ImageBase                0000000180000000     <linker-defined>
 0001:000000c0       ?Sort@XMPMeta2@@UEAAXXZ    00000001800010c0 f i XMPMeta2-GetSet.obj
 0001:000000c0       ?ReleaseSharedOwnership@XMPDOMImplementationRegistryImpl@AdobeXMPCore_Int@@UEBAXXZ 00000001800010c0 f i XMPDOMImplementationRegistryImpl.obj
 0001:000000c0       ?AcquireSharedOwnership@DefaultAllocatorImpl@AdobeXMPCommon_Int@@UEBAXXZ 00000001800010c0 f i XMPCommon:AllocatorManagerImpl.obj
 0001:000000c0       ?AcquireSharedOwnership@ConfigurationManagerImpl@AdobeXMPCommon_Int@@UEBAXXZ 00000001800010c0 f i XMPCommon:ConfigurationManagerImpl.obj
 0001:000000c0       ??3@YAXPEAX0@Z             00000001800010c0 f i WXMPDocOps.obj
 0001:000000c0       ?AcquireSharedOwnershipForRawPointer@ErrorNotificationManagerImpl@AdobeXMPCommon_Int@@UEBAXXZ 00000001800010c0 f i XMPCommon:ErrorNotificationManagerImpl.obj
 0001:000000c0       ?Destroy@AllocatorManagerImpl@AdobeXMPCommon_Int@@UEAAXXZ 00000001800010c0 f i XMPCommon:AllocatorManagerImpl.obj
 0001:000000c0       ?ReleaseSharedOwnership@ConfigurationManagerImpl@AdobeXMPCommon_Int@@UEBAXXZ 00000001800010c0 f i XMPCommon:ConfigurationManagerImpl.obj
 0001:000000c0       ?RegisterSerializer@IXMPDOMImplementationRegistry_I@AdobeXMPCore_Int@@MEAAXPEBDPEAVIXMPDOMSerializer_v1@AdobeXMPCore@@AEAPEBVIError_v1@AdobeXMPCommon@@@Z 00000001800010c0 f i XMPDOMImplementationRegistryImpl.obj
 0001:000000c0       ?ReleaseSharedOwnership@ErrorNotificationManagerImpl@AdobeXMPCommon_Int@@UEBAXXZ 00000001800010c0 f i XMPCommon:ErrorNotificationManagerImpl.obj
 0001:000000c0       ?ReleaseSharedOwnership@DefaultAllocatorImpl@AdobeXMPCommon_Int@@UEBAXXZ 00000001800010c0 f i XMPCommon:AllocatorManagerImpl.obj
 0001:000000c0       ?AcquireSharedOwnership@XMPDOMImplementationRegistryImpl@AdobeXMPCore_Int@@UEBAXXZ 00000001800010c0 f i XMPDOMImplementationRegistryImpl.obj
 0001:000000c0       ?AcquireSharedOwnershipForRawPointer@XMPDOMImplementationRegistryImpl@AdobeXMPCore_Int@@UEBAXXZ 00000001800010c0 f i XMPDOMImplementationRegistryImpl.obj
 0001:000000c0       ?ReleaseSharedOwnership@AllocatorManagerImpl@AdobeXMPCommon_Int@@UEBAXXZ 00000001800010c0 f i XMPCommon:AllocatorManagerImpl.obj
 0001:000000c0       ?AcquireSharedOwnership@ErrorNotificationManagerImpl@AdobeXMPCommon_Int@@UEBAXXZ 00000001800010c0 f i XMPCommon:ErrorNotificationManagerImpl.obj
 0001:000000c0       ?AcquireSharedOwnership@AllocatorManagerImpl@AdobeXMPCommon_Int@@UEBAXXZ 00000001800010c0 f i XMPCommon:AllocatorManagerImpl.obj
 0001:000000c0       ?RegisterParser@IXMPDOMImplementationRegistry_I@AdobeXMPCore_Int@@MEAAXPEBDPEAVIXMPDOMParser_v1@AdobeXMPCore@@AEAPEBVIError_v1@AdobeXMPCommon@@@Z 00000001800010c0 f i XMPDOMImplementationRegistryImpl.obj
 0001:000000c0       ?Destroy@ErrorNotificationManagerImpl@AdobeXMPCommon_Int@@UEAAXXZ 00000001800010c0 f i XMPCommon:ErrorNotificationManagerImpl.obj
 0001:000000c0       ?AcquireSharedOwnershipForRawPointer@ISharedOwnership_I@AdobeXMPCommon_Int@@UEBAXXZ 00000001800010c0 f i XMPArrayNodeImpl.obj
 0001:000000c4       ??_G_Generic_error_category@std@@UEAAPEAXI@Z 00000001800010c4 f i WXMPDocOps.obj
 0001:000000c4       ??_E_System_error_category@std@@UEAAPEAXI@Z 00000001800010c4 f i * CIL library *:* CIL module *
 0001:000000c4       ??_E_Iostream_error_category@std@@UEAAPEAXI@Z 00000001800010c4 f i * CIL library *:* CIL module *
 0001:000000c4       ??_Eerror_category@std@@UEAAPEAXI@Z 00000001800010c4 f i * CIL library *:* CIL module *
 0001:000000c4       ??_Gerror_category@std@@UEAAPEAXI@Z 00000001800010c4 f i WXMPDocOps.obj
 0001:000000c4       ??_G_Iostream_error_category@std@@UEAAPEAXI@Z 00000001800010c4 f i WXMPDocOps.obj
 0001:000000c4       ??_G_System_error_category@std@@UEAAPEAXI@Z 00000001800010c4 f i WXMPDocOps.obj
 0001:000000c4       ??_E_Generic_error_category@std@@UEAAPEAXI@Z 00000001800010c4 f i * CIL library *:* CIL module *
 0001:000000ec       ?default_error_condition@error_category@std@@UEBA?AVerror_condition@2@H@Z 00000001800010ec f i WXMPDocOps.obj
 0001:000000f8       ?equivalent@error_category@std@@UEBA_NHAEBVerror_condition@2@@Z 00000001800010f8 f i WXMPDocOps.obj
 0001:00000130       ?equivalent@error_category@std@@UEBA_NAEBVerror_code@2@H@Z 0000000180001130 f i WXMPDocOps.obj
 0001:00000144       ?name@_Generic_error_category@std@@UEBAPEBDXZ 0000000180001144 f i WXMPDocOps.obj
 0001:0000014c       ?message@_Generic_error_category@std@@UEBA?AV?$basic_string@DU?$char_traits@D@std@@V?$allocator@D@2@@2@H@Z 000000018000114c f i WXMPDocOps.obj
 0001:000001bc       ?name@_Iostream_error_category@std@@UEBAPEBDXZ 00000001800011bc f i WXMPDocOps.obj
 0001:000001c4       ?message@_Iostream_error_category@std@@UEBA?AV?$basic_string@DU?$char_traits@D@std@@V?$allocator@D@2@@2@H@Z 00000001800011c4 f i WXMPDocOps.obj
 0001:00000218       ?name@_System_error_category@std@@UEBAPEBDXZ 0000000180001218 f i WXMPDocOps.obj
 0001:00000220       ?message@_System_error_category@std@@UEBA?AV?$basic_string@DU?$char_traits@D@std@@V?$allocator@D@2@@2@H@Z 0000000180001220 f i WXMPDocOps.obj
 0001:00000290       ?default_error_condition@_System_error_category@std@@UEBA?AVerror_condition@2@H@Z 0000000180001290 f i WXMPDocOps.obj
 0001:000002d0       ??1XMP_AutoLock@@QEAA@XZ   00000001800012d0 f i WXMPDocOps.obj
 0001:000002e0       ?Release@XMP_AutoLock@@QEAAXXZ 00000001800012e0 f i WXMPDocOps.obj
 0001:0000038c       WXMPDocOps_CTor_1          000000018000138c f   WXMPDocOps.obj
 0001:00000414       WXMPMeta_IncrementRefCount_1 0000000180001414 f   WXMPMeta.obj
 0001:00000414       WXMPDocOps_IncrementRefCount_1 0000000180001414 f   WXMPDocOps.obj
 0001:00000414       WXMPIterator_IncrementRefCount_1 0000000180001414 f   WXMPIterator.obj
 0001:000004b8       WXMPDocOps_DecrementRefCount_1 00000001800014b8 f   WXMPDocOps.obj
 0001:000004b8       WXMPMeta_DecrementRefCount_1 00000001800014b8 f   WXMPMeta.obj
 0001:000004b8       WXMPIterator_DecrementRefCount_1 00000001800014b8 f   WXMPIterator.obj
 0001:0000058c       WXMPDocOps_SetAppName_1    000000018000158c f   WXMPDocOps.obj
 0001:000005d8       WXMPDocOps_CreateID_1      00000001800015d8 f   WXMPDocOps.obj
 0001:00000684       WXMPDocOps_NewXMP_1        0000000180001684 f   WXMPDocOps.obj
 0001:00000834       WXMPDocOps_OpenXMP_1       0000000180001834 f   WXMPDocOps.obj
 0001:00000a08       WXMPDocOps_BranchXMP_1     0000000180001a08 f   WXMPDocOps.obj
 0001:00000c50       WXMPDocOps_PrepareForSave_1 0000000180001c50 f   WXMPDocOps.obj
 0001:00000de0       WXMPDocOps_NoteChange_1    0000000180001de0 f   WXMPDocOps.obj
 0001:00000f98       WXMPDocOps_HasPartChanged_1 0000000180001f98 f   WXMPDocOps.obj
 0001:00001188       WXMPDocOps_GetPartChangeID_1 0000000180002188 f   WXMPDocOps.obj
 0001:0000139c       WXMPDocOps_EnsureIDsExist_1 000000018000239c f   WXMPDocOps.obj
 0001:00001460       WXMPDocOps_IsDirty_1       0000000180002460 f   WXMPDocOps.obj
 0001:00001520       WXMPDocOps_Clone_1         0000000180002520 f   WXMPDocOps.obj
 0001:000016e4       WXMPDocOps_GetMetaRef_1    00000001800026e4 f   WXMPDocOps.obj
 0001:00001788       ??0?$basic_string@DU?$char_traits@D@std@@V?$allocator@D@2@@std@@QEAA@PEBD@Z 0000000180002788 f i WXMPDocOps.obj
 0001:000017d4       ??1?$basic_string@DU?$char_traits@D@std@@V?$allocator@D@2@@std@@QEAA@XZ 00000001800027d4 f i WXMPDocOps.obj
 0001:000017d4       ??1XPathStepInfo@@QEAA@XZ  00000001800027d4 f i XMPDocOps-Utils.obj
 0001:00001808       ?assign@?$basic_string@DU?$char_traits@D@std@@V?$allocator@D@2@@std@@QEAAAEAV12@AEBV12@_K1@Z 0000000180002808 f i WXMPDocOps.obj
 0001:00001928       ?_Tidy@?$basic_string@DU?$char_traits@D@std@@V?$allocator@D@2@@std@@QEAAX_N_K@Z 0000000180002928 f i WXMPDocOps.obj
 0001:00001988       ?assign@?$basic_string@DU?$char_traits@D@std@@V?$allocator@D@2@@std@@QEAAAEAV12@PEBD_K@Z 0000000180002988 f i WXMPDocOps.obj
 0001:00001a8c       ?erase@?$basic_string@DU?$char_traits@D@std@@V?$allocator@D@2@@std@@QEAAAEAV12@_K0@Z 0000000180002a8c f i WXMPDocOps.obj
 0001:00001b2c       ?_Grow@?$basic_string@DU?$char_traits@D@std@@V?$allocator@D@2@@std@@QEAA_N_K_N@Z 0000000180002b2c f i WXMPDocOps.obj
 0001:00001bfc       ?_Copy@?$basic_string@DU?$char_traits@D@std@@V?$allocator@D@2@@std@@QEAAX_K0@Z 0000000180002bfc f i WXMPDocOps.obj
 0001:00001d08       WXMPIterator_PropCTor_1    0000000180002d08 f   WXMPIterator.obj
 0001:00001e10       WXMPIterator_TableCTor_1   0000000180002e10 f   WXMPIterator.obj
 0001:00001e98       WXMPIterator_Next_1        0000000180002e98 f   WXMPIterator.obj
 0001:000021d4       WXMPIterator_Skip_1        00000001800031d4 f   WXMPIterator.obj
 0001:00002400       ?ThrowNULLPointerError@AdobeXMPCommon_Int@@YAX_NPEBD1K_KPEAPEBD@Z 0000000180003400 f i WXMPMeta.obj
 0001:00002484       ?ThrowVersionNotAvailableError@AdobeXMPCommon_Int@@YAX_NPEBD1K_KPEAPEBD@Z 0000000180003484 f i WXMPMeta.obj
 0001:00002548       WXMPMeta_GetVersionInfo_1  0000000180003548 f   WXMPMeta.obj
 0001:00002588       WXMPMeta_Initialize_1      0000000180003588 f   WXMPMeta.obj
 0001:00002604       WXMPMeta_Terminate_1       0000000180003604 f   WXMPMeta.obj
 0001:0000261c       WXMPMeta_CTor_1            000000018000361c f   WXMPMeta.obj
 0001:00002698       WXMPMeta_GetGlobalOptions_1 0000000180003698 f   WXMPMeta.obj
 0001:000026a4       WXMPMeta_SetGlobalOptions_1 00000001800036a4 f   WXMPMeta.obj
 0001:00002700       WXMPMeta_GetMemProcs_1     0000000180003700 f   WXMPMeta.obj
 0001:0000277c       WXMPMeta_RegisterAssertNotify_1 000000018000377c f   WXMPMeta.obj
 0001:000027f4       WXMPMeta_UnregisterAssertNotify_1 00000001800037f4 f   WXMPMeta.obj
 0001:00002818       WXMPMeta_DumpNamespaces_1  0000000180003818 f   WXMPMeta.obj
 0001:0000288c       WXMPMeta_DumpPropertyTraits_1 000000018000388c f   WXMPMeta.obj
 0001:00002920       WXMPMeta_RegisterNamespace_1 0000000180003920 f   WXMPMeta.obj
 0001:00002a3c       WXMPMeta_GetNamespacePrefix_1 0000000180003a3c f   WXMPMeta.obj
 0001:00002b08       WXMPMeta_GetNamespaceURI_1 0000000180003b08 f   WXMPMeta.obj
 0001:00002bcc       WXMPMeta_DeleteNamespace_1 0000000180003bcc f   WXMPMeta.obj
 0001:00002c78       WXMPMeta_RegisterPropertyTraits_1 0000000180003c78 f   WXMPMeta.obj
 0001:00002d7c       WXMPMeta_GetProperty_1     0000000180003d7c f   WXMPMeta.obj
 0001:00002f74       WXMPMeta_GetArrayItem_1    0000000180003f74 f   WXMPMeta.obj
 0001:00003184       WXMPMeta_GetStructField_1  0000000180004184 f   WXMPMeta.obj
 0001:00003464       WXMPMeta_GetQualifier_1    0000000180004464 f   WXMPMeta.obj
 0001:00003744       WXMPMeta_SetProperty_1     0000000180004744 f   WXMPMeta.obj
 0001:000038e0       WXMPMeta_SetArrayItem_1    00000001800048e0 f   WXMPMeta.obj
 0001:00003a8c       WXMPMeta_AppendArrayItem_1 0000000180004a8c f   WXMPMeta.obj
 0001:00003c38       WXMPMeta_SetStructField_1  0000000180004c38 f   WXMPMeta.obj
 0001:00003eac       WXMPMeta_SetQualifier_1    0000000180004eac f   WXMPMeta.obj
 0001:00004124       WXMPMeta_DeleteProperty_1  0000000180005124 f   WXMPMeta.obj
 0001:0000429c       WXMPMeta_DeleteArrayItem_1 000000018000529c f   WXMPMeta.obj
 0001:0000442c       WXMPMeta_DeleteStructField_1 000000018000542c f   WXMPMeta.obj
 0001:00004680       WXMPMeta_DeleteQualifier_1 0000000180005680 f   WXMPMeta.obj
 0001:000048d4       WXMPMeta_DoesPropertyExist_1 00000001800058d4 f   WXMPMeta.obj
 0001:00004a60       WXMPMeta_DoesArrayItemExist_1 0000000180005a60 f   WXMPMeta.obj
 0001:00004c94       WXMPMeta_DoesStructFieldExist_1 0000000180005c94 f   WXMPMeta.obj
 0001:00004fb8       WXMPMeta_DoesQualifierExist_1 0000000180005fb8 f   WXMPMeta.obj
 0001:000052dc       WXMPMeta_GetLocalizedText_1 00000001800062dc f   WXMPMeta.obj
 0001:000055a8       WXMPMeta_SetLocalizedText_1 00000001800065a8 f   WXMPMeta.obj
 0001:000057dc       WXMPMeta_DeleteLocalizedText_1 00000001800067dc f   WXMPMeta.obj
 0001:000059e8       WXMPMeta_GetProperty_Bool_1 00000001800069e8 f   WXMPMeta.obj
 0001:00005c40       WXMPMeta_GetProperty_Int_1 0000000180006c40 f   WXMPMeta.obj
 0001:00005e04       WXMPMeta_GetProperty_Int64_1 0000000180006e04 f   WXMPMeta.obj
 0001:00005fc8       WXMPMeta_GetProperty_Float_1 0000000180006fc8 f   WXMPMeta.obj
 0001:0000618c       WXMPMeta_GetProperty_Date_1 000000018000718c f   WXMPMeta.obj
 0001:000063e0       WXMPMeta_SetProperty_Bool_1 00000001800073e0 f   WXMPMeta.obj
 0001:00006580       WXMPMeta_SetProperty_Int_1 0000000180007580 f   WXMPMeta.obj
 0001:0000671c       WXMPMeta_SetProperty_Int64_1 000000018000771c f   WXMPMeta.obj
 0001:00006964       WXMPMeta_SetProperty_Float_1 0000000180007964 f   WXMPMeta.obj
 0001:00006bb0       WXMPMeta_SetProperty_Date_1 0000000180007bb0 f   WXMPMeta.obj
 0001:00006d4c       WXMPMeta_DumpObject_1      0000000180007d4c f   WXMPMeta.obj
 0001:00006e7c       WXMPMeta_Sort_1            0000000180007e7c f   WXMPMeta.obj
 0001:00006f90       WXMPMeta_Erase_1           0000000180007f90 f   WXMPMeta.obj
 0001:0000705c       WXMPMeta_Clone_1           000000018000805c f   WXMPMeta.obj
 0001:000071cc       WXMPMeta_GetIXMPMetadata_1 00000001800081cc f   WXMPMeta.obj
 0001:000072d4       WXMPMeta_CountArrayItems_1 00000001800082d4 f   WXMPMeta.obj
 0001:00007460       WXMPMeta_MarkStaleProperties_1 0000000180008460 f   WXMPMeta.obj
 0001:00007558       WXMPMeta_GetObjectName_1   0000000180008558 f   WXMPMeta.obj
 0001:00007650       WXMPMeta_SetObjectName_1   0000000180008650 f   WXMPMeta.obj
 0001:00007720       WXMPMeta_GetObjectOptions_1 0000000180008720 f   WXMPMeta.obj
 0001:000077c4       WXMPMeta_SetObjectOptions_1 00000001800087c4 f   WXMPMeta.obj
 0001:000078bc       WXMPMeta_ParseFromBuffer_1 00000001800088bc f   WXMPMeta.obj
 0001:00007994       WXMPMeta_SerializeToBuffer_1 0000000180008994 f   WXMPMeta.obj
 0001:00007b5c       WXMPMeta_SetDefaultErrorCallback_1 0000000180008b5c f   WXMPMeta.obj
 0001:00007b84       WXMPMeta_SetErrorCallback_1 0000000180008b84 f   WXMPMeta.obj
 0001:00007c7c       WXMPMeta_ResetErrorCallbackLimit_1 0000000180008c7c f   WXMPMeta.obj
 0001:00007d3c       WXMPMeta_Use_CPP_DOM_APIs_1 0000000180008d3c f   WXMPMeta.obj
 0001:00007d48       ??1?$shared_ptr@VIConfigurationManager_I@AdobeXMPCommon_Int@@@std@@QEAA@XZ 0000000180008d48 f i XMPMeta.obj
 0001:00007d48       ??1?$shared_ptr@VIXMPCompositeNode_I@AdobeXMPCore_Int@@@std@@QEAA@XZ 0000000180008d48 f i RDFXMPDOMParserImpl.obj
 0001:00007d48       ??1?$shared_ptr@VIError_I@AdobeXMPCommon_Int@@@std@@QEAA@XZ 0000000180008d48 f i WXMPMeta.obj
 0001:00007d48       ??1?$shared_ptr@VIXMPArrayNode_I@AdobeXMPCore_Int@@@std@@QEAA@XZ 0000000180008d48 f i XMPArrayNodeImpl.obj
 0001:00007d48       ??1?$shared_ptr@VIXMPNameSpacePrefixMap_I@AdobeXMPCore_Int@@@std@@QEAA@XZ 0000000180008d48 f i XMPCoreObjectFactoryImpl.obj
 0001:00007d48       ??1?$shared_ptr@VISharedMutex_I@AdobeXMPCommon_Int@@@std@@QEAA@XZ 0000000180008d48 f i XMPArrayNodeImpl.obj
 0001:00007d48       ??1?$shared_ptr@VIXMPPath_I@AdobeXMPCore_Int@@@std@@QEAA@XZ 0000000180008d48 f i XMPArrayNodeImpl.obj
 0001:00007d48       ??1?$shared_ptr@VIClientAllocator_I@AdobeXMPCommon_Int@@@std@@QEAA@XZ 0000000180008d48 f i XMPMeta.obj
 0001:00007d48       ??1?$shared_ptr@VIClientAllocator_v1@AdobeXMPCommon@@@std@@QEAA@XZ 0000000180008d48 f i XMPCommon:ClientAllocatorWrapperImpl.obj
 0001:00007d48       ??1?$shared_ptr@VIClientErrorNotifier_v1@AdobeXMPCommon@@@std@@QEAA@XZ 0000000180008d48 f i XMPCommon:ClientErrorNotifierWrapperImpl.obj
 0001:00007d48       ??1?$shared_ptr@VIClientErrorNotifier_I@AdobeXMPCommon_Int@@@std@@QEAA@XZ 0000000180008d48 f i XMPCommon:ErrorNotificationManagerImpl.obj
 0001:00007d48       ??1?$shared_ptr@$$CBVIError_I@AdobeXMPCommon_Int@@@std@@QEAA@XZ 0000000180008d48 f i WXMPMeta.obj
 0001:00007d48       ??1?$shared_ptr@VInternalClientAllocator@@@std@@QEAA@XZ 0000000180008d48 f i XMPMeta.obj
 0001:00007d48       ??1?$shared_ptr@$$CBVIXMPArrayNode_I@AdobeXMPCore_Int@@@std@@QEAA@XZ 0000000180008d48 f i XMPMeta2-GetSet.obj
 0001:00007d48       ??1?$shared_ptr@VIXMPDOMParser_I@AdobeXMPCore_Int@@@std@@QEAA@XZ 0000000180008d48 f i XMPDOMImplementationRegistryImpl.obj
 0001:00007d48       ??1?$shared_ptr@VIXMPNode_I@AdobeXMPCore_Int@@@std@@QEAA@XZ 0000000180008d48 f i XMPArrayNodeImpl.obj
 0001:00007d48       ??1?$shared_ptr@VIUTF8String_I@AdobeXMPCommon_Int@@@std@@QEAA@XZ 0000000180008d48 f i XMPArrayNodeImpl.obj
 0001:00007d48       ??1?$shared_ptr@VIXMPPathSegment_I@AdobeXMPCore_Int@@@std@@QEAA@XZ 0000000180008d48 f i XMPCoreObjectFactoryImpl.obj
 0001:00007d48       ??1?$shared_ptr@VIXMPConstNodeIterator_I@AdobeXMPCore_Int@@@std@@QEAA@XZ 0000000180008d48 f i XMPArrayNodeImpl.obj
 0001:00007d48       ??1?$shared_ptr@$$CBVIXMPDOMSerializer_I@AdobeXMPCore_Int@@@std@@QEAA@XZ 0000000180008d48 f i XMPMeta2-GetSet.obj
 0001:00007d48       ??1?$shared_ptr@$$CBVIXMPNameSpacePrefixMap_I@AdobeXMPCore_Int@@@std@@QEAA@XZ 0000000180008d48 f i XMPCoreObjectFactoryImpl.obj
 0001:00007d48       ??1?$shared_ptr@VUTF8StringImpl@AdobeXMPCommon_Int@@@std@@QEAA@XZ 0000000180008d48 f i XMPCommon:UTF8StringImpl.obj
 0001:00007d48       ??1?$shared_ptr@VXMPMeta@@@std@@QEAA@XZ 0000000180008d48 f i RDFXMPDOMParserImpl.obj
 0001:00007d48       ??1?$shared_ptr@$$CBVIXMPQualifiers_I@AdobeXMPCore_Int@@@std@@QEAA@XZ 0000000180008d48 f i XMPCompositeNodeImpl.obj
 0001:00007d48       ??1?$shared_ptr@$$CBVIXMPSimpleNode_I@AdobeXMPCore_Int@@@std@@QEAA@XZ 0000000180008d48 f i XMPDocOps-Utils2.obj
 0001:00007d48       ??1?$shared_ptr@$$CBVIXMPNode_I@AdobeXMPCore_Int@@@std@@QEAA@XZ 0000000180008d48 f i XMPArrayNodeImpl.obj
 0001:00007d48       ??1?$shared_ptr@VIXMPMetadata_I@AdobeXMPCore_Int@@@std@@QEAA@XZ 0000000180008d48 f i XMPCoreObjectFactoryImpl.obj
 0001:00007d48       ??1?$shared_ptr@VIXMPQualifiers_I@AdobeXMPCore_Int@@@std@@QEAA@XZ 0000000180008d48 f i XMPArrayNodeImpl.obj
 0001:00007d48       ??1?$shared_ptr@$$CBVIUTF8String_I@AdobeXMPCommon_Int@@@std@@QEAA@XZ 0000000180008d48 f i XMPArrayNodeImpl.obj
 0001:00007d48       ??1?$shared_ptr@VIXMPDOMImplementationRegistry_I@AdobeXMPCore_Int@@@std@@QEAA@XZ 0000000180008d48 f i XMPCoreObjectFactoryImpl.obj
 0001:00007d48       ??1?$shared_ptr@VIXMPNodeIterator_I@AdobeXMPCore_Int@@@std@@QEAA@XZ 0000000180008d48 f i XMPArrayNodeImpl.obj
 0001:00007d48       ??1?$shared_ptr@VIXMPSimpleNode_I@AdobeXMPCore_Int@@@std@@QEAA@XZ 0000000180008d48 f i XMPCompositeNodeImpl.obj
 0001:00007d48       ??1?$shared_ptr@$$CBVIError_v1@AdobeXMPCommon@@@std@@QEAA@XZ 0000000180008d48 f i XMPCommon:ErrorNotificationManagerImpl.obj
 0001:00007d48       ??1?$shared_ptr@VIXMPStructureNode_I@AdobeXMPCore_Int@@@std@@QEAA@XZ 0000000180008d48 f i XMPCompositeNodeImpl.obj
 0001:00007d48       ??1?$shared_ptr@VIXMPDOMSerializer_I@AdobeXMPCore_Int@@@std@@QEAA@XZ 0000000180008d48 f i XMPDOMImplementationRegistryImpl.obj
 0001:00007d48       ??1?$shared_ptr@$$CBVIXMPPathSegment_I@AdobeXMPCore_Int@@@std@@QEAA@XZ 0000000180008d48 f i XMPCompositeNodeImpl.obj
 0001:00007d48       ??1?$shared_ptr@VIXMPDOMConfiguration_I@AdobeXMPCore_Int@@@std@@QEAA@XZ 0000000180008d48 f i RDFXMPDOMParserImpl.obj
 0001:00007d48       ??1?$shared_ptr@$$CBVIXMPStructureNode_I@AdobeXMPCore_Int@@@std@@QEAA@XZ 0000000180008d48 f i XMPMeta2-GetSet.obj
 0001:00007d7c       ??$?0VIError_I@AdobeXMPCommon_Int@@X@?$shared_ptr@$$CBVIError_I@AdobeXMPCommon_Int@@@std@@QEAA@AEBV?$shared_ptr@VIError_I@AdobeXMPCommon_Int@@@1@@Z 0000000180008d7c f i WXMPMeta.obj
 0001:00007d7c       ??0?$shared_ptr@VIXMPArrayNode_I@AdobeXMPCore_Int@@@std@@QEAA@AEBV01@@Z 0000000180008d7c f i XMPMeta2-GetSet.obj
 0001:00007d7c       ??0?$shared_ptr@$$CBVIError_v1@AdobeXMPCommon@@@std@@QEAA@AEBV01@@Z 0000000180008d7c f i XMPCommon:ErrorNotificationManagerImpl.obj
 0001:00007d7c       ??0?$shared_ptr@$$CBVIError_I@AdobeXMPCommon_Int@@@std@@QEAA@AEBV01@@Z 0000000180008d7c f i WXMPMeta.obj
 0001:00007d7c       ??0?$shared_ptr@VIXMPMetadata_I@AdobeXMPCore_Int@@@std@@QEAA@AEBV01@@Z 0000000180008d7c f i XMPDocOps-Utils2.obj
 0001:00007d7c       ??0?$shared_ptr@$$CBVIXMPNode_I@AdobeXMPCore_Int@@@std@@QEAA@AEBV01@@Z 0000000180008d7c f i XMPMeta2-GetSet.obj
 0001:00007d7c       ??0?$shared_ptr@$$CBVIUTF8String_I@AdobeXMPCommon_Int@@@std@@QEAA@AEBV01@@Z 0000000180008d7c f i XMPNameSpacePrefixMapImpl.obj
 0001:00007d7c       ??0?$shared_ptr@VIXMPNode_I@AdobeXMPCore_Int@@@std@@QEAA@AEBV01@@Z 0000000180008d7c f i XMPArrayNodeImpl.obj
 0001:00007d7c       ??$?0VIXMPNode_I@AdobeXMPCore_Int@@X@?$shared_ptr@$$CBVIXMPNode_I@AdobeXMPCore_Int@@@std@@QEAA@AEBV?$shared_ptr@VIXMPNode_I@AdobeXMPCore_Int@@@1@@Z 0000000180008d7c f i XMPArrayNodeImpl.obj
 0001:00007d7c       ??$?0VIUTF8String_I@AdobeXMPCommon_Int@@X@?$shared_ptr@$$CBVIUTF8String_I@AdobeXMPCommon_Int@@@std@@QEAA@AEBV?$shared_ptr@VIUTF8String_I@AdobeXMPCommon_Int@@@1@@Z 0000000180008d7c f i XMPMetadataImpl.obj
 0001:00007df4       WXMPUtils_ComposeArrayItemPath_1 0000000180008df4 f   WXMPUtils.obj
 0001:00007f5c       WXMPUtils_ComposeStructFieldPath_1 0000000180008f5c f   WXMPUtils.obj
 0001:000081bc       WXMPUtils_ComposeQualifierPath_1 00000001800091bc f   WXMPUtils.obj
 0001:0000841c       WXMPUtils_ComposeLangSelector_1 000000018000941c f   WXMPUtils.obj
 0001:00008604       WXMPUtils_ComposeFieldSelector_1 0000000180009604 f   WXMPUtils.obj
 0001:00008884       WXMPUtils_ConvertFromBool_1 0000000180009884 f   WXMPUtils.obj
 0001:00008968       WXMPUtils_ConvertFromInt_1 0000000180009968 f   WXMPUtils.obj
 0001:00008a1c       WXMPUtils_ConvertFromInt64_1 0000000180009a1c f   WXMPUtils.obj
 0001:00008ad0       WXMPUtils_ConvertFromFloat_1 0000000180009ad0 f   WXMPUtils.obj
 0001:00008b84       WXMPUtils_ConvertFromDate_1 0000000180009b84 f   WXMPUtils.obj
 0001:00008c1c       WXMPUtils_ConvertToBool_1  0000000180009c1c f   WXMPUtils.obj
 0001:00008c94       WXMPUtils_ConvertToInt_1   0000000180009c94 f   WXMPUtils.obj
 0001:00008d08       WXMPUtils_ConvertToInt64_1 0000000180009d08 f   WXMPUtils.obj
 0001:00008d80       WXMPUtils_ConvertToFloat_1 0000000180009d80 f   WXMPUtils.obj
 0001:00008df8       WXMPUtils_ConvertToDate_1  0000000180009df8 f   WXMPUtils.obj
 0001:00008e5c       WXMPUtils_CurrentDateTime_1 0000000180009e5c f   WXMPUtils.obj
 0001:00008ec0       WXMPUtils_SetTimeZone_1    0000000180009ec0 f   WXMPUtils.obj
 0001:00008f24       WXMPUtils_ConvertToUTCTime_1 0000000180009f24 f   WXMPUtils.obj
 0001:00008f88       WXMPUtils_ConvertToLocalTime_1 0000000180009f88 f   WXMPUtils.obj
 0001:00008fec       WXMPUtils_CompareDateTime_1 0000000180009fec f   WXMPUtils.obj
 0001:00009008       WXMPUtils_EncodeToBase64_1 000000018000a008 f   WXMPUtils.obj
 0001:000090a8       WXMPUtils_DecodeFromBase64_1 000000018000a0a8 f   WXMPUtils.obj
 0001:00009148       WXMPUtils_PackageForJPEG_1 000000018000a148 f   WXMPUtils.obj
 0001:00009370       WXMPUtils_MergeFromJPEG_1  000000018000a370 f   WXMPUtils.obj
 0001:00009538       WXMPUtils_CatenateArrayItems_1 000000018000a538 f   WXMPUtils.obj
 0001:000097b0       WXMPUtils_SeparateArrayItems_1 000000018000a7b0 f   WXMPUtils.obj
 0001:000099a0       WXMPUtils_ApplyTemplate_1  000000018000a9a0 f   WXMPUtils.obj
 0001:00009ab8       WXMPUtils_RemoveProperties_1 000000018000aab8 f   WXMPUtils.obj
 0001:00009bd8       WXMPUtils_AppendProperties_1 000000018000abd8 f   WXMPUtils.obj
 0001:00009da0       WXMPUtils_DuplicateSubtree_1 000000018000ada0 f   WXMPUtils.obj
 0001:0000a024       WXMPUtils_CollectMultiFileXMP_1 000000018000b024 f   WXMPUtils.obj
 0001:0000a1e4       WXMPUtils_DistributeMultiFileXMP_1 000000018000b1e4 f   WXMPUtils.obj
 0001:0000a3a4       WXMPUtils_IsPropertyMultiValued_1 000000018000b3a4 f   WXMPUtils.obj
 0001:0000a520       WXMPUtils_GetDateRange_1   000000018000b520 f   WXMPUtils.obj
 0001:0000a6c0       WXMPUtils_GetMergedListPath_1 000000018000b6c0 f   WXMPUtils.obj
 0001:0000a8ec       WXMPUtils_RemoveMultiValueInfo_1 000000018000b8ec f   WXMPUtils.obj
 0001:0000a9f8       WXMPUtils_GetBulkMarkers_1 000000018000b9f8 f   WXMPUtils.obj
 0001:0000ab48       WXMPUtils_SetBulkMarkers_1 000000018000bb48 f   WXMPUtils.obj
 0001:0000ac84       ??1bad_exception@std@@UEAA@XZ 000000018000bc84 f i XMPArrayNodeImpl.obj
 0001:0000ac98       ??_Ebad_exception@std@@UEAAPEAXI@Z 000000018000bc98 f i * CIL library *:* CIL module *
 0001:0000ac98       ??_Gbad_exception@std@@UEAAPEAXI@Z 000000018000bc98 f i XMPArrayNodeImpl.obj
 0001:0000acd4       ?Lock@SharedMutexImpl@AdobeXMPCommon_Int@@UEAA?AW4eMutexErr@ISharedMutex_I@2@XZ 000000018000bcd4 f i XMPCommon:SharedMutexImpl.obj
 0001:0000acd4       ?_Get_deleter@_Ref_count_base@std@@UEBAPEAXAEBVtype_info@@@Z 000000018000bcd4 f i XMPArrayNodeImpl.obj
 0001:0000acd4       ?LockShared@SharedMutexImpl@AdobeXMPCommon_Int@@UEAA?AW4eMutexErr@ISharedMutex_I@2@XZ 000000018000bcd4 f i XMPCommon:SharedMutexImpl.obj
 0001:0000acd4       ?TryLockShared@SharedMutexImpl@AdobeXMPCommon_Int@@UEAA?AW4eMutexErr@ISharedMutex_I@2@XZ 000000018000bcd4 f i XMPCommon:SharedMutexImpl.obj
 0001:0000acd4       ?TryLock@SharedMutexImpl@AdobeXMPCommon_Int@@UEAA?AW4eMutexErr@ISharedMutex_I@2@XZ 000000018000bcd4 f i XMPCommon:SharedMutexImpl.obj
 0001:0000acd4       ?Reallocate@InternalClientAllocator@@UEAAPEAXPEAX_K@Z 000000018000bcd4 f i XMPMeta.obj
 0001:0000acd4       ?Unlock@SharedMutexImpl@AdobeXMPCommon_Int@@UEAA?AW4eMutexErr@ISharedMutex_I@2@XZ 000000018000bcd4 f i XMPCommon:SharedMutexImpl.obj
 0001:0000acd4       ?GetNodeType@XMPSimpleNodeImpl@AdobeXMPCore_Int@@UEBA?AW4eXMPNodeType@IXMPNode_v1@AdobeXMPCore@@XZ 000000018000bcd4 f i XMPSimpleNodeImpl.obj
 0001:0000acd4       ?UnlockShared@SharedMutexImpl@AdobeXMPCommon_Int@@UEAA?AW4eMutexErr@ISharedMutex_I@2@XZ 000000018000bcd4 f i XMPCommon:SharedMutexImpl.obj
 0001:0000acd8       ??_E?$_Ref_count_del_alloc@VSharedMutexImpl@AdobeXMPCommon_Int@@V?$_Mem_fn_wrap@XP8IntrusiveRefCountSharedOwnership@AdobeXMPCommon_Int@@EBAXXZ$$CBV12@$$$V@std@@V?$TAllocator@VSharedMutexImpl@AdobeXMPCommon_Int@@@2@@std@@UEAAPEAXI@Z 000000018000bcd8 f i * CIL library *:* CIL module *
 0001:0000acd8       ??_G?$_Ref_count_del_alloc@VXMPPathImpl@AdobeXMPCore_Int@@V?$_Mem_fn_wrap@XP8IntrusiveRefCountSharedOwnership@AdobeXMPCommon_Int@@EBAXXZ$$CBV12@$$$V@std@@V?$TAllocator@VXMPPathImpl@AdobeXMPCore_Int@@@AdobeXMPCommon_Int@@@std@@UEAAPEAXI@Z 000000018000bcd8 f i XMPPathImpl.obj
 0001:0000acd8       ??_E?$_Ref_count_del_alloc@VXMPPathImpl@AdobeXMPCore_Int@@V?$_Mem_fn_wrap@XP8IntrusiveRefCountSharedOwnership@AdobeXMPCommon_Int@@EBAXXZ$$CBV12@$$$V@std@@V?$TAllocator@VXMPPathImpl@AdobeXMPCore_Int@@@AdobeXMPCommon_Int@@@std@@UEAAPEAXI@Z 000000018000bcd8 f i * CIL library *:* CIL module *
 0001:0000acd8       ??_G?$_Ref_count_del_alloc@VIConfigurationManager_I@AdobeXMPCommon_Int@@V?$_Mem_fn_wrap@XP8ISharedOwnership_v1@AdobeXMPCommon@@EBAXXZ$$CBV12@$$$V@std@@V?$TAllocator@VIConfigurationManager_I@AdobeXMPCommon_Int@@@2@@std@@UEAAPEAXI@Z 000000018000bcd8 f i XMPCommon:XMPCommon.obj
 0001:0000acd8       ??_E?$_Ref_count_del_alloc@VRDFXMPDOMSerializerImpl@AdobeXMPCore_Int@@V?$_Mem_fn_wrap@XP8IntrusiveRefCountSharedOwnership@AdobeXMPCommon_Int@@EBAXXZ$$CBV12@$$$V@std@@V?$TAllocator@VRDFXMPDOMSerializerImpl@AdobeXMPCore_Int@@@AdobeXMPCommon_Int@@@std@@UEAAPEAXI@Z 000000018000bcd8 f i * CIL library *:* CIL module *
 0001:0000acd8       ??_E?$_Ref_count@VXMPMeta@@@std@@UEAAPEAXI@Z 000000018000bcd8 f i * CIL library *:* CIL module *
 0001:0000acd8       ??_E?$_Ref_count_del_alloc@VIClientAllocator_v1@AdobeXMPCommon@@V?$_Mem_fn_wrap@XP8ISharedOwnership_v1@AdobeXMPCommon@@EBAXXZ$$CBV12@$$$V@std@@V?$TAllocator@VIClientAllocator_v1@AdobeXMPCommon@@@AdobeXMPCommon_Int@@@std@@UEAAPEAXI@Z 000000018000bcd8 f i * CIL library *:* CIL module *
 0001:0000acd8       ??_G?$_Ref_count_del_alloc@$$CBVIUTF8String_I@AdobeXMPCommon_Int@@V?$_Mem_fn_wrap@XP8ISharedOwnership_v1@AdobeXMPCommon@@EBAXXZ$$CBV12@$$$V@std@@V?$TAllocator@$$CBVIUTF8String_I@AdobeXMPCommon_Int@@@2@@std@@UEAAPEAXI@Z 000000018000bcd8 f i XMPCommon:UTF8StringImpl.obj
 0001:0000acd8       ??_G?$_Ref_count_del_alloc@VXMPCompositeNodeImpl@AdobeXMPCore_Int@@V?$_Mem_fn_wrap@XP8XMPNodeImpl@AdobeXMPCore_Int@@EBAXXZ$$CBV12@$$$V@std@@V?$TAllocator@VXMPCompositeNodeImpl@AdobeXMPCore_Int@@@AdobeXMPCommon_Int@@@std@@UEAAPEAXI@Z 000000018000bcd8 f i XMPCompositeNodeImpl.obj
 0001:0000acd8       ??_G?$_Ref_count_del_alloc@VClientErrorNotifierWrapperImpl_v1@AdobeXMPCommon_Int@@V?$_Mem_fn_wrap@XP8IntrusiveRefCountSharedOwnership@AdobeXMPCommon_Int@@EBAXXZ$$CBV12@$$$V@std@@V?$TAllocator@VClientErrorNotifierWrapperImpl_v1@AdobeXMPCommon_Int@@@2@@std@@UEAAPEAXI@Z 000000018000bcd8 f i XMPCommon:ClientErrorNotifierWrapperImpl.obj
 0001:0000acd8       ??_G?$_Ref_count_del_alloc@VRDFXMPDOMSerializerImpl@AdobeXMPCore_Int@@V?$_Mem_fn_wrap@XP8IntrusiveRefCountSharedOwnership@AdobeXMPCommon_Int@@EBAXXZ$$CBV12@$$$V@std@@V?$TAllocator@VRDFXMPDOMSerializerImpl@AdobeXMPCore_Int@@@AdobeXMPCommon_Int@@@std@@UEAAPEAXI@Z 000000018000bcd8 f i XMPDOMImplementationRegistryImpl.obj
 0001:0000acd8       ??_E?$_Ref_count_del_alloc@VClientAllocatorWrapperImpl_v1@AdobeXMPCommon_Int@@V?$_Mem_fn_wrap@XP8IntrusiveRefCountSharedOwnership@AdobeXMPCommon_Int@@EBAXXZ$$CBV12@$$$V@std@@V?$TAllocator@VClientAllocatorWrapperImpl_v1@AdobeXMPCommon_Int@@@2@@std@@UEAAPEAXI@Z 000000018000bcd8 f i * CIL library *:* CIL module *
 0001:0000acd8       ??_G?$_Ref_count_del_alloc@VIXMPDOMImplementationRegistry_I@AdobeXMPCore_Int@@V?$_Mem_fn_wrap@XP8ISharedOwnership_v1@AdobeXMPCommon@@EBAXXZ$$CBV12@$$$V@std@@V?$TAllocator@VIXMPDOMImplementationRegistry_I@AdobeXMPCore_Int@@@AdobeXMPCommon_Int@@@std@@UEAAPEAXI@Z 000000018000bcd8 f i XMPCoreObjectFactoryImpl.obj
 0001:0000acd8       ??_G?$_Ref_count_del_alloc@VDefaultClientErrorNotifierImpl@AdobeXMPCommon_Int@@V?$_Mem_fn_wrap@XP8IntrusiveRefCountSharedOwnership@AdobeXMPCommon_Int@@EBAXXZ$$CBV12@$$$V@std@@V?$TAllocator@VDefaultClientErrorNotifierImpl@AdobeXMPCommon_Int@@@2@@std@@UEAAPEAXI@Z 000000018000bcd8 f i XMPCommon:ErrorNotificationManagerImpl.obj
 0001:0000acd8       ??_E?$_Ref_count_del_alloc@$$CBVIXMPPathSegment_I@AdobeXMPCore_Int@@V?$_Mem_fn_wrap@XP8ISharedOwnership_v1@AdobeXMPCommon@@EBAXXZ$$CBV12@$$$V@std@@V?$TAllocator@$$CBVIXMPPathSegment_I@AdobeXMPCore_Int@@@AdobeXMPCommon_Int@@@std@@UEAAPEAXI@Z 000000018000bcd8 f i * CIL library *:* CIL module *
 0001:0000acd8       ??_E?$_Ref_count_del_alloc@VClientErrorNotifierWrapperImpl_v1@AdobeXMPCommon_Int@@V?$_Mem_fn_wrap@XP8IntrusiveRefCountSharedOwnership@AdobeXMPCommon_Int@@EBAXXZ$$CBV12@$$$V@std@@V?$TAllocator@VClientErrorNotifierWrapperImpl_v1@AdobeXMPCommon_Int@@@2@@std@@UEAAPEAXI@Z 000000018000bcd8 f i * CIL library *:* CIL module *
 0001:0000acd8       ??_G?$_Ref_count_del_alloc@$$CBVIXMPPathSegment_I@AdobeXMPCore_Int@@V?$_Mem_fn_wrap@XP8ISharedOwnership_v1@AdobeXMPCommon@@EBAXXZ$$CBV12@$$$V@std@@V?$TAllocator@$$CBVIXMPPathSegment_I@AdobeXMPCore_Int@@@AdobeXMPCommon_Int@@@std@@UEAAPEAXI@Z 000000018000bcd8 f i XMPPathImpl.obj
 0001:0000acd8       ??_E?$_Ref_count_del_alloc@V?$TXMPNodeIteratorImpl@V?$_Vector_iterator@V?$_Vector_val@U?$_Simple_types@V?$shared_ptr@VIXMPNode_I@AdobeXMPCore_Int@@@std@@@std@@@std@@@std@@@AdobeXMPCore_Int@@V?$_Mem_fn_wrap@XP8IntrusiveRefCountSharedOwnership@AdobeXMPCommon_Int@@EBAXXZ$$CBV12@$$$V@std@@V?$TAllocator@V?$TXMPNodeIteratorImpl@V?$_Vector_iterator@V?$_Vector_val@U?$_Simple_types@V?$shared_ptr@VIXMPNode_I@AdobeXMPCore_Int@@@std@@@std@@@std@@@std@@@AdobeXMPCore_Int@@@AdobeXMPCommon_Int@@@std@@UEAAPEAXI@Z 000000018000bcd8 f i * CIL library *:* CIL module *
 0001:0000acd8       ??_G?$_Ref_count_del_alloc@VUTF8StringImpl@AdobeXMPCommon_Int@@V?$_Mem_fn_wrap@XP8IntrusiveRefCountSharedOwnership@AdobeXMPCommon_Int@@EBAXXZ$$CBV12@$$$V@std@@V?$TAllocator@VUTF8StringImpl@AdobeXMPCommon_Int@@@2@@std@@UEAAPEAXI@Z 000000018000bcd8 f i XMPCommon:UTF8StringImpl.obj
 0001:0000acd8       ??_G?$_Ref_count_del_alloc@V?$TXMPConstNodeIteratorImpl@V?$_Vector_const_iterator@V?$_Vector_val@U?$_Simple_types@V?$shared_ptr@VIXMPNode_I@AdobeXMPCore_Int@@@std@@@std@@@std@@@std@@@AdobeXMPCore_Int@@V?$_Mem_fn_wrap@XP8IntrusiveRefCountSharedOwnership@AdobeXMPCommon_Int@@EBAXXZ$$CBV12@$$$V@std@@V?$TAllocator@V?$TXMPConstNodeIteratorImpl@V?$_Vector_const_iterator@V?$_Vector_val@U?$_Simple_types@V?$shared_ptr@VIXMPNode_I@AdobeXMPCore_Int@@@std@@@std@@@std@@@std@@@AdobeXMPCore_Int@@@AdobeXMPCommon_Int@@@std@@UEAAPEAXI@Z 000000018000bcd8 f i XMPArrayNodeImpl.obj
 0001:0000acd8       ??_G?$_Ref_count_del_alloc@V?$TXMPConstNodeIteratorImpl@V?$_Tree_const_iterator@V?$_Tree_val@U?$_Tree_simple_types@U?$pair@$$CBUQualifiedName@XMPStructureNodeImpl@AdobeXMPCore_Int@@V?$shared_ptr@VIXMPNode_I@AdobeXMPCore_Int@@@std@@@std@@@std@@@std@@@std@@@AdobeXMPCore_Int@@V?$_Mem_fn_wrap@XP8IntrusiveRefCountSharedOwnership@AdobeXMPCommon_Int@@EBAXXZ$$CBV12@$$$V@std@@V?$TAllocator@V?$TXMPConstNodeIteratorImpl@V?$_Tree_const_iterator@V?$_Tree_val@U?$_Tree_simple_types@U?$pair@$$CBUQualifiedName@XMPStructureNodeImpl@AdobeXMPCore_Int@@V?$shared_ptr@VIXMPNode_I@AdobeXMPCore_Int@@@std@@@std@@@std@@@std@@@std@@@AdobeXMPCore_Int@@@AdobeXMPCommon_Int@@@std@@UEAAPEAXI@Z 000000018000bcd8 f i XMPStructureNodeImpl.obj
 0001:0000acd8       ??_E?$_Ref_count_del_alloc@VIXMPDOMImplementationRegistry_I@AdobeXMPCore_Int@@V?$_Mem_fn_wrap@XP8ISharedOwnership_v1@AdobeXMPCommon@@EBAXXZ$$CBV12@$$$V@std@@V?$TAllocator@VIXMPDOMImplementationRegistry_I@AdobeXMPCore_Int@@@AdobeXMPCommon_Int@@@std@@UEAAPEAXI@Z 000000018000bcd8 f i * CIL library *:* CIL module *
 0001:0000acd8       ??_G?$_Ref_count_del_alloc@VIXMPNode_I@AdobeXMPCore_Int@@V?$_Mem_fn_wrap@XP8ISharedOwnership_v1@AdobeXMPCommon@@EBAXXZ$$CBV12@$$$V@std@@V?$TAllocator@VIXMPNode_I@AdobeXMPCore_Int@@@AdobeXMPCommon_Int@@@std@@UEAAPEAXI@Z 000000018000bcd8 f i XMPArrayNodeImpl.obj
 0001:0000acd8       ??_E?$_Ref_count_del_alloc@$$CBVIXMPPath_I@AdobeXMPCore_Int@@V?$_Mem_fn_wrap@XP8ISharedOwnership_v1@AdobeXMPCommon@@EBAXXZ$$CBV12@$$$V@std@@V?$TAllocator@$$CBVIXMPPath_I@AdobeXMPCore_Int@@@AdobeXMPCommon_Int@@@std@@UEAAPEAXI@Z 000000018000bcd8 f i * CIL library *:* CIL module *
 0001:0000acd8       ??_G?$_Ref_count_del_alloc@$$CBVIError_v1@AdobeXMPCommon@@V?$_Mem_fn_wrap@XP8ISharedOwnership_v1@AdobeXMPCommon@@EBAXXZ$$CBV12@$$$V@std@@V?$TAllocator@$$CBVIError_v1@AdobeXMPCommon@@@AdobeXMPCommon_Int@@@std@@UEAAPEAXI@Z 000000018000bcd8 f i XMPCommon:ClientAllocatorWrapperImpl.obj
 0001:0000acd8       ??_G?$_Ref_count_del_alloc@VXMPMetadataImpl@AdobeXMPCore_Int@@V?$_Mem_fn_wrap@XP8XMPNodeImpl@AdobeXMPCore_Int@@EBAXXZ$$CBV12@$$$V@std@@V?$TAllocator@VXMPMetadataImpl@AdobeXMPCore_Int@@@AdobeXMPCommon_Int@@@std@@UEAAPEAXI@Z 000000018000bcd8 f i XMPMetadataImpl.obj
 0001:0000acd8       ??_E?$_Ref_count_del_alloc@VXMPCompositeNodeImpl@AdobeXMPCore_Int@@V?$_Mem_fn_wrap@XP8XMPNodeImpl@AdobeXMPCore_Int@@EBAXXZ$$CBV12@$$$V@std@@V?$TAllocator@VXMPCompositeNodeImpl@AdobeXMPCore_Int@@@AdobeXMPCommon_Int@@@std@@UEAAPEAXI@Z 000000018000bcd8 f i * CIL library *:* CIL module *
 0001:0000acd8       ??_G?$_Ref_count@VXMPMeta@@@std@@UEAAPEAXI@Z 000000018000bcd8 f i RDFXMPDOMParserImpl.obj
 0001:0000acd8       ??_G?$_Ref_count_del_alloc@VXMPArrayNodeImpl@AdobeXMPCore_Int@@V?$_Mem_fn_wrap@XP8XMPNodeImpl@AdobeXMPCore_Int@@EBAXXZ$$CBV12@$$$V@std@@V?$TAllocator@VXMPArrayNodeImpl@AdobeXMPCore_Int@@@AdobeXMPCommon_Int@@@std@@UEAAPEAXI@Z 000000018000bcd8 f i XMPArrayNodeImpl.obj
 0001:0000acd8       ??_E?$_Ref_count_del_alloc@VRDFXMPDOMParserImpl@AdobeXMPCore_Int@@V?$_Mem_fn_wrap@XP8IntrusiveRefCountSharedOwnership@AdobeXMPCommon_Int@@EBAXXZ$$CBV12@$$$V@std@@V?$TAllocator@VRDFXMPDOMParserImpl@AdobeXMPCore_Int@@@AdobeXMPCommon_Int@@@std@@UEAAPEAXI@Z 000000018000bcd8 f i * CIL library *:* CIL module *
 0001:0000acd8       ??_G_Ref_count_base@std@@UEAAPEAXI@Z 000000018000bcd8 f i XMPArrayNodeImpl.obj
 0001:0000acd8       ??_G?$_Ref_count_del_alloc@VXMPQualifiersImpl@AdobeXMPCore_Int@@V?$_Mem_fn_wrap@XP8XMPNodeImpl@AdobeXMPCore_Int@@EBAXXZ$$CBV12@$$$V@std@@V?$TAllocator@VXMPQualifiersImpl@AdobeXMPCore_Int@@@AdobeXMPCommon_Int@@@std@@UEAAPEAXI@Z 000000018000bcd8 f i XMPQualifiersImpl.obj
 0001:0000acd8       ??_G?$_Ref_count_del_alloc@VXMPPathSegmentImpl@AdobeXMPCore_Int@@V?$_Mem_fn_wrap@XP8IntrusiveRefCountSharedOwnership@AdobeXMPCommon_Int@@EBAXXZ$$CBV12@$$$V@std@@V?$TAllocator@VXMPPathSegmentImpl@AdobeXMPCore_Int@@@AdobeXMPCommon_Int@@@std@@UEAAPEAXI@Z 000000018000bcd8 f i XMPPathSegmentImpl.obj
 0001:0000acd8       ??_E?$_Ref_count_del_alloc@VUTF8StringImpl@AdobeXMPCommon_Int@@V?$_Mem_fn_wrap@XP8IntrusiveRefCountSharedOwnership@AdobeXMPCommon_Int@@EBAXXZ$$CBV12@$$$V@std@@V?$TAllocator@VUTF8StringImpl@AdobeXMPCommon_Int@@@2@@std@@UEAAPEAXI@Z 000000018000bcd8 f i * CIL library *:* CIL module *
 0001:0000acd8       ??_E?$_Ref_count_del_alloc@VXMPSimpleNodeImpl@AdobeXMPCore_Int@@V?$_Mem_fn_wrap@XP8XMPNodeImpl@AdobeXMPCore_Int@@EBAXXZ$$CBV12@$$$V@std@@V?$TAllocator@VXMPSimpleNodeImpl@AdobeXMPCore_Int@@@AdobeXMPCommon_Int@@@std@@UEAAPEAXI@Z 000000018000bcd8 f i * CIL library *:* CIL module *
 0001:0000acd8       ??_E?$_Ref_count_del_alloc@VXMPQualifiersImpl@AdobeXMPCore_Int@@V?$_Mem_fn_wrap@XP8XMPNodeImpl@AdobeXMPCore_Int@@EBAXXZ$$CBV12@$$$V@std@@V?$TAllocator@VXMPQualifiersImpl@AdobeXMPCore_Int@@@AdobeXMPCommon_Int@@@std@@UEAAPEAXI@Z 000000018000bcd8 f i * CIL library *:* CIL module *
 0001:0000acd8       ??_G?$_Ref_count_del_alloc@VRDFXMPDOMParserImpl@AdobeXMPCore_Int@@V?$_Mem_fn_wrap@XP8IntrusiveRefCountSharedOwnership@AdobeXMPCommon_Int@@EBAXXZ$$CBV12@$$$V@std@@V?$TAllocator@VRDFXMPDOMParserImpl@AdobeXMPCore_Int@@@AdobeXMPCommon_Int@@@std@@UEAAPEAXI@Z 000000018000bcd8 f i XMPDOMImplementationRegistryImpl.obj
 0001:0000acd8       ??_E?$_Ref_count_del_alloc@VIXMPSimpleNode_I@AdobeXMPCore_Int@@V?$_Mem_fn_wrap@XP8ISharedOwnership_v1@AdobeXMPCommon@@EBAXXZ$$CBV12@$$$V@std@@V?$TAllocator@VIXMPSimpleNode_I@AdobeXMPCore_Int@@@AdobeXMPCommon_Int@@@std@@UEAAPEAXI@Z 000000018000bcd8 f i * CIL library *:* CIL module *
 0001:0000acd8       ??_E?$_Ref_count_del_alloc@VXMPNameSpacePrefixMapImpl@AdobeXMPCore_Int@@V?$_Mem_fn_wrap@XP8IntrusiveRefCountSharedOwnership@AdobeXMPCommon_Int@@EBAXXZ$$CBV12@$$$V@std@@V?$TAllocator@VXMPNameSpacePrefixMapImpl@AdobeXMPCore_Int@@@AdobeXMPCommon_Int@@@std@@UEAAPEAXI@Z 000000018000bcd8 f i * CIL library *:* CIL module *
 0001:0000acd8       ??_E?$_Ref_count_del_alloc@VIConfigurationManager_I@AdobeXMPCommon_Int@@V?$_Mem_fn_wrap@XP8ISharedOwnership_v1@AdobeXMPCommon@@EBAXXZ$$CBV12@$$$V@std@@V?$TAllocator@VIConfigurationManager_I@AdobeXMPCommon_Int@@@2@@std@@UEAAPEAXI@Z 000000018000bcd8 f i * CIL library *:* CIL module *
 0001:0000acd8       ??_G?$_Ref_count_del_alloc@VIXMPArrayNode_I@AdobeXMPCore_Int@@V?$_Mem_fn_wrap@XP8ISharedOwnership_v1@AdobeXMPCommon@@EBAXXZ$$CBV12@$$$V@std@@V?$TAllocator@VIXMPArrayNode_I@AdobeXMPCore_Int@@@AdobeXMPCommon_Int@@@std@@UEAAPEAXI@Z 000000018000bcd8 f i XMPCompositeNodeImpl.obj
 0001:0000acd8       ??_E?$_Ref_count_del_alloc@VErrorImpl@AdobeXMPCommon_Int@@V?$_Mem_fn_wrap@XP8IntrusiveRefCountSharedOwnership@AdobeXMPCommon_Int@@EBAXXZ$$CBV12@$$$V@std@@V?$TAllocator@VErrorImpl@AdobeXMPCommon_Int@@@2@@std@@UEAAPEAXI@Z 000000018000bcd8 f i * CIL library *:* CIL module *
 0001:0000acd8       ??_G?$_Ref_count_del_alloc@VIXMPStructureNode_I@AdobeXMPCore_Int@@V?$_Mem_fn_wrap@XP8ISharedOwnership_v1@AdobeXMPCommon@@EBAXXZ$$CBV12@$$$V@std@@V?$TAllocator@VIXMPStructureNode_I@AdobeXMPCore_Int@@@AdobeXMPCommon_Int@@@std@@UEAAPEAXI@Z 000000018000bcd8 f i XMPCompositeNodeImpl.obj
 0001:0000acd8       ??_E?$_Ref_count_del_alloc@$$CBVIError_v1@AdobeXMPCommon@@V?$_Mem_fn_wrap@XP8ISharedOwnership_v1@AdobeXMPCommon@@EBAXXZ$$CBV12@$$$V@std@@V?$TAllocator@$$CBVIError_v1@AdobeXMPCommon@@@AdobeXMPCommon_Int@@@std@@UEAAPEAXI@Z 000000018000bcd8 f i * CIL library *:* CIL module *
 0001:0000acd8       ??_E?$_Ref_count_del_alloc@$$CBVIXMPNameSpacePrefixMap_I@AdobeXMPCore_Int@@V?$_Mem_fn_wrap@XP8ISharedOwnership_v1@AdobeXMPCommon@@EBAXXZ$$CBV12@$$$V@std@@V?$TAllocator@$$CBVIXMPNameSpacePrefixMap_I@AdobeXMPCore_Int@@@AdobeXMPCommon_Int@@@std@@UEAAPEAXI@Z 000000018000bcd8 f i * CIL library *:* CIL module *
 0001:0000acd8       ??_G?$_Ref_count_del_alloc@VErrorImpl@AdobeXMPCommon_Int@@V?$_Mem_fn_wrap@XP8IntrusiveRefCountSharedOwnership@AdobeXMPCommon_Int@@EBAXXZ$$CBV12@$$$V@std@@V?$TAllocator@VErrorImpl@AdobeXMPCommon_Int@@@2@@std@@UEAAPEAXI@Z 000000018000bcd8 f i XMPCommon:ErrorImpl.obj
 0001:0000acd8       ??_E?$_Ref_count_del_alloc@VXMPArrayNodeImpl@AdobeXMPCore_Int@@V?$_Mem_fn_wrap@XP8XMPNodeImpl@AdobeXMPCore_Int@@EBAXXZ$$CBV12@$$$V@std@@V?$TAllocator@VXMPArrayNodeImpl@AdobeXMPCore_Int@@@AdobeXMPCommon_Int@@@std@@UEAAPEAXI@Z 000000018000bcd8 f i * CIL library *:* CIL module *
 0001:0000acd8       ??_G?$_Ref_count_del_alloc@VXMPNameSpacePrefixMapImpl@AdobeXMPCore_Int@@V?$_Mem_fn_wrap@XP8IntrusiveRefCountSharedOwnership@AdobeXMPCommon_Int@@EBAXXZ$$CBV12@$$$V@std@@V?$TAllocator@VXMPNameSpacePrefixMapImpl@AdobeXMPCore_Int@@@AdobeXMPCommon_Int@@@std@@UEAAPEAXI@Z 000000018000bcd8 f i XMPNameSpacePrefixMapImpl.obj
 0001:0000acd8       ??_E?$_Ref_count_del_alloc@VDefaultClientErrorNotifierImpl@AdobeXMPCommon_Int@@V?$_Mem_fn_wrap@XP8IntrusiveRefCountSharedOwnership@AdobeXMPCommon_Int@@EBAXXZ$$CBV12@$$$V@std@@V?$TAllocator@VDefaultClientErrorNotifierImpl@AdobeXMPCommon_Int@@@2@@std@@UEAAPEAXI@Z 000000018000bcd8 f i * CIL library *:* CIL module *
 0001:0000acd8       ??_E?$_Ref_count_del_alloc@VXMPPathSegmentImpl@AdobeXMPCore_Int@@V?$_Mem_fn_wrap@XP8IntrusiveRefCountSharedOwnership@AdobeXMPCommon_Int@@EBAXXZ$$CBV12@$$$V@std@@V?$TAllocator@VXMPPathSegmentImpl@AdobeXMPCore_Int@@@AdobeXMPCommon_Int@@@std@@UEAAPEAXI@Z 000000018000bcd8 f i * CIL library *:* CIL module *
 0001:0000acd8       ??_G?$_Ref_count_del_alloc@$$CBVIXMPNameSpacePrefixMap_I@AdobeXMPCore_Int@@V?$_Mem_fn_wrap@XP8ISharedOwnership_v1@AdobeXMPCommon@@EBAXXZ$$CBV12@$$$V@std@@V?$TAllocator@$$CBVIXMPNameSpacePrefixMap_I@AdobeXMPCore_Int@@@AdobeXMPCommon_Int@@@std@@UEAAPEAXI@Z 000000018000bcd8 f i XMPCoreObjectFactoryImpl.obj
 0001:0000acd8       ??_G?$_Ref_count_del_alloc@$$CBVIXMPPath_I@AdobeXMPCore_Int@@V?$_Mem_fn_wrap@XP8ISharedOwnership_v1@AdobeXMPCommon@@EBAXXZ$$CBV12@$$$V@std@@V?$TAllocator@$$CBVIXMPPath_I@AdobeXMPCore_Int@@@AdobeXMPCommon_Int@@@std@@UEAAPEAXI@Z 000000018000bcd8 f i XMPArrayNodeImpl.obj
 0001:0000acd8       ??_E?$_Ref_count_del_alloc@$$CBVIUTF8String_I@AdobeXMPCommon_Int@@V?$_Mem_fn_wrap@XP8ISharedOwnership_v1@AdobeXMPCommon@@EBAXXZ$$CBV12@$$$V@std@@V?$TAllocator@$$CBVIUTF8String_I@AdobeXMPCommon_Int@@@2@@std@@UEAAPEAXI@Z 000000018000bcd8 f i * CIL library *:* CIL module *
 0001:0000acd8       ??_G?$_Ref_count_del_alloc@VIClientAllocator_v1@AdobeXMPCommon@@V?$_Mem_fn_wrap@XP8ISharedOwnership_v1@AdobeXMPCommon@@EBAXXZ$$CBV12@$$$V@std@@V?$TAllocator@VIClientAllocator_v1@AdobeXMPCommon@@@AdobeXMPCommon_Int@@@std@@UEAAPEAXI@Z 000000018000bcd8 f i XMPCommon:ClientAllocatorWrapperImpl.obj
 0001:0000acd8       ??_G?$_Ref_count_del_alloc@VIXMPSimpleNode_I@AdobeXMPCore_Int@@V?$_Mem_fn_wrap@XP8ISharedOwnership_v1@AdobeXMPCommon@@EBAXXZ$$CBV12@$$$V@std@@V?$TAllocator@VIXMPSimpleNode_I@AdobeXMPCore_Int@@@AdobeXMPCommon_Int@@@std@@UEAAPEAXI@Z 000000018000bcd8 f i XMPCompositeNodeImpl.obj
 0001:0000acd8       ??_E?$_Ref_count_del_alloc@VIXMPArrayNode_I@AdobeXMPCore_Int@@V?$_Mem_fn_wrap@XP8ISharedOwnership_v1@AdobeXMPCommon@@EBAXXZ$$CBV12@$$$V@std@@V?$TAllocator@VIXMPArrayNode_I@AdobeXMPCore_Int@@@AdobeXMPCommon_Int@@@std@@UEAAPEAXI@Z 000000018000bcd8 f i * CIL library *:* CIL module *
 0001:0000acd8       ??_G?$_Ref_count_del_alloc@VSharedMutexImpl@AdobeXMPCommon_Int@@V?$_Mem_fn_wrap@XP8IntrusiveRefCountSharedOwnership@AdobeXMPCommon_Int@@EBAXXZ$$CBV12@$$$V@std@@V?$TAllocator@VSharedMutexImpl@AdobeXMPCommon_Int@@@2@@std@@UEAAPEAXI@Z 000000018000bcd8 f i XMPCommon:SharedMutexImpl.obj
 0001:0000acd8       ??_E?$_Ref_count_del_alloc@V?$TXMPConstNodeIteratorImpl@V?$_Tree_const_iterator@V?$_Tree_val@U?$_Tree_simple_types@U?$pair@$$CBUQualifiedName@XMPStructureNodeImpl@AdobeXMPCore_Int@@V?$shared_ptr@VIXMPNode_I@AdobeXMPCore_Int@@@std@@@std@@@std@@@std@@@std@@@AdobeXMPCore_Int@@V?$_Mem_fn_wrap@XP8IntrusiveRefCountSharedOwnership@AdobeXMPCommon_Int@@EBAXXZ$$CBV12@$$$V@std@@V?$TAllocator@V?$TXMPConstNodeIteratorImpl@V?$_Tree_const_iterator@V?$_Tree_val@U?$_Tree_simple_types@U?$pair@$$CBUQualifiedName@XMPStructureNodeImpl@AdobeXMPCore_Int@@V?$shared_ptr@VIXMPNode_I@AdobeXMPCore_Int@@@std@@@std@@@std@@@std@@@std@@@AdobeXMPCore_Int@@@AdobeXMPCommon_Int@@@std@@UEAAPEAXI@Z 000000018000bcd8 f i * CIL library *:* CIL module *
 0001:0000acd8       ??_G?$_Ref_count_del_alloc@VXMPStructureNodeImpl@AdobeXMPCore_Int@@V?$_Mem_fn_wrap@XP8XMPNodeImpl@AdobeXMPCore_Int@@EBAXXZ$$CBV12@$$$V@std@@V?$TAllocator@VXMPStructureNodeImpl@AdobeXMPCore_Int@@@AdobeXMPCommon_Int@@@std@@UEAAPEAXI@Z 000000018000bcd8 f i XMPStructureNodeImpl.obj
 0001:0000acd8       ??_G?$_Ref_count_del_alloc@VIClientErrorNotifier_v1@AdobeXMPCommon@@V?$_Mem_fn_wrap@XP8ISharedOwnership_v1@AdobeXMPCommon@@EBAXXZ$$CBV12@$$$V@std@@V?$TAllocator@VIClientErrorNotifier_v1@AdobeXMPCommon@@@AdobeXMPCommon_Int@@@std@@UEAAPEAXI@Z 000000018000bcd8 f i XMPCommon:ClientErrorNotifierWrapperImpl.obj
 0001:0000acd8       ??_E?$_Ref_count_del_alloc@VIXMPQualifiers_I@AdobeXMPCore_Int@@V?$_Mem_fn_wrap@XP8ISharedOwnership_v1@AdobeXMPCommon@@EBAXXZ$$CBV12@$$$V@std@@V?$TAllocator@VIXMPQualifiers_I@AdobeXMPCore_Int@@@AdobeXMPCommon_Int@@@std@@UEAAPEAXI@Z 000000018000bcd8 f i * CIL library *:* CIL module *
 0001:0000acd8       ??_G?$_Ref_count_del_alloc@VXMPSimpleNodeImpl@AdobeXMPCore_Int@@V?$_Mem_fn_wrap@XP8XMPNodeImpl@AdobeXMPCore_Int@@EBAXXZ$$CBV12@$$$V@std@@V?$TAllocator@VXMPSimpleNodeImpl@AdobeXMPCore_Int@@@AdobeXMPCommon_Int@@@std@@UEAAPEAXI@Z 000000018000bcd8 f i XMPSimpleNodeImpl.obj
 0001:0000acd8       ??_E_Ref_count_base@std@@UEAAPEAXI@Z 000000018000bcd8 f i * CIL library *:* CIL module *
 0001:0000acd8       ??_G?$_Ref_count_del_alloc@V?$TXMPNodeIteratorImpl@V?$_Vector_iterator@V?$_Vector_val@U?$_Simple_types@V?$shared_ptr@VIXMPNode_I@AdobeXMPCore_Int@@@std@@@std@@@std@@@std@@@AdobeXMPCore_Int@@V?$_Mem_fn_wrap@XP8IntrusiveRefCountSharedOwnership@AdobeXMPCommon_Int@@EBAXXZ$$CBV12@$$$V@std@@V?$TAllocator@V?$TXMPNodeIteratorImpl@V?$_Vector_iterator@V?$_Vector_val@U?$_Simple_types@V?$shared_ptr@VIXMPNode_I@AdobeXMPCore_Int@@@std@@@std@@@std@@@std@@@AdobeXMPCore_Int@@@AdobeXMPCommon_Int@@@std@@UEAAPEAXI@Z 000000018000bcd8 f i XMPArrayNodeImpl.obj
 0001:0000acd8       ??_E?$_Ref_count_del_alloc@VXMPStructureNodeImpl@AdobeXMPCore_Int@@V?$_Mem_fn_wrap@XP8XMPNodeImpl@AdobeXMPCore_Int@@EBAXXZ$$CBV12@$$$V@std@@V?$TAllocator@VXMPStructureNodeImpl@AdobeXMPCore_Int@@@AdobeXMPCommon_Int@@@std@@UEAAPEAXI@Z 000000018000bcd8 f i * CIL library *:* CIL module *
 0001:0000acd8       ??_E?$_Ref_count_del_alloc@VIXMPNode_I@AdobeXMPCore_Int@@V?$_Mem_fn_wrap@XP8ISharedOwnership_v1@AdobeXMPCommon@@EBAXXZ$$CBV12@$$$V@std@@V?$TAllocator@VIXMPNode_I@AdobeXMPCore_Int@@@AdobeXMPCommon_Int@@@std@@UEAAPEAXI@Z 000000018000bcd8 f i * CIL library *:* CIL module *
 0001:0000acd8       ??_E?$_Ref_count_del_alloc@VIXMPMetadata_I@AdobeXMPCore_Int@@V?$_Mem_fn_wrap@XP8ISharedOwnership_v1@AdobeXMPCommon@@EBAXXZ$$CBV12@$$$V@std@@V?$TAllocator@VIXMPMetadata_I@AdobeXMPCore_Int@@@AdobeXMPCommon_Int@@@std@@UEAAPEAXI@Z 000000018000bcd8 f i * CIL library *:* CIL module *
 0001:0000acd8       ??_E?$_Ref_count_del_alloc@V?$TXMPNodeIteratorImpl@V?$_Tree_iterator@V?$_Tree_val@U?$_Tree_simple_types@U?$pair@$$CBUQualifiedName@XMPStructureNodeImpl@AdobeXMPCore_Int@@V?$shared_ptr@VIXMPNode_I@AdobeXMPCore_Int@@@std@@@std@@@std@@@std@@@std@@@AdobeXMPCore_Int@@V?$_Mem_fn_wrap@XP8IntrusiveRefCountSharedOwnership@AdobeXMPCommon_Int@@EBAXXZ$$CBV12@$$$V@std@@V?$TAllocator@V?$TXMPNodeIteratorImpl@V?$_Tree_iterator@V?$_Tree_val@U?$_Tree_simple_types@U?$pair@$$CBUQualifiedName@XMPStructureNodeImpl@AdobeXMPCore_Int@@V?$shared_ptr@VIXMPNode_I@AdobeXMPCore_Int@@@std@@@std@@@std@@@std@@@std@@@AdobeXMPCore_Int@@@AdobeXMPCommon_Int@@@std@@UEAAPEAXI@Z 000000018000bcd8 f i * CIL library *:* CIL module *
 0001:0000acd8       ??_G?$_Ref_count_del_alloc@V?$TXMPNodeIteratorImpl@V?$_Tree_iterator@V?$_Tree_val@U?$_Tree_simple_types@U?$pair@$$CBUQualifiedName@XMPStructureNodeImpl@AdobeXMPCore_Int@@V?$shared_ptr@VIXMPNode_I@AdobeXMPCore_Int@@@std@@@std@@@std@@@std@@@std@@@AdobeXMPCore_Int@@V?$_Mem_fn_wrap@XP8IntrusiveRefCountSharedOwnership@AdobeXMPCommon_Int@@EBAXXZ$$CBV12@$$$V@std@@V?$TAllocator@V?$TXMPNodeIteratorImpl@V?$_Tree_iterator@V?$_Tree_val@U?$_Tree_simple_types@U?$pair@$$CBUQualifiedName@XMPStructureNodeImpl@AdobeXMPCore_Int@@V?$shared_ptr@VIXMPNode_I@AdobeXMPCore_Int@@@std@@@std@@@std@@@std@@@std@@@AdobeXMPCore_Int@@@AdobeXMPCommon_Int@@@std@@UEAAPEAXI@Z 000000018000bcd8 f i XMPStructureNodeImpl.obj
 0001:0000acd8       ??_G?$_Ref_count_del_alloc@VClientAllocatorWrapperImpl_v1@AdobeXMPCommon_Int@@V?$_Mem_fn_wrap@XP8IntrusiveRefCountSharedOwnership@AdobeXMPCommon_Int@@EBAXXZ$$CBV12@$$$V@std@@V?$TAllocator@VClientAllocatorWrapperImpl_v1@AdobeXMPCommon_Int@@@2@@std@@UEAAPEAXI@Z 000000018000bcd8 f i XMPCommon:ClientAllocatorWrapperImpl.obj
 0001:0000acd8       ??_E?$_Ref_count_del_alloc@V?$TXMPConstNodeIteratorImpl@V?$_Vector_const_iterator@V?$_Vector_val@U?$_Simple_types@V?$shared_ptr@VIXMPNode_I@AdobeXMPCore_Int@@@std@@@std@@@std@@@std@@@AdobeXMPCore_Int@@V?$_Mem_fn_wrap@XP8IntrusiveRefCountSharedOwnership@AdobeXMPCommon_Int@@EBAXXZ$$CBV12@$$$V@std@@V?$TAllocator@V?$TXMPConstNodeIteratorImpl@V?$_Vector_const_iterator@V?$_Vector_val@U?$_Simple_types@V?$shared_ptr@VIXMPNode_I@AdobeXMPCore_Int@@@std@@@std@@@std@@@std@@@AdobeXMPCore_Int@@@AdobeXMPCommon_Int@@@std@@UEAAPEAXI@Z 000000018000bcd8 f i * CIL library *:* CIL module *
 0001:0000acd8       ??_G?$_Ref_count_del_alloc@VInternalClientAllocator@@V?$_Mem_fn_wrap@XP8IntrusiveRefCountSharedOwnership@AdobeXMPCommon_Int@@EBAXXZ$$CBV12@$$$V@std@@V?$TAllocator@VInternalClientAllocator@@@AdobeXMPCommon_Int@@@std@@UEAAPEAXI@Z 000000018000bcd8 f i XMPMeta.obj
 0001:0000acd8       ??_E?$_Ref_count_del_alloc@VInternalClientAllocator@@V?$_Mem_fn_wrap@XP8IntrusiveRefCountSharedOwnership@AdobeXMPCommon_Int@@EBAXXZ$$CBV12@$$$V@std@@V?$TAllocator@VInternalClientAllocator@@@AdobeXMPCommon_Int@@@std@@UEAAPEAXI@Z 000000018000bcd8 f i * CIL library *:* CIL module *
 0001:0000acd8       ??_E?$_Ref_count_del_alloc@VXMPMetadataImpl@AdobeXMPCore_Int@@V?$_Mem_fn_wrap@XP8XMPNodeImpl@AdobeXMPCore_Int@@EBAXXZ$$CBV12@$$$V@std@@V?$TAllocator@VXMPMetadataImpl@AdobeXMPCore_Int@@@AdobeXMPCommon_Int@@@std@@UEAAPEAXI@Z 000000018000bcd8 f i * CIL library *:* CIL module *
 0001:0000acd8       ??_E?$_Ref_count_del_alloc@VIClientErrorNotifier_v1@AdobeXMPCommon@@V?$_Mem_fn_wrap@XP8ISharedOwnership_v1@AdobeXMPCommon@@EBAXXZ$$CBV12@$$$V@std@@V?$TAllocator@VIClientErrorNotifier_v1@AdobeXMPCommon@@@AdobeXMPCommon_Int@@@std@@UEAAPEAXI@Z 000000018000bcd8 f i * CIL library *:* CIL module *
 0001:0000acd8       ??_G?$_Ref_count_del_alloc@VIXMPMetadata_I@AdobeXMPCore_Int@@V?$_Mem_fn_wrap@XP8ISharedOwnership_v1@AdobeXMPCommon@@EBAXXZ$$CBV12@$$$V@std@@V?$TAllocator@VIXMPMetadata_I@AdobeXMPCore_Int@@@AdobeXMPCommon_Int@@@std@@UEAAPEAXI@Z 000000018000bcd8 f i XMPMeta2-GetSet.obj
 0001:0000acd8       ??_E?$_Ref_count_del_alloc@VIXMPStructureNode_I@AdobeXMPCore_Int@@V?$_Mem_fn_wrap@XP8ISharedOwnership_v1@AdobeXMPCommon@@EBAXXZ$$CBV12@$$$V@std@@V?$TAllocator@VIXMPStructureNode_I@AdobeXMPCore_Int@@@AdobeXMPCommon_Int@@@std@@UEAAPEAXI@Z 000000018000bcd8 f i * CIL library *:* CIL module *
 0001:0000acd8       ??_G?$_Ref_count_del_alloc@VIXMPQualifiers_I@AdobeXMPCore_Int@@V?$_Mem_fn_wrap@XP8ISharedOwnership_v1@AdobeXMPCommon@@EBAXXZ$$CBV12@$$$V@std@@V?$TAllocator@VIXMPQualifiers_I@AdobeXMPCore_Int@@@AdobeXMPCommon_Int@@@std@@UEAAPEAXI@Z 000000018000bcd8 f i XMPCompositeNodeImpl.obj
 0001:0000ad00       ?Destroy@ISharedOwnership_v1@AdobeXMPCommon@@MEAAXXZ 000000018000bd00 f i XMPArrayNodeImpl.obj
 0001:0000ad1c       ??1ISharedOwnership_v1@AdobeXMPCommon@@MEAA@XZ 000000018000bd1c f i XMPArrayNodeImpl.obj
 0001:0000ad28       ??0bad_exception@std@@QEAA@AEBV01@@Z 000000018000bd28 f i XMPArrayNodeImpl.obj
 0001:0000ad4c       ??1IXMPNode_v1@AdobeXMPCore@@MEAA@XZ 000000018000bd4c f i XMPArrayNodeImpl.obj
 0001:0000ad6c       ??1IXMPCompositeNode_v1@AdobeXMPCore@@MEAA@XZ 000000018000bd6c f i XMPArrayNodeImpl.obj
 0001:0000ada0       ??1IXMPArrayNode_v1@AdobeXMPCore@@MEAA@XZ 000000018000bda0 f i XMPArrayNodeImpl.obj
 0001:0000ade8       ??1ISharedOwnership_I@AdobeXMPCommon_Int@@MEAA@XZ 000000018000bde8 f i XMPArrayNodeImpl.obj
 0001:0000ae08       ??1IXMPNode_I@AdobeXMPCore_Int@@MEAA@XZ 000000018000be08 f i XMPArrayNodeImpl.obj
 0001:0000ae64       ?GetParent@IXMPNode_I@AdobeXMPCore_Int@@MEBAPEBVIXMPNode_v1@AdobeXMPCore@@AEAPEBVIError_v1@AdobeXMPCommon@@@Z 000000018000be64 f i XMPArrayNodeImpl.obj
 0001:0000aea4       ?GetDOMConfiguration@IXMPDOMSerializer_I@AdobeXMPCore_Int@@MEAAPEAVIXMPDOMConfiguration_v1@AdobeXMPCore@@AEAPEBVIError_v1@AdobeXMPCommon@@@Z 000000018000bea4 f i RDFXMPDOMSerializerImpl.obj
 0001:0000aea4       ?GetParent@IXMPNode_I@AdobeXMPCore_Int@@MEAAPEAVIXMPNode_v1@AdobeXMPCore@@AEAPEBVIError_v1@AdobeXMPCommon@@@Z 000000018000bea4 f i XMPArrayNodeImpl.obj
 0001:0000aea4       ?GetDOMConfiguration@IXMPDOMParser_I@AdobeXMPCore_Int@@MEAAPEAVIXMPDOMConfiguration_v1@AdobeXMPCore@@AEAPEBVIError_v1@AdobeXMPCommon@@@Z 000000018000bea4 f i RDFXMPDOMParserImpl.obj
 0001:0000aee4       ?GetName@IXMPNode_I@AdobeXMPCore_Int@@MEBAPEBVIUTF8String_v1@AdobeXMPCommon@@AEAPEBVIError_v1@4@@Z 000000018000bee4 f i XMPArrayNodeImpl.obj
 0001:0000af24       ?GetNameSpace@IXMPNode_I@AdobeXMPCore_Int@@MEBAPEBVIUTF8String_v1@AdobeXMPCommon@@AEAPEBVIError_v1@4@@Z 000000018000bf24 f i XMPArrayNodeImpl.obj
 0001:0000af24       ?GetValue@IXMPPathSegment_I@AdobeXMPCore_Int@@MEBAPEBVIUTF8String_v1@AdobeXMPCommon@@AEAPEBVIError_v1@4@@Z 000000018000bf24 f i XMPPathSegmentImpl.obj
 0001:0000af64       ?GetPath@IXMPNode_I@AdobeXMPCore_Int@@MEBAPEAVIXMPPath_v1@AdobeXMPCore@@KAEAPEBVIError_v1@AdobeXMPCommon@@@Z 000000018000bf64 f i XMPArrayNodeImpl.obj
 0001:0000afa8       ?GetQualifier@IXMPNode_I@AdobeXMPCore_Int@@MEBAPEBVIXMPNode_v1@AdobeXMPCore@@PEBD0AEAPEBVIError_v1@AdobeXMPCommon@@@Z 000000018000bfa8 f i XMPArrayNodeImpl.obj
 0001:0000aff0       ?GetQualifier@IXMPNode_I@AdobeXMPCore_Int@@MEAAPEAVIXMPNode_v1@AdobeXMPCore@@PEBD0AEAPEBVIError_v1@AdobeXMPCommon@@@Z 000000018000bff0 f i XMPArrayNodeImpl.obj
 0001:0000b038       ?InsertQualifier@IXMPNode_I@AdobeXMPCore_Int@@MEAAXPEAVIXMPNode_v1@AdobeXMPCore@@AEAPEBVIError_v1@AdobeXMPCommon@@@Z 000000018000c038 f i XMPArrayNodeImpl.obj
 0001:0000b0d0       ?ReplaceQualifier@IXMPNode_I@AdobeXMPCore_Int@@MEAAXPEAVIXMPNode_v1@AdobeXMPCore@@AEAPEBVIError_v1@AdobeXMPCommon@@@Z 000000018000c0d0 f i XMPArrayNodeImpl.obj
 0001:0000b168       ?RemoveQualifier@IXMPNode_I@AdobeXMPCore_Int@@MEAAPEAVIXMPNode_v1@AdobeXMPCore@@PEBD0AEAPEBVIError_v1@AdobeXMPCommon@@@Z 000000018000c168 f i XMPArrayNodeImpl.obj
 0001:0000b1b0       ?GetDomain@IError_I@AdobeXMPCommon_Int@@MEBAKAEAPEBVIError_v1@AdobeXMPCommon@@@Z 000000018000c1b0 f i XMPCommon:ErrorImpl.obj
 0001:0000b1b0       ?GetNodeType@IXMPNode_I@AdobeXMPCore_Int@@MEBAKAEAPEBVIError_v1@AdobeXMPCommon@@@Z 000000018000c1b0 f i XMPArrayNodeImpl.obj
 0001:0000b1f0       ?IsArrayItem@IXMPNode_I@AdobeXMPCore_Int@@MEBAKAEAPEBVIError_v1@AdobeXMPCommon@@@Z 000000018000c1f0 f i XMPArrayNodeImpl.obj
 0001:0000b230       ?HasQualifiers@IXMPNode_I@AdobeXMPCore_Int@@MEBAKAEAPEBVIError_v1@AdobeXMPCommon@@@Z 000000018000c230 f i XMPArrayNodeImpl.obj
 0001:0000b270       ?Clear@IXMPNode_I@AdobeXMPCore_Int@@MEAAXKKAEAPEBVIError_v1@AdobeXMPCommon@@@Z 000000018000c270 f i XMPArrayNodeImpl.obj
 0001:0000b2c0       ?Clone@IXMPNode_I@AdobeXMPCore_Int@@MEBAPEAVIXMPNode_v1@AdobeXMPCore@@KKKAEAPEBVIError_v1@AdobeXMPCommon@@@Z 000000018000c2c0 f i XMPArrayNodeImpl.obj
 0001:0000b318       ??1IXMPCompositeNode_I@AdobeXMPCore_Int@@MEAA@XZ 000000018000c318 f i XMPArrayNodeImpl.obj
 0001:0000b3ac       ??1IXMPConstNodeIterator_v1@AdobeXMPCore@@MEAA@XZ 000000018000c3ac f i XMPArrayNodeImpl.obj
 0001:0000b3cc       ??1IXMPConstNodeIterator_I@AdobeXMPCore_Int@@MEAA@XZ 000000018000c3cc f i XMPArrayNodeImpl.obj
 0001:0000b428       ?GetNode@IXMPNodeIterator_I@AdobeXMPCore_Int@@MEBAPEAVIXMPNode_v1@AdobeXMPCore@@AEAPEBVIError_v1@AdobeXMPCommon@@@Z 000000018000c428 f i XMPArrayNodeImpl.obj
 0001:0000b428       ?GetNode@IXMPConstNodeIterator_I@AdobeXMPCore_Int@@MEBAPEBVIXMPNode_v1@AdobeXMPCore@@AEAPEBVIError_v1@AdobeXMPCommon@@@Z 000000018000c428 f i XMPArrayNodeImpl.obj
 0001:0000b468       ?Next@IXMPNodeIterator_I@AdobeXMPCore_Int@@MEAAPEAVIXMPNodeIterator_v1@AdobeXMPCore@@AEAPEBVIError_v1@AdobeXMPCommon@@@Z 000000018000c468 f i XMPArrayNodeImpl.obj
 0001:0000b468       ?Next@IXMPConstNodeIterator_I@AdobeXMPCore_Int@@MEAAPEAVIXMPConstNodeIterator_v1@AdobeXMPCore@@AEAPEBVIError_v1@AdobeXMPCommon@@@Z 000000018000c468 f i XMPArrayNodeImpl.obj
 0001:0000b4a8       ??1IXMPNodeIterator_v1@AdobeXMPCore@@MEAA@XZ 000000018000c4a8 f i XMPArrayNodeImpl.obj
 0001:0000b4c8       ??1IXMPNodeIterator_I@AdobeXMPCore_Int@@MEAA@XZ 000000018000c4c8 f i XMPArrayNodeImpl.obj
 0001:0000b524       ?GetNode@IXMPCompositeNode_I@AdobeXMPCore_Int@@MEBAPEBVIXMPNode_v1@AdobeXMPCore@@PEBVIXMPPath_v1@4@AEAPEBVIError_v1@AdobeXMPCommon@@@Z 000000018000c524 f i XMPArrayNodeImpl.obj
 0001:0000b5b8       ?GetNode@IXMPCompositeNode_I@AdobeXMPCore_Int@@MEAAPEAVIXMPNode_v1@AdobeXMPCore@@PEBVIXMPPath_v1@4@AEAPEBVIError_v1@AdobeXMPCommon@@@Z 000000018000c5b8 f i XMPArrayNodeImpl.obj
 0001:0000b64c       ?AppendNode@IXMPCompositeNode_I@AdobeXMPCore_Int@@MEAAXPEAVIXMPNode_v1@AdobeXMPCore@@AEAPEBVIError_v1@AdobeXMPCommon@@@Z 000000018000c64c f i XMPArrayNodeImpl.obj
 0001:0000b6e4       ?InsertNode@IXMPCompositeNode_I@AdobeXMPCore_Int@@MEAAXPEAVIXMPNode_v1@AdobeXMPCore@@PEBVIXMPPath_v1@4@AEAPEBVIError_v1@AdobeXMPCommon@@@Z 000000018000c6e4 f i XMPArrayNodeImpl.obj
 0001:0000b840       ?ReplaceNode@IXMPCompositeNode_I@AdobeXMPCore_Int@@MEAAXPEAVIXMPNode_v1@AdobeXMPCore@@PEBVIXMPPath_v1@4@AEAPEBVIError_v1@AdobeXMPCommon@@@Z 000000018000c840 f i XMPArrayNodeImpl.obj
 0001:0000b99c       ?Iterator@IXMPCompositeNode_I@AdobeXMPCore_Int@@MEBAPEAVIXMPConstNodeIterator_v1@AdobeXMPCore@@KAEAPEBVIError_v1@AdobeXMPCommon@@@Z 000000018000c99c f i XMPArrayNodeImpl.obj
 0001:0000b9e0       ?Iterator@IXMPCompositeNode_I@AdobeXMPCore_Int@@MEAAPEAVIXMPNodeIterator_v1@AdobeXMPCore@@KAEAPEBVIError_v1@AdobeXMPCommon@@@Z 000000018000c9e0 f i XMPArrayNodeImpl.obj
 0001:0000ba24       ?RemoveNode@IXMPCompositeNode_I@AdobeXMPCore_Int@@MEAAPEAVIXMPNode_v1@AdobeXMPCore@@PEBVIXMPPath_v1@4@AEAPEBVIError_v1@AdobeXMPCommon@@@Z 000000018000ca24 f i XMPArrayNodeImpl.obj
 0001:0000bab8       ?GetChildCount@IXMPCompositeNode_I@AdobeXMPCore_Int@@MEBA_KAEAPEBVIError_v1@AdobeXMPCommon@@@Z 000000018000cab8 f i XMPArrayNodeImpl.obj
 0001:0000baf8       ?IsEmpty@IXMPCompositeNode_I@AdobeXMPCore_Int@@MEBAKAEAPEBVIError_v1@AdobeXMPCommon@@@Z 000000018000caf8 f i XMPArrayNodeImpl.obj
 0001:0000bb38       ??1IXMPArrayNode_I@AdobeXMPCore_Int@@MEAA@XZ 000000018000cb38 f i XMPArrayNodeImpl.obj
 0001:0000bc04       ?GetArrayForm@IXMPArrayNode_I@AdobeXMPCore_Int@@MEBAKAEAPEBVIError_v1@AdobeXMPCommon@@@Z 000000018000cc04 f i XMPArrayNodeImpl.obj
 0001:0000bc44       ?GetNode@IXMPArrayNode_I@AdobeXMPCore_Int@@MEBAPEBVIXMPNode_v1@AdobeXMPCore@@_KAEAPEBVIError_v1@AdobeXMPCommon@@@Z 000000018000cc44 f i XMPArrayNodeImpl.obj
 0001:0000bc88       ?GetNode@IXMPArrayNode_I@AdobeXMPCore_Int@@MEAAPEAVIXMPNode_v1@AdobeXMPCore@@_KAEAPEBVIError_v1@AdobeXMPCommon@@@Z 000000018000cc88 f i XMPArrayNodeImpl.obj
 0001:0000bccc       ?InsertNode@IXMPArrayNode_I@AdobeXMPCore_Int@@MEAAXPEAVIXMPNode_v1@AdobeXMPCore@@_KAEAPEBVIError_v1@AdobeXMPCommon@@@Z 000000018000cccc f i XMPArrayNodeImpl.obj
 0001:0000bd78       ?ReplaceNode@IXMPArrayNode_I@AdobeXMPCore_Int@@MEAAXPEAVIXMPNode_v1@AdobeXMPCore@@_KAEAPEBVIError_v1@AdobeXMPCommon@@@Z 000000018000cd78 f i XMPArrayNodeImpl.obj
 0001:0000be24       ?RemoveNode@IXMPArrayNode_I@AdobeXMPCore_Int@@MEAAPEAVIXMPNode_v1@AdobeXMPCore@@_KAEAPEBVIError_v1@AdobeXMPCommon@@@Z 000000018000ce24 f i XMPArrayNodeImpl.obj
 0001:0000be68       ??_EIntrusiveRefCountSharedOwnership@AdobeXMPCommon_Int@@MEAAPEAXI@Z 000000018000ce68 f i * CIL library *:* CIL module *
 0001:0000be68       ??_GIntrusiveRefCountSharedOwnership@AdobeXMPCommon_Int@@MEAAPEAXI@Z 000000018000ce68 f i XMPArrayNodeImpl.obj
 0001:0000bef8       ??1Object@AdobeXMPCommon_Int@@MEAA@XZ 000000018000cef8 f i XMPArrayNodeImpl.obj
 0001:0000bf04       ??_GXMPNodeImpl@AdobeXMPCore_Int@@MEAAPEAXI@Z 000000018000cf04 f i XMPArrayNodeImpl.obj
 0001:0000bf04       ??_EXMPNodeImpl@AdobeXMPCore_Int@@MEAAPEAXI@Z 000000018000cf04 f i * CIL library *:* CIL module *
 0001:0000c07c       ??1XMPNodeImpl@AdobeXMPCore_Int@@MEAA@XZ 000000018000d07c f i XMPArrayNodeImpl.obj
 0001:0000c244       ??1XMPCompositeNodeImpl@AdobeXMPCore_Int@@MEAA@XZ 000000018000d244 f i XMPArrayNodeImpl.obj
 0001:0000c35c       ??_EXMPCompositeNodeImpl@AdobeXMPCore_Int@@MEAAPEAXI@Z 000000018000d35c f i * CIL library *:* CIL module *
 0001:0000c35c       ??_GXMPCompositeNodeImpl@AdobeXMPCore_Int@@MEAAPEAXI@Z 000000018000d35c f i XMPArrayNodeImpl.obj
 0001:0000c390       ??_DXMPCompositeNodeImpl@AdobeXMPCore_Int@@IEAAXXZ 000000018000d390 f i XMPArrayNodeImpl.obj
 0001:0000c5ac       ??1XMPArrayNodeImpl@AdobeXMPCore_Int@@MEAA@XZ 000000018000d5ac f i XMPArrayNodeImpl.obj
 0001:0000c7b4       ??_EXMPArrayNodeImpl@AdobeXMPCore_Int@@MEAAPEAXI@Z 000000018000d7b4 f i * CIL library *:* CIL module *
 0001:0000c7b4       ??_GXMPArrayNodeImpl@AdobeXMPCore_Int@@MEAAPEAXI@Z 000000018000d7b4 f i XMPArrayNodeImpl.obj
 0001:0000c7e8       ??_DXMPArrayNodeImpl@AdobeXMPCore_Int@@IEAAXXZ 000000018000d7e8 f i XMPArrayNodeImpl.obj
 0001:0000caa8       ?CreateArrayNode_I@IXMPArrayNode_I@AdobeXMPCore_Int@@SA?AV?$shared_ptr@VIXMPArrayNode_I@AdobeXMPCore_Int@@@std@@PEBD0W4eXMPArrayNodeForm@IXMPArrayNode_v1@AdobeXMPCore@@W4eMultiThreadingSupport@AdobeXMPCommon@@@Z 000000018000daa8 f   XMPArrayNodeImpl.obj
 0001:0000cb90       ??0XMPArrayNodeImpl@AdobeXMPCore_Int@@QEAA@PEBD0W4eXMPArrayNodeForm@IXMPArrayNode_v1@AdobeXMPCore@@W4eMultiThreadingSupport@AdobeXMPCommon@@@Z 000000018000db90 f   XMPArrayNodeImpl.obj
 0001:0000d184       ?GetNode_I@XMPArrayNodeImpl@AdobeXMPCore_Int@@UEBA?AV?$shared_ptr@$$CBVIXMPNode_I@AdobeXMPCore_Int@@@std@@_K@Z 000000018000e184 f   XMPArrayNodeImpl.obj
 0001:0000d204       ?GetNode_I@XMPArrayNodeImpl@AdobeXMPCore_Int@@UEAA?AV?$shared_ptr@VIXMPNode_I@AdobeXMPCore_Int@@@std@@_K@Z 000000018000e204 f   XMPArrayNodeImpl.obj
 0001:0000d2d0       ?AppendNode_I@XMPArrayNodeImpl@AdobeXMPCore_Int@@UEAAXAEBV?$shared_ptr@VIXMPNode_I@AdobeXMPCore_Int@@@std@@@Z 000000018000e2d0 f   XMPArrayNodeImpl.obj
 0001:0000d480       ?InsertNode_I@XMPArrayNodeImpl@AdobeXMPCore_Int@@UEAAXAEBV?$shared_ptr@VIXMPNode_I@AdobeXMPCore_Int@@@std@@_K@Z 000000018000e480 f   XMPArrayNodeImpl.obj
 0001:0000d700       ?ReplaceNode_I@XMPArrayNodeImpl@AdobeXMPCore_Int@@UEAAXAEBV?$shared_ptr@VIXMPNode_I@AdobeXMPCore_Int@@@std@@_K@Z 000000018000e700 f   XMPArrayNodeImpl.obj
 0001:0000d9e4       ?RemoveNode_I@XMPArrayNodeImpl@AdobeXMPCore_Int@@UEAA?AV?$shared_ptr@VIXMPNode_I@AdobeXMPCore_Int@@@std@@_K@Z 000000018000e9e4 f   XMPArrayNodeImpl.obj
 0001:0000dabc       ?Iterator_I@XMPArrayNodeImpl@AdobeXMPCore_Int@@UEBA?AV?$shared_ptr@VIXMPConstNodeIterator_I@AdobeXMPCore_Int@@@std@@W4eMultiThreadingSupport@AdobeXMPCommon@@@Z 000000018000eabc f   XMPArrayNodeImpl.obj
 0001:0000daec       ?Iterator_I@XMPArrayNodeImpl@AdobeXMPCore_Int@@UEAA?AV?$shared_ptr@VIXMPNodeIterator_I@AdobeXMPCore_Int@@@std@@W4eMultiThreadingSupport@AdobeXMPCommon@@@Z 000000018000eaec f   XMPArrayNodeImpl.obj
 0001:0000db1c       ?GetNodeType@XMPArrayNodeImpl@AdobeXMPCore_Int@@UEBA?AW4eXMPNodeType@IXMPNode_v1@AdobeXMPCore@@XZ 000000018000eb1c f   XMPArrayNodeImpl.obj
 0001:0000db24       ?ClearContents@XMPArrayNodeImpl@AdobeXMPCore_Int@@UEAAXXZ 000000018000eb24 f   XMPArrayNodeImpl.obj
 0001:0000dbc8       ?IsEmpty@XMPArrayNodeImpl@AdobeXMPCore_Int@@UEBA_NXZ 000000018000ebc8 f   XMPArrayNodeImpl.obj
 0001:0000dc18       ?GetChildCount@XMPArrayNodeImpl@AdobeXMPCore_Int@@UEBA_KXZ 000000018000ec18 f   XMPArrayNodeImpl.obj
 0001:0000dc74       ?CheckSuitabilityToBeUsedAsChildNode@XMPArrayNodeImpl@AdobeXMPCore_Int@@UEAA_NAEBV?$shared_ptr@$$CBVIXMPNode_I@AdobeXMPCore_Int@@@std@@@Z 000000018000ec74 f   XMPArrayNodeImpl.obj
 0001:0000e094       ?GetArrayForm@XMPArrayNodeImpl@AdobeXMPCore_Int@@UEBA?AW4eXMPArrayNodeForm@IXMPArrayNode_v1@AdobeXMPCore@@XZ 000000018000f094 f   XMPArrayNodeImpl.obj
 0001:0000e09c       ?CloneContents@XMPArrayNodeImpl@AdobeXMPCore_Int@@UEBA?AV?$shared_ptr@VIXMPNode_I@AdobeXMPCore_Int@@@std@@_N0_KW4eMultiThreadingSupport@AdobeXMPCommon@@@Z 000000018000f09c f   XMPArrayNodeImpl.obj
 0001:0000e39c       ?CreateNodeFromIterator@?$TXMPNodeIteratorImpl@V?$_Vector_iterator@V?$_Vector_val@U?$_Simple_types@V?$shared_ptr@VIXMPNode_I@AdobeXMPCore_Int@@@std@@@std@@@std@@@std@@@AdobeXMPCore_Int@@QEBA?AV?$shared_ptr@VIXMPNode_I@AdobeXMPCore_Int@@@std@@AEBV?$_Vector_iterator@V?$_Vector_val@U?$_Simple_types@V?$shared_ptr@VIXMPNode_I@AdobeXMPCore_Int@@@std@@@std@@@std@@@4@@Z 000000018000f39c f   XMPArrayNodeImpl.obj
 0001:0000e3c4       ?CreateNodeFromIterator@?$TXMPConstNodeIteratorImpl@V?$_Vector_const_iterator@V?$_Vector_val@U?$_Simple_types@V?$shared_ptr@VIXMPNode_I@AdobeXMPCore_Int@@@std@@@std@@@std@@@std@@@AdobeXMPCore_Int@@QEBA?AV?$shared_ptr@$$CBVIXMPNode_I@AdobeXMPCore_Int@@@std@@AEBV?$_Vector_const_iterator@V?$_Vector_val@U?$_Simple_types@V?$shared_ptr@VIXMPNode_I@AdobeXMPCore_Int@@@std@@@std@@@std@@@4@@Z 000000018000f3c4 f   XMPArrayNodeImpl.obj
 0001:0000e434       ??4?$shared_ptr@VIXMPNodeIterator_I@AdobeXMPCore_Int@@@std@@QEAAAEAV01@$$QEAV01@@Z 000000018000f434 f i XMPCompositeNodeImpl.obj
 0001:0000e434       ??4?$shared_ptr@VIUTF8String_I@AdobeXMPCommon_Int@@@std@@QEAAAEAV01@$$QEAV01@@Z 000000018000f434 f i XMPPathSegmentImpl.obj
 0001:0000e434       ??4?$shared_ptr@VIXMPSimpleNode_I@AdobeXMPCore_Int@@@std@@QEAAAEAV01@$$QEAV01@@Z 000000018000f434 f i XMPMeta2-GetSet.obj
 0001:0000e434       ??4?$shared_ptr@VISharedMutex_I@AdobeXMPCommon_Int@@@std@@QEAAAEAV01@$$QEAV01@@Z 000000018000f434 f i XMPNameSpacePrefixMapImpl.obj
 0001:0000e434       ??4?$shared_ptr@VIXMPConstNodeIterator_I@AdobeXMPCore_Int@@@std@@QEAAAEAV01@$$QEAV01@@Z 000000018000f434 f i XMPCompositeNodeImpl.obj
 0001:0000e434       ??4?$shared_ptr@$$CBVIUTF8String_I@AdobeXMPCommon_Int@@@std@@QEAAAEAV01@$$QEAV01@@Z 000000018000f434 f i XMPDocOps-Utils2.obj
 0001:0000e434       ??4?$shared_ptr@VIXMPQualifiers_I@AdobeXMPCore_Int@@@std@@QEAAAEAV01@$$QEAV01@@Z 000000018000f434 f i XMPNodeImpl.obj
 0001:0000e434       ??4?$shared_ptr@VIXMPMetadata_I@AdobeXMPCore_Int@@@std@@QEAAAEAV01@$$QEAV01@@Z 000000018000f434 f i XMPMeta2-GetSet.obj
 0001:0000e434       ??4?$shared_ptr@VIXMPNode_I@AdobeXMPCore_Int@@@std@@QEAAAEAV01@$$QEAV01@@Z 000000018000f434 f i XMPArrayNodeImpl.obj
 0001:0000e434       ??4?$shared_ptr@VIXMPArrayNode_I@AdobeXMPCore_Int@@@std@@QEAAAEAV01@$$QEAV01@@Z 000000018000f434 f i XMPArrayNodeImpl.obj
 0001:0000e4bc       ?insert@?$vector@V?$shared_ptr@VIXMPNode_I@AdobeXMPCore_Int@@@std@@V?$TAllocator@V?$shared_ptr@VIXMPNode_I@AdobeXMPCore_Int@@@std@@@AdobeXMPCommon_Int@@@std@@QEAA?AV?$_Vector_iterator@V?$_Vector_val@U?$_Simple_types@V?$shared_ptr@VIXMPNode_I@AdobeXMPCore_Int@@@std@@@std@@@std@@@2@V?$_Vector_const_iterator@V?$_Vector_val@U?$_Simple_types@V?$shared_ptr@VIXMPNode_I@AdobeXMPCore_Int@@@std@@@std@@@std@@@2@$$QEAV?$shared_ptr@VIXMPNode_I@AdobeXMPCore_Int@@@2@@Z 000000018000f4bc f i XMPArrayNodeImpl.obj
 0001:0000e5fc       ?erase@?$vector@V?$shared_ptr@VIXMPNode_I@AdobeXMPCore_Int@@@std@@V?$TAllocator@V?$shared_ptr@VIXMPNode_I@AdobeXMPCore_Int@@@std@@@AdobeXMPCommon_Int@@@std@@QEAA?AV?$_Vector_iterator@V?$_Vector_val@U?$_Simple_types@V?$shared_ptr@VIXMPNode_I@AdobeXMPCore_Int@@@std@@@std@@@std@@@2@V?$_Vector_const_iterator@V?$_Vector_val@U?$_Simple_types@V?$shared_ptr@VIXMPNode_I@AdobeXMPCore_Int@@@std@@@std@@@std@@@2@@Z 000000018000f5fc f i XMPArrayNodeImpl.obj
 0001:0000e6a8       ?GetNode_I@?$TXMPConstNodeIteratorImpl@V?$_Vector_const_iterator@V?$_Vector_val@U?$_Simple_types@V?$shared_ptr@VIXMPNode_I@AdobeXMPCore_Int@@@std@@@std@@@std@@@std@@@AdobeXMPCore_Int@@UEBA?AV?$shared_ptr@$$CBVIXMPNode_I@AdobeXMPCore_Int@@@std@@XZ 000000018000f6a8 f i XMPArrayNodeImpl.obj
 0001:0000e71c       ?Next_I@?$TXMPConstNodeIteratorImpl@V?$_Vector_const_iterator@V?$_Vector_val@U?$_Simple_types@V?$shared_ptr@VIXMPNode_I@AdobeXMPCore_Int@@@std@@@std@@@std@@@std@@@AdobeXMPCore_Int@@UEAA?AV?$shared_ptr@VIXMPConstNodeIterator_I@AdobeXMPCore_Int@@@std@@XZ 000000018000f71c f i XMPArrayNodeImpl.obj
 0001:0000e7dc       ?CreateConstIterator@?$TXMPConstNodeIteratorImpl@V?$_Vector_const_iterator@V?$_Vector_val@U?$_Simple_types@V?$shared_ptr@VIXMPNode_I@AdobeXMPCore_Int@@@std@@@std@@@std@@@std@@@AdobeXMPCore_Int@@SA?AV?$shared_ptr@VIXMPConstNodeIterator_I@AdobeXMPCore_Int@@@std@@V?$_Vector_const_iterator@V?$_Vector_val@U?$_Simple_types@V?$shared_ptr@VIXMPNode_I@AdobeXMPCore_Int@@@std@@@std@@@std@@@4@0W4eMultiThreadingSupport@AdobeXMPCommon@@@Z 000000018000f7dc f i XMPArrayNodeImpl.obj
 0001:0000e8b4       ??1?$TXMPConstNodeIteratorImpl@V?$_Vector_const_iterator@V?$_Vector_val@U?$_Simple_types@V?$shared_ptr@VIXMPNode_I@AdobeXMPCore_Int@@@std@@@std@@@std@@@std@@@AdobeXMPCore_Int@@MEAA@XZ 000000018000f8b4 f i XMPArrayNodeImpl.obj
 0001:0000e990       ?GetNode_I@?$TXMPNodeIteratorImpl@V?$_Vector_iterator@V?$_Vector_val@U?$_Simple_types@V?$shared_ptr@VIXMPNode_I@AdobeXMPCore_Int@@@std@@@std@@@std@@@std@@@AdobeXMPCore_Int@@UEBA?AV?$shared_ptr@VIXMPNode_I@AdobeXMPCore_Int@@@std@@XZ 000000018000f990 f i XMPArrayNodeImpl.obj
 0001:0000ea04       ?Next_I@?$TXMPNodeIteratorImpl@V?$_Vector_iterator@V?$_Vector_val@U?$_Simple_types@V?$shared_ptr@VIXMPNode_I@AdobeXMPCore_Int@@@std@@@std@@@std@@@std@@@AdobeXMPCore_Int@@UEAA?AV?$shared_ptr@VIXMPNodeIterator_I@AdobeXMPCore_Int@@@std@@XZ 000000018000fa04 f i XMPArrayNodeImpl.obj
 0001:0000eac4       ?CreateIterator@?$TXMPNodeIteratorImpl@V?$_Vector_iterator@V?$_Vector_val@U?$_Simple_types@V?$shared_ptr@VIXMPNode_I@AdobeXMPCore_Int@@@std@@@std@@@std@@@std@@@AdobeXMPCore_Int@@SA?AV?$shared_ptr@VIXMPNodeIterator_I@AdobeXMPCore_Int@@@std@@V?$_Vector_iterator@V?$_Vector_val@U?$_Simple_types@V?$shared_ptr@VIXMPNode_I@AdobeXMPCore_Int@@@std@@@std@@@std@@@4@0W4eMultiThreadingSupport@AdobeXMPCommon@@@Z 000000018000fac4 f i XMPArrayNodeImpl.obj
 0001:0000eb9c       ??1?$TXMPNodeIteratorImpl@V?$_Vector_iterator@V?$_Vector_val@U?$_Simple_types@V?$shared_ptr@VIXMPNode_I@AdobeXMPCore_Int@@@std@@@std@@@std@@@std@@@AdobeXMPCore_Int@@MEAA@XZ 000000018000fb9c f i XMPArrayNodeImpl.obj
 0001:0000ec78       ??_E?$TXMPConstNodeIteratorImpl@V?$_Vector_const_iterator@V?$_Vector_val@U?$_Simple_types@V?$shared_ptr@VIXMPNode_I@AdobeXMPCore_Int@@@std@@@std@@@std@@@std@@@AdobeXMPCore_Int@@MEAAPEAXI@Z 000000018000fc78 f i * CIL library *:* CIL module *
 0001:0000ec78       ??_G?$TXMPConstNodeIteratorImpl@V?$_Vector_const_iterator@V?$_Vector_val@U?$_Simple_types@V?$shared_ptr@VIXMPNode_I@AdobeXMPCore_Int@@@std@@@std@@@std@@@std@@@AdobeXMPCore_Int@@MEAAPEAXI@Z 000000018000fc78 f i XMPArrayNodeImpl.obj
 0001:0000edc8       ??_G?$TXMPNodeIteratorImpl@V?$_Vector_iterator@V?$_Vector_val@U?$_Simple_types@V?$shared_ptr@VIXMPNode_I@AdobeXMPCore_Int@@@std@@@std@@@std@@@std@@@AdobeXMPCore_Int@@MEAAPEAXI@Z 000000018000fdc8 f i XMPArrayNodeImpl.obj
 0001:0000edc8       ??_E?$TXMPNodeIteratorImpl@V?$_Vector_iterator@V?$_Vector_val@U?$_Simple_types@V?$shared_ptr@VIXMPNode_I@AdobeXMPCore_Int@@@std@@@std@@@std@@@std@@@AdobeXMPCore_Int@@MEAAPEAXI@Z 000000018000fdc8 f i * CIL library *:* CIL module *
 0001:0000ef18       ?_Reserve@?$vector@V?$shared_ptr@VIXMPNode_I@AdobeXMPCore_Int@@@std@@V?$TAllocator@V?$shared_ptr@VIXMPNode_I@AdobeXMPCore_Int@@@std@@@AdobeXMPCommon_Int@@@std@@IEAAX_K@Z 000000018000ff18 f i XMPArrayNodeImpl.obj
 0001:0000ef90       ??0?$TXMPConstNodeIteratorImpl@V?$_Vector_const_iterator@V?$_Vector_val@U?$_Simple_types@V?$shared_ptr@VIXMPNode_I@AdobeXMPCore_Int@@@std@@@std@@@std@@@std@@@AdobeXMPCore_Int@@IEAA@V?$_Vector_const_iterator@V?$_Vector_val@U?$_Simple_types@V?$shared_ptr@VIXMPNode_I@AdobeXMPCore_Int@@@std@@@std@@@std@@@std@@0W4eMultiThreadingSupport@AdobeXMPCommon@@@Z 000000018000ff90 f i XMPArrayNodeImpl.obj
 0001:0000f1c8       ??0?$TXMPNodeIteratorImpl@V?$_Vector_iterator@V?$_Vector_val@U?$_Simple_types@V?$shared_ptr@VIXMPNode_I@AdobeXMPCore_Int@@@std@@@std@@@std@@@std@@@AdobeXMPCore_Int@@IEAA@V?$_Vector_iterator@V?$_Vector_val@U?$_Simple_types@V?$shared_ptr@VIXMPNode_I@AdobeXMPCore_Int@@@std@@@std@@@std@@@std@@0W4eMultiThreadingSupport@AdobeXMPCommon@@@Z 00000001800101c8 f i XMPArrayNodeImpl.obj
 0001:0000f400       ?_Reallocate@?$vector@V?$shared_ptr@VIXMPNode_I@AdobeXMPCore_Int@@@std@@V?$TAllocator@V?$shared_ptr@VIXMPNode_I@AdobeXMPCore_Int@@@std@@@AdobeXMPCommon_Int@@@std@@IEAAX_K@Z 0000000180010400 f i XMPArrayNodeImpl.obj
 0001:0000f400       ?_Reallocate@?$vector@V?$shared_ptr@$$CBVIUTF8String_I@AdobeXMPCommon_Int@@@std@@V?$TAllocator@V?$shared_ptr@$$CBVIUTF8String_I@AdobeXMPCommon_Int@@@std@@@AdobeXMPCommon_Int@@@std@@IEAAX_K@Z 0000000180010400 f i XMPCommon:ErrorImpl.obj
 0001:0000f4c4       ??$CallConstUnSafeFunctionReturningSharedPointer@VIXMPQualifiers_I@AdobeXMPCore_Int@@PEBVIXMPNode_v1@AdobeXMPCore@@$$CBVIXMPNode_I@2@@AdobeXMPCommon_Int@@YAPEBVIXMPNode_v1@AdobeXMPCore@@AEAPEBVIError_v1@AdobeXMPCommon@@QEBVIXMPQualifiers_I@AdobeXMPCore_Int@@P856@EBA?AV?$shared_ptr@$$CBVIXMPNode_I@AdobeXMPCore_Int@@@std@@XZ@Z 00000001800104c4 f i XMPQualifiersImpl.obj
 0001:0000f4c4       ??$CallConstUnSafeFunctionReturningSharedPointer@VIXMPNode_I@AdobeXMPCore_Int@@PEBVIXMPNode_v1@AdobeXMPCore@@$$CBV12@@AdobeXMPCommon_Int@@YAPEBVIXMPNode_v1@AdobeXMPCore@@AEAPEBVIError_v1@AdobeXMPCommon@@QEBVIXMPNode_I@AdobeXMPCore_Int@@P856@EBA?AV?$shared_ptr@$$CBVIXMPNode_I@AdobeXMPCore_Int@@@std@@XZ@Z 00000001800104c4 f i XMPArrayNodeImpl.obj
 0001:0000f4c4       ??$CallConstUnSafeFunctionReturningSharedPointer@VIXMPNodeIterator_I@AdobeXMPCore_Int@@PEAVIXMPNode_v1@AdobeXMPCore@@VIXMPNode_I@2@@AdobeXMPCommon_Int@@YAPEAVIXMPNode_v1@AdobeXMPCore@@AEAPEBVIError_v1@AdobeXMPCommon@@QEBVIXMPNodeIterator_I@AdobeXMPCore_Int@@P856@EBA?AV?$shared_ptr@VIXMPNode_I@AdobeXMPCore_Int@@@std@@XZ@Z 00000001800104c4 f i XMPArrayNodeImpl.obj
 0001:0000f4c4       ??$CallConstUnSafeFunctionReturningSharedPointer@VIXMPConstNodeIterator_I@AdobeXMPCore_Int@@PEBVIXMPNode_v1@AdobeXMPCore@@$$CBVIXMPNode_I@2@@AdobeXMPCommon_Int@@YAPEBVIXMPNode_v1@AdobeXMPCore@@AEAPEBVIError_v1@AdobeXMPCommon@@QEBVIXMPConstNodeIterator_I@AdobeXMPCore_Int@@P856@EBA?AV?$shared_ptr@$$CBVIXMPNode_I@AdobeXMPCore_Int@@@std@@XZ@Z 00000001800104c4 f i XMPArrayNodeImpl.obj
 0001:0000f5d0       ??$CallUnSafeFunctionReturningSharedPointer@VIXMPQualifiers_I@AdobeXMPCore_Int@@PEAVIXMPNode_v1@AdobeXMPCore@@VIXMPNode_I@2@@AdobeXMPCommon_Int@@YAPEAVIXMPNode_v1@AdobeXMPCore@@AEAPEBVIError_v1@AdobeXMPCommon@@PEAVIXMPQualifiers_I@AdobeXMPCore_Int@@P856@EAA?AV?$shared_ptr@VIXMPNode_I@AdobeXMPCore_Int@@@std@@XZ@Z 00000001800105d0 f i XMPQualifiersImpl.obj
 0001:0000f5d0       ??$CallUnSafeFunctionReturningSharedPointer@VIXMPCoreObjectFactory_I@AdobeXMPCore_Int@@PEBVIXMPNameSpacePrefixMap_v1@AdobeXMPCore@@$$CBVIXMPNameSpacePrefixMap_I@2@@AdobeXMPCommon_Int@@YAPEBVIXMPNameSpacePrefixMap_v1@AdobeXMPCore@@AEAPEBVIError_v1@AdobeXMPCommon@@PEAVIXMPCoreObjectFactory_I@AdobeXMPCore_Int@@P856@EAA?AV?$shared_ptr@$$CBVIXMPNameSpacePrefixMap_I@AdobeXMPCore_Int@@@std@@XZ@Z 00000001800105d0 f i XMPCoreObjectFactoryImpl.obj
 0001:0000f5d0       ??$CallUnSafeFunctionReturningSharedPointer@VIXMPConstNodeIterator_I@AdobeXMPCore_Int@@PEAVIXMPConstNodeIterator_v1@AdobeXMPCore@@V12@@AdobeXMPCommon_Int@@YAPEAVIXMPConstNodeIterator_v1@AdobeXMPCore@@AEAPEBVIError_v1@AdobeXMPCommon@@PEAVIXMPConstNodeIterator_I@AdobeXMPCore_Int@@P856@EAA?AV?$shared_ptr@VIXMPConstNodeIterator_I@AdobeXMPCore_Int@@@std@@XZ@Z 00000001800105d0 f i XMPArrayNodeImpl.obj
 0001:0000f5d0       ??$CallUnSafeFunctionReturningSharedPointer@VIXMPNode_I@AdobeXMPCore_Int@@PEAVIXMPNode_v1@AdobeXMPCore@@V12@@AdobeXMPCommon_Int@@YAPEAVIXMPNode_v1@AdobeXMPCore@@AEAPEBVIError_v1@AdobeXMPCommon@@PEAVIXMPNode_I@AdobeXMPCore_Int@@P856@EAA?AV?$shared_ptr@VIXMPNode_I@AdobeXMPCore_Int@@@std@@XZ@Z 00000001800105d0 f i XMPArrayNodeImpl.obj
 0001:0000f5d0       ??$CallUnSafeFunctionReturningSharedPointer@VIXMPNodeIterator_I@AdobeXMPCore_Int@@PEAVIXMPNodeIterator_v1@AdobeXMPCore@@V12@@AdobeXMPCommon_Int@@YAPEAVIXMPNodeIterator_v1@AdobeXMPCore@@AEAPEBVIError_v1@AdobeXMPCommon@@PEAVIXMPNodeIterator_I@AdobeXMPCore_Int@@P856@EAA?AV?$shared_ptr@VIXMPNodeIterator_I@AdobeXMPCore_Int@@@std@@XZ@Z 00000001800105d0 f i XMPArrayNodeImpl.obj
 0001:0000f5d0       ??$CallUnSafeFunctionReturningSharedPointer@VIXMPDOMParser_I@AdobeXMPCore_Int@@PEAVIXMPDOMConfiguration_v1@AdobeXMPCore@@VIXMPDOMConfiguration_I@2@@AdobeXMPCommon_Int@@YAPEAVIXMPDOMConfiguration_v1@AdobeXMPCore@@AEAPEBVIError_v1@AdobeXMPCommon@@PEAVIXMPDOMParser_I@AdobeXMPCore_Int@@P856@EAA?AV?$shared_ptr@VIXMPDOMConfiguration_I@AdobeXMPCore_Int@@@std@@XZ@Z 00000001800105d0 f i RDFXMPDOMParserImpl.obj
 0001:0000f5d0       ??$CallUnSafeFunctionReturningSharedPointer@VIXMPDOMSerializer_I@AdobeXMPCore_Int@@PEAVIXMPDOMConfiguration_v1@AdobeXMPCore@@VIXMPDOMConfiguration_I@2@@AdobeXMPCommon_Int@@YAPEAVIXMPDOMConfiguration_v1@AdobeXMPCore@@AEAPEBVIError_v1@AdobeXMPCommon@@PEAVIXMPDOMSerializer_I@AdobeXMPCore_Int@@P856@EAA?AV?$shared_ptr@VIXMPDOMConfiguration_I@AdobeXMPCore_Int@@@std@@XZ@Z 00000001800105d0 f i RDFXMPDOMSerializerImpl.obj
 0001:0000f6dc       ??$CallConstUnSafeFunctionReturningSharedPointer@VIError_I@AdobeXMPCommon_Int@@PEBVIUTF8String_v1@AdobeXMPCommon@@$$CBVIUTF8String_I@2@@AdobeXMPCommon_Int@@YAPEBVIUTF8String_v1@AdobeXMPCommon@@AEAPEBVIError_v1@2@QEBVIError_I@0@P840@EBA?AV?$shared_ptr@$$CBVIUTF8String_I@AdobeXMPCommon_Int@@@std@@XZ@Z 00000001800106dc f i XMPCommon:ErrorImpl.obj
 0001:0000f6dc       ??$CallConstUnSafeFunctionReturningSharedPointer@VIXMPMetadata_I@AdobeXMPCore_Int@@PEBVIUTF8String_v1@AdobeXMPCommon@@$$CBVIUTF8String_I@AdobeXMPCommon_Int@@@AdobeXMPCommon_Int@@YAPEBVIUTF8String_v1@AdobeXMPCommon@@AEAPEBVIError_v1@2@QEBVIXMPMetadata_I@AdobeXMPCore_Int@@P845@EBA?AV?$shared_ptr@$$CBVIUTF8String_I@AdobeXMPCommon_Int@@@std@@XZ@Z 00000001800106dc f i XMPMetadataImpl.obj
 0001:0000f6dc       ??$CallConstUnSafeFunctionReturningSharedPointer@VIXMPNode_I@AdobeXMPCore_Int@@PEBVIUTF8String_v1@AdobeXMPCommon@@$$CBVIUTF8String_I@AdobeXMPCommon_Int@@@AdobeXMPCommon_Int@@YAPEBVIUTF8String_v1@AdobeXMPCommon@@AEAPEBVIError_v1@2@QEBVIXMPNode_I@AdobeXMPCore_Int@@P845@EBA?AV?$shared_ptr@$$CBVIUTF8String_I@AdobeXMPCommon_Int@@@std@@XZ@Z 00000001800106dc f i XMPArrayNodeImpl.obj
 0001:0000f6dc       ??$CallConstUnSafeFunctionReturningSharedPointer@VIXMPPathSegment_I@AdobeXMPCore_Int@@PEBVIUTF8String_v1@AdobeXMPCommon@@$$CBVIUTF8String_I@AdobeXMPCommon_Int@@@AdobeXMPCommon_Int@@YAPEBVIUTF8String_v1@AdobeXMPCommon@@AEAPEBVIError_v1@2@QEBVIXMPPathSegment_I@AdobeXMPCore_Int@@P845@EBA?AV?$shared_ptr@$$CBVIUTF8String_I@AdobeXMPCommon_Int@@@std@@XZ@Z 00000001800106dc f i XMPPathSegmentImpl.obj
 0001:0000f6dc       ??$CallConstUnSafeFunctionReturningSharedPointer@VIXMPSimpleNode_I@AdobeXMPCore_Int@@PEBVIUTF8String_v1@AdobeXMPCommon@@$$CBVIUTF8String_I@AdobeXMPCommon_Int@@@AdobeXMPCommon_Int@@YAPEBVIUTF8String_v1@AdobeXMPCommon@@AEAPEBVIError_v1@2@QEBVIXMPSimpleNode_I@AdobeXMPCore_Int@@P845@EBA?AV?$shared_ptr@$$CBVIUTF8String_I@AdobeXMPCommon_Int@@@std@@XZ@Z 00000001800106dc f i XMPSimpleNodeImpl.obj
 0001:0000f7e8       ??$CallConstUnSafeFunctionReturningSharedPointer@VIXMPCompositeNode_I@AdobeXMPCore_Int@@PEAVIXMPConstNodeIterator_v1@AdobeXMPCore@@VIXMPConstNodeIterator_I@2@W4eMultiThreadingSupport@AdobeXMPCommon@@@AdobeXMPCommon_Int@@YAPEAVIXMPConstNodeIterator_v1@AdobeXMPCore@@AEAPEBVIError_v1@AdobeXMPCommon@@QEBVIXMPCompositeNode_I@AdobeXMPCore_Int@@P856@EBA?AV?$shared_ptr@VIXMPConstNodeIterator_I@AdobeXMPCore_Int@@@std@@W4eMultiThreadingSupport@4@@Z2@Z 00000001800107e8 f i XMPArrayNodeImpl.obj
 0001:0000f7e8       ??$CallConstUnSafeFunctionReturningSharedPointer@VIXMPDOMParser_I@AdobeXMPCore_Int@@PEAVIXMPDOMParser_v1@AdobeXMPCore@@V12@W4eMultiThreadingSupport@AdobeXMPCommon@@@AdobeXMPCommon_Int@@YAPEAVIXMPDOMParser_v1@AdobeXMPCore@@AEAPEBVIError_v1@AdobeXMPCommon@@QEBVIXMPDOMParser_I@AdobeXMPCore_Int@@P856@EBA?AV?$shared_ptr@VIXMPDOMParser_I@AdobeXMPCore_Int@@@std@@W4eMultiThreadingSupport@4@@Z2@Z 00000001800107e8 f i RDFXMPDOMParserImpl.obj
 0001:0000f7e8       ??$CallConstUnSafeFunctionReturningSharedPointer@VIXMPDOMSerializer_I@AdobeXMPCore_Int@@PEAVIXMPDOMSerializer_v1@AdobeXMPCore@@V12@W4eMultiThreadingSupport@AdobeXMPCommon@@@AdobeXMPCommon_Int@@YAPEAVIXMPDOMSerializer_v1@AdobeXMPCore@@AEAPEBVIError_v1@AdobeXMPCommon@@QEBVIXMPDOMSerializer_I@AdobeXMPCore_Int@@P856@EBA?AV?$shared_ptr@VIXMPDOMSerializer_I@AdobeXMPCore_Int@@@std@@W4eMultiThreadingSupport@4@@Z2@Z 00000001800107e8 f i RDFXMPDOMSerializerImpl.obj
 0001:0000f7e8       ??$CallConstUnSafeFunctionReturningSharedPointer@VIXMPNode_I@AdobeXMPCore_Int@@PEAVIXMPPath_v1@AdobeXMPCore@@VIXMPPath_I@2@W4eMultiThreadingSupport@AdobeXMPCommon@@@AdobeXMPCommon_Int@@YAPEAVIXMPPath_v1@AdobeXMPCore@@AEAPEBVIError_v1@AdobeXMPCommon@@QEBVIXMPNode_I@AdobeXMPCore_Int@@P856@EBA?AV?$shared_ptr@VIXMPPath_I@AdobeXMPCore_Int@@@std@@W4eMultiThreadingSupport@4@@Z2@Z 00000001800107e8 f i XMPArrayNodeImpl.obj
 0001:0000f7e8       ??$CallConstUnSafeFunctionReturningSharedPointer@VIXMPNameSpacePrefixMap_I@AdobeXMPCore_Int@@PEAVIXMPNameSpacePrefixMap_v1@AdobeXMPCore@@V12@W4eMultiThreadingSupport@AdobeXMPCommon@@@AdobeXMPCommon_Int@@YAPEAVIXMPNameSpacePrefixMap_v1@AdobeXMPCore@@AEAPEBVIError_v1@AdobeXMPCommon@@QEBVIXMPNameSpacePrefixMap_I@AdobeXMPCore_Int@@P856@EBA?AV?$shared_ptr@VIXMPNameSpacePrefixMap_I@AdobeXMPCore_Int@@@std@@W4eMultiThreadingSupport@4@@Z2@Z 00000001800107e8 f i XMPNameSpacePrefixMapImpl.obj
 0001:0000f8fc       ??$CallConstUnSafeFunctionReturningSharedPointer@VIXMPNode_I@AdobeXMPCore_Int@@PEBVIXMPNode_v1@AdobeXMPCore@@$$CBV12@PEBDPEBD@AdobeXMPCommon_Int@@YAPEBVIXMPNode_v1@AdobeXMPCore@@AEAPEBVIError_v1@AdobeXMPCommon@@QEBVIXMPNode_I@AdobeXMPCore_Int@@P856@EBA?AV?$shared_ptr@$$CBVIXMPNode_I@AdobeXMPCore_Int@@@std@@PEBD2@Z22@Z 00000001800108fc f i XMPArrayNodeImpl.obj
 0001:0000f8fc       ??$CallConstUnSafeFunctionReturningSharedPointer@VIXMPStructureNode_I@AdobeXMPCore_Int@@PEBVIXMPNode_v1@AdobeXMPCore@@$$CBVIXMPNode_I@2@PEBDPEBD@AdobeXMPCommon_Int@@YAPEBVIXMPNode_v1@AdobeXMPCore@@AEAPEBVIError_v1@AdobeXMPCommon@@QEBVIXMPStructureNode_I@AdobeXMPCore_Int@@P856@EBA?AV?$shared_ptr@$$CBVIXMPNode_I@AdobeXMPCore_Int@@@std@@PEBD2@Z22@Z 00000001800108fc f i XMPMetadataImpl.obj
 0001:0000fa1c       ??$CallUnSafeFunctionReturningSharedPointer@VIXMPStructureNode_I@AdobeXMPCore_Int@@PEAVIXMPNode_v1@AdobeXMPCore@@VIXMPNode_I@2@PEBDPEBD@AdobeXMPCommon_Int@@YAPEAVIXMPNode_v1@AdobeXMPCore@@AEAPEBVIError_v1@AdobeXMPCommon@@PEAVIXMPStructureNode_I@AdobeXMPCore_Int@@P856@EAA?AV?$shared_ptr@VIXMPNode_I@AdobeXMPCore_Int@@@std@@PEBD2@Z22@Z 0000000180010a1c f i XMPMetadataImpl.obj
 0001:0000fa1c       ??$CallUnSafeFunctionReturningSharedPointer@VIXMPCoreObjectFactory_I@AdobeXMPCore_Int@@PEBVIXMPPathSegment_v1@AdobeXMPCore@@$$CBVIXMPPathSegment_I@2@PEBD_K@AdobeXMPCommon_Int@@YAPEBVIXMPPathSegment_v1@AdobeXMPCore@@AEAPEBVIError_v1@AdobeXMPCommon@@PEAVIXMPCoreObjectFactory_I@AdobeXMPCore_Int@@P856@EAA?AV?$shared_ptr@$$CBVIXMPPathSegment_I@AdobeXMPCore_Int@@@std@@PEBD_K@Z23@Z 0000000180010a1c f i XMPCoreObjectFactoryImpl.obj
 0001:0000fa1c       ??$CallUnSafeFunctionReturningSharedPointer@VIXMPNode_I@AdobeXMPCore_Int@@PEAVIXMPNode_v1@AdobeXMPCore@@V12@PEBDPEBD@AdobeXMPCommon_Int@@YAPEAVIXMPNode_v1@AdobeXMPCore@@AEAPEBVIError_v1@AdobeXMPCommon@@PEAVIXMPNode_I@AdobeXMPCore_Int@@P856@EAA?AV?$shared_ptr@VIXMPNode_I@AdobeXMPCore_Int@@@std@@PEBD2@Z22@Z 0000000180010a1c f i XMPArrayNodeImpl.obj
 0001:0000fa1c       ??$CallUnSafeFunctionReturningSharedPointer@VIXMPCoreObjectFactory_I@AdobeXMPCore_Int@@PEBVIXMPPathSegment_v1@AdobeXMPCore@@$$CBVIXMPPathSegment_I@2@PEBDPEBD@AdobeXMPCommon_Int@@YAPEBVIXMPPathSegment_v1@AdobeXMPCore@@AEAPEBVIError_v1@AdobeXMPCommon@@PEAVIXMPCoreObjectFactory_I@AdobeXMPCore_Int@@P856@EAA?AV?$shared_ptr@$$CBVIXMPPathSegment_I@AdobeXMPCore_Int@@@std@@PEBD2@Z22@Z 0000000180010a1c f i XMPCoreObjectFactoryImpl.obj
 0001:0000fb3c       ??$MakeSharedPointer@VIXMPNode_I@AdobeXMPCore_Int@@VIXMPNode_v1@AdobeXMPCore@@@AdobeXMPCommon_Int@@YA?AV?$shared_ptr@VIXMPNode_I@AdobeXMPCore_Int@@@std@@PEAVIXMPNode_v1@AdobeXMPCore@@AEAPEBVIError_v1@AdobeXMPCommon@@@Z 0000000180010b3c f i XMPArrayNodeImpl.obj
 0001:0000fb80       ??$CallUnSafeFunctionReturningVoid@VIXMPCompositeNode_I@AdobeXMPCore_Int@@AEBV?$shared_ptr@VIXMPNode_I@AdobeXMPCore_Int@@@std@@@AdobeXMPCommon_Int@@YAXAEAPEBVIError_v1@AdobeXMPCommon@@PEAVIXMPCompositeNode_I@AdobeXMPCore_Int@@P834@EAAXAEBV?$shared_ptr@VIXMPNode_I@AdobeXMPCore_Int@@@std@@@Z2@Z 0000000180010b80 f i XMPArrayNodeImpl.obj
 0001:0000fb80       ??$CallUnSafeFunctionReturningVoid@VIXMPPath_I@AdobeXMPCore_Int@@_K@AdobeXMPCommon_Int@@YAXAEAPEBVIError_v1@AdobeXMPCommon@@PEAVIXMPPath_I@AdobeXMPCore_Int@@P834@EAAX_K@Z2@Z 0000000180010b80 f i XMPPathImpl.obj
 0001:0000fb80       ??$CallUnSafeFunctionReturningVoid@VIXMPNode_I@AdobeXMPCore_Int@@AEBV?$shared_ptr@VIXMPNode_I@AdobeXMPCore_Int@@@std@@@AdobeXMPCommon_Int@@YAXAEAPEBVIError_v1@AdobeXMPCommon@@PEAVIXMPNode_I@AdobeXMPCore_Int@@P834@EAAXAEBV?$shared_ptr@VIXMPNode_I@AdobeXMPCore_Int@@@std@@@Z2@Z 0000000180010b80 f i XMPArrayNodeImpl.obj
 0001:0000fb80       ??$CallUnSafeFunctionReturningVoid@VIXMPStructureNode_I@AdobeXMPCore_Int@@AEBV?$shared_ptr@VIXMPNode_I@AdobeXMPCore_Int@@@std@@@AdobeXMPCommon_Int@@YAXAEAPEBVIError_v1@AdobeXMPCommon@@PEAVIXMPStructureNode_I@AdobeXMPCore_Int@@P834@EAAXAEBV?$shared_ptr@VIXMPNode_I@AdobeXMPCore_Int@@@std@@@Z2@Z 0000000180010b80 f i XMPMetadataImpl.obj
 0001:0000fb80       ??$CallUnSafeFunctionReturningVoid@VIXMPNode_I@AdobeXMPCore_Int@@AEBV?$shared_ptr@VIXMPQualifiers_I@AdobeXMPCore_Int@@@std@@@AdobeXMPCommon_Int@@YAXAEAPEBVIError_v1@AdobeXMPCommon@@PEAVIXMPNode_I@AdobeXMPCore_Int@@P834@EAAXAEBV?$shared_ptr@VIXMPQualifiers_I@AdobeXMPCore_Int@@@std@@@Z2@Z 0000000180010b80 f i XMPCompositeNodeImpl.obj
 0001:0000fb80       ??$CallUnSafeFunctionReturningVoid@VIXMPPath_I@AdobeXMPCore_Int@@AEBV?$shared_ptr@$$CBVIXMPPathSegment_I@AdobeXMPCore_Int@@@std@@@AdobeXMPCommon_Int@@YAXAEAPEBVIError_v1@AdobeXMPCommon@@PEAVIXMPPath_I@AdobeXMPCore_Int@@P834@EAAXAEBV?$shared_ptr@$$CBVIXMPPathSegment_I@AdobeXMPCore_Int@@@std@@@Z2@Z 0000000180010b80 f i XMPPathImpl.obj
 0001:0000fb80       ??$CallUnSafeFunctionReturningVoid@VIXMPSimpleNode_I@AdobeXMPCore_Int@@PEBD@AdobeXMPCommon_Int@@YAXAEAPEBVIError_v1@AdobeXMPCommon@@PEAVIXMPSimpleNode_I@AdobeXMPCore_Int@@P834@EAAXPEBD@Z2@Z 0000000180010b80 f i XMPSimpleNodeImpl.obj
 0001:0000fb80       ??$CallUnSafeFunctionReturningVoid@VIXMPMetadata_I@AdobeXMPCore_Int@@PEBD@AdobeXMPCommon_Int@@YAXAEAPEBVIError_v1@AdobeXMPCommon@@PEAVIXMPMetadata_I@AdobeXMPCore_Int@@P834@EAAXPEBD@Z2@Z 0000000180010b80 f i XMPMetadataImpl.obj
 0001:0000fbbc       ??$CallConstUnSafeFunction@VIXMPNode_I@AdobeXMPCore_Int@@KW4eXMPNodeType@IXMPNode_v1@AdobeXMPCore@@@AdobeXMPCommon_Int@@YAKAEAPEBVIError_v1@AdobeXMPCommon@@QEBVIXMPNode_I@AdobeXMPCore_Int@@KP834@EBA?AW4eXMPNodeType@IXMPNode_v1@AdobeXMPCore@@XZ@Z 0000000180010bbc f i XMPArrayNodeImpl.obj
 0001:0000fbbc       ??$CallConstUnSafeFunction@VIXMPPathSegment_I@AdobeXMPCore_Int@@KW4eXMPPathSegmentType@IXMPPathSegment_v1@AdobeXMPCore@@@AdobeXMPCommon_Int@@YAKAEAPEBVIError_v1@AdobeXMPCommon@@QEBVIXMPPathSegment_I@AdobeXMPCore_Int@@KP834@EBA?AW4eXMPPathSegmentType@IXMPPathSegment_v1@AdobeXMPCore@@XZ@Z 0000000180010bbc f i XMPPathSegmentImpl.obj
 0001:0000fbbc       ??$CallConstUnSafeFunction@VIError_I@AdobeXMPCommon_Int@@KW4eErrorDomain@IError_v1@AdobeXMPCommon@@@AdobeXMPCommon_Int@@YAKAEAPEBVIError_v1@AdobeXMPCommon@@QEBVIError_I@0@KP830@EBA?AW4eErrorDomain@12@XZ@Z 0000000180010bbc f i XMPCommon:ErrorImpl.obj
 0001:0000fbbc       ??$CallConstUnSafeFunction@VIError_I@AdobeXMPCommon_Int@@KK@AdobeXMPCommon_Int@@YAKAEAPEBVIError_v1@AdobeXMPCommon@@QEBVIError_I@0@KP830@EBAKXZ@Z 0000000180010bbc f i XMPCommon:ErrorImpl.obj
 0001:0000fbbc       ??$CallConstUnSafeFunction@VIXMPArrayNode_I@AdobeXMPCore_Int@@KW4eXMPArrayNodeForm@IXMPArrayNode_v1@AdobeXMPCore@@@AdobeXMPCommon_Int@@YAKAEAPEBVIError_v1@AdobeXMPCommon@@QEBVIXMPArrayNode_I@AdobeXMPCore_Int@@KP834@EBA?AW4eXMPArrayNodeForm@IXMPArrayNode_v1@AdobeXMPCore@@XZ@Z 0000000180010bbc f i XMPArrayNodeImpl.obj
 0001:0000fbbc       ??$CallConstUnSafeFunction@VIError_I@AdobeXMPCommon_Int@@KW4eErrorSeverity@IError_v1@AdobeXMPCommon@@@AdobeXMPCommon_Int@@YAKAEAPEBVIError_v1@AdobeXMPCommon@@QEBVIError_I@0@KP830@EBA?AW4eErrorSeverity@12@XZ@Z 0000000180010bbc f i XMPCommon:ErrorImpl.obj
 0001:0000fbfc       ??$CallConstUnSafeFunction@VIXMPNode_I@AdobeXMPCore_Int@@K_N@AdobeXMPCommon_Int@@YAKAEAPEBVIError_v1@AdobeXMPCommon@@QEBVIXMPNode_I@AdobeXMPCore_Int@@KP834@EBA_NXZ@Z 0000000180010bfc f i XMPArrayNodeImpl.obj
 0001:0000fc40       ??$CallUnSafeFunctionReturningVoid@VIXMPNode_I@AdobeXMPCore_Int@@_N_N@AdobeXMPCommon_Int@@YAXAEAPEBVIError_v1@AdobeXMPCommon@@PEAVIXMPNode_I@AdobeXMPCore_Int@@P834@EAAX_N2@Z22@Z 0000000180010c40 f i XMPArrayNodeImpl.obj
 0001:0000fc88       ??$CallConstUnSafeFunctionReturningSharedPointer@VIXMPNode_I@AdobeXMPCore_Int@@PEAVIXMPNode_v1@AdobeXMPCore@@V12@_N_NW4eMultiThreadingSupport@AdobeXMPCommon@@@AdobeXMPCommon_Int@@YAPEAVIXMPNode_v1@AdobeXMPCore@@AEAPEBVIError_v1@AdobeXMPCommon@@QEBVIXMPNode_I@AdobeXMPCore_Int@@P856@EBA?AV?$shared_ptr@VIXMPNode_I@AdobeXMPCore_Int@@@std@@_N2W4eMultiThreadingSupport@4@@Z223@Z 0000000180010c88 f i XMPArrayNodeImpl.obj
 0001:0000fdb8       ??$MakeSharedPointer@$$CBVIXMPPath_I@AdobeXMPCore_Int@@$$CBVIXMPPath_v1@AdobeXMPCore@@@AdobeXMPCommon_Int@@YA?AV?$shared_ptr@$$CBVIXMPPath_I@AdobeXMPCore_Int@@@std@@PEBVIXMPPath_v1@AdobeXMPCore@@AEAPEBVIError_v1@AdobeXMPCommon@@@Z 0000000180010db8 f i XMPArrayNodeImpl.obj
 0001:0000fdfc       ??$CallConstUnSafeFunctionReturningSharedPointer@VIXMPPath_I@AdobeXMPCore_Int@@PEBVIXMPPathSegment_v1@AdobeXMPCore@@$$CBVIXMPPathSegment_I@2@_K@AdobeXMPCommon_Int@@YAPEBVIXMPPathSegment_v1@AdobeXMPCore@@AEAPEBVIError_v1@AdobeXMPCommon@@QEBVIXMPPath_I@AdobeXMPCore_Int@@P856@EBA?AV?$shared_ptr@$$CBVIXMPPathSegment_I@AdobeXMPCore_Int@@@std@@_K@Z2@Z 0000000180010dfc f i XMPPathImpl.obj
 0001:0000fdfc       ??$CallConstUnSafeFunctionReturningSharedPointer@VIXMPCompositeNode_I@AdobeXMPCore_Int@@PEBVIXMPNode_v1@AdobeXMPCore@@$$CBVIXMPNode_I@2@AEBV?$shared_ptr@$$CBVIXMPPath_I@AdobeXMPCore_Int@@@std@@@AdobeXMPCommon_Int@@YAPEBVIXMPNode_v1@AdobeXMPCore@@AEAPEBVIError_v1@AdobeXMPCommon@@QEBVIXMPCompositeNode_I@AdobeXMPCore_Int@@P856@EBA?AV?$shared_ptr@$$CBVIXMPNode_I@AdobeXMPCore_Int@@@std@@AEBV?$shared_ptr@$$CBVIXMPPath_I@AdobeXMPCore_Int@@@8@@Z2@Z 0000000180010dfc f i XMPArrayNodeImpl.obj
 0001:0000fdfc       ??$CallConstUnSafeFunctionReturningSharedPointer@VIXMPArrayNode_I@AdobeXMPCore_Int@@PEBVIXMPNode_v1@AdobeXMPCore@@$$CBVIXMPNode_I@2@_K@AdobeXMPCommon_Int@@YAPEBVIXMPNode_v1@AdobeXMPCore@@AEAPEBVIError_v1@AdobeXMPCommon@@QEBVIXMPArrayNode_I@AdobeXMPCore_Int@@P856@EBA?AV?$shared_ptr@$$CBVIXMPNode_I@AdobeXMPCore_Int@@@std@@_K@Z2@Z 0000000180010dfc f i XMPArrayNodeImpl.obj
 0001:0000ff10       ??$CallUnSafeFunctionReturningSharedPointer@VIXMPArrayNode_I@AdobeXMPCore_Int@@PEAVIXMPNode_v1@AdobeXMPCore@@VIXMPNode_I@2@_K@AdobeXMPCommon_Int@@YAPEAVIXMPNode_v1@AdobeXMPCore@@AEAPEBVIError_v1@AdobeXMPCommon@@PEAVIXMPArrayNode_I@AdobeXMPCore_Int@@P856@EAA?AV?$shared_ptr@VIXMPNode_I@AdobeXMPCore_Int@@@std@@_K@Z2@Z 0000000180010f10 f i XMPArrayNodeImpl.obj
 0001:0000ff10       ??$CallUnSafeFunctionReturningSharedPointer@VIXMPCompositeNode_I@AdobeXMPCore_Int@@PEAVIXMPNode_v1@AdobeXMPCore@@VIXMPNode_I@2@AEBV?$shared_ptr@$$CBVIXMPPath_I@AdobeXMPCore_Int@@@std@@@AdobeXMPCommon_Int@@YAPEAVIXMPNode_v1@AdobeXMPCore@@AEAPEBVIError_v1@AdobeXMPCommon@@PEAVIXMPCompositeNode_I@AdobeXMPCore_Int@@P856@EAA?AV?$shared_ptr@VIXMPNode_I@AdobeXMPCore_Int@@@std@@AEBV?$shared_ptr@$$CBVIXMPPath_I@AdobeXMPCore_Int@@@8@@Z2@Z 0000000180010f10 f i XMPArrayNodeImpl.obj
 0001:00010024       ??$CallUnSafeFunctionReturningVoid@VIXMPCompositeNode_I@AdobeXMPCore_Int@@AEBV?$shared_ptr@VIXMPNode_I@AdobeXMPCore_Int@@@std@@AEBV?$shared_ptr@$$CBVIXMPPath_I@AdobeXMPCore_Int@@@4@@AdobeXMPCommon_Int@@YAXAEAPEBVIError_v1@AdobeXMPCommon@@PEAVIXMPCompositeNode_I@AdobeXMPCore_Int@@P834@EAAXAEBV?$shared_ptr@VIXMPNode_I@AdobeXMPCore_Int@@@std@@AEBV?$shared_ptr@$$CBVIXMPPath_I@AdobeXMPCore_Int@@@6@@Z23@Z 0000000180011024 f i XMPArrayNodeImpl.obj
 0001:00010024       ??$CallUnSafeFunctionReturningVoid@VIXMPArrayNode_I@AdobeXMPCore_Int@@AEBV?$shared_ptr@VIXMPNode_I@AdobeXMPCore_Int@@@std@@_K@AdobeXMPCommon_Int@@YAXAEAPEBVIError_v1@AdobeXMPCommon@@PEAVIXMPArrayNode_I@AdobeXMPCore_Int@@P834@EAAXAEBV?$shared_ptr@VIXMPNode_I@AdobeXMPCore_Int@@@std@@_K@Z23@Z 0000000180011024 f i XMPArrayNodeImpl.obj
 0001:0001006c       ??$CallUnSafeFunctionReturningSharedPointer@VIXMPCoreObjectFactory_I@AdobeXMPCore_Int@@PEAVIXMPNameSpacePrefixMap_v1@AdobeXMPCore@@VIXMPNameSpacePrefixMap_I@2@W4eMultiThreadingSupport@AdobeXMPCommon@@@AdobeXMPCommon_Int@@YAPEAVIXMPNameSpacePrefixMap_v1@AdobeXMPCore@@AEAPEBVIError_v1@AdobeXMPCommon@@PEAVIXMPCoreObjectFactory_I@AdobeXMPCore_Int@@P856@EAA?AV?$shared_ptr@VIXMPNameSpacePrefixMap_I@AdobeXMPCore_Int@@@std@@W4eMultiThreadingSupport@4@@Z2@Z 000000018001106c f i XMPCoreObjectFactoryImpl.obj
 0001:0001006c       ??$CallUnSafeFunctionReturningSharedPointer@VIXMPCompositeNode_I@AdobeXMPCore_Int@@PEAVIXMPNodeIterator_v1@AdobeXMPCore@@VIXMPNodeIterator_I@2@W4eMultiThreadingSupport@AdobeXMPCommon@@@AdobeXMPCommon_Int@@YAPEAVIXMPNodeIterator_v1@AdobeXMPCore@@AEAPEBVIError_v1@AdobeXMPCommon@@PEAVIXMPCompositeNode_I@AdobeXMPCore_Int@@P856@EAA?AV?$shared_ptr@VIXMPNodeIterator_I@AdobeXMPCore_Int@@@std@@W4eMultiThreadingSupport@4@@Z2@Z 000000018001106c f i XMPArrayNodeImpl.obj
 0001:00010180       ??$CallConstUnSafeFunction@VIXMPNameSpacePrefixMap_I@AdobeXMPCore_Int@@_K_K@AdobeXMPCommon_Int@@YA_KAEAPEBVIError_v1@AdobeXMPCommon@@QEBVIXMPNameSpacePrefixMap_I@AdobeXMPCore_Int@@_KP834@EBA_KXZ@Z 0000000180011180 f i XMPNameSpacePrefixMapImpl.obj
 0001:00010180       ??$CallConstUnSafeFunction@VIXMPCompositeNode_I@AdobeXMPCore_Int@@_K_K@AdobeXMPCommon_Int@@YA_KAEAPEBVIError_v1@AdobeXMPCommon@@QEBVIXMPCompositeNode_I@AdobeXMPCore_Int@@_KP834@EBA_KXZ@Z 0000000180011180 f i XMPArrayNodeImpl.obj
 0001:000101c0       ??$CallConstUnSafeFunction@VIXMPCompositeNode_I@AdobeXMPCore_Int@@K_N@AdobeXMPCommon_Int@@YAKAEAPEBVIError_v1@AdobeXMPCommon@@QEBVIXMPCompositeNode_I@AdobeXMPCore_Int@@KP834@EBA_NXZ@Z 00000001800111c0 f i XMPArrayNodeImpl.obj
 0001:000101c0       ??$CallConstUnSafeFunction@VIXMPSimpleNode_I@AdobeXMPCore_Int@@K_N@AdobeXMPCommon_Int@@YAKAEAPEBVIError_v1@AdobeXMPCommon@@QEBVIXMPSimpleNode_I@AdobeXMPCore_Int@@KP834@EBA_NXZ@Z 00000001800111c0 f i XMPSimpleNodeImpl.obj
 0001:000101c0       ??$CallConstUnSafeFunction@VIUTF8String_I@AdobeXMPCommon_Int@@K_N@AdobeXMPCommon_Int@@YAKAEAPEBVIError_v1@AdobeXMPCommon@@QEBVIUTF8String_I@0@KP830@EBA_NXZ@Z 00000001800111c0 f i XMPCommon:UTF8StringImpl.obj
 0001:00010200       ??$MakeUncheckedSharedPointer@VXMPArrayNodeImpl@AdobeXMPCore_Int@@@AdobeXMPCommon_Int@@YA?AV?$shared_ptr@VXMPArrayNodeImpl@AdobeXMPCore_Int@@@std@@PEAVXMPArrayNodeImpl@AdobeXMPCore_Int@@@Z 0000000180011200 f i XMPArrayNodeImpl.obj
 0001:0001027c       ??$MakeUncheckedSharedPointer@VIXMPNode_I@AdobeXMPCore_Int@@@AdobeXMPCommon_Int@@YA?AV?$shared_ptr@VIXMPNode_I@AdobeXMPCore_Int@@@std@@PEAVIXMPNode_I@AdobeXMPCore_Int@@@Z 000000018001127c f i XMPArrayNodeImpl.obj
 0001:000102e4       ??$?0VIXMPStructureNode_I@AdobeXMPCore_Int@@X@?$shared_ptr@VIXMPNode_I@AdobeXMPCore_Int@@@std@@QEAA@AEBV?$shared_ptr@VIXMPStructureNode_I@AdobeXMPCore_Int@@@1@@Z 00000001800112e4 f i XMPStructureNodeImpl.obj
 0001:000102e4       ??$?0VIXMPArrayNode_I@AdobeXMPCore_Int@@X@?$shared_ptr@$$CBVIXMPNode_I@AdobeXMPCore_Int@@@std@@QEAA@AEBV?$shared_ptr@VIXMPArrayNode_I@AdobeXMPCore_Int@@@1@@Z 00000001800112e4 f i XMPDocOps2.obj
 0001:000102e4       ??$?0VIXMPMetadata_I@AdobeXMPCore_Int@@X@?$shared_ptr@VIXMPNode_I@AdobeXMPCore_Int@@@std@@QEAA@AEBV?$shared_ptr@VIXMPMetadata_I@AdobeXMPCore_Int@@@1@@Z 00000001800112e4 f i XMPMeta2-GetSet.obj
 0001:000102e4       ??$?0VIXMPSimpleNode_I@AdobeXMPCore_Int@@X@?$shared_ptr@VIXMPNode_I@AdobeXMPCore_Int@@@std@@QEAA@AEBV?$shared_ptr@VIXMPSimpleNode_I@AdobeXMPCore_Int@@@1@@Z 00000001800112e4 f i XMPMeta2-GetSet.obj
 0001:000102e4       ??$?0VIXMPQualifiers_I@AdobeXMPCore_Int@@X@?$shared_ptr@VIXMPNode_I@AdobeXMPCore_Int@@@std@@QEAA@AEBV?$shared_ptr@VIXMPQualifiers_I@AdobeXMPCore_Int@@@1@@Z 00000001800112e4 f i XMPQualifiersImpl.obj
 0001:000102e4       ??$?0VIXMPArrayNode_I@AdobeXMPCore_Int@@X@?$shared_ptr@VIXMPNode_I@AdobeXMPCore_Int@@@std@@QEAA@AEBV?$shared_ptr@VIXMPArrayNode_I@AdobeXMPCore_Int@@@1@@Z 00000001800112e4 f i XMPArrayNodeImpl.obj
 0001:00010374       ??$MakeUncheckedSharedPointer@V?$TXMPConstNodeIteratorImpl@V?$_Vector_const_iterator@V?$_Vector_val@U?$_Simple_types@V?$shared_ptr@VIXMPNode_I@AdobeXMPCore_Int@@@std@@@std@@@std@@@std@@@AdobeXMPCore_Int@@@AdobeXMPCommon_Int@@YA?AV?$shared_ptr@V?$TXMPConstNodeIteratorImpl@V?$_Vector_const_iterator@V?$_Vector_val@U?$_Simple_types@V?$shared_ptr@VIXMPNode_I@AdobeXMPCore_Int@@@std@@@std@@@std@@@std@@@AdobeXMPCore_Int@@@std@@PEAV?$TXMPConstNodeIteratorImpl@V?$_Vector_const_iterator@V?$_Vector_val@U?$_Simple_types@V?$shared_ptr@VIXMPNode_I@AdobeXMPCore_Int@@@std@@@std@@@std@@@std@@@AdobeXMPCore_Int@@@Z 0000000180011374 f i XMPArrayNodeImpl.obj
 0001:000103f0       ??$MakeUncheckedSharedPointer@V?$TXMPNodeIteratorImpl@V?$_Vector_iterator@V?$_Vector_val@U?$_Simple_types@V?$shared_ptr@VIXMPNode_I@AdobeXMPCore_Int@@@std@@@std@@@std@@@std@@@AdobeXMPCore_Int@@@AdobeXMPCommon_Int@@YA?AV?$shared_ptr@V?$TXMPNodeIteratorImpl@V?$_Vector_iterator@V?$_Vector_val@U?$_Simple_types@V?$shared_ptr@VIXMPNode_I@AdobeXMPCore_Int@@@std@@@std@@@std@@@std@@@AdobeXMPCore_Int@@@std@@PEAV?$TXMPNodeIteratorImpl@V?$_Vector_iterator@V?$_Vector_val@U?$_Simple_types@V?$shared_ptr@VIXMPNode_I@AdobeXMPCore_Int@@@std@@@std@@@std@@@std@@@AdobeXMPCore_Int@@@Z 00000001800113f0 f i XMPArrayNodeImpl.obj
 0001:0001046c       ??$MakeSharedPointer@VIXMPNode_I@AdobeXMPCore_Int@@VIXMPNode_v1@AdobeXMPCore@@@AdobeXMPCommon_Int@@YA?AV?$shared_ptr@VIXMPNode_I@AdobeXMPCore_Int@@@std@@PEAVIXMPNode_v1@AdobeXMPCore@@@Z 000000018001146c f i XMPArrayNodeImpl.obj
 0001:000105e8       ??$MakeSharedPointer@$$CBVIXMPPath_I@AdobeXMPCore_Int@@$$CBVIXMPPath_v1@AdobeXMPCore@@@AdobeXMPCommon_Int@@YA?AV?$shared_ptr@$$CBVIXMPPath_I@AdobeXMPCore_Int@@@std@@PEBVIXMPPath_v1@AdobeXMPCore@@@Z 00000001800115e8 f i XMPArrayNodeImpl.obj
 0001:00010764       ??$_Resetp@VXMPArrayNodeImpl@AdobeXMPCore_Int@@V?$_Mem_fn_wrap@XP8XMPNodeImpl@AdobeXMPCore_Int@@EBAXXZ$$CBV12@$$$V@std@@V?$TAllocator@VXMPArrayNodeImpl@AdobeXMPCore_Int@@@AdobeXMPCommon_Int@@@?$shared_ptr@VXMPArrayNodeImpl@AdobeXMPCore_Int@@@std@@AEAAXPEAVXMPArrayNodeImpl@AdobeXMPCore_Int@@V?$_Mem_fn_wrap@XP8XMPNodeImpl@AdobeXMPCore_Int@@EBAXXZ$$CBV12@$$$V@1@V?$TAllocator@VXMPArrayNodeImpl@AdobeXMPCore_Int@@@AdobeXMPCommon_Int@@@Z 0000000180011764 f i XMPArrayNodeImpl.obj
 0001:00010800       ??$_Resetp@VIXMPNode_I@AdobeXMPCore_Int@@V?$_Mem_fn_wrap@XP8ISharedOwnership_v1@AdobeXMPCommon@@EBAXXZ$$CBV12@$$$V@std@@V?$TAllocator@VIXMPNode_I@AdobeXMPCore_Int@@@AdobeXMPCommon_Int@@@?$shared_ptr@VIXMPNode_I@AdobeXMPCore_Int@@@std@@AEAAXPEAVIXMPNode_I@AdobeXMPCore_Int@@V?$_Mem_fn_wrap@XP8ISharedOwnership_v1@AdobeXMPCommon@@EBAXXZ$$CBV12@$$$V@1@V?$TAllocator@VIXMPNode_I@AdobeXMPCore_Int@@@AdobeXMPCommon_Int@@@Z 0000000180011800 f i XMPArrayNodeImpl.obj
 0001:000108a0       ??$_Resetp@V?$TXMPConstNodeIteratorImpl@V?$_Vector_const_iterator@V?$_Vector_val@U?$_Simple_types@V?$shared_ptr@VIXMPNode_I@AdobeXMPCore_Int@@@std@@@std@@@std@@@std@@@AdobeXMPCore_Int@@V?$_Mem_fn_wrap@XP8IntrusiveRefCountSharedOwnership@AdobeXMPCommon_Int@@EBAXXZ$$CBV12@$$$V@std@@V?$TAllocator@V?$TXMPConstNodeIteratorImpl@V?$_Vector_const_iterator@V?$_Vector_val@U?$_Simple_types@V?$shared_ptr@VIXMPNode_I@AdobeXMPCore_Int@@@std@@@std@@@std@@@std@@@AdobeXMPCore_Int@@@AdobeXMPCommon_Int@@@?$shared_ptr@V?$TXMPConstNodeIteratorImpl@V?$_Vector_const_iterator@V?$_Vector_val@U?$_Simple_types@V?$shared_ptr@VIXMPNode_I@AdobeXMPCore_Int@@@std@@@std@@@std@@@std@@@AdobeXMPCore_Int@@@std@@AEAAXPEAV?$TXMPConstNodeIteratorImpl@V?$_Vector_const_iterator@V?$_Vector_val@U?$_Simple_types@V?$shared_ptr@VIXMPNode_I@AdobeXMPCore_Int@@@std@@@std@@@std@@@std@@@AdobeXMPCore_Int@@V?$_Mem_fn_wrap@XP8IntrusiveRefCountSharedOwnership@AdobeXMPCommon_Int@@EBAXXZ$$CBV12@$$$V@1@V?$TAllocator@V?$TXMPConstNodeIteratorImpl@V?$_Vector_const_iterator@V?$_Vector_val@U?$_Simple_types@V?$shared_ptr@VIXMPNode_I@AdobeXMPCore_Int@@@std@@@std@@@std@@@std@@@AdobeXMPCore_Int@@@AdobeXMPCommon_Int@@@Z 00000001800118a0 f i XMPArrayNodeImpl.obj
 0001:0001093c       ??$_Resetp@V?$TXMPNodeIteratorImpl@V?$_Vector_iterator@V?$_Vector_val@U?$_Simple_types@V?$shared_ptr@VIXMPNode_I@AdobeXMPCore_Int@@@std@@@std@@@std@@@std@@@AdobeXMPCore_Int@@V?$_Mem_fn_wrap@XP8IntrusiveRefCountSharedOwnership@AdobeXMPCommon_Int@@EBAXXZ$$CBV12@$$$V@std@@V?$TAllocator@V?$TXMPNodeIteratorImpl@V?$_Vector_iterator@V?$_Vector_val@U?$_Simple_types@V?$shared_ptr@VIXMPNode_I@AdobeXMPCore_Int@@@std@@@std@@@std@@@std@@@AdobeXMPCore_Int@@@AdobeXMPCommon_Int@@@?$shared_ptr@V?$TXMPNodeIteratorImpl@V?$_Vector_iterator@V?$_Vector_val@U?$_Simple_types@V?$shared_ptr@VIXMPNode_I@AdobeXMPCore_Int@@@std@@@std@@@std@@@std@@@AdobeXMPCore_Int@@@std@@AEAAXPEAV?$TXMPNodeIteratorImpl@V?$_Vector_iterator@V?$_Vector_val@U?$_Simple_types@V?$shared_ptr@VIXMPNode_I@AdobeXMPCore_Int@@@std@@@std@@@std@@@std@@@AdobeXMPCore_Int@@V?$_Mem_fn_wrap@XP8IntrusiveRefCountSharedOwnership@AdobeXMPCommon_Int@@EBAXXZ$$CBV12@$$$V@1@V?$TAllocator@V?$TXMPNodeIteratorImpl@V?$_Vector_iterator@V?$_Vector_val@U?$_Simple_types@V?$shared_ptr@VIXMPNode_I@AdobeXMPCore_Int@@@std@@@std@@@std@@@std@@@AdobeXMPCore_Int@@@AdobeXMPCommon_Int@@@Z 000000018001193c f i XMPArrayNodeImpl.obj
 0001:000109d8       ?_Get_deleter@?$_Ref_count_del_alloc@VXMPArrayNodeImpl@AdobeXMPCore_Int@@V?$_Mem_fn_wrap@XP8XMPNodeImpl@AdobeXMPCore_Int@@EBAXXZ$$CBV12@$$$V@std@@V?$TAllocator@VXMPArrayNodeImpl@AdobeXMPCore_Int@@@AdobeXMPCommon_Int@@@std@@UEBAPEAXAEBVtype_info@@@Z 00000001800119d8 f i XMPArrayNodeImpl.obj
 0001:000109d8       ?_Get_deleter@?$_Ref_count_del_alloc@VXMPQualifiersImpl@AdobeXMPCore_Int@@V?$_Mem_fn_wrap@XP8XMPNodeImpl@AdobeXMPCore_Int@@EBAXXZ$$CBV12@$$$V@std@@V?$TAllocator@VXMPQualifiersImpl@AdobeXMPCore_Int@@@AdobeXMPCommon_Int@@@std@@UEBAPEAXAEBVtype_info@@@Z 00000001800119d8 f i XMPQualifiersImpl.obj
 0001:000109d8       ?_Get_deleter@?$_Ref_count_del_alloc@VXMPCompositeNodeImpl@AdobeXMPCore_Int@@V?$_Mem_fn_wrap@XP8XMPNodeImpl@AdobeXMPCore_Int@@EBAXXZ$$CBV12@$$$V@std@@V?$TAllocator@VXMPCompositeNodeImpl@AdobeXMPCore_Int@@@AdobeXMPCommon_Int@@@std@@UEBAPEAXAEBVtype_info@@@Z 00000001800119d8 f i XMPCompositeNodeImpl.obj
 0001:000109d8       ?_Get_deleter@?$_Ref_count_del_alloc@VXMPStructureNodeImpl@AdobeXMPCore_Int@@V?$_Mem_fn_wrap@XP8XMPNodeImpl@AdobeXMPCore_Int@@EBAXXZ$$CBV12@$$$V@std@@V?$TAllocator@VXMPStructureNodeImpl@AdobeXMPCore_Int@@@AdobeXMPCommon_Int@@@std@@UEBAPEAXAEBVtype_info@@@Z 00000001800119d8 f i XMPStructureNodeImpl.obj
 0001:000109d8       ?_Get_deleter@?$_Ref_count_del_alloc@VXMPSimpleNodeImpl@AdobeXMPCore_Int@@V?$_Mem_fn_wrap@XP8XMPNodeImpl@AdobeXMPCore_Int@@EBAXXZ$$CBV12@$$$V@std@@V?$TAllocator@VXMPSimpleNodeImpl@AdobeXMPCore_Int@@@AdobeXMPCommon_Int@@@std@@UEBAPEAXAEBVtype_info@@@Z 00000001800119d8 f i XMPSimpleNodeImpl.obj
 0001:000109d8       ?_Get_deleter@?$_Ref_count_del_alloc@VXMPMetadataImpl@AdobeXMPCore_Int@@V?$_Mem_fn_wrap@XP8XMPNodeImpl@AdobeXMPCore_Int@@EBAXXZ$$CBV12@$$$V@std@@V?$TAllocator@VXMPMetadataImpl@AdobeXMPCore_Int@@@AdobeXMPCommon_Int@@@std@@UEBAPEAXAEBVtype_info@@@Z 00000001800119d8 f i XMPMetadataImpl.obj
 0001:00010a08       ?_Destroy@?$_Ref_count_del_alloc@VXMPStructureNodeImpl@AdobeXMPCore_Int@@V?$_Mem_fn_wrap@XP8XMPNodeImpl@AdobeXMPCore_Int@@EBAXXZ$$CBV12@$$$V@std@@V?$TAllocator@VXMPStructureNodeImpl@AdobeXMPCore_Int@@@AdobeXMPCommon_Int@@@std@@EEAAXXZ 0000000180011a08 f i XMPStructureNodeImpl.obj
 0001:00010a08       ?_Destroy@?$_Ref_count_del_alloc@VXMPArrayNodeImpl@AdobeXMPCore_Int@@V?$_Mem_fn_wrap@XP8XMPNodeImpl@AdobeXMPCore_Int@@EBAXXZ$$CBV12@$$$V@std@@V?$TAllocator@VXMPArrayNodeImpl@AdobeXMPCore_Int@@@AdobeXMPCommon_Int@@@std@@EEAAXXZ 0000000180011a08 f i XMPArrayNodeImpl.obj
 0001:00010a70       ?_Delete_this@?$_Ref_count_del_alloc@VXMPSimpleNodeImpl@AdobeXMPCore_Int@@V?$_Mem_fn_wrap@XP8XMPNodeImpl@AdobeXMPCore_Int@@EBAXXZ$$CBV12@$$$V@std@@V?$TAllocator@VXMPSimpleNodeImpl@AdobeXMPCore_Int@@@AdobeXMPCommon_Int@@@std@@EEAAXXZ 0000000180011a70 f i XMPSimpleNodeImpl.obj
 0001:00010a70       ?_Delete_this@?$_Ref_count_del_alloc@V?$TXMPConstNodeIteratorImpl@V?$_Tree_const_iterator@V?$_Tree_val@U?$_Tree_simple_types@U?$pair@$$CBUQualifiedName@XMPStructureNodeImpl@AdobeXMPCore_Int@@V?$shared_ptr@VIXMPNode_I@AdobeXMPCore_Int@@@std@@@std@@@std@@@std@@@std@@@AdobeXMPCore_Int@@V?$_Mem_fn_wrap@XP8IntrusiveRefCountSharedOwnership@AdobeXMPCommon_Int@@EBAXXZ$$CBV12@$$$V@std@@V?$TAllocator@V?$TXMPConstNodeIteratorImpl@V?$_Tree_const_iterator@V?$_Tree_val@U?$_Tree_simple_types@U?$pair@$$CBUQualifiedName@XMPStructureNodeImpl@AdobeXMPCore_Int@@V?$shared_ptr@VIXMPNode_I@AdobeXMPCore_Int@@@std@@@std@@@std@@@std@@@std@@@AdobeXMPCore_Int@@@AdobeXMPCommon_Int@@@std@@EEAAXXZ 0000000180011a70 f i XMPStructureNodeImpl.obj
 0001:00010a70       ?_Delete_this@?$_Ref_count_del_alloc@VIXMPNode_I@AdobeXMPCore_Int@@V?$_Mem_fn_wrap@XP8ISharedOwnership_v1@AdobeXMPCommon@@EBAXXZ$$CBV12@$$$V@std@@V?$TAllocator@VIXMPNode_I@AdobeXMPCore_Int@@@AdobeXMPCommon_Int@@@std@@EEAAXXZ 0000000180011a70 f i XMPArrayNodeImpl.obj
 0001:00010a70       ?_Delete_this@?$_Ref_count_del_alloc@VXMPPathImpl@AdobeXMPCore_Int@@V?$_Mem_fn_wrap@XP8IntrusiveRefCountSharedOwnership@AdobeXMPCommon_Int@@EBAXXZ$$CBV12@$$$V@std@@V?$TAllocator@VXMPPathImpl@AdobeXMPCore_Int@@@AdobeXMPCommon_Int@@@std@@EEAAXXZ 0000000180011a70 f i XMPPathImpl.obj
 0001:00010a70       ?_Delete_this@?$_Ref_count_del_alloc@VIXMPQualifiers_I@AdobeXMPCore_Int@@V?$_Mem_fn_wrap@XP8ISharedOwnership_v1@AdobeXMPCommon@@EBAXXZ$$CBV12@$$$V@std@@V?$TAllocator@VIXMPQualifiers_I@AdobeXMPCore_Int@@@AdobeXMPCommon_Int@@@std@@EEAAXXZ 0000000180011a70 f i XMPCompositeNodeImpl.obj
 0001:00010a70       ?_Delete_this@?$_Ref_count_del_alloc@VXMPQualifiersImpl@AdobeXMPCore_Int@@V?$_Mem_fn_wrap@XP8XMPNodeImpl@AdobeXMPCore_Int@@EBAXXZ$$CBV12@$$$V@std@@V?$TAllocator@VXMPQualifiersImpl@AdobeXMPCore_Int@@@AdobeXMPCommon_Int@@@std@@EEAAXXZ 0000000180011a70 f i XMPQualifiersImpl.obj
 0001:00010a70       ?_Delete_this@?$_Ref_count_del_alloc@V?$TXMPNodeIteratorImpl@V?$_Vector_iterator@V?$_Vector_val@U?$_Simple_types@V?$shared_ptr@VIXMPNode_I@AdobeXMPCore_Int@@@std@@@std@@@std@@@std@@@AdobeXMPCore_Int@@V?$_Mem_fn_wrap@XP8IntrusiveRefCountSharedOwnership@AdobeXMPCommon_Int@@EBAXXZ$$CBV12@$$$V@std@@V?$TAllocator@V?$TXMPNodeIteratorImpl@V?$_Vector_iterator@V?$_Vector_val@U?$_Simple_types@V?$shared_ptr@VIXMPNode_I@AdobeXMPCore_Int@@@std@@@std@@@std@@@std@@@AdobeXMPCore_Int@@@AdobeXMPCommon_Int@@@std@@EEAAXXZ 0000000180011a70 f i XMPArrayNodeImpl.obj
 0001:00010a70       ?_Delete_this@?$_Ref_count_del_alloc@$$CBVIUTF8String_I@AdobeXMPCommon_Int@@V?$_Mem_fn_wrap@XP8ISharedOwnership_v1@AdobeXMPCommon@@EBAXXZ$$CBV12@$$$V@std@@V?$TAllocator@$$CBVIUTF8String_I@AdobeXMPCommon_Int@@@2@@std@@EEAAXXZ 0000000180011a70 f i XMPCommon:UTF8StringImpl.obj
 0001:00010a70       ?_Delete_this@?$_Ref_count_del_alloc@VInternalClientAllocator@@V?$_Mem_fn_wrap@XP8IntrusiveRefCountSharedOwnership@AdobeXMPCommon_Int@@EBAXXZ$$CBV12@$$$V@std@@V?$TAllocator@VInternalClientAllocator@@@AdobeXMPCommon_Int@@@std@@EEAAXXZ 0000000180011a70 f i XMPMeta.obj
 0001:00010a70       ?_Delete_this@?$_Ref_count_del_alloc@VDefaultClientErrorNotifierImpl@AdobeXMPCommon_Int@@V?$_Mem_fn_wrap@XP8IntrusiveRefCountSharedOwnership@AdobeXMPCommon_Int@@EBAXXZ$$CBV12@$$$V@std@@V?$TAllocator@VDefaultClientErrorNotifierImpl@AdobeXMPCommon_Int@@@2@@std@@EEAAXXZ 0000000180011a70 f i XMPCommon:ErrorNotificationManagerImpl.obj
 0001:00010a70       ?_Delete_this@?$_Ref_count_del_alloc@VIXMPArrayNode_I@AdobeXMPCore_Int@@V?$_Mem_fn_wrap@XP8ISharedOwnership_v1@AdobeXMPCommon@@EBAXXZ$$CBV12@$$$V@std@@V?$TAllocator@VIXMPArrayNode_I@AdobeXMPCore_Int@@@AdobeXMPCommon_Int@@@std@@EEAAXXZ 0000000180011a70 f i XMPCompositeNodeImpl.obj
 0001:00010a70       ?_Delete_this@?$_Ref_count_del_alloc@VRDFXMPDOMSerializerImpl@AdobeXMPCore_Int@@V?$_Mem_fn_wrap@XP8IntrusiveRefCountSharedOwnership@AdobeXMPCommon_Int@@EBAXXZ$$CBV12@$$$V@std@@V?$TAllocator@VRDFXMPDOMSerializerImpl@AdobeXMPCore_Int@@@AdobeXMPCommon_Int@@@std@@EEAAXXZ 0000000180011a70 f i XMPDOMImplementationRegistryImpl.obj
 0001:00010a70       ?_Delete_this@?$_Ref_count_del_alloc@VIXMPSimpleNode_I@AdobeXMPCore_Int@@V?$_Mem_fn_wrap@XP8ISharedOwnership_v1@AdobeXMPCommon@@EBAXXZ$$CBV12@$$$V@std@@V?$TAllocator@VIXMPSimpleNode_I@AdobeXMPCore_Int@@@AdobeXMPCommon_Int@@@std@@EEAAXXZ 0000000180011a70 f i XMPCompositeNodeImpl.obj
 0001:00010a70       ?_Delete_this@?$_Ref_count_del_alloc@V?$TXMPNodeIteratorImpl@V?$_Tree_iterator@V?$_Tree_val@U?$_Tree_simple_types@U?$pair@$$CBUQualifiedName@XMPStructureNodeImpl@AdobeXMPCore_Int@@V?$shared_ptr@VIXMPNode_I@AdobeXMPCore_Int@@@std@@@std@@@std@@@std@@@std@@@AdobeXMPCore_Int@@V?$_Mem_fn_wrap@XP8IntrusiveRefCountSharedOwnership@AdobeXMPCommon_Int@@EBAXXZ$$CBV12@$$$V@std@@V?$TAllocator@V?$TXMPNodeIteratorImpl@V?$_Tree_iterator@V?$_Tree_val@U?$_Tree_simple_types@U?$pair@$$CBUQualifiedName@XMPStructureNodeImpl@AdobeXMPCore_Int@@V?$shared_ptr@VIXMPNode_I@AdobeXMPCore_Int@@@std@@@std@@@std@@@std@@@std@@@AdobeXMPCore_Int@@@AdobeXMPCommon_Int@@@std@@EEAAXXZ 0000000180011a70 f i XMPStructureNodeImpl.obj
 0001:00010a70       ?_Delete_this@?$_Ref_count_del_alloc@$$CBVIXMPPath_I@AdobeXMPCore_Int@@V?$_Mem_fn_wrap@XP8ISharedOwnership_v1@AdobeXMPCommon@@EBAXXZ$$CBV12@$$$V@std@@V?$TAllocator@$$CBVIXMPPath_I@AdobeXMPCore_Int@@@AdobeXMPCommon_Int@@@std@@EEAAXXZ 0000000180011a70 f i XMPArrayNodeImpl.obj
 0001:00010a70       ?_Delete_this@?$_Ref_count_del_alloc@VRDFXMPDOMParserImpl@AdobeXMPCore_Int@@V?$_Mem_fn_wrap@XP8IntrusiveRefCountSharedOwnership@AdobeXMPCommon_Int@@EBAXXZ$$CBV12@$$$V@std@@V?$TAllocator@VRDFXMPDOMParserImpl@AdobeXMPCore_Int@@@AdobeXMPCommon_Int@@@std@@EEAAXXZ 0000000180011a70 f i XMPDOMImplementationRegistryImpl.obj
 0001:00010a70       ?_Delete_this@?$_Ref_count_del_alloc@$$CBVIXMPNameSpacePrefixMap_I@AdobeXMPCore_Int@@V?$_Mem_fn_wrap@XP8ISharedOwnership_v1@AdobeXMPCommon@@EBAXXZ$$CBV12@$$$V@std@@V?$TAllocator@$$CBVIXMPNameSpacePrefixMap_I@AdobeXMPCore_Int@@@AdobeXMPCommon_Int@@@std@@EEAAXXZ 0000000180011a70 f i XMPCoreObjectFactoryImpl.obj
 0001:00010a70       ?_Delete_this@?$_Ref_count_del_alloc@VIConfigurationManager_I@AdobeXMPCommon_Int@@V?$_Mem_fn_wrap@XP8ISharedOwnership_v1@AdobeXMPCommon@@EBAXXZ$$CBV12@$$$V@std@@V?$TAllocator@VIConfigurationManager_I@AdobeXMPCommon_Int@@@2@@std@@EEAAXXZ 0000000180011a70 f i XMPCommon:XMPCommon.obj
 0001:00010a70       ?_Delete_this@?$_Ref_count_del_alloc@VClientErrorNotifierWrapperImpl_v1@AdobeXMPCommon_Int@@V?$_Mem_fn_wrap@XP8IntrusiveRefCountSharedOwnership@AdobeXMPCommon_Int@@EBAXXZ$$CBV12@$$$V@std@@V?$TAllocator@VClientErrorNotifierWrapperImpl_v1@AdobeXMPCommon_Int@@@2@@std@@EEAAXXZ 0000000180011a70 f i XMPCommon:ClientErrorNotifierWrapperImpl.obj
 0001:00010a70       ?_Delete_this@?$_Ref_count_del_alloc@$$CBVIError_v1@AdobeXMPCommon@@V?$_Mem_fn_wrap@XP8ISharedOwnership_v1@AdobeXMPCommon@@EBAXXZ$$CBV12@$$$V@std@@V?$TAllocator@$$CBVIError_v1@AdobeXMPCommon@@@AdobeXMPCommon_Int@@@std@@EEAAXXZ 0000000180011a70 f i XMPCommon:ClientAllocatorWrapperImpl.obj
 0001:00010a70       ?_Delete_this@?$_Ref_count_del_alloc@VXMPStructureNodeImpl@AdobeXMPCore_Int@@V?$_Mem_fn_wrap@XP8XMPNodeImpl@AdobeXMPCore_Int@@EBAXXZ$$CBV12@$$$V@std@@V?$TAllocator@VXMPStructureNodeImpl@AdobeXMPCore_Int@@@AdobeXMPCommon_Int@@@std@@EEAAXXZ 0000000180011a70 f i XMPStructureNodeImpl.obj
 0001:00010a70       ?_Delete_this@?$_Ref_count_del_alloc@$$CBVIXMPPathSegment_I@AdobeXMPCore_Int@@V?$_Mem_fn_wrap@XP8ISharedOwnership_v1@AdobeXMPCommon@@EBAXXZ$$CBV12@$$$V@std@@V?$TAllocator@$$CBVIXMPPathSegment_I@AdobeXMPCore_Int@@@AdobeXMPCommon_Int@@@std@@EEAAXXZ 0000000180011a70 f i XMPPathImpl.obj
 0001:00010a70       ?_Delete_this@?$_Ref_count_del_alloc@VIClientErrorNotifier_v1@AdobeXMPCommon@@V?$_Mem_fn_wrap@XP8ISharedOwnership_v1@AdobeXMPCommon@@EBAXXZ$$CBV12@$$$V@std@@V?$TAllocator@VIClientErrorNotifier_v1@AdobeXMPCommon@@@AdobeXMPCommon_Int@@@std@@EEAAXXZ 0000000180011a70 f i XMPCommon:ClientErrorNotifierWrapperImpl.obj
 0001:00010a70       ?_Delete_this@?$_Ref_count_del_alloc@VIXMPStructureNode_I@AdobeXMPCore_Int@@V?$_Mem_fn_wrap@XP8ISharedOwnership_v1@AdobeXMPCommon@@EBAXXZ$$CBV12@$$$V@std@@V?$TAllocator@VIXMPStructureNode_I@AdobeXMPCore_Int@@@AdobeXMPCommon_Int@@@std@@EEAAXXZ 0000000180011a70 f i XMPCompositeNodeImpl.obj
 0001:00010a70       ?_Delete_this@?$_Ref_count_del_alloc@VIClientAllocator_v1@AdobeXMPCommon@@V?$_Mem_fn_wrap@XP8ISharedOwnership_v1@AdobeXMPCommon@@EBAXXZ$$CBV12@$$$V@std@@V?$TAllocator@VIClientAllocator_v1@AdobeXMPCommon@@@AdobeXMPCommon_Int@@@std@@EEAAXXZ 0000000180011a70 f i XMPCommon:ClientAllocatorWrapperImpl.obj
 0001:00010a70       ?_Delete_this@?$_Ref_count_del_alloc@VXMPNameSpacePrefixMapImpl@AdobeXMPCore_Int@@V?$_Mem_fn_wrap@XP8IntrusiveRefCountSharedOwnership@AdobeXMPCommon_Int@@EBAXXZ$$CBV12@$$$V@std@@V?$TAllocator@VXMPNameSpacePrefixMapImpl@AdobeXMPCore_Int@@@AdobeXMPCommon_Int@@@std@@EEAAXXZ 0000000180011a70 f i XMPNameSpacePrefixMapImpl.obj
 0001:00010a70       ?_Delete_this@?$_Ref_count_del_alloc@VXMPMetadataImpl@AdobeXMPCore_Int@@V?$_Mem_fn_wrap@XP8XMPNodeImpl@AdobeXMPCore_Int@@EBAXXZ$$CBV12@$$$V@std@@V?$TAllocator@VXMPMetadataImpl@AdobeXMPCore_Int@@@AdobeXMPCommon_Int@@@std@@EEAAXXZ 0000000180011a70 f i XMPMetadataImpl.obj
 0001:00010a70       ?_Delete_this@?$_Ref_count_del_alloc@VIXMPDOMImplementationRegistry_I@AdobeXMPCore_Int@@V?$_Mem_fn_wrap@XP8ISharedOwnership_v1@AdobeXMPCommon@@EBAXXZ$$CBV12@$$$V@std@@V?$TAllocator@VIXMPDOMImplementationRegistry_I@AdobeXMPCore_Int@@@AdobeXMPCommon_Int@@@std@@EEAAXXZ 0000000180011a70 f i XMPCoreObjectFactoryImpl.obj
 0001:00010a70       ?_Delete_this@?$_Ref_count_del_alloc@VClientAllocatorWrapperImpl_v1@AdobeXMPCommon_Int@@V?$_Mem_fn_wrap@XP8IntrusiveRefCountSharedOwnership@AdobeXMPCommon_Int@@EBAXXZ$$CBV12@$$$V@std@@V?$TAllocator@VClientAllocatorWrapperImpl_v1@AdobeXMPCommon_Int@@@2@@std@@EEAAXXZ 0000000180011a70 f i XMPCommon:ClientAllocatorWrapperImpl.obj
 0001:00010a70       ?_Delete_this@?$_Ref_count_del_alloc@VErrorImpl@AdobeXMPCommon_Int@@V?$_Mem_fn_wrap@XP8IntrusiveRefCountSharedOwnership@AdobeXMPCommon_Int@@EBAXXZ$$CBV12@$$$V@std@@V?$TAllocator@VErrorImpl@AdobeXMPCommon_Int@@@2@@std@@EEAAXXZ 0000000180011a70 f i XMPCommon:ErrorImpl.obj
 0001:00010a70       ?_Delete_this@?$_Ref_count_del_alloc@VXMPPathSegmentImpl@AdobeXMPCore_Int@@V?$_Mem_fn_wrap@XP8IntrusiveRefCountSharedOwnership@AdobeXMPCommon_Int@@EBAXXZ$$CBV12@$$$V@std@@V?$TAllocator@VXMPPathSegmentImpl@AdobeXMPCore_Int@@@AdobeXMPCommon_Int@@@std@@EEAAXXZ 0000000180011a70 f i XMPPathSegmentImpl.obj
 0001:00010a70       ?_Delete_this@?$_Ref_count_del_alloc@VIXMPMetadata_I@AdobeXMPCore_Int@@V?$_Mem_fn_wrap@XP8ISharedOwnership_v1@AdobeXMPCommon@@EBAXXZ$$CBV12@$$$V@std@@V?$TAllocator@VIXMPMetadata_I@AdobeXMPCore_Int@@@AdobeXMPCommon_Int@@@std@@EEAAXXZ 0000000180011a70 f i XMPMeta2-GetSet.obj
 0001:00010a70       ?_Delete_this@?$_Ref_count_del_alloc@V?$TXMPConstNodeIteratorImpl@V?$_Vector_const_iterator@V?$_Vector_val@U?$_Simple_types@V?$shared_ptr@VIXMPNode_I@AdobeXMPCore_Int@@@std@@@std@@@std@@@std@@@AdobeXMPCore_Int@@V?$_Mem_fn_wrap@XP8IntrusiveRefCountSharedOwnership@AdobeXMPCommon_Int@@EBAXXZ$$CBV12@$$$V@std@@V?$TAllocator@V?$TXMPConstNodeIteratorImpl@V?$_Vector_const_iterator@V?$_Vector_val@U?$_Simple_types@V?$shared_ptr@VIXMPNode_I@AdobeXMPCore_Int@@@std@@@std@@@std@@@std@@@AdobeXMPCore_Int@@@AdobeXMPCommon_Int@@@std@@EEAAXXZ 0000000180011a70 f i XMPArrayNodeImpl.obj
 0001:00010a70       ?_Delete_this@?$_Ref_count_del_alloc@VUTF8StringImpl@AdobeXMPCommon_Int@@V?$_Mem_fn_wrap@XP8IntrusiveRefCountSharedOwnership@AdobeXMPCommon_Int@@EBAXXZ$$CBV12@$$$V@std@@V?$TAllocator@VUTF8StringImpl@AdobeXMPCommon_Int@@@2@@std@@EEAAXXZ 0000000180011a70 f i XMPCommon:UTF8StringImpl.obj
 0001:00010a70       ?_Delete_this@?$_Ref_count_del_alloc@VXMPArrayNodeImpl@AdobeXMPCore_Int@@V?$_Mem_fn_wrap@XP8XMPNodeImpl@AdobeXMPCore_Int@@EBAXXZ$$CBV12@$$$V@std@@V?$TAllocator@VXMPArrayNodeImpl@AdobeXMPCore_Int@@@AdobeXMPCommon_Int@@@std@@EEAAXXZ 0000000180011a70 f i XMPArrayNodeImpl.obj
 0001:00010a70       ?_Delete_this@?$_Ref_count_del_alloc@VXMPCompositeNodeImpl@AdobeXMPCore_Int@@V?$_Mem_fn_wrap@XP8XMPNodeImpl@AdobeXMPCore_Int@@EBAXXZ$$CBV12@$$$V@std@@V?$TAllocator@VXMPCompositeNodeImpl@AdobeXMPCore_Int@@@AdobeXMPCommon_Int@@@std@@EEAAXXZ 0000000180011a70 f i XMPCompositeNodeImpl.obj
 0001:00010a70       ?_Delete_this@?$_Ref_count_del_alloc@VSharedMutexImpl@AdobeXMPCommon_Int@@V?$_Mem_fn_wrap@XP8IntrusiveRefCountSharedOwnership@AdobeXMPCommon_Int@@EBAXXZ$$CBV12@$$$V@std@@V?$TAllocator@VSharedMutexImpl@AdobeXMPCommon_Int@@@2@@std@@EEAAXXZ 0000000180011a70 f i XMPCommon:SharedMutexImpl.obj
 0001:00010a90       ?_Get_deleter@?$_Ref_count_del_alloc@VIClientAllocator_v1@AdobeXMPCommon@@V?$_Mem_fn_wrap@XP8ISharedOwnership_v1@AdobeXMPCommon@@EBAXXZ$$CBV12@$$$V@std@@V?$TAllocator@VIClientAllocator_v1@AdobeXMPCommon@@@AdobeXMPCommon_Int@@@std@@UEBAPEAXAEBVtype_info@@@Z 0000000180011a90 f i XMPCommon:ClientAllocatorWrapperImpl.obj
 0001:00010a90       ?_Get_deleter@?$_Ref_count_del_alloc@$$CBVIXMPNameSpacePrefixMap_I@AdobeXMPCore_Int@@V?$_Mem_fn_wrap@XP8ISharedOwnership_v1@AdobeXMPCommon@@EBAXXZ$$CBV12@$$$V@std@@V?$TAllocator@$$CBVIXMPNameSpacePrefixMap_I@AdobeXMPCore_Int@@@AdobeXMPCommon_Int@@@std@@UEBAPEAXAEBVtype_info@@@Z 0000000180011a90 f i XMPCoreObjectFactoryImpl.obj
 0001:00010a90       ?_Get_deleter@?$_Ref_count_del_alloc@$$CBVIXMPPath_I@AdobeXMPCore_Int@@V?$_Mem_fn_wrap@XP8ISharedOwnership_v1@AdobeXMPCommon@@EBAXXZ$$CBV12@$$$V@std@@V?$TAllocator@$$CBVIXMPPath_I@AdobeXMPCore_Int@@@AdobeXMPCommon_Int@@@std@@UEBAPEAXAEBVtype_info@@@Z 0000000180011a90 f i XMPArrayNodeImpl.obj
 0001:00010a90       ?_Get_deleter@?$_Ref_count_del_alloc@VIXMPArrayNode_I@AdobeXMPCore_Int@@V?$_Mem_fn_wrap@XP8ISharedOwnership_v1@AdobeXMPCommon@@EBAXXZ$$CBV12@$$$V@std@@V?$TAllocator@VIXMPArrayNode_I@AdobeXMPCore_Int@@@AdobeXMPCommon_Int@@@std@@UEBAPEAXAEBVtype_info@@@Z 0000000180011a90 f i XMPCompositeNodeImpl.obj
 0001:00010a90       ?_Get_deleter@?$_Ref_count_del_alloc@VIXMPStructureNode_I@AdobeXMPCore_Int@@V?$_Mem_fn_wrap@XP8ISharedOwnership_v1@AdobeXMPCommon@@EBAXXZ$$CBV12@$$$V@std@@V?$TAllocator@VIXMPStructureNode_I@AdobeXMPCore_Int@@@AdobeXMPCommon_Int@@@std@@UEBAPEAXAEBVtype_info@@@Z 0000000180011a90 f i XMPCompositeNodeImpl.obj
 0001:00010a90       ?_Get_deleter@?$_Ref_count_del_alloc@$$CBVIUTF8String_I@AdobeXMPCommon_Int@@V?$_Mem_fn_wrap@XP8ISharedOwnership_v1@AdobeXMPCommon@@EBAXXZ$$CBV12@$$$V@std@@V?$TAllocator@$$CBVIUTF8String_I@AdobeXMPCommon_Int@@@2@@std@@UEBAPEAXAEBVtype_info@@@Z 0000000180011a90 f i XMPCommon:UTF8StringImpl.obj
 0001:00010a90       ?_Get_deleter@?$_Ref_count_del_alloc@VIXMPQualifiers_I@AdobeXMPCore_Int@@V?$_Mem_fn_wrap@XP8ISharedOwnership_v1@AdobeXMPCommon@@EBAXXZ$$CBV12@$$$V@std@@V?$TAllocator@VIXMPQualifiers_I@AdobeXMPCore_Int@@@AdobeXMPCommon_Int@@@std@@UEBAPEAXAEBVtype_info@@@Z 0000000180011a90 f i XMPCompositeNodeImpl.obj
 0001:00010a90       ?_Get_deleter@?$_Ref_count_del_alloc@VIXMPSimpleNode_I@AdobeXMPCore_Int@@V?$_Mem_fn_wrap@XP8ISharedOwnership_v1@AdobeXMPCommon@@EBAXXZ$$CBV12@$$$V@std@@V?$TAllocator@VIXMPSimpleNode_I@AdobeXMPCore_Int@@@AdobeXMPCommon_Int@@@std@@UEBAPEAXAEBVtype_info@@@Z 0000000180011a90 f i XMPCompositeNodeImpl.obj
 0001:00010a90       ?_Get_deleter@?$_Ref_count_del_alloc@VIConfigurationManager_I@AdobeXMPCommon_Int@@V?$_Mem_fn_wrap@XP8ISharedOwnership_v1@AdobeXMPCommon@@EBAXXZ$$CBV12@$$$V@std@@V?$TAllocator@VIConfigurationManager_I@AdobeXMPCommon_Int@@@2@@std@@UEBAPEAXAEBVtype_info@@@Z 0000000180011a90 f i XMPCommon:XMPCommon.obj
 0001:00010a90       ?_Get_deleter@?$_Ref_count_del_alloc@VIXMPMetadata_I@AdobeXMPCore_Int@@V?$_Mem_fn_wrap@XP8ISharedOwnership_v1@AdobeXMPCommon@@EBAXXZ$$CBV12@$$$V@std@@V?$TAllocator@VIXMPMetadata_I@AdobeXMPCore_Int@@@AdobeXMPCommon_Int@@@std@@UEBAPEAXAEBVtype_info@@@Z 0000000180011a90 f i XMPMeta2-GetSet.obj
 0001:00010a90       ?_Get_deleter@?$_Ref_count_del_alloc@VIXMPDOMImplementationRegistry_I@AdobeXMPCore_Int@@V?$_Mem_fn_wrap@XP8ISharedOwnership_v1@AdobeXMPCommon@@EBAXXZ$$CBV12@$$$V@std@@V?$TAllocator@VIXMPDOMImplementationRegistry_I@AdobeXMPCore_Int@@@AdobeXMPCommon_Int@@@std@@UEBAPEAXAEBVtype_info@@@Z 0000000180011a90 f i XMPCoreObjectFactoryImpl.obj
 0001:00010a90       ?_Get_deleter@?$_Ref_count_del_alloc@VIClientErrorNotifier_v1@AdobeXMPCommon@@V?$_Mem_fn_wrap@XP8ISharedOwnership_v1@AdobeXMPCommon@@EBAXXZ$$CBV12@$$$V@std@@V?$TAllocator@VIClientErrorNotifier_v1@AdobeXMPCommon@@@AdobeXMPCommon_Int@@@std@@UEBAPEAXAEBVtype_info@@@Z 0000000180011a90 f i XMPCommon:ClientErrorNotifierWrapperImpl.obj
 0001:00010a90       ?_Get_deleter@?$_Ref_count_del_alloc@VIXMPNode_I@AdobeXMPCore_Int@@V?$_Mem_fn_wrap@XP8ISharedOwnership_v1@AdobeXMPCommon@@EBAXXZ$$CBV12@$$$V@std@@V?$TAllocator@VIXMPNode_I@AdobeXMPCore_Int@@@AdobeXMPCommon_Int@@@std@@UEBAPEAXAEBVtype_info@@@Z 0000000180011a90 f i XMPArrayNodeImpl.obj
 0001:00010a90       ?_Get_deleter@?$_Ref_count_del_alloc@$$CBVIError_v1@AdobeXMPCommon@@V?$_Mem_fn_wrap@XP8ISharedOwnership_v1@AdobeXMPCommon@@EBAXXZ$$CBV12@$$$V@std@@V?$TAllocator@$$CBVIError_v1@AdobeXMPCommon@@@AdobeXMPCommon_Int@@@std@@UEBAPEAXAEBVtype_info@@@Z 0000000180011a90 f i XMPCommon:ClientAllocatorWrapperImpl.obj
 0001:00010a90       ?_Get_deleter@?$_Ref_count_del_alloc@$$CBVIXMPPathSegment_I@AdobeXMPCore_Int@@V?$_Mem_fn_wrap@XP8ISharedOwnership_v1@AdobeXMPCommon@@EBAXXZ$$CBV12@$$$V@std@@V?$TAllocator@$$CBVIXMPPathSegment_I@AdobeXMPCore_Int@@@AdobeXMPCommon_Int@@@std@@UEBAPEAXAEBVtype_info@@@Z 0000000180011a90 f i XMPPathImpl.obj
 0001:00010ac0       ?_Destroy@?$_Ref_count_del_alloc@$$CBVIUTF8String_I@AdobeXMPCommon_Int@@V?$_Mem_fn_wrap@XP8ISharedOwnership_v1@AdobeXMPCommon@@EBAXXZ$$CBV12@$$$V@std@@V?$TAllocator@$$CBVIUTF8String_I@AdobeXMPCommon_Int@@@2@@std@@EEAAXXZ 0000000180011ac0 f i XMPCommon:UTF8StringImpl.obj
 0001:00010ac0       ?_Destroy@?$_Ref_count_del_alloc@$$CBVIError_v1@AdobeXMPCommon@@V?$_Mem_fn_wrap@XP8ISharedOwnership_v1@AdobeXMPCommon@@EBAXXZ$$CBV12@$$$V@std@@V?$TAllocator@$$CBVIError_v1@AdobeXMPCommon@@@AdobeXMPCommon_Int@@@std@@EEAAXXZ 0000000180011ac0 f i XMPCommon:ClientAllocatorWrapperImpl.obj
 0001:00010ac0       ?_Destroy@?$_Ref_count_del_alloc@VIClientAllocator_v1@AdobeXMPCommon@@V?$_Mem_fn_wrap@XP8ISharedOwnership_v1@AdobeXMPCommon@@EBAXXZ$$CBV12@$$$V@std@@V?$TAllocator@VIClientAllocator_v1@AdobeXMPCommon@@@AdobeXMPCommon_Int@@@std@@EEAAXXZ 0000000180011ac0 f i XMPCommon:ClientAllocatorWrapperImpl.obj
 0001:00010ac0       ?_Destroy@?$_Ref_count_del_alloc@VIXMPSimpleNode_I@AdobeXMPCore_Int@@V?$_Mem_fn_wrap@XP8ISharedOwnership_v1@AdobeXMPCommon@@EBAXXZ$$CBV12@$$$V@std@@V?$TAllocator@VIXMPSimpleNode_I@AdobeXMPCore_Int@@@AdobeXMPCommon_Int@@@std@@EEAAXXZ 0000000180011ac0 f i XMPCompositeNodeImpl.obj
 0001:00010ac0       ?_Destroy@?$_Ref_count_del_alloc@VIXMPMetadata_I@AdobeXMPCore_Int@@V?$_Mem_fn_wrap@XP8ISharedOwnership_v1@AdobeXMPCommon@@EBAXXZ$$CBV12@$$$V@std@@V?$TAllocator@VIXMPMetadata_I@AdobeXMPCore_Int@@@AdobeXMPCommon_Int@@@std@@EEAAXXZ 0000000180011ac0 f i XMPMeta2-GetSet.obj
 0001:00010ac0       ?_Destroy@?$_Ref_count_del_alloc@$$CBVIXMPPath_I@AdobeXMPCore_Int@@V?$_Mem_fn_wrap@XP8ISharedOwnership_v1@AdobeXMPCommon@@EBAXXZ$$CBV12@$$$V@std@@V?$TAllocator@$$CBVIXMPPath_I@AdobeXMPCore_Int@@@AdobeXMPCommon_Int@@@std@@EEAAXXZ 0000000180011ac0 f i XMPArrayNodeImpl.obj
 0001:00010ac0       ?_Destroy@?$_Ref_count_del_alloc@VIXMPQualifiers_I@AdobeXMPCore_Int@@V?$_Mem_fn_wrap@XP8ISharedOwnership_v1@AdobeXMPCommon@@EBAXXZ$$CBV12@$$$V@std@@V?$TAllocator@VIXMPQualifiers_I@AdobeXMPCore_Int@@@AdobeXMPCommon_Int@@@std@@EEAAXXZ 0000000180011ac0 f i XMPCompositeNodeImpl.obj
 0001:00010ac0       ?_Destroy@?$_Ref_count_del_alloc@VIClientErrorNotifier_v1@AdobeXMPCommon@@V?$_Mem_fn_wrap@XP8ISharedOwnership_v1@AdobeXMPCommon@@EBAXXZ$$CBV12@$$$V@std@@V?$TAllocator@VIClientErrorNotifier_v1@AdobeXMPCommon@@@AdobeXMPCommon_Int@@@std@@EEAAXXZ 0000000180011ac0 f i XMPCommon:ClientErrorNotifierWrapperImpl.obj
 0001:00010ac0       ?_Destroy@?$_Ref_count_del_alloc@VIXMPArrayNode_I@AdobeXMPCore_Int@@V?$_Mem_fn_wrap@XP8ISharedOwnership_v1@AdobeXMPCommon@@EBAXXZ$$CBV12@$$$V@std@@V?$TAllocator@VIXMPArrayNode_I@AdobeXMPCore_Int@@@AdobeXMPCommon_Int@@@std@@EEAAXXZ 0000000180011ac0 f i XMPCompositeNodeImpl.obj
 0001:00010ac0       ?_Destroy@?$_Ref_count_del_alloc@VIConfigurationManager_I@AdobeXMPCommon_Int@@V?$_Mem_fn_wrap@XP8ISharedOwnership_v1@AdobeXMPCommon@@EBAXXZ$$CBV12@$$$V@std@@V?$TAllocator@VIConfigurationManager_I@AdobeXMPCommon_Int@@@2@@std@@EEAAXXZ 0000000180011ac0 f i XMPCommon:XMPCommon.obj
 0001:00010ac0       ?_Destroy@?$_Ref_count_del_alloc@$$CBVIXMPPathSegment_I@AdobeXMPCore_Int@@V?$_Mem_fn_wrap@XP8ISharedOwnership_v1@AdobeXMPCommon@@EBAXXZ$$CBV12@$$$V@std@@V?$TAllocator@$$CBVIXMPPathSegment_I@AdobeXMPCore_Int@@@AdobeXMPCommon_Int@@@std@@EEAAXXZ 0000000180011ac0 f i XMPPathImpl.obj
 0001:00010ac0       ?_Destroy@?$_Ref_count_del_alloc@VIXMPDOMImplementationRegistry_I@AdobeXMPCore_Int@@V?$_Mem_fn_wrap@XP8ISharedOwnership_v1@AdobeXMPCommon@@EBAXXZ$$CBV12@$$$V@std@@V?$TAllocator@VIXMPDOMImplementationRegistry_I@AdobeXMPCore_Int@@@AdobeXMPCommon_Int@@@std@@EEAAXXZ 0000000180011ac0 f i XMPCoreObjectFactoryImpl.obj
 0001:00010ac0       ?_Destroy@?$_Ref_count_del_alloc@VIXMPNode_I@AdobeXMPCore_Int@@V?$_Mem_fn_wrap@XP8ISharedOwnership_v1@AdobeXMPCommon@@EBAXXZ$$CBV12@$$$V@std@@V?$TAllocator@VIXMPNode_I@AdobeXMPCore_Int@@@AdobeXMPCommon_Int@@@std@@EEAAXXZ 0000000180011ac0 f i XMPArrayNodeImpl.obj
 0001:00010ac0       ?_Destroy@?$_Ref_count_del_alloc@$$CBVIXMPNameSpacePrefixMap_I@AdobeXMPCore_Int@@V?$_Mem_fn_wrap@XP8ISharedOwnership_v1@AdobeXMPCommon@@EBAXXZ$$CBV12@$$$V@std@@V?$TAllocator@$$CBVIXMPNameSpacePrefixMap_I@AdobeXMPCore_Int@@@AdobeXMPCommon_Int@@@std@@EEAAXXZ 0000000180011ac0 f i XMPCoreObjectFactoryImpl.obj
 0001:00010ac0       ?_Destroy@?$_Ref_count_del_alloc@VIXMPStructureNode_I@AdobeXMPCore_Int@@V?$_Mem_fn_wrap@XP8ISharedOwnership_v1@AdobeXMPCommon@@EBAXXZ$$CBV12@$$$V@std@@V?$TAllocator@VIXMPStructureNode_I@AdobeXMPCore_Int@@@AdobeXMPCommon_Int@@@std@@EEAAXXZ 0000000180011ac0 f i XMPCompositeNodeImpl.obj
 0001:00010ae4       ?_Get_deleter@?$_Ref_count_del_alloc@VRDFXMPDOMParserImpl@AdobeXMPCore_Int@@V?$_Mem_fn_wrap@XP8IntrusiveRefCountSharedOwnership@AdobeXMPCommon_Int@@EBAXXZ$$CBV12@$$$V@std@@V?$TAllocator@VRDFXMPDOMParserImpl@AdobeXMPCore_Int@@@AdobeXMPCommon_Int@@@std@@UEBAPEAXAEBVtype_info@@@Z 0000000180011ae4 f i XMPDOMImplementationRegistryImpl.obj
 0001:00010ae4       ?_Get_deleter@?$_Ref_count_del_alloc@VDefaultClientErrorNotifierImpl@AdobeXMPCommon_Int@@V?$_Mem_fn_wrap@XP8IntrusiveRefCountSharedOwnership@AdobeXMPCommon_Int@@EBAXXZ$$CBV12@$$$V@std@@V?$TAllocator@VDefaultClientErrorNotifierImpl@AdobeXMPCommon_Int@@@2@@std@@UEBAPEAXAEBVtype_info@@@Z 0000000180011ae4 f i XMPCommon:ErrorNotificationManagerImpl.obj
 0001:00010ae4       ?_Get_deleter@?$_Ref_count_del_alloc@VRDFXMPDOMSerializerImpl@AdobeXMPCore_Int@@V?$_Mem_fn_wrap@XP8IntrusiveRefCountSharedOwnership@AdobeXMPCommon_Int@@EBAXXZ$$CBV12@$$$V@std@@V?$TAllocator@VRDFXMPDOMSerializerImpl@AdobeXMPCore_Int@@@AdobeXMPCommon_Int@@@std@@UEBAPEAXAEBVtype_info@@@Z 0000000180011ae4 f i XMPDOMImplementationRegistryImpl.obj
 0001:00010ae4       ?_Get_deleter@?$_Ref_count_del_alloc@V?$TXMPNodeIteratorImpl@V?$_Tree_iterator@V?$_Tree_val@U?$_Tree_simple_types@U?$pair@$$CBUQualifiedName@XMPStructureNodeImpl@AdobeXMPCore_Int@@V?$shared_ptr@VIXMPNode_I@AdobeXMPCore_Int@@@std@@@std@@@std@@@std@@@std@@@AdobeXMPCore_Int@@V?$_Mem_fn_wrap@XP8IntrusiveRefCountSharedOwnership@AdobeXMPCommon_Int@@EBAXXZ$$CBV12@$$$V@std@@V?$TAllocator@V?$TXMPNodeIteratorImpl@V?$_Tree_iterator@V?$_Tree_val@U?$_Tree_simple_types@U?$pair@$$CBUQualifiedName@XMPStructureNodeImpl@AdobeXMPCore_Int@@V?$shared_ptr@VIXMPNode_I@AdobeXMPCore_Int@@@std@@@std@@@std@@@std@@@std@@@AdobeXMPCore_Int@@@AdobeXMPCommon_Int@@@std@@UEBAPEAXAEBVtype_info@@@Z 0000000180011ae4 f i XMPStructureNodeImpl.obj
 0001:00010ae4       ?_Get_deleter@?$_Ref_count_del_alloc@VXMPPathImpl@AdobeXMPCore_Int@@V?$_Mem_fn_wrap@XP8IntrusiveRefCountSharedOwnership@AdobeXMPCommon_Int@@EBAXXZ$$CBV12@$$$V@std@@V?$TAllocator@VXMPPathImpl@AdobeXMPCore_Int@@@AdobeXMPCommon_Int@@@std@@UEBAPEAXAEBVtype_info@@@Z 0000000180011ae4 f i XMPPathImpl.obj
 0001:00010ae4       ?_Get_deleter@?$_Ref_count_del_alloc@VXMPPathSegmentImpl@AdobeXMPCore_Int@@V?$_Mem_fn_wrap@XP8IntrusiveRefCountSharedOwnership@AdobeXMPCommon_Int@@EBAXXZ$$CBV12@$$$V@std@@V?$TAllocator@VXMPPathSegmentImpl@AdobeXMPCore_Int@@@AdobeXMPCommon_Int@@@std@@UEBAPEAXAEBVtype_info@@@Z 0000000180011ae4 f i XMPPathSegmentImpl.obj
 0001:00010ae4       ?_Get_deleter@?$_Ref_count_del_alloc@V?$TXMPConstNodeIteratorImpl@V?$_Vector_const_iterator@V?$_Vector_val@U?$_Simple_types@V?$shared_ptr@VIXMPNode_I@AdobeXMPCore_Int@@@std@@@std@@@std@@@std@@@AdobeXMPCore_Int@@V?$_Mem_fn_wrap@XP8IntrusiveRefCountSharedOwnership@AdobeXMPCommon_Int@@EBAXXZ$$CBV12@$$$V@std@@V?$TAllocator@V?$TXMPConstNodeIteratorImpl@V?$_Vector_const_iterator@V?$_Vector_val@U?$_Simple_types@V?$shared_ptr@VIXMPNode_I@AdobeXMPCore_Int@@@std@@@std@@@std@@@std@@@AdobeXMPCore_Int@@@AdobeXMPCommon_Int@@@std@@UEBAPEAXAEBVtype_info@@@Z 0000000180011ae4 f i XMPArrayNodeImpl.obj
 0001:00010ae4       ?_Get_deleter@?$_Ref_count_del_alloc@V?$TXMPConstNodeIteratorImpl@V?$_Tree_const_iterator@V?$_Tree_val@U?$_Tree_simple_types@U?$pair@$$CBUQualifiedName@XMPStructureNodeImpl@AdobeXMPCore_Int@@V?$shared_ptr@VIXMPNode_I@AdobeXMPCore_Int@@@std@@@std@@@std@@@std@@@std@@@AdobeXMPCore_Int@@V?$_Mem_fn_wrap@XP8IntrusiveRefCountSharedOwnership@AdobeXMPCommon_Int@@EBAXXZ$$CBV12@$$$V@std@@V?$TAllocator@V?$TXMPConstNodeIteratorImpl@V?$_Tree_const_iterator@V?$_Tree_val@U?$_Tree_simple_types@U?$pair@$$CBUQualifiedName@XMPStructureNodeImpl@AdobeXMPCore_Int@@V?$shared_ptr@VIXMPNode_I@AdobeXMPCore_Int@@@std@@@std@@@std@@@std@@@std@@@AdobeXMPCore_Int@@@AdobeXMPCommon_Int@@@std@@UEBAPEAXAEBVtype_info@@@Z 0000000180011ae4 f i XMPStructureNodeImpl.obj
 0001:00010ae4       ?_Get_deleter@?$_Ref_count_del_alloc@VSharedMutexImpl@AdobeXMPCommon_Int@@V?$_Mem_fn_wrap@XP8IntrusiveRefCountSharedOwnership@AdobeXMPCommon_Int@@EBAXXZ$$CBV12@$$$V@std@@V?$TAllocator@VSharedMutexImpl@AdobeXMPCommon_Int@@@2@@std@@UEBAPEAXAEBVtype_info@@@Z 0000000180011ae4 f i XMPCommon:SharedMutexImpl.obj
 0001:00010ae4       ?_Get_deleter@?$_Ref_count_del_alloc@VXMPNameSpacePrefixMapImpl@AdobeXMPCore_Int@@V?$_Mem_fn_wrap@XP8IntrusiveRefCountSharedOwnership@AdobeXMPCommon_Int@@EBAXXZ$$CBV12@$$$V@std@@V?$TAllocator@VXMPNameSpacePrefixMapImpl@AdobeXMPCore_Int@@@AdobeXMPCommon_Int@@@std@@UEBAPEAXAEBVtype_info@@@Z 0000000180011ae4 f i XMPNameSpacePrefixMapImpl.obj
 0001:00010ae4       ?_Get_deleter@?$_Ref_count_del_alloc@VErrorImpl@AdobeXMPCommon_Int@@V?$_Mem_fn_wrap@XP8IntrusiveRefCountSharedOwnership@AdobeXMPCommon_Int@@EBAXXZ$$CBV12@$$$V@std@@V?$TAllocator@VErrorImpl@AdobeXMPCommon_Int@@@2@@std@@UEBAPEAXAEBVtype_info@@@Z 0000000180011ae4 f i XMPCommon:ErrorImpl.obj
 0001:00010ae4       ?_Get_deleter@?$_Ref_count_del_alloc@VUTF8StringImpl@AdobeXMPCommon_Int@@V?$_Mem_fn_wrap@XP8IntrusiveRefCountSharedOwnership@AdobeXMPCommon_Int@@EBAXXZ$$CBV12@$$$V@std@@V?$TAllocator@VUTF8StringImpl@AdobeXMPCommon_Int@@@2@@std@@UEBAPEAXAEBVtype_info@@@Z 0000000180011ae4 f i XMPCommon:UTF8StringImpl.obj
 0001:00010ae4       ?_Get_deleter@?$_Ref_count_del_alloc@VClientErrorNotifierWrapperImpl_v1@AdobeXMPCommon_Int@@V?$_Mem_fn_wrap@XP8IntrusiveRefCountSharedOwnership@AdobeXMPCommon_Int@@EBAXXZ$$CBV12@$$$V@std@@V?$TAllocator@VClientErrorNotifierWrapperImpl_v1@AdobeXMPCommon_Int@@@2@@std@@UEBAPEAXAEBVtype_info@@@Z 0000000180011ae4 f i XMPCommon:ClientErrorNotifierWrapperImpl.obj
 0001:00010ae4       ?_Get_deleter@?$_Ref_count_del_alloc@VClientAllocatorWrapperImpl_v1@AdobeXMPCommon_Int@@V?$_Mem_fn_wrap@XP8IntrusiveRefCountSharedOwnership@AdobeXMPCommon_Int@@EBAXXZ$$CBV12@$$$V@std@@V?$TAllocator@VClientAllocatorWrapperImpl_v1@AdobeXMPCommon_Int@@@2@@std@@UEBAPEAXAEBVtype_info@@@Z 0000000180011ae4 f i XMPCommon:ClientAllocatorWrapperImpl.obj
 0001:00010ae4       ?_Get_deleter@?$_Ref_count_del_alloc@VInternalClientAllocator@@V?$_Mem_fn_wrap@XP8IntrusiveRefCountSharedOwnership@AdobeXMPCommon_Int@@EBAXXZ$$CBV12@$$$V@std@@V?$TAllocator@VInternalClientAllocator@@@AdobeXMPCommon_Int@@@std@@UEBAPEAXAEBVtype_info@@@Z 0000000180011ae4 f i XMPMeta.obj
 0001:00010ae4       ?_Get_deleter@?$_Ref_count_del_alloc@V?$TXMPNodeIteratorImpl@V?$_Vector_iterator@V?$_Vector_val@U?$_Simple_types@V?$shared_ptr@VIXMPNode_I@AdobeXMPCore_Int@@@std@@@std@@@std@@@std@@@AdobeXMPCore_Int@@V?$_Mem_fn_wrap@XP8IntrusiveRefCountSharedOwnership@AdobeXMPCommon_Int@@EBAXXZ$$CBV12@$$$V@std@@V?$TAllocator@V?$TXMPNodeIteratorImpl@V?$_Vector_iterator@V?$_Vector_val@U?$_Simple_types@V?$shared_ptr@VIXMPNode_I@AdobeXMPCore_Int@@@std@@@std@@@std@@@std@@@AdobeXMPCore_Int@@@AdobeXMPCommon_Int@@@std@@UEBAPEAXAEBVtype_info@@@Z 0000000180011ae4 f i XMPArrayNodeImpl.obj
 0001:00010b14       ?_Destroy@?$_Ref_count_del_alloc@V?$TXMPNodeIteratorImpl@V?$_Tree_iterator@V?$_Tree_val@U?$_Tree_simple_types@U?$pair@$$CBUQualifiedName@XMPStructureNodeImpl@AdobeXMPCore_Int@@V?$shared_ptr@VIXMPNode_I@AdobeXMPCore_Int@@@std@@@std@@@std@@@std@@@std@@@AdobeXMPCore_Int@@V?$_Mem_fn_wrap@XP8IntrusiveRefCountSharedOwnership@AdobeXMPCommon_Int@@EBAXXZ$$CBV12@$$$V@std@@V?$TAllocator@V?$TXMPNodeIteratorImpl@V?$_Tree_iterator@V?$_Tree_val@U?$_Tree_simple_types@U?$pair@$$CBUQualifiedName@XMPStructureNodeImpl@AdobeXMPCore_Int@@V?$shared_ptr@VIXMPNode_I@AdobeXMPCore_Int@@@std@@@std@@@std@@@std@@@std@@@AdobeXMPCore_Int@@@AdobeXMPCommon_Int@@@std@@EEAAXXZ 0000000180011b14 f i XMPStructureNodeImpl.obj
 0001:00010b14       ?_Destroy@?$_Ref_count_del_alloc@V?$TXMPNodeIteratorImpl@V?$_Vector_iterator@V?$_Vector_val@U?$_Simple_types@V?$shared_ptr@VIXMPNode_I@AdobeXMPCore_Int@@@std@@@std@@@std@@@std@@@AdobeXMPCore_Int@@V?$_Mem_fn_wrap@XP8IntrusiveRefCountSharedOwnership@AdobeXMPCommon_Int@@EBAXXZ$$CBV12@$$$V@std@@V?$TAllocator@V?$TXMPNodeIteratorImpl@V?$_Vector_iterator@V?$_Vector_val@U?$_Simple_types@V?$shared_ptr@VIXMPNode_I@AdobeXMPCore_Int@@@std@@@std@@@std@@@std@@@AdobeXMPCore_Int@@@AdobeXMPCommon_Int@@@std@@EEAAXXZ 0000000180011b14 f i XMPArrayNodeImpl.obj
 0001:00010b14       ?_Destroy@?$_Ref_count_del_alloc@VXMPPathSegmentImpl@AdobeXMPCore_Int@@V?$_Mem_fn_wrap@XP8IntrusiveRefCountSharedOwnership@AdobeXMPCommon_Int@@EBAXXZ$$CBV12@$$$V@std@@V?$TAllocator@VXMPPathSegmentImpl@AdobeXMPCore_Int@@@AdobeXMPCommon_Int@@@std@@EEAAXXZ 0000000180011b14 f i XMPPathSegmentImpl.obj
 0001:00010b14       ?_Destroy@?$_Ref_count_del_alloc@VXMPNameSpacePrefixMapImpl@AdobeXMPCore_Int@@V?$_Mem_fn_wrap@XP8IntrusiveRefCountSharedOwnership@AdobeXMPCommon_Int@@EBAXXZ$$CBV12@$$$V@std@@V?$TAllocator@VXMPNameSpacePrefixMapImpl@AdobeXMPCore_Int@@@AdobeXMPCommon_Int@@@std@@EEAAXXZ 0000000180011b14 f i XMPNameSpacePrefixMapImpl.obj
 0001:00010b14       ?_Destroy@?$_Ref_count_del_alloc@VClientErrorNotifierWrapperImpl_v1@AdobeXMPCommon_Int@@V?$_Mem_fn_wrap@XP8IntrusiveRefCountSharedOwnership@AdobeXMPCommon_Int@@EBAXXZ$$CBV12@$$$V@std@@V?$TAllocator@VClientErrorNotifierWrapperImpl_v1@AdobeXMPCommon_Int@@@2@@std@@EEAAXXZ 0000000180011b14 f i XMPCommon:ClientErrorNotifierWrapperImpl.obj
 0001:00010b14       ?_Destroy@?$_Ref_count_del_alloc@VRDFXMPDOMParserImpl@AdobeXMPCore_Int@@V?$_Mem_fn_wrap@XP8IntrusiveRefCountSharedOwnership@AdobeXMPCommon_Int@@EBAXXZ$$CBV12@$$$V@std@@V?$TAllocator@VRDFXMPDOMParserImpl@AdobeXMPCore_Int@@@AdobeXMPCommon_Int@@@std@@EEAAXXZ 0000000180011b14 f i XMPDOMImplementationRegistryImpl.obj
 0001:00010b14       ?_Destroy@?$_Ref_count_del_alloc@V?$TXMPConstNodeIteratorImpl@V?$_Tree_const_iterator@V?$_Tree_val@U?$_Tree_simple_types@U?$pair@$$CBUQualifiedName@XMPStructureNodeImpl@AdobeXMPCore_Int@@V?$shared_ptr@VIXMPNode_I@AdobeXMPCore_Int@@@std@@@std@@@std@@@std@@@std@@@AdobeXMPCore_Int@@V?$_Mem_fn_wrap@XP8IntrusiveRefCountSharedOwnership@AdobeXMPCommon_Int@@EBAXXZ$$CBV12@$$$V@std@@V?$TAllocator@V?$TXMPConstNodeIteratorImpl@V?$_Tree_const_iterator@V?$_Tree_val@U?$_Tree_simple_types@U?$pair@$$CBUQualifiedName@XMPStructureNodeImpl@AdobeXMPCore_Int@@V?$shared_ptr@VIXMPNode_I@AdobeXMPCore_Int@@@std@@@std@@@std@@@std@@@std@@@AdobeXMPCore_Int@@@AdobeXMPCommon_Int@@@std@@EEAAXXZ 0000000180011b14 f i XMPStructureNodeImpl.obj
 0001:00010b14       ?_Destroy@?$_Ref_count_del_alloc@VClientAllocatorWrapperImpl_v1@AdobeXMPCommon_Int@@V?$_Mem_fn_wrap@XP8IntrusiveRefCountSharedOwnership@AdobeXMPCommon_Int@@EBAXXZ$$CBV12@$$$V@std@@V?$TAllocator@VClientAllocatorWrapperImpl_v1@AdobeXMPCommon_Int@@@2@@std@@EEAAXXZ 0000000180011b14 f i XMPCommon:ClientAllocatorWrapperImpl.obj
 0001:00010b14       ?_Destroy@?$_Ref_count_del_alloc@VDefaultClientErrorNotifierImpl@AdobeXMPCommon_Int@@V?$_Mem_fn_wrap@XP8IntrusiveRefCountSharedOwnership@AdobeXMPCommon_Int@@EBAXXZ$$CBV12@$$$V@std@@V?$TAllocator@VDefaultClientErrorNotifierImpl@AdobeXMPCommon_Int@@@2@@std@@EEAAXXZ 0000000180011b14 f i XMPCommon:ErrorNotificationManagerImpl.obj
 0001:00010b14       ?_Destroy@?$_Ref_count_del_alloc@VXMPPathImpl@AdobeXMPCore_Int@@V?$_Mem_fn_wrap@XP8IntrusiveRefCountSharedOwnership@AdobeXMPCommon_Int@@EBAXXZ$$CBV12@$$$V@std@@V?$TAllocator@VXMPPathImpl@AdobeXMPCore_Int@@@AdobeXMPCommon_Int@@@std@@EEAAXXZ 0000000180011b14 f i XMPPathImpl.obj
 0001:00010b14       ?_Destroy@?$_Ref_count_del_alloc@VRDFXMPDOMSerializerImpl@AdobeXMPCore_Int@@V?$_Mem_fn_wrap@XP8IntrusiveRefCountSharedOwnership@AdobeXMPCommon_Int@@EBAXXZ$$CBV12@$$$V@std@@V?$TAllocator@VRDFXMPDOMSerializerImpl@AdobeXMPCore_Int@@@AdobeXMPCommon_Int@@@std@@EEAAXXZ 0000000180011b14 f i XMPDOMImplementationRegistryImpl.obj
 0001:00010b14       ?_Destroy@?$_Ref_count_del_alloc@VErrorImpl@AdobeXMPCommon_Int@@V?$_Mem_fn_wrap@XP8IntrusiveRefCountSharedOwnership@AdobeXMPCommon_Int@@EBAXXZ$$CBV12@$$$V@std@@V?$TAllocator@VErrorImpl@AdobeXMPCommon_Int@@@2@@std@@EEAAXXZ 0000000180011b14 f i XMPCommon:ErrorImpl.obj
 0001:00010b14       ?_Destroy@?$_Ref_count_del_alloc@V?$TXMPConstNodeIteratorImpl@V?$_Vector_const_iterator@V?$_Vector_val@U?$_Simple_types@V?$shared_ptr@VIXMPNode_I@AdobeXMPCore_Int@@@std@@@std@@@std@@@std@@@AdobeXMPCore_Int@@V?$_Mem_fn_wrap@XP8IntrusiveRefCountSharedOwnership@AdobeXMPCommon_Int@@EBAXXZ$$CBV12@$$$V@std@@V?$TAllocator@V?$TXMPConstNodeIteratorImpl@V?$_Vector_const_iterator@V?$_Vector_val@U?$_Simple_types@V?$shared_ptr@VIXMPNode_I@AdobeXMPCore_Int@@@std@@@std@@@std@@@std@@@AdobeXMPCore_Int@@@AdobeXMPCommon_Int@@@std@@EEAAXXZ 0000000180011b14 f i XMPArrayNodeImpl.obj
 0001:00010b78       ??$_Resetp@$$CBVIXMPPath_I@AdobeXMPCore_Int@@V?$_Mem_fn_wrap@XP8ISharedOwnership_v1@AdobeXMPCommon@@EBAXXZ$$CBV12@$$$V@std@@V?$TAllocator@$$CBVIXMPPath_I@AdobeXMPCore_Int@@@AdobeXMPCommon_Int@@@?$shared_ptr@$$CBVIXMPPath_I@AdobeXMPCore_Int@@@std@@AEAAXPEBVIXMPPath_I@AdobeXMPCore_Int@@V?$_Mem_fn_wrap@XP8ISharedOwnership_v1@AdobeXMPCommon@@EBAXXZ$$CBV12@$$$V@1@V?$TAllocator@$$CBVIXMPPath_I@AdobeXMPCore_Int@@@AdobeXMPCommon_Int@@@Z 0000000180011b78 f i XMPArrayNodeImpl.obj
 0001:00010c18       ??$_Uninit_move@PEAV?$shared_ptr@$$CBVIUTF8String_I@AdobeXMPCommon_Int@@@std@@PEAV12@V?$TAllocator@V?$shared_ptr@$$CBVIUTF8String_I@AdobeXMPCommon_Int@@@std@@@AdobeXMPCommon_Int@@V12@@std@@YAPEAV?$shared_ptr@$$CBVIUTF8String_I@AdobeXMPCommon_Int@@@0@PEAV10@00AEAU?$_Wrap_alloc@V?$TAllocator@V?$shared_ptr@$$CBVIUTF8String_I@AdobeXMPCommon_Int@@@std@@@AdobeXMPCommon_Int@@@0@0U_Nonscalar_ptr_iterator_tag@0@@Z 0000000180011c18 f i XMPCommon:ErrorImpl.obj
 0001:00010c18       ??$_Uninit_move@PEAV?$shared_ptr@VIXMPNode_I@AdobeXMPCore_Int@@@std@@PEAV12@V?$TAllocator@V?$shared_ptr@VIXMPNode_I@AdobeXMPCore_Int@@@std@@@AdobeXMPCommon_Int@@V12@@std@@YAPEAV?$shared_ptr@VIXMPNode_I@AdobeXMPCore_Int@@@0@PEAV10@00AEAU?$_Wrap_alloc@V?$TAllocator@V?$shared_ptr@VIXMPNode_I@AdobeXMPCore_Int@@@std@@@AdobeXMPCommon_Int@@@0@0U_Nonscalar_ptr_iterator_tag@0@@Z 0000000180011c18 f i XMPArrayNodeImpl.obj
 0001:00010c68       ?ReplaceQualifier@IXMPNode_I@AdobeXMPCore_Int@@$R2FA@BE@PPPPPPPM@DA@EAAXPEAVIXMPNode_v1@AdobeXMPCore@@AEAPEBVIError_v1@AdobeXMPCommon@@@Z 0000000180011c68 f i XMPArrayNodeImpl.obj
 0001:00010c84       ?GetNameSpace@IXMPNode_I@AdobeXMPCore_Int@@$R2KI@BE@PPPPPPPM@DA@EBAPEBVIUTF8String_v1@AdobeXMPCommon@@AEAPEBVIError_v1@4@@Z 0000000180011c84 f i XMPArrayNodeImpl.obj
 0001:00010ca0       ??_9IXMPNode_I@AdobeXMPCore_Int@@$BEI@AA 0000000180011ca0 f i XMPArrayNodeImpl.obj
 0001:00010ca8       ?RemoveNode_I@XMPCompositeNodeImpl@AdobeXMPCore_Int@@$R4KI@DA@PPPPPPPM@BBA@EAA?AV?$shared_ptr@VIXMPNode_I@AdobeXMPCore_Int@@@std@@AEBV?$shared_ptr@$$CBVIXMPPath_I@AdobeXMPCore_Int@@@4@@Z 0000000180011ca8 f i XMPArrayNodeImpl.obj
 0001:00010cc4       ?Iterator_I@XMPArrayNodeImpl@AdobeXMPCore_Int@@$4PPPPPPPM@A@EBA?AV?$shared_ptr@VIXMPConstNodeIterator_I@AdobeXMPCore_Int@@@std@@W4eMultiThreadingSupport@AdobeXMPCommon@@@Z 0000000180011cc4 f i XMPArrayNodeImpl.obj
 0001:00010cd0       ?Iterator_I@XMPArrayNodeImpl@AdobeXMPCore_Int@@$4PPPPPPPM@A@EAA?AV?$shared_ptr@VIXMPNodeIterator_I@AdobeXMPCore_Int@@@std@@W4eMultiThreadingSupport@AdobeXMPCommon@@@Z 0000000180011cd0 f i XMPArrayNodeImpl.obj
 0001:00010cdc       ?GetParent@IXMPNode_I@AdobeXMPCore_Int@@$R2GA@BA@PPPPPPPM@DA@EBAPEBVIXMPNode_v1@AdobeXMPCore@@AEAPEBVIError_v1@AdobeXMPCommon@@@Z 0000000180011cdc f i XMPArrayNodeImpl.obj
 0001:00010cf8       ?GetParent@IXMPNode_I@AdobeXMPCore_Int@@$R2GA@BA@PPPPPPPM@DA@EAAPEAVIXMPNode_v1@AdobeXMPCore@@AEAPEBVIError_v1@AdobeXMPCommon@@@Z 0000000180011cf8 f i XMPArrayNodeImpl.obj
 0001:00010d14       ?InsertQualifier@IXMPNode_I@AdobeXMPCore_Int@@$R2FA@BE@PPPPPPPM@DA@EAAXPEAVIXMPNode_v1@AdobeXMPCore@@AEAPEBVIError_v1@AdobeXMPCommon@@@Z 0000000180011d14 f i XMPArrayNodeImpl.obj
 0001:00010d30       ?ReleaseSharedOwnership@XMPNodeImpl@AdobeXMPCore_Int@@$R4BA@BM@PPPPPPPM@HA@EBAXXZ 0000000180011d30 f i XMPArrayNodeImpl.obj
 0001:00010d4c       ?HasQualifiers@IXMPNode_I@AdobeXMPCore_Int@@$R2KI@BE@PPPPPPPM@DA@EBAKAEAPEBVIError_v1@AdobeXMPCommon@@@Z 0000000180011d4c f i XMPArrayNodeImpl.obj
 0001:00010d68       ??_9IXMPNode_I@AdobeXMPCore_Int@@$BFI@AA 0000000180011d68 f i XMPArrayNodeImpl.obj
 0001:00010d70       ?RemoveNode_I@XMPArrayNodeImpl@AdobeXMPCore_Int@@$4PPPPPPPM@A@EAA?AV?$shared_ptr@VIXMPNode_I@AdobeXMPCore_Int@@@std@@_K@Z 0000000180011d70 f i XMPArrayNodeImpl.obj
 0001:00010d7c       ?InsertNode@IXMPArrayNode_I@AdobeXMPCore_Int@@$R2MA@CA@PPPPPPPM@IA@EAAXPEAVIXMPNode_v1@AdobeXMPCore@@_KAEAPEBVIError_v1@AdobeXMPCommon@@@Z 0000000180011d7c f i XMPArrayNodeImpl.obj
 0001:00010d98       ?ChangeParent_I@XMPNodeImpl@AdobeXMPCore_Int@@$4PPPPPPPM@A@EAAXPEAVIXMPNode_I@2@@Z 0000000180011d98 f i XMPArrayNodeImpl.obj
 0001:00010da4       ?GetQualifiers@IXMPNode_I@AdobeXMPCore_Int@@$R2KI@BE@PPPPPPPM@DA@EBAPEBVIXMPQualifiers_v1@AdobeXMPCore@@AEAPEBVIError_v1@AdobeXMPCommon@@@Z 0000000180011da4 f i XMPArrayNodeImpl.obj
 0001:00010dc0       ?GetQualifiers@IXMPNode_I@AdobeXMPCore_Int@@$R2KI@BE@PPPPPPPM@DA@EAAPEAVIXMPQualifiers_v1@AdobeXMPCore@@AEAPEBVIError_v1@AdobeXMPCommon@@@Z 0000000180011dc0 f i XMPArrayNodeImpl.obj
 0001:00010ddc       ?RemoveNode@IXMPCompositeNode_I@AdobeXMPCore_Int@@$2PPPPPPPM@A@EAAPEAVIXMPNode_v1@AdobeXMPCore@@PEBVIXMPPath_v1@4@AEAPEBVIError_v1@AdobeXMPCommon@@@Z 0000000180011ddc f i XMPArrayNodeImpl.obj
 0001:00010de8       ?GetNodeType@IXMPNode_I@AdobeXMPCore_Int@@$2PPPPPPPM@A@EBAKAEAPEBVIError_v1@AdobeXMPCommon@@@Z 0000000180011de8 f i XMPArrayNodeImpl.obj
 0001:00010de8       ?GetDomain@IError_I@AdobeXMPCommon_Int@@$2PPPPPPPM@A@EBAKAEAPEBVIError_v1@AdobeXMPCommon@@@Z 0000000180011de8 f i XMPCommon:ErrorImpl.obj
 0001:00010df4       ?GetQualifier@IXMPNode_I@AdobeXMPCore_Int@@$2PPPPPPPM@A@EBAPEBVIXMPNode_v1@AdobeXMPCore@@PEBD0AEAPEBVIError_v1@AdobeXMPCommon@@@Z 0000000180011df4 f i XMPArrayNodeImpl.obj
 0001:00010e00       ?GetQualifier@IXMPNode_I@AdobeXMPCore_Int@@$2PPPPPPPM@A@EAAPEAVIXMPNode_v1@AdobeXMPCore@@PEBD0AEAPEBVIError_v1@AdobeXMPCommon@@@Z 0000000180011e00 f i XMPArrayNodeImpl.obj
 0001:00010e0c       ?GetName@IXMPNode_I@AdobeXMPCore_Int@@$2PPPPPPPM@A@EBAPEBVIUTF8String_v1@AdobeXMPCommon@@AEAPEBVIError_v1@4@@Z 0000000180011e0c f i XMPArrayNodeImpl.obj
 0001:00010e18       ??_9IError_I@AdobeXMPCommon_Int@@$BGI@AA 0000000180011e18 f i XMPArrayNodeImpl.obj
 0001:00010e18       ??_9IXMPNode_v1@AdobeXMPCore@@$BGI@AA 0000000180011e18 f i XMPCommon:ErrorImpl.obj
 0001:00010e20       ?ClearContents@XMPArrayNodeImpl@AdobeXMPCore_Int@@$4PPPPPPPM@A@EAAXXZ 0000000180011e20 f i XMPArrayNodeImpl.obj
 0001:00010e2c       ?RemoveQualifier@IXMPNode_I@AdobeXMPCore_Int@@$R2GA@BA@PPPPPPPM@DA@EAAPEAVIXMPNode_v1@AdobeXMPCore@@PEBD0AEAPEBVIError_v1@AdobeXMPCommon@@@Z 0000000180011e2c f i XMPArrayNodeImpl.obj
 0001:00010e48       ?HasQualifiers@XMPNodeImpl@AdobeXMPCore_Int@@$R4GI@BM@PPPPPPPM@MI@EBA_NXZ 0000000180011e48 f i XMPArrayNodeImpl.obj
 0001:00010e64       ?ReplaceQualifier_I@XMPNodeImpl@AdobeXMPCore_Int@@$R4GI@BM@PPPPPPPM@MI@EAAXAEBV?$shared_ptr@VIXMPNode_I@AdobeXMPCore_Int@@@std@@@Z 0000000180011e64 f i XMPArrayNodeImpl.obj
 0001:00010e80       ?Clear@IXMPNode_I@AdobeXMPCore_Int@@$R2FA@BE@PPPPPPPM@DA@EAAXKKAEAPEBVIError_v1@AdobeXMPCommon@@@Z 0000000180011e80 f i XMPArrayNodeImpl.obj
 0001:00010e9c       ?IsArrayItem@IXMPNode_I@AdobeXMPCore_Int@@$R2KI@BE@PPPPPPPM@DA@EBAKAEAPEBVIError_v1@AdobeXMPCommon@@@Z 0000000180011e9c f i XMPArrayNodeImpl.obj
 0001:00010eb8       ??_EIntrusiveRefCountSharedOwnership@AdobeXMPCommon_Int@@$2PPPPPPPM@A@EAAPEAXI@Z 0000000180011eb8 f i XMPArrayNodeImpl.obj
 0001:00010ec4       ?GetPath@IXMPNode_I@AdobeXMPCore_Int@@$2PPPPPPPM@A@EBAPEAVIXMPPath_v1@AdobeXMPCore@@KAEAPEBVIError_v1@AdobeXMPCommon@@@Z 0000000180011ec4 f i XMPArrayNodeImpl.obj
 0001:00010ed0       ??_9IError_I@AdobeXMPCommon_Int@@$BHI@AA 0000000180011ed0 f i XMPArrayNodeImpl.obj
 0001:00010ed0       ??_9IXMPNode_v1@AdobeXMPCore@@$BHI@AA 0000000180011ed0 f i XMPCommon:ErrorImpl.obj
 0001:00010ed8       ?AppendNode_I@XMPArrayNodeImpl@AdobeXMPCore_Int@@$4PPPPPPPM@A@EAAXAEBV?$shared_ptr@VIXMPNode_I@AdobeXMPCore_Int@@@std@@@Z 0000000180011ed8 f i XMPArrayNodeImpl.obj
 0001:00010ee4       ?HasQualifiers@XMPNodeImpl@AdobeXMPCore_Int@@$R4HI@CM@PPPPPPPM@MI@EBA_NXZ 0000000180011ee4 f i XMPArrayNodeImpl.obj
 0001:00010f00       ?ReplaceQualifier_I@XMPNodeImpl@AdobeXMPCore_Int@@$R4HI@CM@PPPPPPPM@MI@EAAXAEBV?$shared_ptr@VIXMPNode_I@AdobeXMPCore_Int@@@std@@@Z 0000000180011f00 f i XMPArrayNodeImpl.obj
 0001:00010f1c       ?Clear@XMPNodeImpl@AdobeXMPCore_Int@@$R4GI@BM@PPPPPPPM@MI@EAAX_N0@Z 0000000180011f1c f i XMPArrayNodeImpl.obj
 0001:00010f38       ?RemoveQualifier_I@XMPNodeImpl@AdobeXMPCore_Int@@$R4GI@BM@PPPPPPPM@MI@EAA?AV?$shared_ptr@VIXMPNode_I@AdobeXMPCore_Int@@@std@@PEBD0@Z 0000000180011f38 f i XMPArrayNodeImpl.obj
 0001:00010f54       ?GetQualifier_I@XMPNodeImpl@AdobeXMPCore_Int@@$4PPPPPPPM@A@EBA?AV?$shared_ptr@$$CBVIXMPNode_I@AdobeXMPCore_Int@@@std@@PEBD0@Z 0000000180011f54 f i XMPArrayNodeImpl.obj
 0001:00010f60       ?GetQualifier_I@XMPNodeImpl@AdobeXMPCore_Int@@$4PPPPPPPM@A@EAA?AV?$shared_ptr@VIXMPNode_I@AdobeXMPCore_Int@@@std@@PEBD0@Z 0000000180011f60 f i XMPArrayNodeImpl.obj
 0001:00010f6c       ?GetNode@IXMPArrayNode_I@AdobeXMPCore_Int@@$2PPPPPPPM@A@EBAPEBVIXMPNode_v1@AdobeXMPCore@@_KAEAPEBVIError_v1@AdobeXMPCommon@@@Z 0000000180011f6c f i XMPArrayNodeImpl.obj
 0001:00010f78       ?GetNode@IXMPArrayNode_I@AdobeXMPCore_Int@@$2PPPPPPPM@A@EAAPEAVIXMPNode_v1@AdobeXMPCore@@_KAEAPEBVIError_v1@AdobeXMPCommon@@@Z 0000000180011f78 f i XMPArrayNodeImpl.obj
 0001:00010f84       ?GetArrayForm@IXMPArrayNode_I@AdobeXMPCore_Int@@$2PPPPPPPM@A@EBAKAEAPEBVIError_v1@AdobeXMPCommon@@@Z 0000000180011f84 f i XMPArrayNodeImpl.obj
 0001:00010f90       ?InsertNode@IXMPCompositeNode_I@AdobeXMPCore_Int@@$R2FA@BI@PPPPPPPM@FI@EAAXPEAVIXMPNode_v1@AdobeXMPCore@@PEBVIXMPPath_v1@4@AEAPEBVIError_v1@AdobeXMPCommon@@@Z 0000000180011f90 f i XMPArrayNodeImpl.obj
 0001:00010fac       ?Clone@IXMPNode_I@AdobeXMPCore_Int@@$2PPPPPPPM@A@EBAPEAVIXMPNode_v1@AdobeXMPCore@@KKKAEAPEBVIError_v1@AdobeXMPCommon@@@Z 0000000180011fac f i XMPArrayNodeImpl.obj
 0001:00010fb8       ??_9IXMPNode_I@AdobeXMPCore_Int@@$BII@AA 0000000180011fb8 f i XMPArrayNodeImpl.obj
 0001:00010fc4       ??_E?$TXMPConstNodeIteratorImpl@V?$_Vector_const_iterator@V?$_Vector_val@U?$_Simple_types@V?$shared_ptr@VIXMPNode_I@AdobeXMPCore_Int@@@std@@@std@@@std@@@std@@@AdobeXMPCore_Int@@OGI@EAAPEAXI@Z 0000000180011fc4 f i XMPArrayNodeImpl.obj
 0001:00010fd0       ?GetNode@IXMPNodeIterator_I@AdobeXMPCore_Int@@$R2HA@BE@PPPPPPPM@DA@EBAPEAVIXMPNode_v1@AdobeXMPCore@@AEAPEBVIError_v1@AdobeXMPCommon@@@Z 0000000180011fd0 f i XMPArrayNodeImpl.obj
 0001:00010fd0       ?GetNode@IXMPConstNodeIterator_I@AdobeXMPCore_Int@@$R2HA@BE@PPPPPPPM@DA@EBAPEBVIXMPNode_v1@AdobeXMPCore@@AEAPEBVIError_v1@AdobeXMPCommon@@@Z 0000000180011fd0 f i XMPArrayNodeImpl.obj
 0001:00010fec       ?ReplaceNode@IXMPArrayNode_I@AdobeXMPCore_Int@@$R2MA@CA@PPPPPPPM@IA@EAAXPEAVIXMPNode_v1@AdobeXMPCore@@_KAEAPEBVIError_v1@AdobeXMPCommon@@@Z 0000000180011fec f i XMPArrayNodeImpl.obj
 0001:00011008       ?Clear@XMPNodeImpl@AdobeXMPCore_Int@@$R4HI@CM@PPPPPPPM@MI@EAAX_N0@Z 0000000180012008 f i XMPArrayNodeImpl.obj
 0001:00011024       ?RemoveQualifier_I@XMPNodeImpl@AdobeXMPCore_Int@@$R4HI@CM@PPPPPPPM@MI@EAA?AV?$shared_ptr@VIXMPNode_I@AdobeXMPCore_Int@@@std@@PEBD0@Z 0000000180012024 f i XMPArrayNodeImpl.obj
 0001:00011040       ?GetNode@IXMPCompositeNode_I@AdobeXMPCore_Int@@$R2PA@CE@PPPPPPPM@FI@EBAPEBVIXMPNode_v1@AdobeXMPCore@@PEBVIXMPPath_v1@4@AEAPEBVIError_v1@AdobeXMPCommon@@@Z 0000000180012040 f i XMPArrayNodeImpl.obj
 0001:00011060       ?GetNode@IXMPCompositeNode_I@AdobeXMPCore_Int@@$R2PA@CE@PPPPPPPM@FI@EAAPEAVIXMPNode_v1@AdobeXMPCore@@PEBVIXMPPath_v1@4@AEAPEBVIError_v1@AdobeXMPCommon@@@Z 0000000180012060 f i XMPArrayNodeImpl.obj
 0001:00011080       ?GetNameSpace@IXMPNode_I@AdobeXMPCore_Int@@$R2FA@BE@PPPPPPPM@DA@EBAPEBVIUTF8String_v1@AdobeXMPCommon@@AEAPEBVIError_v1@4@@Z 0000000180012080 f i XMPArrayNodeImpl.obj
 0001:0001109c       ?GetPath_I@XMPNodeImpl@AdobeXMPCore_Int@@$4PPPPPPPM@A@EBA?AV?$shared_ptr@VIXMPPath_I@AdobeXMPCore_Int@@@std@@W4eMultiThreadingSupport@AdobeXMPCommon@@@Z 000000018001209c f i XMPArrayNodeImpl.obj
 0001:000110a8       ?SetQualifiers@IXMPNode_I@AdobeXMPCore_Int@@$R2KI@BE@PPPPPPPM@DA@EAAXPEAVIXMPQualifiers_v1@AdobeXMPCore@@AEAPEBVIError_v1@AdobeXMPCommon@@@Z 00000001800120a8 f i XMPArrayNodeImpl.obj
 0001:000110c4       ?AcquireSharedOwnershipForRawPointer@IntrusiveRefCountSharedOwnership@AdobeXMPCommon_Int@@$4PPPPPPPM@A@EBAXXZ 00000001800120c4 f i XMPArrayNodeImpl.obj
 0001:000110d0       ?ReplaceQualifier@IXMPNode_I@AdobeXMPCore_Int@@$2PPPPPPPM@A@EAAXPEAVIXMPNode_v1@AdobeXMPCore@@AEAPEBVIError_v1@AdobeXMPCommon@@@Z 00000001800120d0 f i XMPArrayNodeImpl.obj
 0001:000110dc       ?InsertNode@IXMPCompositeNode_I@AdobeXMPCore_Int@@$R2JA@BI@PPPPPPPM@FI@EAAXPEAVIXMPNode_v1@AdobeXMPCore@@PEBVIXMPPath_v1@4@AEAPEBVIError_v1@AdobeXMPCommon@@@Z 00000001800120dc f i XMPArrayNodeImpl.obj
 0001:000110f8       ?AcquireSharedOwnership@XMPNodeImpl@AdobeXMPCore_Int@@$R4DI@CM@PPPPPPPM@HA@EBAXXZ 00000001800120f8 f i XMPArrayNodeImpl.obj
 0001:00011114       ?InsertQualifier_I@XMPNodeImpl@AdobeXMPCore_Int@@$R4GI@BM@PPPPPPPM@MI@EAAXAEBV?$shared_ptr@VIXMPNode_I@AdobeXMPCore_Int@@@std@@@Z 0000000180012114 f i XMPArrayNodeImpl.obj
 0001:00011130       ?GetParent_I@XMPNodeImpl@AdobeXMPCore_Int@@$R4GI@BM@PPPPPPPM@MI@EBA?AV?$shared_ptr@$$CBVIXMPNode_I@AdobeXMPCore_Int@@@std@@XZ 0000000180012130 f i XMPArrayNodeImpl.obj
 0001:0001114c       ?GetParent_I@XMPNodeImpl@AdobeXMPCore_Int@@$R4GI@BM@PPPPPPPM@MI@EAA?AV?$shared_ptr@VIXMPNode_I@AdobeXMPCore_Int@@@std@@XZ 000000018001214c f i XMPArrayNodeImpl.obj
 0001:00011168       ?HasQualifiers@IXMPNode_I@AdobeXMPCore_Int@@$R2FA@BE@PPPPPPPM@DA@EBAKAEAPEBVIError_v1@AdobeXMPCommon@@@Z 0000000180012168 f i XMPArrayNodeImpl.obj
 0001:00011184       ?GetChildCount@IXMPCompositeNode_I@AdobeXMPCore_Int@@$R2FA@BI@PPPPPPPM@FI@EBA_KAEAPEBVIError_v1@AdobeXMPCommon@@@Z 0000000180012184 f i XMPArrayNodeImpl.obj
 0001:000111a0       ?InsertQualifier@IXMPNode_I@AdobeXMPCore_Int@@$2PPPPPPPM@A@EAAXPEAVIXMPNode_v1@AdobeXMPCore@@AEAPEBVIError_v1@AdobeXMPCommon@@@Z 00000001800121a0 f i XMPArrayNodeImpl.obj
 0001:000111ac       ?GetNode_I@?$TXMPNodeIteratorImpl@V?$_Vector_iterator@V?$_Vector_val@U?$_Simple_types@V?$shared_ptr@VIXMPNode_I@AdobeXMPCore_Int@@@std@@@std@@@std@@@std@@@AdobeXMPCore_Int@@$4PPPPPPPM@A@EBA?AV?$shared_ptr@VIXMPNode_I@AdobeXMPCore_Int@@@std@@XZ 00000001800121ac f i XMPArrayNodeImpl.obj
 0001:000111b8       ?AcquireSharedOwnershipForRawPointer@IntrusiveRefCountSharedOwnership@AdobeXMPCommon_Int@@$R4EA@M@PPPPPPPM@DA@EBAXXZ 00000001800121b8 f i XMPArrayNodeImpl.obj
 0001:000111d4       ?InsertQualifier_I@XMPNodeImpl@AdobeXMPCore_Int@@$R4HI@CM@PPPPPPPM@MI@EAAXAEBV?$shared_ptr@VIXMPNode_I@AdobeXMPCore_Int@@@std@@@Z 00000001800121d4 f i XMPArrayNodeImpl.obj
 0001:000111f0       ?GetParent_I@XMPNodeImpl@AdobeXMPCore_Int@@$R4HI@CM@PPPPPPPM@MI@EBA?AV?$shared_ptr@$$CBVIXMPNode_I@AdobeXMPCore_Int@@@std@@XZ 00000001800121f0 f i XMPArrayNodeImpl.obj
 0001:0001120c       ?GetParent_I@XMPNodeImpl@AdobeXMPCore_Int@@$R4HI@CM@PPPPPPPM@MI@EAA?AV?$shared_ptr@VIXMPNode_I@AdobeXMPCore_Int@@@std@@XZ 000000018001220c f i XMPArrayNodeImpl.obj
 0001:00011228       ?RemoveNode_I@XMPCompositeNodeImpl@AdobeXMPCore_Int@@$4PPPPPPPM@A@EAA?AV?$shared_ptr@VIXMPNode_I@AdobeXMPCore_Int@@@std@@AEBV?$shared_ptr@$$CBVIXMPPath_I@AdobeXMPCore_Int@@@4@@Z 0000000180012228 f i XMPArrayNodeImpl.obj
 0001:00011234       ?GetQualifiers@IXMPNode_I@AdobeXMPCore_Int@@$R2FA@BE@PPPPPPPM@DA@EBAPEBVIXMPQualifiers_v1@AdobeXMPCore@@AEAPEBVIError_v1@AdobeXMPCommon@@@Z 0000000180012234 f i XMPArrayNodeImpl.obj
 0001:00011250       ?GetQualifiers@IXMPNode_I@AdobeXMPCore_Int@@$R2FA@BE@PPPPPPPM@DA@EAAPEAVIXMPQualifiers_v1@AdobeXMPCore@@AEAPEBVIError_v1@AdobeXMPCommon@@@Z 0000000180012250 f i XMPArrayNodeImpl.obj
 0001:0001126c       ?ReplaceNode@IXMPCompositeNode_I@AdobeXMPCore_Int@@$R2FA@BI@PPPPPPPM@FI@EAAXPEAVIXMPNode_v1@AdobeXMPCore@@PEBVIXMPPath_v1@4@AEAPEBVIError_v1@AdobeXMPCommon@@@Z 000000018001226c f i XMPArrayNodeImpl.obj
 0001:00011288       ?AppendNode@IXMPCompositeNode_I@AdobeXMPCore_Int@@$R2FA@BI@PPPPPPPM@FI@EAAXPEAVIXMPNode_v1@AdobeXMPCore@@AEAPEBVIError_v1@AdobeXMPCommon@@@Z 0000000180012288 f i XMPArrayNodeImpl.obj
 0001:000112a4       ?GetParent@IXMPNode_I@AdobeXMPCore_Int@@$R2CI@BA@PPPPPPPM@DA@EBAPEBVIXMPNode_v1@AdobeXMPCore@@AEAPEBVIError_v1@AdobeXMPCommon@@@Z 00000001800122a4 f i XMPArrayNodeImpl.obj
 0001:000112c0       ?GetParent@IXMPNode_I@AdobeXMPCore_Int@@$R2CI@BA@PPPPPPPM@DA@EAAPEAVIXMPNode_v1@AdobeXMPCore@@AEAPEBVIError_v1@AdobeXMPCommon@@@Z 00000001800122c0 f i XMPArrayNodeImpl.obj
 0001:000112dc       ?Next@IXMPNodeIterator_I@AdobeXMPCore_Int@@$R2HA@BE@PPPPPPPM@DA@EAAPEAVIXMPNodeIterator_v1@AdobeXMPCore@@AEAPEBVIError_v1@AdobeXMPCommon@@@Z 00000001800122dc f i XMPArrayNodeImpl.obj
 0001:000112dc       ?Next@IXMPConstNodeIterator_I@AdobeXMPCore_Int@@$R2HA@BE@PPPPPPPM@DA@EAAPEAVIXMPConstNodeIterator_v1@AdobeXMPCore@@AEAPEBVIError_v1@AdobeXMPCommon@@@Z 00000001800122dc f i XMPArrayNodeImpl.obj
 0001:000112f8       ??_EXMPArrayNodeImpl@AdobeXMPCore_Int@@OMI@EAAPEAXI@Z 00000001800122f8 f i XMPArrayNodeImpl.obj
 0001:00011304       ?RemoveNode@IXMPArrayNode_I@AdobeXMPCore_Int@@$R2MA@CA@PPPPPPPM@IA@EAAPEAVIXMPNode_v1@AdobeXMPCore@@_KAEAPEBVIError_v1@AdobeXMPCommon@@@Z 0000000180012304 f i XMPArrayNodeImpl.obj
 0001:00011320       ?ReplaceNode_I@XMPCompositeNodeImpl@AdobeXMPCore_Int@@$R4KI@DA@PPPPPPPM@BBA@EAAXAEBV?$shared_ptr@VIXMPNode_I@AdobeXMPCore_Int@@@std@@AEBV?$shared_ptr@$$CBVIXMPPath_I@AdobeXMPCore_Int@@@4@@Z 0000000180012320 f i XMPArrayNodeImpl.obj
 0001:0001133c       ?GetChildCount@IXMPCompositeNode_I@AdobeXMPCore_Int@@$R2JA@BI@PPPPPPPM@FI@EBA_KAEAPEBVIError_v1@AdobeXMPCommon@@@Z 000000018001233c f i XMPArrayNodeImpl.obj
 0001:00011358       ?Iterator@IXMPCompositeNode_I@AdobeXMPCore_Int@@$R2PA@CE@PPPPPPPM@FI@EBAPEAVIXMPConstNodeIterator_v1@AdobeXMPCore@@KAEAPEBVIError_v1@AdobeXMPCommon@@@Z 0000000180012358 f i XMPArrayNodeImpl.obj
 0001:00011378       ?Iterator@IXMPCompositeNode_I@AdobeXMPCore_Int@@$R2PA@CE@PPPPPPPM@FI@EAAPEAVIXMPNodeIterator_v1@AdobeXMPCore@@KAEAPEBVIError_v1@AdobeXMPCommon@@@Z 0000000180012378 f i XMPArrayNodeImpl.obj
 0001:00011398       ?IsArrayItem@IXMPNode_I@AdobeXMPCore_Int@@$R2FA@BE@PPPPPPPM@DA@EBAKAEAPEBVIError_v1@AdobeXMPCommon@@@Z 0000000180012398 f i XMPArrayNodeImpl.obj
 0001:000113b4       ?Clear@IXMPNode_I@AdobeXMPCore_Int@@$2PPPPPPPM@A@EAAXKKAEAPEBVIError_v1@AdobeXMPCommon@@@Z 00000001800123b4 f i XMPArrayNodeImpl.obj
 0001:000113c0       ?ReplaceNode_I@XMPArrayNodeImpl@AdobeXMPCore_Int@@$4PPPPPPPM@A@EAAXAEBV?$shared_ptr@VIXMPNode_I@AdobeXMPCore_Int@@@std@@_K@Z 00000001800123c0 f i XMPArrayNodeImpl.obj
 0001:000113cc       ?ReplaceNode@IXMPCompositeNode_I@AdobeXMPCore_Int@@$R2JA@BI@PPPPPPPM@FI@EAAXPEAVIXMPNode_v1@AdobeXMPCore@@PEBVIXMPPath_v1@4@AEAPEBVIError_v1@AdobeXMPCommon@@@Z 00000001800123cc f i XMPArrayNodeImpl.obj
 0001:000113e8       ?AppendNode@IXMPCompositeNode_I@AdobeXMPCore_Int@@$R2JA@BI@PPPPPPPM@FI@EAAXPEAVIXMPNode_v1@AdobeXMPCore@@AEAPEBVIError_v1@AdobeXMPCommon@@@Z 00000001800123e8 f i XMPArrayNodeImpl.obj
 0001:00011404       ?GetNodeType@IXMPNode_I@AdobeXMPCore_Int@@$R2GA@BA@PPPPPPPM@DA@EBAKAEAPEBVIError_v1@AdobeXMPCommon@@@Z 0000000180012404 f i XMPArrayNodeImpl.obj
 0001:00011420       ?GetQualifier@IXMPNode_I@AdobeXMPCore_Int@@$R2GA@BA@PPPPPPPM@DA@EBAPEBVIXMPNode_v1@AdobeXMPCore@@PEBD0AEAPEBVIError_v1@AdobeXMPCommon@@@Z 0000000180012420 f i XMPArrayNodeImpl.obj
 0001:0001143c       ?GetQualifier@IXMPNode_I@AdobeXMPCore_Int@@$R2GA@BA@PPPPPPPM@DA@EAAPEAVIXMPNode_v1@AdobeXMPCore@@PEBD0AEAPEBVIError_v1@AdobeXMPCommon@@@Z 000000018001243c f i XMPArrayNodeImpl.obj
 0001:00011458       ?GetName@IXMPNode_I@AdobeXMPCore_Int@@$R2GA@BA@PPPPPPPM@DA@EBAPEBVIUTF8String_v1@AdobeXMPCommon@@AEAPEBVIError_v1@4@@Z 0000000180012458 f i XMPArrayNodeImpl.obj
 0001:00011474       ?IsEmpty@IXMPCompositeNode_I@AdobeXMPCore_Int@@$R2PA@CE@PPPPPPPM@FI@EBAKAEAPEBVIError_v1@AdobeXMPCommon@@@Z 0000000180012474 f i XMPArrayNodeImpl.obj
 0001:00011494       ?IsArrayItem@XMPNodeImpl@AdobeXMPCore_Int@@$R4GI@BM@PPPPPPPM@MI@EBA_NXZ 0000000180012494 f i XMPArrayNodeImpl.obj
 0001:000114b0       ?AcquireSharedOwnership@XMPNodeImpl@AdobeXMPCore_Int@@$4PPPPPPPM@A@EBAXXZ 00000001800124b0 f i XMPArrayNodeImpl.obj
 0001:000114bc       ?GetNode@IXMPConstNodeIterator_I@AdobeXMPCore_Int@@$2PPPPPPPM@A@EBAPEBVIXMPNode_v1@AdobeXMPCore@@AEAPEBVIError_v1@AdobeXMPCommon@@@Z 00000001800124bc f i XMPArrayNodeImpl.obj
 0001:000114bc       ?GetNode@IXMPNodeIterator_I@AdobeXMPCore_Int@@$2PPPPPPPM@A@EBAPEAVIXMPNode_v1@AdobeXMPCore@@AEAPEBVIError_v1@AdobeXMPCommon@@@Z 00000001800124bc f i XMPArrayNodeImpl.obj
 0001:000114c8       ?RemoveQualifier@IXMPNode_I@AdobeXMPCore_Int@@$R2CI@BA@PPPPPPPM@DA@EAAPEAVIXMPNode_v1@AdobeXMPCore@@PEBD0AEAPEBVIError_v1@AdobeXMPCommon@@@Z 00000001800124c8 f i XMPArrayNodeImpl.obj
 0001:000114e4       ?Next_I@?$TXMPNodeIteratorImpl@V?$_Vector_iterator@V?$_Vector_val@U?$_Simple_types@V?$shared_ptr@VIXMPNode_I@AdobeXMPCore_Int@@@std@@@std@@@std@@@std@@@AdobeXMPCore_Int@@$4PPPPPPPM@A@EAA?AV?$shared_ptr@VIXMPNodeIterator_I@AdobeXMPCore_Int@@@std@@XZ 00000001800124e4 f i XMPArrayNodeImpl.obj
 0001:000114f0       ?IsArrayItem@XMPNodeImpl@AdobeXMPCore_Int@@$R4HI@CM@PPPPPPPM@MI@EBA_NXZ 00000001800124f0 f i XMPArrayNodeImpl.obj
 0001:0001150c       ?GetPath@IXMPNode_I@AdobeXMPCore_Int@@$R2GA@BA@PPPPPPPM@DA@EBAPEAVIXMPPath_v1@AdobeXMPCore@@KAEAPEBVIError_v1@AdobeXMPCommon@@@Z 000000018001250c f i XMPArrayNodeImpl.obj
 0001:00011528       ??_EXMPCompositeNodeImpl@AdobeXMPCore_Int@@OGI@EAAPEAXI@Z 0000000180012528 f i XMPArrayNodeImpl.obj
 0001:00011534       ?GetRawParentPointer_I@XMPNodeImpl@AdobeXMPCore_Int@@$R4GI@BM@PPPPPPPM@MI@EAAPEAVIXMPNode_I@2@XZ 0000000180012534 f i XMPArrayNodeImpl.obj
 0001:00011534       ?GetRawParentPointer_I@XMPNodeImpl@AdobeXMPCore_Int@@$R4GI@BM@PPPPPPPM@MI@EBAPEBVIXMPNode_I@2@XZ 0000000180012534 f i XMPArrayNodeImpl.obj
 0001:00011550       ?GetName_I@XMPNodeImpl@AdobeXMPCore_Int@@$R4GI@BM@PPPPPPPM@MI@EBA?AV?$shared_ptr@$$CBVIUTF8String_I@AdobeXMPCommon_Int@@@std@@XZ 0000000180012550 f i XMPArrayNodeImpl.obj
 0001:0001156c       ?SetQualifiers@IXMPNode_I@AdobeXMPCore_Int@@$R2FA@BE@PPPPPPPM@DA@EAAXPEAVIXMPQualifiers_v1@AdobeXMPCore@@AEAPEBVIError_v1@AdobeXMPCommon@@@Z 000000018001256c f i XMPArrayNodeImpl.obj
 0001:00011588       ?HasQualifiers@XMPNodeImpl@AdobeXMPCore_Int@@$4PPPPPPPM@A@EBA_NXZ 0000000180012588 f i XMPArrayNodeImpl.obj
 0001:00011594       ?ReplaceQualifier_I@XMPNodeImpl@AdobeXMPCore_Int@@$4PPPPPPPM@A@EAAXAEBV?$shared_ptr@VIXMPNode_I@AdobeXMPCore_Int@@@std@@@Z 0000000180012594 f i XMPArrayNodeImpl.obj
 0001:000115a0       ?RemoveNode@IXMPCompositeNode_I@AdobeXMPCore_Int@@$R2FA@BI@PPPPPPPM@FI@EAAPEAVIXMPNode_v1@AdobeXMPCore@@PEBVIXMPPath_v1@4@AEAPEBVIError_v1@AdobeXMPCommon@@@Z 00000001800125a0 f i XMPArrayNodeImpl.obj
 0001:000115bc       ?GetValue@IXMPPathSegment_I@AdobeXMPCore_Int@@$2PPPPPPPM@A@EBAPEBVIUTF8String_v1@AdobeXMPCommon@@AEAPEBVIError_v1@4@@Z 00000001800125bc f i XMPPathSegmentImpl.obj
 0001:000115bc       ?GetNameSpace@IXMPNode_I@AdobeXMPCore_Int@@$2PPPPPPPM@A@EBAPEBVIUTF8String_v1@AdobeXMPCommon@@AEAPEBVIError_v1@4@@Z 00000001800125bc f i XMPArrayNodeImpl.obj
 0001:000115c8       ?GetRawParentPointer_I@XMPNodeImpl@AdobeXMPCore_Int@@$R4HI@CM@PPPPPPPM@MI@EAAPEAVIXMPNode_I@2@XZ 00000001800125c8 f i XMPArrayNodeImpl.obj
 0001:000115c8       ?GetRawParentPointer_I@XMPNodeImpl@AdobeXMPCore_Int@@$R4HI@CM@PPPPPPPM@MI@EBAPEBVIXMPNode_I@2@XZ 00000001800125c8 f i XMPArrayNodeImpl.obj
 0001:000115e4       ?GetName_I@XMPNodeImpl@AdobeXMPCore_Int@@$R4HI@CM@PPPPPPPM@MI@EBA?AV?$shared_ptr@$$CBVIUTF8String_I@AdobeXMPCommon_Int@@@std@@XZ 00000001800125e4 f i XMPArrayNodeImpl.obj
 0001:00011600       ?Clone@IXMPNode_I@AdobeXMPCore_Int@@$R2GA@BA@PPPPPPPM@DA@EBAPEAVIXMPNode_v1@AdobeXMPCore@@KKKAEAPEBVIError_v1@AdobeXMPCommon@@@Z 0000000180012600 f i XMPArrayNodeImpl.obj
 0001:0001161c       ?Clear@XMPNodeImpl@AdobeXMPCore_Int@@$4PPPPPPPM@A@EAAX_N0@Z 000000018001261c f i XMPArrayNodeImpl.obj
 0001:00011628       ?RemoveQualifier_I@XMPNodeImpl@AdobeXMPCore_Int@@$4PPPPPPPM@A@EAA?AV?$shared_ptr@VIXMPNode_I@AdobeXMPCore_Int@@@std@@PEBD0@Z 0000000180012628 f i XMPArrayNodeImpl.obj
 0001:00011634       ?GetNode@IXMPCompositeNode_I@AdobeXMPCore_Int@@$2PPPPPPPM@A@EBAPEBVIXMPNode_v1@AdobeXMPCore@@PEBVIXMPPath_v1@4@AEAPEBVIError_v1@AdobeXMPCommon@@@Z 0000000180012634 f i XMPArrayNodeImpl.obj
 0001:00011640       ?GetNode@IXMPCompositeNode_I@AdobeXMPCore_Int@@$2PPPPPPPM@A@EAAPEAVIXMPNode_v1@AdobeXMPCore@@PEBVIXMPPath_v1@4@AEAPEBVIError_v1@AdobeXMPCommon@@@Z 0000000180012640 f i XMPArrayNodeImpl.obj
 0001:0001164c       ?HasQualifiers@IXMPNode_I@AdobeXMPCore_Int@@$2PPPPPPPM@A@EBAKAEAPEBVIError_v1@AdobeXMPCommon@@@Z 000000018001264c f i XMPArrayNodeImpl.obj
 0001:00011658       ??_9IUTF8String_I@AdobeXMPCommon_Int@@$BA@AA 0000000180012658 f i XMPArrayNodeImpl.obj
 0001:00011658       ??_9IXMPDOMConfiguration_I@AdobeXMPCore_Int@@$BA@AA 0000000180012658 f i XMPDOMImplementationRegistryImpl.obj
 0001:00011658       ??_9IXMPNameSpacePrefixMap_v1@AdobeXMPCore@@$BA@AA 0000000180012658 f i XMPCommon:ErrorImpl.obj
 0001:00011658       ??_9IXMPPathSegment_I@AdobeXMPCore_Int@@$BA@AA 0000000180012658 f i XMPPathSegmentImpl.obj
 0001:00011660       ?RemoveNode@IXMPCompositeNode_I@AdobeXMPCore_Int@@$R2JA@BI@PPPPPPPM@FI@EAAPEAVIXMPNode_v1@AdobeXMPCore@@PEBVIXMPPath_v1@4@AEAPEBVIError_v1@AdobeXMPCommon@@@Z 0000000180012660 f i XMPArrayNodeImpl.obj
 0001:0001167c       ?ReplaceQualifier@IXMPNode_I@AdobeXMPCore_Int@@$R2GA@BA@PPPPPPPM@DA@EAAXPEAVIXMPNode_v1@AdobeXMPCore@@AEAPEBVIError_v1@AdobeXMPCommon@@@Z 000000018001267c f i XMPArrayNodeImpl.obj
 0001:00011698       ?GetQualifiers_I@XMPNodeImpl@AdobeXMPCore_Int@@$R4GI@BM@PPPPPPPM@MI@EAA?AV?$shared_ptr@VIXMPQualifiers_I@AdobeXMPCore_Int@@@std@@XZ 0000000180012698 f i XMPArrayNodeImpl.obj
 0001:00011698       ?GetQualifiers_I@XMPNodeImpl@AdobeXMPCore_Int@@$R4GI@BM@PPPPPPPM@MI@EBA?AV?$shared_ptr@$$CBVIXMPQualifiers_I@AdobeXMPCore_Int@@@std@@XZ 0000000180012698 f i XMPArrayNodeImpl.obj
 0001:000116b4       ?AcquireSharedOwnership@XMPNodeImpl@AdobeXMPCore_Int@@$R4BA@BM@PPPPPPPM@HA@EBAXXZ 00000001800126b4 f i XMPArrayNodeImpl.obj
 0001:000116d0       ?Next@IXMPNodeIterator_I@AdobeXMPCore_Int@@$2PPPPPPPM@A@EAAPEAVIXMPNodeIterator_v1@AdobeXMPCore@@AEAPEBVIError_v1@AdobeXMPCommon@@@Z 00000001800126d0 f i XMPArrayNodeImpl.obj
 0001:000116d0       ?Next@IXMPConstNodeIterator_I@AdobeXMPCore_Int@@$2PPPPPPPM@A@EAAPEAVIXMPConstNodeIterator_v1@AdobeXMPCore@@AEAPEBVIError_v1@AdobeXMPCommon@@@Z 00000001800126d0 f i XMPArrayNodeImpl.obj
 0001:000116dc       ?GetQualifiers@IXMPNode_I@AdobeXMPCore_Int@@$2PPPPPPPM@A@EBAPEBVIXMPQualifiers_v1@AdobeXMPCore@@AEAPEBVIError_v1@AdobeXMPCommon@@@Z 00000001800126dc f i XMPArrayNodeImpl.obj
 0001:000116e8       ?GetQualifiers@IXMPNode_I@AdobeXMPCore_Int@@$2PPPPPPPM@A@EAAPEAVIXMPQualifiers_v1@AdobeXMPCore@@AEAPEBVIError_v1@AdobeXMPCommon@@@Z 00000001800126e8 f i XMPArrayNodeImpl.obj
 0001:000116f4       ??_9IUTF8String_I@AdobeXMPCommon_Int@@$BBA@AA 00000001800126f4 f i XMPArrayNodeImpl.obj
 0001:000116f4       ??_9IXMPNameSpacePrefixMap_v1@AdobeXMPCore@@$BBA@AA 00000001800126f4 f i XMPCommon:ErrorImpl.obj
 0001:000116f4       ??_9IXMPDOMConfiguration_I@AdobeXMPCore_Int@@$BBA@AA 00000001800126f4 f i RDFXMPDOMParserImpl.obj
 0001:000116f4       ??_9IXMPPathSegment_I@AdobeXMPCore_Int@@$BBA@AA 00000001800126f4 f i XMPPathSegmentImpl.obj
 0001:000116fc       ?GetQualifiers_I@XMPNodeImpl@AdobeXMPCore_Int@@$R4HI@CM@PPPPPPPM@MI@EAA?AV?$shared_ptr@VIXMPQualifiers_I@AdobeXMPCore_Int@@@std@@XZ 00000001800126fc f i XMPArrayNodeImpl.obj
 0001:000116fc       ?GetQualifiers_I@XMPNodeImpl@AdobeXMPCore_Int@@$R4HI@CM@PPPPPPPM@MI@EBA?AV?$shared_ptr@$$CBVIXMPQualifiers_I@AdobeXMPCore_Int@@@std@@XZ 00000001800126fc f i XMPArrayNodeImpl.obj
 0001:00011718       ?InsertQualifier@IXMPNode_I@AdobeXMPCore_Int@@$R2GA@BA@PPPPPPPM@DA@EAAXPEAVIXMPNode_v1@AdobeXMPCore@@AEAPEBVIError_v1@AdobeXMPCommon@@@Z 0000000180012718 f i XMPArrayNodeImpl.obj
 0001:00011734       ?InsertQualifier_I@XMPNodeImpl@AdobeXMPCore_Int@@$4PPPPPPPM@A@EAAXAEBV?$shared_ptr@VIXMPNode_I@AdobeXMPCore_Int@@@std@@@Z 0000000180012734 f i XMPArrayNodeImpl.obj
 0001:00011740       ?GetParent_I@XMPNodeImpl@AdobeXMPCore_Int@@$4PPPPPPPM@A@EBA?AV?$shared_ptr@$$CBVIXMPNode_I@AdobeXMPCore_Int@@@std@@XZ 0000000180012740 f i XMPArrayNodeImpl.obj
 0001:0001174c       ?GetParent_I@XMPNodeImpl@AdobeXMPCore_Int@@$4PPPPPPPM@A@EAA?AV?$shared_ptr@VIXMPNode_I@AdobeXMPCore_Int@@@std@@XZ 000000018001274c f i XMPArrayNodeImpl.obj
 0001:00011758       ?IsArrayItem@IXMPNode_I@AdobeXMPCore_Int@@$2PPPPPPPM@A@EBAKAEAPEBVIError_v1@AdobeXMPCommon@@@Z 0000000180012758 f i XMPArrayNodeImpl.obj
 0001:00011764       ??_9IUTF8String_I@AdobeXMPCommon_Int@@$BCA@AA 0000000180012764 f i XMPArrayNodeImpl.obj
 0001:00011764       ??_9IXMPPathSegment_I@AdobeXMPCore_Int@@$BCA@AA 0000000180012764 f i XMPPathSegmentImpl.obj
 0001:00011764       ??_9IXMPNameSpacePrefixMap_v1@AdobeXMPCore@@$BCA@AA 0000000180012764 f i XMPCommon:ClientAllocatorWrapperImpl.obj
 0001:0001176c       ?GetNodeType@XMPArrayNodeImpl@AdobeXMPCore_Int@@$4PPPPPPPM@A@EBA?AW4eXMPNodeType@IXMPNode_v1@AdobeXMPCore@@XZ 000000018001276c f i XMPArrayNodeImpl.obj
 0001:00011778       ?ReplaceNode_I@XMPCompositeNodeImpl@AdobeXMPCore_Int@@$4PPPPPPPM@A@EAAXAEBV?$shared_ptr@VIXMPNode_I@AdobeXMPCore_Int@@@std@@AEBV?$shared_ptr@$$CBVIXMPPath_I@AdobeXMPCore_Int@@@4@@Z 0000000180012778 f i XMPArrayNodeImpl.obj
 0001:00011784       ?SetQualifiers_I@XMPNodeImpl@AdobeXMPCore_Int@@$R4GI@BM@PPPPPPPM@MI@EAAXAEBV?$shared_ptr@VIXMPQualifiers_I@AdobeXMPCore_Int@@@std@@@Z 0000000180012784 f i XMPArrayNodeImpl.obj
 0001:000117a0       ?Iterator@IXMPCompositeNode_I@AdobeXMPCore_Int@@$2PPPPPPPM@A@EBAPEAVIXMPConstNodeIterator_v1@AdobeXMPCore@@KAEAPEBVIError_v1@AdobeXMPCommon@@@Z 00000001800127a0 f i XMPArrayNodeImpl.obj
 0001:000117ac       ?Iterator@IXMPCompositeNode_I@AdobeXMPCore_Int@@$2PPPPPPPM@A@EAAPEAVIXMPNodeIterator_v1@AdobeXMPCore@@KAEAPEBVIError_v1@AdobeXMPCommon@@@Z 00000001800127ac f i XMPArrayNodeImpl.obj
 0001:000117b8       ??_9IXMPNameSpacePrefixMap_I@AdobeXMPCore_Int@@$BDA@AA 00000001800127b8 f i XMPArrayNodeImpl.obj
 0001:000117c0       ??_E?$TXMPNodeIteratorImpl@V?$_Vector_iterator@V?$_Vector_val@U?$_Simple_types@V?$shared_ptr@VIXMPNode_I@AdobeXMPCore_Int@@@std@@@std@@@std@@@std@@@AdobeXMPCore_Int@@$2PPPPPPPM@A@EAAPEAXI@Z 00000001800127c0 f i XMPArrayNodeImpl.obj
 0001:000117cc       ?CloneContents@XMPArrayNodeImpl@AdobeXMPCore_Int@@$4PPPPPPPM@A@EBA?AV?$shared_ptr@VIXMPNode_I@AdobeXMPCore_Int@@@std@@_N0_KW4eMultiThreadingSupport@AdobeXMPCommon@@@Z 00000001800127cc f i XMPArrayNodeImpl.obj
 0001:000117d8       ?GetNode_I@XMPCompositeNodeImpl@AdobeXMPCore_Int@@$R4KI@DA@PPPPPPPM@BBA@EBA?AV?$shared_ptr@$$CBVIXMPNode_I@AdobeXMPCore_Int@@@std@@AEBV?$shared_ptr@$$CBVIXMPPath_I@AdobeXMPCore_Int@@@4@@Z 00000001800127d8 f i XMPArrayNodeImpl.obj
 0001:000117f4       ?GetNode_I@XMPCompositeNodeImpl@AdobeXMPCore_Int@@$R4KI@DA@PPPPPPPM@BBA@EAA?AV?$shared_ptr@VIXMPNode_I@AdobeXMPCore_Int@@@std@@AEBV?$shared_ptr@$$CBVIXMPPath_I@AdobeXMPCore_Int@@@4@@Z 00000001800127f4 f i XMPArrayNodeImpl.obj
 0001:00011810       ?SetQualifiers_I@XMPNodeImpl@AdobeXMPCore_Int@@$R4HI@CM@PPPPPPPM@MI@EAAXAEBV?$shared_ptr@VIXMPQualifiers_I@AdobeXMPCore_Int@@@std@@@Z 0000000180012810 f i XMPArrayNodeImpl.obj
 0001:0001182c       ?Clear@IXMPNode_I@AdobeXMPCore_Int@@$R2GA@BA@PPPPPPPM@DA@EAAXKKAEAPEBVIError_v1@AdobeXMPCommon@@@Z 000000018001282c f i XMPArrayNodeImpl.obj
 0001:00011848       ?AcquireSharedOwnershipForRawPointer@XMPNodeImpl@AdobeXMPCore_Int@@$R4EI@CM@PPPPPPPM@IA@EBAXXZ 0000000180012848 f i XMPArrayNodeImpl.obj
 0001:00011864       ?GetParent@IXMPNode_I@AdobeXMPCore_Int@@$R2KI@BE@PPPPPPPM@DA@EBAPEBVIXMPNode_v1@AdobeXMPCore@@AEAPEBVIError_v1@AdobeXMPCommon@@@Z 0000000180012864 f i XMPArrayNodeImpl.obj
 0001:00011880       ?GetParent@IXMPNode_I@AdobeXMPCore_Int@@$R2KI@BE@PPPPPPPM@DA@EAAPEAVIXMPNode_v1@AdobeXMPCore@@AEAPEBVIError_v1@AdobeXMPCommon@@@Z 0000000180012880 f i XMPArrayNodeImpl.obj
 0001:0001189c       ??_EXMPNodeImpl@AdobeXMPCore_Int@@$2PPPPPPPM@A@EAAPEAXI@Z 000000018001289c f i XMPArrayNodeImpl.obj
 0001:000118a8       ?IsEmpty@IXMPCompositeNode_I@AdobeXMPCore_Int@@$2PPPPPPPM@A@EBAKAEAPEBVIError_v1@AdobeXMPCommon@@@Z 00000001800128a8 f i XMPArrayNodeImpl.obj
 0001:000118b4       ?GetNodeType@IXMPNode_I@AdobeXMPCore_Int@@$R2CI@BA@PPPPPPPM@DA@EBAKAEAPEBVIError_v1@AdobeXMPCommon@@@Z 00000001800128b4 f i XMPArrayNodeImpl.obj
 0001:000118d0       ?GetQualifier@IXMPNode_I@AdobeXMPCore_Int@@$R2CI@BA@PPPPPPPM@DA@EBAPEBVIXMPNode_v1@AdobeXMPCore@@PEBD0AEAPEBVIError_v1@AdobeXMPCommon@@@Z 00000001800128d0 f i XMPArrayNodeImpl.obj
 0001:000118ec       ?GetQualifier@IXMPNode_I@AdobeXMPCore_Int@@$R2CI@BA@PPPPPPPM@DA@EAAPEAVIXMPNode_v1@AdobeXMPCore@@PEBD0AEAPEBVIError_v1@AdobeXMPCommon@@@Z 00000001800128ec f i XMPArrayNodeImpl.obj
 0001:00011908       ?GetName@IXMPNode_I@AdobeXMPCore_Int@@$R2CI@BA@PPPPPPPM@DA@EBAPEBVIUTF8String_v1@AdobeXMPCommon@@AEAPEBVIError_v1@4@@Z 0000000180012908 f i XMPArrayNodeImpl.obj
 0001:00011924       ?SetQualifiers@IXMPNode_I@AdobeXMPCore_Int@@$2PPPPPPPM@A@EAAXPEAVIXMPQualifiers_v1@AdobeXMPCore@@AEAPEBVIError_v1@AdobeXMPCommon@@@Z 0000000180012924 f i XMPArrayNodeImpl.obj
 0001:00011930       ??_9IXMPNameSpacePrefixMap_I@AdobeXMPCore_Int@@$BEA@AA 0000000180012930 f i XMPArrayNodeImpl.obj
 0001:00011938       ?GetArrayForm@XMPArrayNodeImpl@AdobeXMPCore_Int@@$4PPPPPPPM@A@EBA?AW4eXMPArrayNodeForm@IXMPArrayNode_v1@AdobeXMPCore@@XZ 0000000180012938 f i XMPArrayNodeImpl.obj
 0001:00011944       ?InsertNode_I@XMPCompositeNodeImpl@AdobeXMPCore_Int@@$R4KI@DA@PPPPPPPM@BBA@EAAXAEBV?$shared_ptr@VIXMPNode_I@AdobeXMPCore_Int@@@std@@AEBV?$shared_ptr@$$CBVIXMPPath_I@AdobeXMPCore_Int@@@4@@Z 0000000180012944 f i XMPArrayNodeImpl.obj
 0001:00011960       ?IsArrayItem@XMPNodeImpl@AdobeXMPCore_Int@@$4PPPPPPPM@A@EBA_NXZ 0000000180012960 f i XMPArrayNodeImpl.obj
 0001:0001196c       ?GetPath@IXMPNode_I@AdobeXMPCore_Int@@$R2CI@BA@PPPPPPPM@DA@EBAPEAVIXMPPath_v1@AdobeXMPCore@@KAEAPEBVIError_v1@AdobeXMPCommon@@@Z 000000018001296c f i XMPArrayNodeImpl.obj
 0001:00011988       ??_9IXMPNode_I@AdobeXMPCore_Int@@$BFA@AA 0000000180012988 f i XMPArrayNodeImpl.obj
 0001:00011990       ?InsertNode_I@XMPArrayNodeImpl@AdobeXMPCore_Int@@$4PPPPPPPM@A@EAAXAEBV?$shared_ptr@VIXMPNode_I@AdobeXMPCore_Int@@@std@@_K@Z 0000000180012990 f i XMPArrayNodeImpl.obj
 0001:0001199c       ?GetNode@IXMPArrayNode_I@AdobeXMPCore_Int@@$R2MA@CA@PPPPPPPM@IA@EBAPEBVIXMPNode_v1@AdobeXMPCore@@_KAEAPEBVIError_v1@AdobeXMPCommon@@@Z 000000018001299c f i XMPArrayNodeImpl.obj
 0001:000119b8       ?GetNode@IXMPArrayNode_I@AdobeXMPCore_Int@@$R2MA@CA@PPPPPPPM@IA@EAAPEAVIXMPNode_v1@AdobeXMPCore@@_KAEAPEBVIError_v1@AdobeXMPCommon@@@Z 00000001800129b8 f i XMPArrayNodeImpl.obj
 0001:000119d4       ?GetArrayForm@IXMPArrayNode_I@AdobeXMPCore_Int@@$R2MA@CA@PPPPPPPM@IA@EBAKAEAPEBVIError_v1@AdobeXMPCommon@@@Z 00000001800129d4 f i XMPArrayNodeImpl.obj
 0001:000119f0       ?GetNameSpace@IXMPNode_I@AdobeXMPCore_Int@@$R2GA@BA@PPPPPPPM@DA@EBAPEBVIUTF8String_v1@AdobeXMPCommon@@AEAPEBVIError_v1@4@@Z 00000001800129f0 f i XMPArrayNodeImpl.obj
 0001:00011a0c       ?GetRawParentPointer_I@XMPNodeImpl@AdobeXMPCore_Int@@$4PPPPPPPM@A@EBAPEBVIXMPNode_I@2@XZ 0000000180012a0c f i XMPArrayNodeImpl.obj
 0001:00011a0c       ?GetRawParentPointer_I@XMPNodeImpl@AdobeXMPCore_Int@@$4PPPPPPPM@A@EAAPEAVIXMPNode_I@2@XZ 0000000180012a0c f i XMPArrayNodeImpl.obj
 0001:00011a18       ?GetName_I@XMPNodeImpl@AdobeXMPCore_Int@@$4PPPPPPPM@A@EBA?AV?$shared_ptr@$$CBVIUTF8String_I@AdobeXMPCommon_Int@@@std@@XZ 0000000180012a18 f i XMPArrayNodeImpl.obj
 0001:00011a24       ?RemoveQualifier@IXMPNode_I@AdobeXMPCore_Int@@$R2KI@BE@PPPPPPPM@DA@EAAPEAVIXMPNode_v1@AdobeXMPCore@@PEBD0AEAPEBVIError_v1@AdobeXMPCommon@@@Z 0000000180012a24 f i XMPArrayNodeImpl.obj
 0001:00011a40       ?AcquireSharedOwnershipForRawPointer@XMPNodeImpl@AdobeXMPCore_Int@@$4PPPPPPPM@A@EBAXXZ 0000000180012a40 f i XMPArrayNodeImpl.obj
 0001:00011a4c       ?ReleaseSharedOwnership@IntrusiveRefCountSharedOwnership@AdobeXMPCommon_Int@@$4PPPPPPPM@A@EBAXXZ 0000000180012a4c f i XMPArrayNodeImpl.obj
 0001:00011a58       ?Clone@IXMPNode_I@AdobeXMPCore_Int@@$R2CI@BA@PPPPPPPM@DA@EBAPEAVIXMPNode_v1@AdobeXMPCore@@KKKAEAPEBVIError_v1@AdobeXMPCommon@@@Z 0000000180012a58 f i XMPArrayNodeImpl.obj
 0001:00011a74       ??_9IXMPNode_I@AdobeXMPCore_Int@@$BGA@AA 0000000180012a74 f i XMPArrayNodeImpl.obj
 0001:00011a7c       ?ReleaseSharedOwnership@IntrusiveRefCountSharedOwnership@AdobeXMPCommon_Int@@$R4DA@M@PPPPPPPM@CA@EBAXXZ 0000000180012a7c f i XMPArrayNodeImpl.obj
 0001:00011a98       ?HasQualifiers@IXMPNode_I@AdobeXMPCore_Int@@$R2GA@BA@PPPPPPPM@DA@EBAKAEAPEBVIError_v1@AdobeXMPCommon@@@Z 0000000180012a98 f i XMPArrayNodeImpl.obj
 0001:00011ab4       ?ReplaceQualifier@IXMPNode_I@AdobeXMPCore_Int@@$R2CI@BA@PPPPPPPM@DA@EAAXPEAVIXMPNode_v1@AdobeXMPCore@@AEAPEBVIError_v1@AdobeXMPCommon@@@Z 0000000180012ab4 f i XMPArrayNodeImpl.obj
 0001:00011ad0       ??_9IXMPNode_v1@AdobeXMPCore@@$BHA@AA 0000000180012ad0 f i XMPCommon:ErrorImpl.obj
 0001:00011ad0       ??_9IError_I@AdobeXMPCommon_Int@@$BHA@AA 0000000180012ad0 f i XMPArrayNodeImpl.obj
 0001:00011ad8       ?Next_I@?$TXMPConstNodeIteratorImpl@V?$_Vector_const_iterator@V?$_Vector_val@U?$_Simple_types@V?$shared_ptr@VIXMPNode_I@AdobeXMPCore_Int@@@std@@@std@@@std@@@std@@@AdobeXMPCore_Int@@$4PPPPPPPM@A@EAA?AV?$shared_ptr@VIXMPConstNodeIterator_I@AdobeXMPCore_Int@@@std@@XZ 0000000180012ad8 f i XMPArrayNodeImpl.obj
 0001:00011ae4       ?CheckSuitabilityToBeUsedAsChildNode@XMPArrayNodeImpl@AdobeXMPCore_Int@@$4PPPPPPPM@A@EAA_NAEBV?$shared_ptr@$$CBVIXMPNode_I@AdobeXMPCore_Int@@@std@@@Z 0000000180012ae4 f i XMPArrayNodeImpl.obj
 0001:00011af0       ?GetQualifiers@IXMPNode_I@AdobeXMPCore_Int@@$R2GA@BA@PPPPPPPM@DA@EBAPEBVIXMPQualifiers_v1@AdobeXMPCore@@AEAPEBVIError_v1@AdobeXMPCommon@@@Z 0000000180012af0 f i XMPArrayNodeImpl.obj
 0001:00011b0c       ?GetQualifiers@IXMPNode_I@AdobeXMPCore_Int@@$R2GA@BA@PPPPPPPM@DA@EAAPEAVIXMPQualifiers_v1@AdobeXMPCore@@AEAPEBVIError_v1@AdobeXMPCommon@@@Z 0000000180012b0c f i XMPArrayNodeImpl.obj
 0001:00011b28       ?GetQualifiers_I@XMPNodeImpl@AdobeXMPCore_Int@@$4PPPPPPPM@A@EBA?AV?$shared_ptr@$$CBVIXMPQualifiers_I@AdobeXMPCore_Int@@@std@@XZ 0000000180012b28 f i XMPArrayNodeImpl.obj
 0001:00011b28       ?GetQualifiers_I@XMPNodeImpl@AdobeXMPCore_Int@@$4PPPPPPPM@A@EAA?AV?$shared_ptr@VIXMPQualifiers_I@AdobeXMPCore_Int@@@std@@XZ 0000000180012b28 f i XMPArrayNodeImpl.obj
 0001:00011b34       ?GetNode@IXMPCompositeNode_I@AdobeXMPCore_Int@@$R2FA@BI@PPPPPPPM@FI@EBAPEBVIXMPNode_v1@AdobeXMPCore@@PEBVIXMPPath_v1@4@AEAPEBVIError_v1@AdobeXMPCommon@@@Z 0000000180012b34 f i XMPArrayNodeImpl.obj
 0001:00011b50       ?GetNode@IXMPCompositeNode_I@AdobeXMPCore_Int@@$R2FA@BI@PPPPPPPM@FI@EAAPEAVIXMPNode_v1@AdobeXMPCore@@PEBVIXMPPath_v1@4@AEAPEBVIError_v1@AdobeXMPCommon@@@Z 0000000180012b50 f i XMPArrayNodeImpl.obj
 0001:00011b6c       ?InsertQualifier@IXMPNode_I@AdobeXMPCore_Int@@$R2CI@BA@PPPPPPPM@DA@EAAXPEAVIXMPNode_v1@AdobeXMPCore@@AEAPEBVIError_v1@AdobeXMPCommon@@@Z 0000000180012b6c f i XMPArrayNodeImpl.obj
 0001:00011b88       ??_9IXMPNode_I@AdobeXMPCore_Int@@$BIA@AA 0000000180012b88 f i XMPArrayNodeImpl.obj
 0001:00011b94       ?GetNode_I@?$TXMPConstNodeIteratorImpl@V?$_Vector_const_iterator@V?$_Vector_val@U?$_Simple_types@V?$shared_ptr@VIXMPNode_I@AdobeXMPCore_Int@@@std@@@std@@@std@@@std@@@AdobeXMPCore_Int@@$4PPPPPPPM@A@EBA?AV?$shared_ptr@$$CBVIXMPNode_I@AdobeXMPCore_Int@@@std@@XZ 0000000180012b94 f i XMPArrayNodeImpl.obj
 0001:00011ba0       ?GetNode_I@XMPArrayNodeImpl@AdobeXMPCore_Int@@$4PPPPPPPM@A@EBA?AV?$shared_ptr@$$CBVIXMPNode_I@AdobeXMPCore_Int@@@std@@_K@Z 0000000180012ba0 f i XMPArrayNodeImpl.obj
 0001:00011bac       ?GetNode_I@XMPArrayNodeImpl@AdobeXMPCore_Int@@$4PPPPPPPM@A@EAA?AV?$shared_ptr@VIXMPNode_I@AdobeXMPCore_Int@@@std@@_K@Z 0000000180012bac f i XMPArrayNodeImpl.obj
 0001:00011bb8       ?IsEmpty@XMPArrayNodeImpl@AdobeXMPCore_Int@@$4PPPPPPPM@A@EBA_NXZ 0000000180012bb8 f i XMPArrayNodeImpl.obj
 0001:00011bc4       ?IsArrayItem@IXMPNode_I@AdobeXMPCore_Int@@$R2GA@BA@PPPPPPPM@DA@EBAKAEAPEBVIError_v1@AdobeXMPCommon@@@Z 0000000180012bc4 f i XMPArrayNodeImpl.obj
 0001:00011be0       ?GetParent@IXMPNode_I@AdobeXMPCore_Int@@$R2FA@BE@PPPPPPPM@DA@EBAPEBVIXMPNode_v1@AdobeXMPCore@@AEAPEBVIError_v1@AdobeXMPCommon@@@Z 0000000180012be0 f i XMPArrayNodeImpl.obj
 0001:00011bfc       ?GetParent@IXMPNode_I@AdobeXMPCore_Int@@$R2FA@BE@PPPPPPPM@DA@EAAPEAVIXMPNode_v1@AdobeXMPCore@@AEAPEBVIError_v1@AdobeXMPCommon@@@Z 0000000180012bfc f i XMPArrayNodeImpl.obj
 0001:00011c18       ?InsertNode@IXMPArrayNode_I@AdobeXMPCore_Int@@$2PPPPPPPM@A@EAAXPEAVIXMPNode_v1@AdobeXMPCore@@_KAEAPEBVIError_v1@AdobeXMPCommon@@@Z 0000000180012c18 f i XMPArrayNodeImpl.obj
 0001:00011c24       ??_9IXMPNode_I@AdobeXMPCore_Int@@$BJA@AA 0000000180012c24 f i XMPArrayNodeImpl.obj
 0001:00011c30       ?GetNode@IXMPCompositeNode_I@AdobeXMPCore_Int@@$R2JA@BI@PPPPPPPM@FI@EBAPEBVIXMPNode_v1@AdobeXMPCore@@PEBVIXMPPath_v1@4@AEAPEBVIError_v1@AdobeXMPCommon@@@Z 0000000180012c30 f i XMPArrayNodeImpl.obj
 0001:00011c4c       ?GetNode@IXMPCompositeNode_I@AdobeXMPCore_Int@@$R2JA@BI@PPPPPPPM@FI@EAAPEAVIXMPNode_v1@AdobeXMPCore@@PEBVIXMPPath_v1@4@AEAPEBVIError_v1@AdobeXMPCommon@@@Z 0000000180012c4c f i XMPArrayNodeImpl.obj
 0001:00011c68       ?GetNode_I@XMPCompositeNodeImpl@AdobeXMPCore_Int@@$4PPPPPPPM@A@EBA?AV?$shared_ptr@$$CBVIXMPNode_I@AdobeXMPCore_Int@@@std@@AEBV?$shared_ptr@$$CBVIXMPPath_I@AdobeXMPCore_Int@@@4@@Z 0000000180012c68 f i XMPArrayNodeImpl.obj
 0001:00011c74       ?GetNode_I@XMPCompositeNodeImpl@AdobeXMPCore_Int@@$4PPPPPPPM@A@EAA?AV?$shared_ptr@VIXMPNode_I@AdobeXMPCore_Int@@@std@@AEBV?$shared_ptr@$$CBVIXMPPath_I@AdobeXMPCore_Int@@@4@@Z 0000000180012c74 f i XMPArrayNodeImpl.obj
 0001:00011c80       ?InsertNode@IXMPCompositeNode_I@AdobeXMPCore_Int@@$R2PA@CE@PPPPPPPM@FI@EAAXPEAVIXMPNode_v1@AdobeXMPCore@@PEBVIXMPPath_v1@4@AEAPEBVIError_v1@AdobeXMPCommon@@@Z 0000000180012c80 f i XMPArrayNodeImpl.obj
 0001:00011ca0       ?Clone_I@XMPNodeImpl@AdobeXMPCore_Int@@$R4GI@BM@PPPPPPPM@MI@EBA?AV?$shared_ptr@VIXMPNode_I@AdobeXMPCore_Int@@@std@@_N0W4eMultiThreadingSupport@AdobeXMPCommon@@@Z 0000000180012ca0 f i XMPArrayNodeImpl.obj
 0001:00011cbc       ?AcquireSharedOwnershipForRawPointer@XMPNodeImpl@AdobeXMPCore_Int@@$R4CA@BM@PPPPPPPM@IA@EBAXXZ 0000000180012cbc f i XMPArrayNodeImpl.obj
 0001:00011cd8       ?SetQualifiers_I@XMPNodeImpl@AdobeXMPCore_Int@@$4PPPPPPPM@A@EAAXAEBV?$shared_ptr@VIXMPQualifiers_I@AdobeXMPCore_Int@@@std@@@Z 0000000180012cd8 f i XMPArrayNodeImpl.obj
 0001:00011ce4       ?Clear@IXMPNode_I@AdobeXMPCore_Int@@$R2CI@BA@PPPPPPPM@DA@EAAXKKAEAPEBVIError_v1@AdobeXMPCommon@@@Z 0000000180012ce4 f i XMPArrayNodeImpl.obj
 0001:00011d00       ?Clone_I@XMPNodeImpl@AdobeXMPCore_Int@@$R4HI@CM@PPPPPPPM@MI@EBA?AV?$shared_ptr@VIXMPNode_I@AdobeXMPCore_Int@@@std@@_N0W4eMultiThreadingSupport@AdobeXMPCommon@@@Z 0000000180012d00 f i XMPArrayNodeImpl.obj
 0001:00011d1c       ?SetQualifiers@IXMPNode_I@AdobeXMPCore_Int@@$R2GA@BA@PPPPPPPM@DA@EAAXPEAVIXMPQualifiers_v1@AdobeXMPCore@@AEAPEBVIError_v1@AdobeXMPCommon@@@Z 0000000180012d1c f i XMPArrayNodeImpl.obj
 0001:00011d38       ?InsertNode_I@XMPCompositeNodeImpl@AdobeXMPCore_Int@@$4PPPPPPPM@A@EAAXAEBV?$shared_ptr@VIXMPNode_I@AdobeXMPCore_Int@@@std@@AEBV?$shared_ptr@$$CBVIXMPPath_I@AdobeXMPCore_Int@@@4@@Z 0000000180012d38 f i XMPArrayNodeImpl.obj
 0001:00011d44       ?RemoveQualifier@IXMPNode_I@AdobeXMPCore_Int@@$R2FA@BE@PPPPPPPM@DA@EAAPEAVIXMPNode_v1@AdobeXMPCore@@PEBD0AEAPEBVIError_v1@AdobeXMPCommon@@@Z 0000000180012d44 f i XMPArrayNodeImpl.obj
 0001:00011d60       ?Iterator@IXMPCompositeNode_I@AdobeXMPCore_Int@@$R2FA@BI@PPPPPPPM@FI@EBAPEAVIXMPConstNodeIterator_v1@AdobeXMPCore@@KAEAPEBVIError_v1@AdobeXMPCommon@@@Z 0000000180012d60 f i XMPArrayNodeImpl.obj
 0001:00011d7c       ?Iterator@IXMPCompositeNode_I@AdobeXMPCore_Int@@$R2FA@BI@PPPPPPPM@FI@EAAPEAVIXMPNodeIterator_v1@AdobeXMPCore@@KAEAPEBVIError_v1@AdobeXMPCommon@@@Z 0000000180012d7c f i XMPArrayNodeImpl.obj
 0001:00011d98       ?GetChildCount@IXMPCompositeNode_I@AdobeXMPCore_Int@@$R2PA@CE@PPPPPPPM@FI@EBA_KAEAPEBVIError_v1@AdobeXMPCommon@@@Z 0000000180012d98 f i XMPArrayNodeImpl.obj
 0001:00011db8       ?GetNameSpace_I@XMPNodeImpl@AdobeXMPCore_Int@@$R4GI@BM@PPPPPPPM@MI@EBA?AV?$shared_ptr@$$CBVIUTF8String_I@AdobeXMPCommon_Int@@@std@@XZ 0000000180012db8 f i XMPArrayNodeImpl.obj
 0001:00011dd4       ?GetNodeType@IXMPNode_I@AdobeXMPCore_Int@@$R2KI@BE@PPPPPPPM@DA@EBAKAEAPEBVIError_v1@AdobeXMPCommon@@@Z 0000000180012dd4 f i XMPArrayNodeImpl.obj
 0001:00011df0       ?GetQualifier@IXMPNode_I@AdobeXMPCore_Int@@$R2KI@BE@PPPPPPPM@DA@EBAPEBVIXMPNode_v1@AdobeXMPCore@@PEBD0AEAPEBVIError_v1@AdobeXMPCommon@@@Z 0000000180012df0 f i XMPArrayNodeImpl.obj
 0001:00011e0c       ?GetQualifier@IXMPNode_I@AdobeXMPCore_Int@@$R2KI@BE@PPPPPPPM@DA@EAAPEAVIXMPNode_v1@AdobeXMPCore@@PEBD0AEAPEBVIError_v1@AdobeXMPCommon@@@Z 0000000180012e0c f i XMPArrayNodeImpl.obj
 0001:00011e28       ?GetName@IXMPNode_I@AdobeXMPCore_Int@@$R2KI@BE@PPPPPPPM@DA@EBAPEBVIUTF8String_v1@AdobeXMPCommon@@AEAPEBVIError_v1@4@@Z 0000000180012e28 f i XMPArrayNodeImpl.obj
 0001:00011e44       ?ReplaceNode@IXMPArrayNode_I@AdobeXMPCore_Int@@$2PPPPPPPM@A@EAAXPEAVIXMPNode_v1@AdobeXMPCore@@_KAEAPEBVIError_v1@AdobeXMPCommon@@@Z 0000000180012e44 f i XMPArrayNodeImpl.obj
 0001:00011e50       ?IsEmpty@IXMPCompositeNode_I@AdobeXMPCore_Int@@$R2FA@BI@PPPPPPPM@FI@EBAKAEAPEBVIError_v1@AdobeXMPCommon@@@Z 0000000180012e50 f i XMPArrayNodeImpl.obj
 0001:00011e6c       ?GetNameSpace@IXMPNode_I@AdobeXMPCore_Int@@$R2CI@BA@PPPPPPPM@DA@EBAPEBVIUTF8String_v1@AdobeXMPCommon@@AEAPEBVIError_v1@4@@Z 0000000180012e6c f i XMPArrayNodeImpl.obj
 0001:00011e88       ??_E?$TXMPConstNodeIteratorImpl@V?$_Vector_const_iterator@V?$_Vector_val@U?$_Simple_types@V?$shared_ptr@VIXMPNode_I@AdobeXMPCore_Int@@@std@@@std@@@std@@@std@@@AdobeXMPCore_Int@@$2PPPPPPPM@A@EAAPEAXI@Z 0000000180012e88 f i XMPArrayNodeImpl.obj
 0001:00011e94       ?Iterator@IXMPCompositeNode_I@AdobeXMPCore_Int@@$R2JA@BI@PPPPPPPM@FI@EBAPEAVIXMPConstNodeIterator_v1@AdobeXMPCore@@KAEAPEBVIError_v1@AdobeXMPCommon@@@Z 0000000180012e94 f i XMPArrayNodeImpl.obj
 0001:00011eb0       ?Iterator@IXMPCompositeNode_I@AdobeXMPCore_Int@@$R2JA@BI@PPPPPPPM@FI@EAAPEAVIXMPNodeIterator_v1@AdobeXMPCore@@KAEAPEBVIError_v1@AdobeXMPCommon@@@Z 0000000180012eb0 f i XMPArrayNodeImpl.obj
 0001:00011ecc       ?GetNameSpace_I@XMPNodeImpl@AdobeXMPCore_Int@@$R4HI@CM@PPPPPPPM@MI@EBA?AV?$shared_ptr@$$CBVIUTF8String_I@AdobeXMPCommon_Int@@@std@@XZ 0000000180012ecc f i XMPArrayNodeImpl.obj
 0001:00011ee8       ??_EXMPArrayNodeImpl@AdobeXMPCore_Int@@$2PPPPPPPM@A@EAAPEAXI@Z 0000000180012ee8 f i XMPArrayNodeImpl.obj
 0001:00011ef4       ?ReplaceNode@IXMPCompositeNode_I@AdobeXMPCore_Int@@$R2PA@CE@PPPPPPPM@FI@EAAXPEAVIXMPNode_v1@AdobeXMPCore@@PEBVIXMPPath_v1@4@AEAPEBVIError_v1@AdobeXMPCommon@@@Z 0000000180012ef4 f i XMPArrayNodeImpl.obj
 0001:00011f14       ?AppendNode@IXMPCompositeNode_I@AdobeXMPCore_Int@@$R2PA@CE@PPPPPPPM@FI@EAAXPEAVIXMPNode_v1@AdobeXMPCore@@AEAPEBVIError_v1@AdobeXMPCommon@@@Z 0000000180012f14 f i XMPArrayNodeImpl.obj
 0001:00011f34       ?GetPath@IXMPNode_I@AdobeXMPCore_Int@@$R2KI@BE@PPPPPPPM@DA@EBAPEAVIXMPPath_v1@AdobeXMPCore@@KAEAPEBVIError_v1@AdobeXMPCommon@@@Z 0000000180012f34 f i XMPArrayNodeImpl.obj
 0001:00011f50       ?HasQualifiers@IXMPNode_I@AdobeXMPCore_Int@@$R2CI@BA@PPPPPPPM@DA@EBAKAEAPEBVIError_v1@AdobeXMPCommon@@@Z 0000000180012f50 f i XMPArrayNodeImpl.obj
 0001:00011f6c       ?IsEmpty@IXMPCompositeNode_I@AdobeXMPCore_Int@@$R2JA@BI@PPPPPPPM@FI@EBAKAEAPEBVIError_v1@AdobeXMPCommon@@@Z 0000000180012f6c f i XMPArrayNodeImpl.obj
 0001:00011f88       ?Clone@IXMPNode_I@AdobeXMPCore_Int@@$R2KI@BE@PPPPPPPM@DA@EBAPEAVIXMPNode_v1@AdobeXMPCore@@KKKAEAPEBVIError_v1@AdobeXMPCommon@@@Z 0000000180012f88 f i XMPArrayNodeImpl.obj
 0001:00011fa4       ?GetQualifiers@IXMPNode_I@AdobeXMPCore_Int@@$R2CI@BA@PPPPPPPM@DA@EBAPEBVIXMPQualifiers_v1@AdobeXMPCore@@AEAPEBVIError_v1@AdobeXMPCommon@@@Z 0000000180012fa4 f i XMPArrayNodeImpl.obj
 0001:00011fc0       ?GetQualifiers@IXMPNode_I@AdobeXMPCore_Int@@$R2CI@BA@PPPPPPPM@DA@EAAPEAVIXMPQualifiers_v1@AdobeXMPCore@@AEAPEBVIError_v1@AdobeXMPCommon@@@Z 0000000180012fc0 f i XMPArrayNodeImpl.obj
 0001:00011fdc       ?GetParent@IXMPNode_I@AdobeXMPCore_Int@@$2PPPPPPPM@A@EBAPEBVIXMPNode_v1@AdobeXMPCore@@AEAPEBVIError_v1@AdobeXMPCommon@@@Z 0000000180012fdc f i XMPArrayNodeImpl.obj
 0001:00011fe8       ?GetDOMConfiguration@IXMPDOMParser_I@AdobeXMPCore_Int@@$2PPPPPPPM@A@EAAPEAVIXMPDOMConfiguration_v1@AdobeXMPCore@@AEAPEBVIError_v1@AdobeXMPCommon@@@Z 0000000180012fe8 f i RDFXMPDOMParserImpl.obj
 0001:00011fe8       ?GetParent@IXMPNode_I@AdobeXMPCore_Int@@$2PPPPPPPM@A@EAAPEAVIXMPNode_v1@AdobeXMPCore@@AEAPEBVIError_v1@AdobeXMPCommon@@@Z 0000000180012fe8 f i XMPArrayNodeImpl.obj
 0001:00011fe8       ?GetDOMConfiguration@IXMPDOMSerializer_I@AdobeXMPCore_Int@@$2PPPPPPPM@A@EAAPEAVIXMPDOMConfiguration_v1@AdobeXMPCore@@AEAPEBVIError_v1@AdobeXMPCommon@@@Z 0000000180012fe8 f i RDFXMPDOMSerializerImpl.obj
 0001:00011ff4       ?ReleaseSharedOwnership@XMPNodeImpl@AdobeXMPCore_Int@@$R4DI@CM@PPPPPPPM@HA@EBAXXZ 0000000180012ff4 f i XMPArrayNodeImpl.obj
 0001:00012010       ?ChangeParent_I@XMPNodeImpl@AdobeXMPCore_Int@@$R4GI@BM@PPPPPPPM@MI@EAAXPEAVIXMPNode_I@2@@Z 0000000180013010 f i XMPArrayNodeImpl.obj
 0001:0001202c       ?ReplaceQualifier@IXMPNode_I@AdobeXMPCore_Int@@$R2KI@BE@PPPPPPPM@DA@EAAXPEAVIXMPNode_v1@AdobeXMPCore@@AEAPEBVIError_v1@AdobeXMPCommon@@@Z 000000018001302c f i XMPArrayNodeImpl.obj
 0001:00012048       ?RemoveNode@IXMPArrayNode_I@AdobeXMPCore_Int@@$2PPPPPPPM@A@EAAPEAVIXMPNode_v1@AdobeXMPCore@@_KAEAPEBVIError_v1@AdobeXMPCommon@@@Z 0000000180013048 f i XMPArrayNodeImpl.obj
 0001:00012054       ?IsArrayItem@IXMPNode_I@AdobeXMPCore_Int@@$R2CI@BA@PPPPPPPM@DA@EBAKAEAPEBVIError_v1@AdobeXMPCommon@@@Z 0000000180013054 f i XMPArrayNodeImpl.obj
 0001:00012070       ??_E?$TXMPNodeIteratorImpl@V?$_Vector_iterator@V?$_Vector_val@U?$_Simple_types@V?$shared_ptr@VIXMPNode_I@AdobeXMPCore_Int@@@std@@@std@@@std@@@std@@@AdobeXMPCore_Int@@OGI@EAAPEAXI@Z 0000000180013070 f i XMPArrayNodeImpl.obj
 0001:0001207c       ?ChangeParent_I@XMPNodeImpl@AdobeXMPCore_Int@@$R4HI@CM@PPPPPPPM@MI@EAAXPEAVIXMPNode_I@2@@Z 000000018001307c f i XMPArrayNodeImpl.obj
 0001:00012098       ?RemoveNode@IXMPCompositeNode_I@AdobeXMPCore_Int@@$R2PA@CE@PPPPPPPM@FI@EAAPEAVIXMPNode_v1@AdobeXMPCore@@PEBVIXMPPath_v1@4@AEAPEBVIError_v1@AdobeXMPCommon@@@Z 0000000180013098 f i XMPArrayNodeImpl.obj
 0001:000120b8       ??_EXMPNodeImpl@AdobeXMPCore_Int@@OGI@EAAPEAXI@Z 00000001800130b8 f i XMPArrayNodeImpl.obj
 0001:000120c4       ?InsertQualifier@IXMPNode_I@AdobeXMPCore_Int@@$R2KI@BE@PPPPPPPM@DA@EAAXPEAVIXMPNode_v1@AdobeXMPCore@@AEAPEBVIError_v1@AdobeXMPCommon@@@Z 00000001800130c4 f i XMPArrayNodeImpl.obj
 0001:000120e0       ?InsertNode@IXMPCompositeNode_I@AdobeXMPCore_Int@@$2PPPPPPPM@A@EAAXPEAVIXMPNode_v1@AdobeXMPCore@@PEBVIXMPPath_v1@4@AEAPEBVIError_v1@AdobeXMPCommon@@@Z 00000001800130e0 f i XMPArrayNodeImpl.obj
 0001:000120ec       ?RemoveQualifier@IXMPNode_I@AdobeXMPCore_Int@@$2PPPPPPPM@A@EAAPEAVIXMPNode_v1@AdobeXMPCore@@PEBD0AEAPEBVIError_v1@AdobeXMPCommon@@@Z 00000001800130ec f i XMPArrayNodeImpl.obj
 0001:000120f8       ??_9IXMPPathSegment_I@AdobeXMPCore_Int@@$B7AA 00000001800130f8 f i XMPPathSegmentImpl.obj
 0001:000120f8       ??_9IConfigurationManager_I@AdobeXMPCommon_Int@@$B7AA 00000001800130f8 f i XMPMeta.obj
 0001:000120f8       ??_9IXMPNameSpacePrefixMap_v1@AdobeXMPCore@@$B7AA 00000001800130f8 f i XMPCommon:ErrorImpl.obj
 0001:000120f8       ??_9IUTF8String_I@AdobeXMPCommon_Int@@$B7AA 00000001800130f8 f i XMPArrayNodeImpl.obj
 0001:000120f8       ??_9IXMPDOMConfiguration_I@AdobeXMPCore_Int@@$B7AA 00000001800130f8 f i XMPDOMImplementationRegistryImpl.obj
 0001:00012100       ?GetQualifier_I@XMPNodeImpl@AdobeXMPCore_Int@@$R4GI@BM@PPPPPPPM@MI@EBA?AV?$shared_ptr@$$CBVIXMPNode_I@AdobeXMPCore_Int@@@std@@PEBD0@Z 0000000180013100 f i XMPArrayNodeImpl.obj
 0001:0001211c       ?GetQualifier_I@XMPNodeImpl@AdobeXMPCore_Int@@$R4GI@BM@PPPPPPPM@MI@EAA?AV?$shared_ptr@VIXMPNode_I@AdobeXMPCore_Int@@@std@@PEBD0@Z 000000018001311c f i XMPArrayNodeImpl.obj
 0001:00012138       ?GetNodeType@IXMPNode_I@AdobeXMPCore_Int@@$R2FA@BE@PPPPPPPM@DA@EBAKAEAPEBVIError_v1@AdobeXMPCommon@@@Z 0000000180013138 f i XMPArrayNodeImpl.obj
 0001:00012154       ?GetQualifier@IXMPNode_I@AdobeXMPCore_Int@@$R2FA@BE@PPPPPPPM@DA@EBAPEBVIXMPNode_v1@AdobeXMPCore@@PEBD0AEAPEBVIError_v1@AdobeXMPCommon@@@Z 0000000180013154 f i XMPArrayNodeImpl.obj
 0001:00012170       ?GetQualifier@IXMPNode_I@AdobeXMPCore_Int@@$R2FA@BE@PPPPPPPM@DA@EAAPEAVIXMPNode_v1@AdobeXMPCore@@PEBD0AEAPEBVIError_v1@AdobeXMPCommon@@@Z 0000000180013170 f i XMPArrayNodeImpl.obj
 0001:0001218c       ?GetName@IXMPNode_I@AdobeXMPCore_Int@@$R2FA@BE@PPPPPPPM@DA@EBAPEBVIUTF8String_v1@AdobeXMPCommon@@AEAPEBVIError_v1@4@@Z 000000018001318c f i XMPArrayNodeImpl.obj
 0001:000121a8       ?Clone_I@XMPNodeImpl@AdobeXMPCore_Int@@$4PPPPPPPM@A@EBA?AV?$shared_ptr@VIXMPNode_I@AdobeXMPCore_Int@@@std@@_N0W4eMultiThreadingSupport@AdobeXMPCommon@@@Z 00000001800131a8 f i XMPArrayNodeImpl.obj
 0001:000121b4       ?AcquireSharedOwnership@IntrusiveRefCountSharedOwnership@AdobeXMPCommon_Int@@$4PPPPPPPM@A@EBAXXZ 00000001800131b4 f i XMPArrayNodeImpl.obj
 0001:000121c0       ?SetQualifiers@IXMPNode_I@AdobeXMPCore_Int@@$R2CI@BA@PPPPPPPM@DA@EAAXPEAVIXMPQualifiers_v1@AdobeXMPCore@@AEAPEBVIError_v1@AdobeXMPCommon@@@Z 00000001800131c0 f i XMPArrayNodeImpl.obj
 0001:000121dc       ??_9IXMPDOMConfiguration_I@AdobeXMPCore_Int@@$BBI@AA 00000001800131dc f i RDFXMPDOMParserImpl.obj
 0001:000121dc       ??_9IXMPPathSegment_I@AdobeXMPCore_Int@@$BBI@AA 00000001800131dc f i XMPPathSegmentImpl.obj
 0001:000121dc       ??_9IUTF8String_I@AdobeXMPCommon_Int@@$BBI@AA 00000001800131dc f i XMPArrayNodeImpl.obj
 0001:000121dc       ??_9IXMPNameSpacePrefixMap_v1@AdobeXMPCore@@$BBI@AA 00000001800131dc f i XMPCommon:UTF8StringImpl.obj
 0001:000121e4       ?AcquireSharedOwnership@IntrusiveRefCountSharedOwnership@AdobeXMPCommon_Int@@$R4DA@M@PPPPPPPM@CA@EBAXXZ 00000001800131e4 f i XMPArrayNodeImpl.obj
 0001:00012200       ?GetQualifier_I@XMPNodeImpl@AdobeXMPCore_Int@@$R4HI@CM@PPPPPPPM@MI@EBA?AV?$shared_ptr@$$CBVIXMPNode_I@AdobeXMPCore_Int@@@std@@PEBD0@Z 0000000180013200 f i XMPArrayNodeImpl.obj
 0001:0001221c       ?GetQualifier_I@XMPNodeImpl@AdobeXMPCore_Int@@$R4HI@CM@PPPPPPPM@MI@EAA?AV?$shared_ptr@VIXMPNode_I@AdobeXMPCore_Int@@@std@@PEBD0@Z 000000018001321c f i XMPArrayNodeImpl.obj
 0001:00012238       ?GetPath_I@XMPNodeImpl@AdobeXMPCore_Int@@$R4GI@BM@PPPPPPPM@MI@EBA?AV?$shared_ptr@VIXMPPath_I@AdobeXMPCore_Int@@@std@@W4eMultiThreadingSupport@AdobeXMPCommon@@@Z 0000000180013238 f i XMPArrayNodeImpl.obj
 0001:00012254       ?GetPath@IXMPNode_I@AdobeXMPCore_Int@@$R2FA@BE@PPPPPPPM@DA@EBAPEAVIXMPPath_v1@AdobeXMPCore@@KAEAPEBVIError_v1@AdobeXMPCommon@@@Z 0000000180013254 f i XMPArrayNodeImpl.obj
 0001:00012270       ??_EXMPCompositeNodeImpl@AdobeXMPCore_Int@@$2PPPPPPPM@A@EAAPEAXI@Z 0000000180013270 f i XMPArrayNodeImpl.obj
 0001:0001227c       ?Clear@IXMPNode_I@AdobeXMPCore_Int@@$R2KI@BE@PPPPPPPM@DA@EAAXKKAEAPEBVIError_v1@AdobeXMPCommon@@@Z 000000018001327c f i XMPArrayNodeImpl.obj
 0001:00012298       ?ReleaseSharedOwnership@XMPNodeImpl@AdobeXMPCore_Int@@$4PPPPPPPM@A@EBAXXZ 0000000180013298 f i XMPArrayNodeImpl.obj
 0001:000122a4       ?GetChildCount@IXMPCompositeNode_I@AdobeXMPCore_Int@@$2PPPPPPPM@A@EBA_KAEAPEBVIError_v1@AdobeXMPCommon@@@Z 00000001800132a4 f i XMPArrayNodeImpl.obj
 0001:000122b0       ??_9IUTF8String_I@AdobeXMPCommon_Int@@$BCI@AA 00000001800132b0 f i XMPArrayNodeImpl.obj
 0001:000122b0       ??_9IXMPNameSpacePrefixMap_v1@AdobeXMPCore@@$BCI@AA 00000001800132b0 f i XMPCommon:UTF8StringImpl.obj
 0001:000122b8       ?GetChildCount@XMPArrayNodeImpl@AdobeXMPCore_Int@@$4PPPPPPPM@A@EBA_KXZ 00000001800132b8 f i XMPArrayNodeImpl.obj
 0001:000122c4       ?GetPath_I@XMPNodeImpl@AdobeXMPCore_Int@@$R4HI@CM@PPPPPPPM@MI@EBA?AV?$shared_ptr@VIXMPPath_I@AdobeXMPCore_Int@@@std@@W4eMultiThreadingSupport@AdobeXMPCommon@@@Z 00000001800132c4 f i XMPArrayNodeImpl.obj
 0001:000122e0       ?Clone@IXMPNode_I@AdobeXMPCore_Int@@$R2FA@BE@PPPPPPPM@DA@EBAPEAVIXMPNode_v1@AdobeXMPCore@@KKKAEAPEBVIError_v1@AdobeXMPCommon@@@Z 00000001800132e0 f i XMPArrayNodeImpl.obj
 0001:000122fc       ?GetNameSpace_I@XMPNodeImpl@AdobeXMPCore_Int@@$4PPPPPPPM@A@EBA?AV?$shared_ptr@$$CBVIUTF8String_I@AdobeXMPCommon_Int@@@std@@XZ 00000001800132fc f i XMPArrayNodeImpl.obj
 0001:00012308       ?ReplaceNode@IXMPCompositeNode_I@AdobeXMPCore_Int@@$2PPPPPPPM@A@EAAXPEAVIXMPNode_v1@AdobeXMPCore@@PEBVIXMPPath_v1@4@AEAPEBVIError_v1@AdobeXMPCommon@@@Z 0000000180013308 f i XMPArrayNodeImpl.obj
 0001:00012314       ?AppendNode@IXMPCompositeNode_I@AdobeXMPCore_Int@@$2PPPPPPPM@A@EAAXPEAVIXMPNode_v1@AdobeXMPCore@@AEAPEBVIError_v1@AdobeXMPCommon@@@Z 0000000180013314 f i XMPArrayNodeImpl.obj
 0001:00012320       ??_9IXMPNameSpacePrefixMap_I@AdobeXMPCore_Int@@$BDI@AA 0000000180013320 f i XMPArrayNodeImpl.obj
 0001:00012328       ?GetQualifiers@IXMPNode_I@AdobeXMPCore_Int@@MEBAPEBVIXMPQualifiers_v1@AdobeXMPCore@@AEAPEBVIError_v1@AdobeXMPCommon@@@Z 0000000180013328 f i XMPCompositeNodeImpl.obj
 0001:00012368       ?GetQualifiers@IXMPNode_I@AdobeXMPCore_Int@@MEAAPEAVIXMPQualifiers_v1@AdobeXMPCore@@AEAPEBVIError_v1@AdobeXMPCommon@@@Z 0000000180013368 f i XMPCompositeNodeImpl.obj
 0001:000123a8       ?SetQualifiers@IXMPNode_I@AdobeXMPCore_Int@@MEAAXPEAVIXMPQualifiers_v1@AdobeXMPCore@@AEAPEBVIError_v1@AdobeXMPCommon@@@Z 00000001800133a8 f i XMPCompositeNodeImpl.obj
 0001:00012830       ?GetNode_I@XMPCompositeNodeImpl@AdobeXMPCore_Int@@UEBA?AV?$shared_ptr@$$CBVIXMPNode_I@AdobeXMPCore_Int@@@std@@AEBV?$shared_ptr@$$CBVIXMPPath_I@AdobeXMPCore_Int@@@4@@Z 0000000180013830 f   XMPCompositeNodeImpl.obj
 0001:000128b0       ?GetNode_I@XMPCompositeNodeImpl@AdobeXMPCore_Int@@UEAA?AV?$shared_ptr@VIXMPNode_I@AdobeXMPCore_Int@@@std@@AEBV?$shared_ptr@$$CBVIXMPPath_I@AdobeXMPCore_Int@@@4@@Z 00000001800138b0 f   XMPCompositeNodeImpl.obj
 0001:00013548       ?RemoveNode_I@XMPCompositeNodeImpl@AdobeXMPCore_Int@@UEAA?AV?$shared_ptr@VIXMPNode_I@AdobeXMPCore_Int@@@std@@AEBV?$shared_ptr@$$CBVIXMPPath_I@AdobeXMPCore_Int@@@4@@Z 0000000180014548 f   XMPCompositeNodeImpl.obj
 0001:00013d4c       ?CheckSuitabilityToBeUsedAsChildNode@XMPCompositeNodeImpl@AdobeXMPCore_Int@@UEAA_NAEBV?$shared_ptr@$$CBVIXMPNode_I@AdobeXMPCore_Int@@@std@@@Z 0000000180014d4c f   XMPCompositeNodeImpl.obj
 0001:00013fa0       ??0XMPCompositeNodeImpl@AdobeXMPCore_Int@@QEAA@XZ 0000000180014fa0 f   XMPCompositeNodeImpl.obj
 0001:000140c8       ?InsertNode_I@XMPCompositeNodeImpl@AdobeXMPCore_Int@@UEAAXAEBV?$shared_ptr@VIXMPNode_I@AdobeXMPCore_Int@@@std@@AEBV?$shared_ptr@$$CBVIXMPPath_I@AdobeXMPCore_Int@@@4@@Z 00000001800150c8 f   XMPCompositeNodeImpl.obj
 0001:000141cc       ?ReplaceNode_I@XMPCompositeNodeImpl@AdobeXMPCore_Int@@UEAAXAEBV?$shared_ptr@VIXMPNode_I@AdobeXMPCore_Int@@@std@@AEBV?$shared_ptr@$$CBVIXMPPath_I@AdobeXMPCore_Int@@@4@@Z 00000001800151cc f   XMPCompositeNodeImpl.obj
 0001:000142d0       ??4?$shared_ptr@VIXMPNode_I@AdobeXMPCore_Int@@@std@@QEAAAEAV01@AEBV01@@Z 00000001800152d0 f i XMPCompositeNodeImpl.obj
 0001:00014338       ??$CallConstUnSafeFunctionReturningSharedPointer@VIXMPNode_I@AdobeXMPCore_Int@@PEBVIXMPQualifiers_v1@AdobeXMPCore@@$$CBVIXMPQualifiers_I@2@@AdobeXMPCommon_Int@@YAPEBVIXMPQualifiers_v1@AdobeXMPCore@@AEAPEBVIError_v1@AdobeXMPCommon@@QEBVIXMPNode_I@AdobeXMPCore_Int@@P856@EBA?AV?$shared_ptr@$$CBVIXMPQualifiers_I@AdobeXMPCore_Int@@@std@@XZ@Z 0000000180015338 f i XMPCompositeNodeImpl.obj
 0001:00014444       ??$CallUnSafeFunctionReturningSharedPointer@VIXMPNode_I@AdobeXMPCore_Int@@PEAVIXMPQualifiers_v1@AdobeXMPCore@@VIXMPQualifiers_I@2@@AdobeXMPCommon_Int@@YAPEAVIXMPQualifiers_v1@AdobeXMPCore@@AEAPEBVIError_v1@AdobeXMPCommon@@PEAVIXMPNode_I@AdobeXMPCore_Int@@P856@EAA?AV?$shared_ptr@VIXMPQualifiers_I@AdobeXMPCore_Int@@@std@@XZ@Z 0000000180015444 f i XMPCompositeNodeImpl.obj
 0001:00014550       ??$MakeSharedPointer@VIXMPQualifiers_I@AdobeXMPCore_Int@@VIXMPQualifiers_v1@AdobeXMPCore@@@AdobeXMPCommon_Int@@YA?AV?$shared_ptr@VIXMPQualifiers_I@AdobeXMPCore_Int@@@std@@PEAVIXMPQualifiers_v1@AdobeXMPCore@@AEAPEBVIError_v1@AdobeXMPCommon@@@Z 0000000180015550 f i XMPCompositeNodeImpl.obj
 0001:00014594       ??$AdaptNodeTo_I@VIXMPSimpleNode_I@AdobeXMPCore_Int@@$0A@@IXMPNode_I@AdobeXMPCore_Int@@SA?AV?$shared_ptr@VIXMPSimpleNode_I@AdobeXMPCore_Int@@@std@@AEBV?$shared_ptr@VIXMPNode_I@AdobeXMPCore_Int@@@3@@Z 0000000180015594 f i XMPCompositeNodeImpl.obj
 0001:00014720       ??$MakeUncheckedSharedPointer@VXMPCompositeNodeImpl@AdobeXMPCore_Int@@@AdobeXMPCommon_Int@@YA?AV?$shared_ptr@VXMPCompositeNodeImpl@AdobeXMPCore_Int@@@std@@PEAVXMPCompositeNodeImpl@AdobeXMPCore_Int@@@Z 0000000180015720 f i XMPCompositeNodeImpl.obj
 0001:000147a0       ??$AdaptNodeTo_I@VIXMPStructureNode_I@AdobeXMPCore_Int@@$01@IXMPNode_I@AdobeXMPCore_Int@@SA?AV?$shared_ptr@VIXMPStructureNode_I@AdobeXMPCore_Int@@@std@@AEBV?$shared_ptr@VIXMPNode_I@AdobeXMPCore_Int@@@3@@Z 00000001800157a0 f i XMPCompositeNodeImpl.obj
 0001:0001492c       ??$AdaptNodeTo_I@VIXMPArrayNode_I@AdobeXMPCore_Int@@$00@IXMPNode_I@AdobeXMPCore_Int@@SA?AV?$shared_ptr@VIXMPArrayNode_I@AdobeXMPCore_Int@@@std@@AEBV?$shared_ptr@VIXMPNode_I@AdobeXMPCore_Int@@@3@@Z 000000018001592c f i XMPCompositeNodeImpl.obj
 0001:00014abc       ??$MakeSharedPointer@VIXMPSimpleNode_I@AdobeXMPCore_Int@@VIXMPNode_I@2@@AdobeXMPCommon_Int@@YA?AV?$shared_ptr@VIXMPSimpleNode_I@AdobeXMPCore_Int@@@std@@PEAVIXMPNode_I@AdobeXMPCore_Int@@@Z 0000000180015abc f i XMPCompositeNodeImpl.obj
 0001:00014c38       ??$MakeSharedPointer@VIXMPArrayNode_I@AdobeXMPCore_Int@@VIXMPNode_I@2@@AdobeXMPCommon_Int@@YA?AV?$shared_ptr@VIXMPArrayNode_I@AdobeXMPCore_Int@@@std@@PEAVIXMPNode_I@AdobeXMPCore_Int@@@Z 0000000180015c38 f i XMPCompositeNodeImpl.obj
 0001:00014db4       ??$MakeSharedPointer@VIXMPStructureNode_I@AdobeXMPCore_Int@@VIXMPNode_I@2@@AdobeXMPCommon_Int@@YA?AV?$shared_ptr@VIXMPStructureNode_I@AdobeXMPCore_Int@@@std@@PEAVIXMPNode_I@AdobeXMPCore_Int@@@Z 0000000180015db4 f i XMPCompositeNodeImpl.obj
 0001:00014f30       ??$MakeSharedPointer@VIXMPQualifiers_I@AdobeXMPCore_Int@@VIXMPQualifiers_v1@AdobeXMPCore@@@AdobeXMPCommon_Int@@YA?AV?$shared_ptr@VIXMPQualifiers_I@AdobeXMPCore_Int@@@std@@PEAVIXMPQualifiers_v1@AdobeXMPCore@@@Z 0000000180015f30 f i XMPCompositeNodeImpl.obj
 0001:000150ac       ??$_Resetp@VXMPCompositeNodeImpl@AdobeXMPCore_Int@@V?$_Mem_fn_wrap@XP8XMPNodeImpl@AdobeXMPCore_Int@@EBAXXZ$$CBV12@$$$V@std@@V?$TAllocator@VXMPCompositeNodeImpl@AdobeXMPCore_Int@@@AdobeXMPCommon_Int@@@?$shared_ptr@VXMPCompositeNodeImpl@AdobeXMPCore_Int@@@std@@AEAAXPEAVXMPCompositeNodeImpl@AdobeXMPCore_Int@@V?$_Mem_fn_wrap@XP8XMPNodeImpl@AdobeXMPCore_Int@@EBAXXZ$$CBV12@$$$V@1@V?$TAllocator@VXMPCompositeNodeImpl@AdobeXMPCore_Int@@@AdobeXMPCommon_Int@@@Z 00000001800160ac f i XMPCompositeNodeImpl.obj
 0001:00015148       ?_Destroy@?$_Ref_count_del_alloc@VXMPCompositeNodeImpl@AdobeXMPCore_Int@@V?$_Mem_fn_wrap@XP8XMPNodeImpl@AdobeXMPCore_Int@@EBAXXZ$$CBV12@$$$V@std@@V?$TAllocator@VXMPCompositeNodeImpl@AdobeXMPCore_Int@@@AdobeXMPCommon_Int@@@std@@EEAAXXZ 0000000180016148 f i XMPCompositeNodeImpl.obj
 0001:000151bc       ??$_Resetp@VIXMPSimpleNode_I@AdobeXMPCore_Int@@V?$_Mem_fn_wrap@XP8ISharedOwnership_v1@AdobeXMPCommon@@EBAXXZ$$CBV12@$$$V@std@@V?$TAllocator@VIXMPSimpleNode_I@AdobeXMPCore_Int@@@AdobeXMPCommon_Int@@@?$shared_ptr@VIXMPSimpleNode_I@AdobeXMPCore_Int@@@std@@AEAAXPEAVIXMPSimpleNode_I@AdobeXMPCore_Int@@V?$_Mem_fn_wrap@XP8ISharedOwnership_v1@AdobeXMPCommon@@EBAXXZ$$CBV12@$$$V@1@V?$TAllocator@VIXMPSimpleNode_I@AdobeXMPCore_Int@@@AdobeXMPCommon_Int@@@Z 00000001800161bc f i XMPCompositeNodeImpl.obj
 0001:0001525c       ??$_Resetp@VIXMPArrayNode_I@AdobeXMPCore_Int@@V?$_Mem_fn_wrap@XP8ISharedOwnership_v1@AdobeXMPCommon@@EBAXXZ$$CBV12@$$$V@std@@V?$TAllocator@VIXMPArrayNode_I@AdobeXMPCore_Int@@@AdobeXMPCommon_Int@@@?$shared_ptr@VIXMPArrayNode_I@AdobeXMPCore_Int@@@std@@AEAAXPEAVIXMPArrayNode_I@AdobeXMPCore_Int@@V?$_Mem_fn_wrap@XP8ISharedOwnership_v1@AdobeXMPCommon@@EBAXXZ$$CBV12@$$$V@1@V?$TAllocator@VIXMPArrayNode_I@AdobeXMPCore_Int@@@AdobeXMPCommon_Int@@@Z 000000018001625c f i XMPCompositeNodeImpl.obj
 0001:000152fc       ??$_Resetp@VIXMPStructureNode_I@AdobeXMPCore_Int@@V?$_Mem_fn_wrap@XP8ISharedOwnership_v1@AdobeXMPCommon@@EBAXXZ$$CBV12@$$$V@std@@V?$TAllocator@VIXMPStructureNode_I@AdobeXMPCore_Int@@@AdobeXMPCommon_Int@@@?$shared_ptr@VIXMPStructureNode_I@AdobeXMPCore_Int@@@std@@AEAAXPEAVIXMPStructureNode_I@AdobeXMPCore_Int@@V?$_Mem_fn_wrap@XP8ISharedOwnership_v1@AdobeXMPCommon@@EBAXXZ$$CBV12@$$$V@1@V?$TAllocator@VIXMPStructureNode_I@AdobeXMPCore_Int@@@AdobeXMPCommon_Int@@@Z 00000001800162fc f i XMPCompositeNodeImpl.obj
 0001:0001539c       ??$_Resetp@VIXMPQualifiers_I@AdobeXMPCore_Int@@V?$_Mem_fn_wrap@XP8ISharedOwnership_v1@AdobeXMPCommon@@EBAXXZ$$CBV12@$$$V@std@@V?$TAllocator@VIXMPQualifiers_I@AdobeXMPCore_Int@@@AdobeXMPCommon_Int@@@?$shared_ptr@VIXMPQualifiers_I@AdobeXMPCore_Int@@@std@@AEAAXPEAVIXMPQualifiers_I@AdobeXMPCore_Int@@V?$_Mem_fn_wrap@XP8ISharedOwnership_v1@AdobeXMPCommon@@EBAXXZ$$CBV12@$$$V@1@V?$TAllocator@VIXMPQualifiers_I@AdobeXMPCore_Int@@@AdobeXMPCommon_Int@@@Z 000000018001639c f i XMPCompositeNodeImpl.obj
 0001:0001543c       ?CreateClientInitiatedError@IXMPCoreObjectFactory_I@AdobeXMPCore_Int@@MEAAPEBVIError_v1@AdobeXMPCommon@@KKKPEBD0K_KPEAPEBDAEAPEBV34@@Z 000000018001643c f i XMPCoreObjectFactoryImpl.obj
 0001:0001549c       ?CreateEmptyNameSpacePrefixMap@IXMPCoreObjectFactory_I@AdobeXMPCore_Int@@MEAAPEAVIXMPNameSpacePrefixMap_v1@AdobeXMPCore@@KAEAPEBVIError_v1@AdobeXMPCommon@@@Z 000000018001649c f i XMPCoreObjectFactoryImpl.obj
 0001:000154e0       ?GetDefaultNameSpacePrefixMap@IXMPCoreObjectFactory_I@AdobeXMPCore_Int@@MEAAPEBVIXMPNameSpacePrefixMap_v1@AdobeXMPCore@@AEAPEBVIError_v1@AdobeXMPCommon@@@Z 00000001800164e0 f i XMPCoreObjectFactoryImpl.obj
 0001:00015520       ?CreatePropertyPathSegment@IXMPCoreObjectFactory_I@AdobeXMPCore_Int@@MEAAPEBVIXMPPathSegment_v1@AdobeXMPCore@@PEBD0AEAPEBVIError_v1@AdobeXMPCommon@@@Z 0000000180016520 f i XMPCoreObjectFactoryImpl.obj
 0001:00015568       ?CreateArrayIndexPathSegment@IXMPCoreObjectFactory_I@AdobeXMPCore_Int@@MEAAPEBVIXMPPathSegment_v1@AdobeXMPCore@@PEBD_KAEAPEBVIError_v1@AdobeXMPCommon@@@Z 0000000180016568 f i XMPCoreObjectFactoryImpl.obj
 0001:000155b0       ?CreateQualifierPathSegment@IXMPCoreObjectFactory_I@AdobeXMPCore_Int@@MEAAPEBVIXMPPathSegment_v1@AdobeXMPCore@@PEBD0AEAPEBVIError_v1@AdobeXMPCommon@@@Z 00000001800165b0 f i XMPCoreObjectFactoryImpl.obj
 0001:000155f8       ?CreateQualifierSelectorPathSegment@IXMPCoreObjectFactory_I@AdobeXMPCore_Int@@MEAAPEBVIXMPPathSegment_v1@AdobeXMPCore@@PEBD00AEAPEBVIError_v1@AdobeXMPCommon@@@Z 00000001800165f8 f i XMPCoreObjectFactoryImpl.obj
 0001:00015644       ?CreatePathByParsing@IXMPCoreObjectFactory_I@AdobeXMPCore_Int@@MEAAPEAVIXMPPath_v1@AdobeXMPCore@@PEBDPEBVIXMPNameSpacePrefixMap_v1@4@KAEAPEBVIError_v1@AdobeXMPCommon@@@Z 0000000180016644 f i XMPCoreObjectFactoryImpl.obj
 0001:00015718       ?CreateSimpleNode@IXMPCoreObjectFactory_I@AdobeXMPCore_Int@@MEAAPEAVIXMPSimpleNode_v1@AdobeXMPCore@@PEBD00KAEAPEBVIError_v1@AdobeXMPCommon@@@Z 0000000180016718 f i XMPCoreObjectFactoryImpl.obj
 0001:00015774       ?CreateArrayNode@IXMPCoreObjectFactory_I@AdobeXMPCore_Int@@MEAAPEAVIXMPArrayNode_v1@AdobeXMPCore@@PEBD0KKAEAPEBVIError_v1@AdobeXMPCommon@@@Z 0000000180016774 f i XMPCoreObjectFactoryImpl.obj
 0001:000157e0       ?CreateStructureNode@IXMPCoreObjectFactory_I@AdobeXMPCore_Int@@MEAAPEAVIXMPStructureNode_v1@AdobeXMPCore@@PEBD0KAEAPEBVIError_v1@AdobeXMPCommon@@@Z 00000001800167e0 f i XMPCoreObjectFactoryImpl.obj
 0001:0001582c       ?CreateQualifiers@IXMPCoreObjectFactory_I@AdobeXMPCore_Int@@MEAAPEAVIXMPQualifiers_v1@AdobeXMPCore@@KAEAPEBVIError_v1@AdobeXMPCommon@@@Z 000000018001682c f i XMPCoreObjectFactoryImpl.obj
 0001:00015870       ?CreateMetadata@IXMPCoreObjectFactory_I@AdobeXMPCore_Int@@MEAAPEAVIXMPMetadata_v1@AdobeXMPCore@@KAEAPEBVIError_v1@AdobeXMPCommon@@@Z 0000000180016870 f i XMPCoreObjectFactoryImpl.obj
 0001:000158b4       ?GetDOMImplementationRegistry@IXMPCoreObjectFactory_I@AdobeXMPCore_Int@@MEAAPEAVIXMPDOMImplementationRegistry_v1@AdobeXMPCore@@AEAPEBVIError_v1@AdobeXMPCommon@@@Z 00000001800168b4 f i XMPCoreObjectFactoryImpl.obj
 0001:000158f4       ??_EXMPCoreObjectFactoryImpl@AdobeXMPCore_Int@@UEAAPEAXI@Z 00000001800168f4 f i * CIL library *:* CIL module *
 0001:000158f4       ??_GXMPCoreObjectFactoryImpl@AdobeXMPCore_Int@@UEAAPEAXI@Z 00000001800168f4 f i XMPCoreObjectFactoryImpl.obj
 0001:000159ac       ?CreateEmptyNameSpacePrefixMap_I@XMPCoreObjectFactoryImpl@AdobeXMPCore_Int@@UEAA?AV?$shared_ptr@VIXMPNameSpacePrefixMap_I@AdobeXMPCore_Int@@@std@@W4eMultiThreadingSupport@AdobeXMPCommon@@@Z 00000001800169ac f   XMPCoreObjectFactoryImpl.obj
 0001:000159d0       ?GetDefaultNameSpacePrefixMap_I@XMPCoreObjectFactoryImpl@AdobeXMPCore_Int@@UEAA?AV?$shared_ptr@$$CBVIXMPNameSpacePrefixMap_I@AdobeXMPCore_Int@@@std@@XZ 00000001800169d0 f   XMPCoreObjectFactoryImpl.obj
 0001:000159f0       ?CreatePropertyPathSegment_I@XMPCoreObjectFactoryImpl@AdobeXMPCore_Int@@UEAA?AV?$shared_ptr@$$CBVIXMPPathSegment_I@AdobeXMPCore_Int@@@std@@PEBD0@Z 00000001800169f0 f   XMPCoreObjectFactoryImpl.obj
 0001:00015a64       ?CreateArrayIndexPathSegment_I@XMPCoreObjectFactoryImpl@AdobeXMPCore_Int@@UEAA?AV?$shared_ptr@$$CBVIXMPPathSegment_I@AdobeXMPCore_Int@@@std@@PEBD_K@Z 0000000180016a64 f   XMPCoreObjectFactoryImpl.obj
 0001:00015adc       ?CreateQualifierPathSegment_I@XMPCoreObjectFactoryImpl@AdobeXMPCore_Int@@UEAA?AV?$shared_ptr@$$CBVIXMPPathSegment_I@AdobeXMPCore_Int@@@std@@PEBD0@Z 0000000180016adc f   XMPCoreObjectFactoryImpl.obj
 0001:00015b54       ?CreateQualifierSelectorPathSegment_I@XMPCoreObjectFactoryImpl@AdobeXMPCore_Int@@UEAA?AV?$shared_ptr@$$CBVIXMPPathSegment_I@AdobeXMPCore_Int@@@std@@PEBD00@Z 0000000180016b54 f   XMPCoreObjectFactoryImpl.obj
 0001:00015bd0       ?CreatePathByParsing_I@XMPCoreObjectFactoryImpl@AdobeXMPCore_Int@@UEAA?AV?$shared_ptr@VIXMPPath_I@AdobeXMPCore_Int@@@std@@PEBDAEBV?$shared_ptr@$$CBVIXMPNameSpacePrefixMap_I@AdobeXMPCore_Int@@@4@W4eMultiThreadingSupport@AdobeXMPCommon@@@Z 0000000180016bd0 f   XMPCoreObjectFactoryImpl.obj
 0001:00015bf8       ?CreateQualifiers_I@XMPCoreObjectFactoryImpl@AdobeXMPCore_Int@@UEAA?AV?$shared_ptr@VIXMPQualifiers_I@AdobeXMPCore_Int@@@std@@W4eMultiThreadingSupport@AdobeXMPCommon@@@Z 0000000180016bf8 f   XMPCoreObjectFactoryImpl.obj
 0001:00015c1c       ?CreateMetadata_I@XMPCoreObjectFactoryImpl@AdobeXMPCore_Int@@UEAA?AV?$shared_ptr@VIXMPMetadata_I@AdobeXMPCore_Int@@@std@@W4eMultiThreadingSupport@AdobeXMPCommon@@@Z 0000000180016c1c f   XMPCoreObjectFactoryImpl.obj
 0001:00015c40       ?CreateStructureNode_I@XMPCoreObjectFactoryImpl@AdobeXMPCore_Int@@UEAA?AV?$shared_ptr@VIXMPStructureNode_I@AdobeXMPCore_Int@@@std@@PEBD0W4eMultiThreadingSupport@AdobeXMPCommon@@@Z 0000000180016c40 f   XMPCoreObjectFactoryImpl.obj
 0001:00015c70       ?CreateUnorderedArrayNode_I@XMPCoreObjectFactoryImpl@AdobeXMPCore_Int@@UEAA?AV?$shared_ptr@VIXMPArrayNode_I@AdobeXMPCore_Int@@@std@@PEBD0W4eMultiThreadingSupport@AdobeXMPCommon@@@Z 0000000180016c70 f   XMPCoreObjectFactoryImpl.obj
 0001:00015ca8       ?CreateOrderedArrayNode_I@XMPCoreObjectFactoryImpl@AdobeXMPCore_Int@@UEAA?AV?$shared_ptr@VIXMPArrayNode_I@AdobeXMPCore_Int@@@std@@PEBD0W4eMultiThreadingSupport@AdobeXMPCommon@@@Z 0000000180016ca8 f   XMPCoreObjectFactoryImpl.obj
 0001:00015ce4       ?CreateAlternativeArrayNode_I@XMPCoreObjectFactoryImpl@AdobeXMPCore_Int@@UEAA?AV?$shared_ptr@VIXMPArrayNode_I@AdobeXMPCore_Int@@@std@@PEBD0W4eMultiThreadingSupport@AdobeXMPCommon@@@Z 0000000180016ce4 f   XMPCoreObjectFactoryImpl.obj
 0001:00015d20       ?CreateSimpleNode_I@XMPCoreObjectFactoryImpl@AdobeXMPCore_Int@@UEAA?AV?$shared_ptr@VIXMPSimpleNode_I@AdobeXMPCore_Int@@@std@@PEBD00W4eMultiThreadingSupport@AdobeXMPCommon@@@Z 0000000180016d20 f   XMPCoreObjectFactoryImpl.obj
 0001:00015d58       ?GetDOMImplementationRegistry_I@XMPCoreObjectFactoryImpl@AdobeXMPCore_Int@@UEAA?AV?$shared_ptr@VIXMPDOMImplementationRegistry_I@AdobeXMPCore_Int@@@std@@XZ 0000000180016d58 f   XMPCoreObjectFactoryImpl.obj
 0001:00015d9c       ?CreateClientInitiatedError@XMPCoreObjectFactoryImpl@AdobeXMPCore_Int@@UEAAPEBVIError_v1@AdobeXMPCommon@@W4eErrorDomain@34@KW4eErrorSeverity@34@PEBD2K_KPEAPEBD@Z 0000000180016d9c f   XMPCoreObjectFactoryImpl.obj
 0001:00015e9c       WXMPMeta_GetXMPDOMFactoryInstance_1 0000000180016e9c f   XMPCoreObjectFactoryImpl.obj
 0001:00015ed0       ?Instance@?$TSingleton@VXMPCoreObjectFactoryImpl@AdobeXMPCore_Int@@V?$TCreateUsingNew@VXMPCoreObjectFactoryImpl@AdobeXMPCore_Int@@@AdobeXMPCommon_Int@@VTInitTermiateControlledLifeTime@4@VTSingleThreaded@4@@AdobeXMPCommon_Int@@SAAEAVXMPCoreObjectFactoryImpl@AdobeXMPCore_Int@@XZ 0000000180016ed0 f i XMPCoreObjectFactoryImpl.obj
 0001:00015fc8       ??$MakeSharedPointer@$$CBVIXMPNameSpacePrefixMap_I@AdobeXMPCore_Int@@$$CBVIXMPNameSpacePrefixMap_v1@AdobeXMPCore@@@AdobeXMPCommon_Int@@YA?AV?$shared_ptr@$$CBVIXMPNameSpacePrefixMap_I@AdobeXMPCore_Int@@@std@@PEBVIXMPNameSpacePrefixMap_v1@AdobeXMPCore@@@Z 0000000180016fc8 f i XMPCoreObjectFactoryImpl.obj
 0001:00016144       ??$CallUnSafeFunctionReturningSharedPointer@VIXMPCoreObjectFactory_I@AdobeXMPCore_Int@@PEBVIXMPPathSegment_v1@AdobeXMPCore@@$$CBVIXMPPathSegment_I@2@PEBDPEBDPEBD@AdobeXMPCommon_Int@@YAPEBVIXMPPathSegment_v1@AdobeXMPCore@@AEAPEBVIError_v1@AdobeXMPCommon@@PEAVIXMPCoreObjectFactory_I@AdobeXMPCore_Int@@P856@EAA?AV?$shared_ptr@$$CBVIXMPPathSegment_I@AdobeXMPCore_Int@@@std@@PEBD22@Z222@Z 0000000180017144 f i XMPCoreObjectFactoryImpl.obj
 0001:00016278       ??$MakeSharedPointer@$$CBVIXMPNameSpacePrefixMap_I@AdobeXMPCore_Int@@$$CBVIXMPNameSpacePrefixMap_v1@AdobeXMPCore@@@AdobeXMPCommon_Int@@YA?AV?$shared_ptr@$$CBVIXMPNameSpacePrefixMap_I@AdobeXMPCore_Int@@@std@@PEBVIXMPNameSpacePrefixMap_v1@AdobeXMPCore@@AEAPEBVIError_v1@AdobeXMPCommon@@@Z 0000000180017278 f i XMPCoreObjectFactoryImpl.obj
 0001:000162bc       ??$CallUnSafeFunctionReturningSharedPointer@VIXMPCoreObjectFactory_I@AdobeXMPCore_Int@@PEAVIXMPPath_v1@AdobeXMPCore@@VIXMPPath_I@2@PEBDAEBV?$shared_ptr@$$CBVIXMPNameSpacePrefixMap_I@AdobeXMPCore_Int@@@std@@W4eMultiThreadingSupport@AdobeXMPCommon@@@AdobeXMPCommon_Int@@YAPEAVIXMPPath_v1@AdobeXMPCore@@AEAPEBVIError_v1@AdobeXMPCommon@@PEAVIXMPCoreObjectFactory_I@AdobeXMPCore_Int@@P856@EAA?AV?$shared_ptr@VIXMPPath_I@AdobeXMPCore_Int@@@std@@PEBDAEBV?$shared_ptr@$$CBVIXMPNameSpacePrefixMap_I@AdobeXMPCore_Int@@@8@W4eMultiThreadingSupport@4@@Z234@Z 00000001800172bc f i XMPCoreObjectFactoryImpl.obj
 0001:000163ec       ??$CallUnSafeFunctionReturningSharedPointer@VIXMPCoreObjectFactory_I@AdobeXMPCore_Int@@PEAVIXMPSimpleNode_v1@AdobeXMPCore@@VIXMPSimpleNode_I@2@PEBDPEBDPEBDW4eMultiThreadingSupport@AdobeXMPCommon@@@AdobeXMPCommon_Int@@YAPEAVIXMPSimpleNode_v1@AdobeXMPCore@@AEAPEBVIError_v1@AdobeXMPCommon@@PEAVIXMPCoreObjectFactory_I@AdobeXMPCore_Int@@P856@EAA?AV?$shared_ptr@VIXMPSimpleNode_I@AdobeXMPCore_Int@@@std@@PEBD22W4eMultiThreadingSupport@4@@Z2223@Z 00000001800173ec f i XMPCoreObjectFactoryImpl.obj
 0001:00016528       ??$CallUnSafeFunctionReturningSharedPointer@VIXMPCoreObjectFactory_I@AdobeXMPCore_Int@@PEAVIXMPStructureNode_v1@AdobeXMPCore@@VIXMPStructureNode_I@2@PEBDPEBDW4eMultiThreadingSupport@AdobeXMPCommon@@@AdobeXMPCommon_Int@@YAPEAVIXMPStructureNode_v1@AdobeXMPCore@@AEAPEBVIError_v1@AdobeXMPCommon@@PEAVIXMPCoreObjectFactory_I@AdobeXMPCore_Int@@P856@EAA?AV?$shared_ptr@VIXMPStructureNode_I@AdobeXMPCore_Int@@@std@@PEBD2W4eMultiThreadingSupport@4@@Z223@Z 0000000180017528 f i XMPCoreObjectFactoryImpl.obj
 0001:00016528       ??$CallUnSafeFunctionReturningSharedPointer@VIXMPCoreObjectFactory_I@AdobeXMPCore_Int@@PEAVIXMPArrayNode_v1@AdobeXMPCore@@VIXMPArrayNode_I@2@PEBDPEBDW4eMultiThreadingSupport@AdobeXMPCommon@@@AdobeXMPCommon_Int@@YAPEAVIXMPArrayNode_v1@AdobeXMPCore@@AEAPEBVIError_v1@AdobeXMPCommon@@PEAVIXMPCoreObjectFactory_I@AdobeXMPCore_Int@@P856@EAA?AV?$shared_ptr@VIXMPArrayNode_I@AdobeXMPCore_Int@@@std@@PEBD2W4eMultiThreadingSupport@4@@Z223@Z 0000000180017528 f i XMPCoreObjectFactoryImpl.obj
 0001:00016658       ??$CallUnSafeFunctionReturningSharedPointer@VIXMPCoreObjectFactory_I@AdobeXMPCore_Int@@PEAVIXMPQualifiers_v1@AdobeXMPCore@@VIXMPQualifiers_I@2@W4eMultiThreadingSupport@AdobeXMPCommon@@@AdobeXMPCommon_Int@@YAPEAVIXMPQualifiers_v1@AdobeXMPCore@@AEAPEBVIError_v1@AdobeXMPCommon@@PEAVIXMPCoreObjectFactory_I@AdobeXMPCore_Int@@P856@EAA?AV?$shared_ptr@VIXMPQualifiers_I@AdobeXMPCore_Int@@@std@@W4eMultiThreadingSupport@4@@Z2@Z 0000000180017658 f i XMPCoreObjectFactoryImpl.obj
 0001:00016658       ??$CallUnSafeFunctionReturningSharedPointer@VIXMPCoreObjectFactory_I@AdobeXMPCore_Int@@PEAVIXMPMetadata_v1@AdobeXMPCore@@VIXMPMetadata_I@2@W4eMultiThreadingSupport@AdobeXMPCommon@@@AdobeXMPCommon_Int@@YAPEAVIXMPMetadata_v1@AdobeXMPCore@@AEAPEBVIError_v1@AdobeXMPCommon@@PEAVIXMPCoreObjectFactory_I@AdobeXMPCore_Int@@P856@EAA?AV?$shared_ptr@VIXMPMetadata_I@AdobeXMPCore_Int@@@std@@W4eMultiThreadingSupport@4@@Z2@Z 0000000180017658 f i XMPCoreObjectFactoryImpl.obj
 0001:0001676c       ??$CallUnSafeFunctionReturningSharedPointer@VIXMPCoreObjectFactory_I@AdobeXMPCore_Int@@PEAVIXMPDOMImplementationRegistry_v1@AdobeXMPCore@@VIXMPDOMImplementationRegistry_I@2@@AdobeXMPCommon_Int@@YAPEAVIXMPDOMImplementationRegistry_v1@AdobeXMPCore@@AEAPEBVIError_v1@AdobeXMPCommon@@PEAVIXMPCoreObjectFactory_I@AdobeXMPCore_Int@@P856@EAA?AV?$shared_ptr@VIXMPDOMImplementationRegistry_I@AdobeXMPCore_Int@@@std@@XZ@Z 000000018001776c f i XMPCoreObjectFactoryImpl.obj
 0001:00016878       ??$MakeUncheckedSharedPointer@VIXMPDOMImplementationRegistry_I@AdobeXMPCore_Int@@@AdobeXMPCommon_Int@@YA?AV?$shared_ptr@VIXMPDOMImplementationRegistry_I@AdobeXMPCore_Int@@@std@@PEAVIXMPDOMImplementationRegistry_I@AdobeXMPCore_Int@@@Z 0000000180017878 f i XMPCoreObjectFactoryImpl.obj
 0001:000168e0       ?Destroy@?$TSingleton@VXMPCoreObjectFactoryImpl@AdobeXMPCore_Int@@V?$TCreateUsingNew@VXMPCoreObjectFactoryImpl@AdobeXMPCore_Int@@@AdobeXMPCommon_Int@@VTInitTermiateControlledLifeTime@4@VTSingleThreaded@4@@AdobeXMPCommon_Int@@SAXXZ 00000001800178e0 f i XMPCoreObjectFactoryImpl.obj
 0001:0001691c       ??$_Resetp@$$CBVIXMPNameSpacePrefixMap_I@AdobeXMPCore_Int@@V?$_Mem_fn_wrap@XP8ISharedOwnership_v1@AdobeXMPCommon@@EBAXXZ$$CBV12@$$$V@std@@V?$TAllocator@$$CBVIXMPNameSpacePrefixMap_I@AdobeXMPCore_Int@@@AdobeXMPCommon_Int@@@?$shared_ptr@$$CBVIXMPNameSpacePrefixMap_I@AdobeXMPCore_Int@@@std@@AEAAXPEBVIXMPNameSpacePrefixMap_I@AdobeXMPCore_Int@@V?$_Mem_fn_wrap@XP8ISharedOwnership_v1@AdobeXMPCommon@@EBAXXZ$$CBV12@$$$V@1@V?$TAllocator@$$CBVIXMPNameSpacePrefixMap_I@AdobeXMPCore_Int@@@AdobeXMPCommon_Int@@@Z 000000018001791c f i XMPCoreObjectFactoryImpl.obj
 0001:000169bc       ??$_Resetp@VIXMPDOMImplementationRegistry_I@AdobeXMPCore_Int@@V?$_Mem_fn_wrap@XP8ISharedOwnership_v1@AdobeXMPCommon@@EBAXXZ$$CBV12@$$$V@std@@V?$TAllocator@VIXMPDOMImplementationRegistry_I@AdobeXMPCore_Int@@@AdobeXMPCommon_Int@@@?$shared_ptr@VIXMPDOMImplementationRegistry_I@AdobeXMPCore_Int@@@std@@AEAAXPEAVIXMPDOMImplementationRegistry_I@AdobeXMPCore_Int@@V?$_Mem_fn_wrap@XP8ISharedOwnership_v1@AdobeXMPCommon@@EBAXXZ$$CBV12@$$$V@1@V?$TAllocator@VIXMPDOMImplementationRegistry_I@AdobeXMPCore_Int@@@AdobeXMPCommon_Int@@@Z 00000001800179bc f i XMPCoreObjectFactoryImpl.obj
 0001:00016a5c       ?CreatePropertyPathSegment_I@XMPCoreObjectFactoryImpl@AdobeXMPCore_Int@@$4PPPPPPPM@A@EAA?AV?$shared_ptr@$$CBVIXMPPathSegment_I@AdobeXMPCore_Int@@@std@@PEBD0@Z 0000000180017a5c f i XMPCoreObjectFactoryImpl.obj
 0001:00016a68       ?CreateArrayNode@IXMPCoreObjectFactory_I@AdobeXMPCore_Int@@$R2BA@BA@PPPPPPPM@BI@EAAPEAVIXMPArrayNode_v1@AdobeXMPCore@@PEBD0KKAEAPEBVIError_v1@AdobeXMPCommon@@@Z 0000000180017a68 f i XMPCoreObjectFactoryImpl.obj
 0001:00016a84       ?GetDOMImplementationRegistry@IXMPCoreObjectFactory_I@AdobeXMPCore_Int@@$R2BA@BA@PPPPPPPM@BI@EAAPEAVIXMPDOMImplementationRegistry_v1@AdobeXMPCore@@AEAPEBVIError_v1@AdobeXMPCommon@@@Z 0000000180017a84 f i XMPCoreObjectFactoryImpl.obj
 0001:00016aa0       ?GetDefaultNameSpacePrefixMap@IXMPCoreObjectFactory_I@AdobeXMPCore_Int@@$R2BA@BA@PPPPPPPM@BI@EAAPEBVIXMPNameSpacePrefixMap_v1@AdobeXMPCore@@AEAPEBVIError_v1@AdobeXMPCommon@@@Z 0000000180017aa0 f i XMPCoreObjectFactoryImpl.obj
 0001:00016abc       ?CreateMetadata_I@XMPCoreObjectFactoryImpl@AdobeXMPCore_Int@@$4PPPPPPPM@A@EAA?AV?$shared_ptr@VIXMPMetadata_I@AdobeXMPCore_Int@@@std@@W4eMultiThreadingSupport@AdobeXMPCommon@@@Z 0000000180017abc f i XMPCoreObjectFactoryImpl.obj
 0001:00016ac8       ?CreateOrderedArrayNode_I@XMPCoreObjectFactoryImpl@AdobeXMPCore_Int@@$4PPPPPPPM@A@EAA?AV?$shared_ptr@VIXMPArrayNode_I@AdobeXMPCore_Int@@@std@@PEBD0W4eMultiThreadingSupport@AdobeXMPCommon@@@Z 0000000180017ac8 f i XMPCoreObjectFactoryImpl.obj
 0001:00016ad4       ?CreateClientInitiatedError@IXMPCoreObjectFactory_I@AdobeXMPCore_Int@@$2PPPPPPPM@A@EAAPEBVIError_v1@AdobeXMPCommon@@KKKPEBD0K_KPEAPEBDAEAPEBV34@@Z 0000000180017ad4 f i XMPCoreObjectFactoryImpl.obj
 0001:00016ae0       ?CreateStructureNode@IXMPCoreObjectFactory_I@AdobeXMPCore_Int@@$R2BA@BA@PPPPPPPM@BI@EAAPEAVIXMPStructureNode_v1@AdobeXMPCore@@PEBD0KAEAPEBVIError_v1@AdobeXMPCommon@@@Z 0000000180017ae0 f i XMPCoreObjectFactoryImpl.obj
 0001:00016afc       ?CreateStructureNode_I@XMPCoreObjectFactoryImpl@AdobeXMPCore_Int@@$4PPPPPPPM@A@EAA?AV?$shared_ptr@VIXMPStructureNode_I@AdobeXMPCore_Int@@@std@@PEBD0W4eMultiThreadingSupport@AdobeXMPCommon@@@Z 0000000180017afc f i XMPCoreObjectFactoryImpl.obj
 0001:00016b08       ?CreateMetadata@IXMPCoreObjectFactory_I@AdobeXMPCore_Int@@$R2BA@BA@PPPPPPPM@BI@EAAPEAVIXMPMetadata_v1@AdobeXMPCore@@KAEAPEBVIError_v1@AdobeXMPCommon@@@Z 0000000180017b08 f i XMPCoreObjectFactoryImpl.obj
 0001:00016b24       ?CreateArrayNode@IXMPCoreObjectFactory_I@AdobeXMPCore_Int@@$2PPPPPPPM@A@EAAPEAVIXMPArrayNode_v1@AdobeXMPCore@@PEBD0KKAEAPEBVIError_v1@AdobeXMPCommon@@@Z 0000000180017b24 f i XMPCoreObjectFactoryImpl.obj
 0001:00016b30       ?GetDOMImplementationRegistry@IXMPCoreObjectFactory_I@AdobeXMPCore_Int@@$2PPPPPPPM@A@EAAPEAVIXMPDOMImplementationRegistry_v1@AdobeXMPCore@@AEAPEBVIError_v1@AdobeXMPCommon@@@Z 0000000180017b30 f i XMPCoreObjectFactoryImpl.obj
 0001:00016b3c       ?GetDefaultNameSpacePrefixMap@IXMPCoreObjectFactory_I@AdobeXMPCore_Int@@$2PPPPPPPM@A@EAAPEBVIXMPNameSpacePrefixMap_v1@AdobeXMPCore@@AEAPEBVIError_v1@AdobeXMPCommon@@@Z 0000000180017b3c f i XMPCoreObjectFactoryImpl.obj
 0001:00016b48       ?CreateArrayIndexPathSegment_I@XMPCoreObjectFactoryImpl@AdobeXMPCore_Int@@$4PPPPPPPM@A@EAA?AV?$shared_ptr@$$CBVIXMPPathSegment_I@AdobeXMPCore_Int@@@std@@PEBD_K@Z 0000000180017b48 f i XMPCoreObjectFactoryImpl.obj
 0001:00016b54       ?CreateUnorderedArrayNode_I@XMPCoreObjectFactoryImpl@AdobeXMPCore_Int@@$4PPPPPPPM@A@EAA?AV?$shared_ptr@VIXMPArrayNode_I@AdobeXMPCore_Int@@@std@@PEBD0W4eMultiThreadingSupport@AdobeXMPCommon@@@Z 0000000180017b54 f i XMPCoreObjectFactoryImpl.obj
 0001:00016b60       ?CreateClientInitiatedError@XMPCoreObjectFactoryImpl@AdobeXMPCore_Int@@$4PPPPPPPM@A@EAAPEBVIError_v1@AdobeXMPCommon@@W4eErrorDomain@34@KW4eErrorSeverity@34@PEBD2K_KPEAPEBD@Z 0000000180017b60 f i XMPCoreObjectFactoryImpl.obj
 0001:00016b6c       ?CreatePropertyPathSegment@IXMPCoreObjectFactory_I@AdobeXMPCore_Int@@$R2BA@BA@PPPPPPPM@BI@EAAPEBVIXMPPathSegment_v1@AdobeXMPCore@@PEBD0AEAPEBVIError_v1@AdobeXMPCommon@@@Z 0000000180017b6c f i XMPCoreObjectFactoryImpl.obj
 0001:00016b88       ?CreateQualifierPathSegment_I@XMPCoreObjectFactoryImpl@AdobeXMPCore_Int@@$4PPPPPPPM@A@EAA?AV?$shared_ptr@$$CBVIXMPPathSegment_I@AdobeXMPCore_Int@@@std@@PEBD0@Z 0000000180017b88 f i XMPCoreObjectFactoryImpl.obj
 0001:00016b94       ?CreateStructureNode@IXMPCoreObjectFactory_I@AdobeXMPCore_Int@@$2PPPPPPPM@A@EAAPEAVIXMPStructureNode_v1@AdobeXMPCore@@PEBD0KAEAPEBVIError_v1@AdobeXMPCommon@@@Z 0000000180017b94 f i XMPCoreObjectFactoryImpl.obj
 0001:00016ba0       ?CreateMetadata@IXMPCoreObjectFactory_I@AdobeXMPCore_Int@@$2PPPPPPPM@A@EAAPEAVIXMPMetadata_v1@AdobeXMPCore@@KAEAPEBVIError_v1@AdobeXMPCommon@@@Z 0000000180017ba0 f i XMPCoreObjectFactoryImpl.obj
 0001:00016bac       ?CreatePropertyPathSegment@IXMPCoreObjectFactory_I@AdobeXMPCore_Int@@$2PPPPPPPM@A@EAAPEBVIXMPPathSegment_v1@AdobeXMPCore@@PEBD0AEAPEBVIError_v1@AdobeXMPCommon@@@Z 0000000180017bac f i XMPCoreObjectFactoryImpl.obj
 0001:00016bb8       ?CreateEmptyNameSpacePrefixMap_I@XMPCoreObjectFactoryImpl@AdobeXMPCore_Int@@$4PPPPPPPM@A@EAA?AV?$shared_ptr@VIXMPNameSpacePrefixMap_I@AdobeXMPCore_Int@@@std@@W4eMultiThreadingSupport@AdobeXMPCommon@@@Z 0000000180017bb8 f i XMPCoreObjectFactoryImpl.obj
 0001:00016bc4       ?CreateQualifierSelectorPathSegment_I@XMPCoreObjectFactoryImpl@AdobeXMPCore_Int@@$4PPPPPPPM@A@EAA?AV?$shared_ptr@$$CBVIXMPPathSegment_I@AdobeXMPCore_Int@@@std@@PEBD00@Z 0000000180017bc4 f i XMPCoreObjectFactoryImpl.obj
 0001:00016bd0       ?CreateQualifierSelectorPathSegment@IXMPCoreObjectFactory_I@AdobeXMPCore_Int@@$R2BA@BA@PPPPPPPM@BI@EAAPEBVIXMPPathSegment_v1@AdobeXMPCore@@PEBD00AEAPEBVIError_v1@AdobeXMPCommon@@@Z 0000000180017bd0 f i XMPCoreObjectFactoryImpl.obj
 0001:00016bec       ?CreateQualifierPathSegment@IXMPCoreObjectFactory_I@AdobeXMPCore_Int@@$R2BA@BA@PPPPPPPM@BI@EAAPEBVIXMPPathSegment_v1@AdobeXMPCore@@PEBD0AEAPEBVIError_v1@AdobeXMPCommon@@@Z 0000000180017bec f i XMPCoreObjectFactoryImpl.obj
 0001:00016c08       ?CreateQualifiers_I@XMPCoreObjectFactoryImpl@AdobeXMPCore_Int@@$4PPPPPPPM@A@EAA?AV?$shared_ptr@VIXMPQualifiers_I@AdobeXMPCore_Int@@@std@@W4eMultiThreadingSupport@AdobeXMPCommon@@@Z 0000000180017c08 f i XMPCoreObjectFactoryImpl.obj
 0001:00016c14       ?CreateSimpleNode@IXMPCoreObjectFactory_I@AdobeXMPCore_Int@@$R2BA@BA@PPPPPPPM@BI@EAAPEAVIXMPSimpleNode_v1@AdobeXMPCore@@PEBD00KAEAPEBVIError_v1@AdobeXMPCommon@@@Z 0000000180017c14 f i XMPCoreObjectFactoryImpl.obj
 0001:00016c30       ?CreateSimpleNode_I@XMPCoreObjectFactoryImpl@AdobeXMPCore_Int@@$4PPPPPPPM@A@EAA?AV?$shared_ptr@VIXMPSimpleNode_I@AdobeXMPCore_Int@@@std@@PEBD00W4eMultiThreadingSupport@AdobeXMPCommon@@@Z 0000000180017c30 f i XMPCoreObjectFactoryImpl.obj
 0001:00016c3c       ?CreateQualifierSelectorPathSegment@IXMPCoreObjectFactory_I@AdobeXMPCore_Int@@$2PPPPPPPM@A@EAAPEBVIXMPPathSegment_v1@AdobeXMPCore@@PEBD00AEAPEBVIError_v1@AdobeXMPCommon@@@Z 0000000180017c3c f i XMPCoreObjectFactoryImpl.obj
 0001:00016c48       ?CreateAlternativeArrayNode_I@XMPCoreObjectFactoryImpl@AdobeXMPCore_Int@@$4PPPPPPPM@A@EAA?AV?$shared_ptr@VIXMPArrayNode_I@AdobeXMPCore_Int@@@std@@PEBD0W4eMultiThreadingSupport@AdobeXMPCommon@@@Z 0000000180017c48 f i XMPCoreObjectFactoryImpl.obj
 0001:00016c54       ?CreateQualifierPathSegment@IXMPCoreObjectFactory_I@AdobeXMPCore_Int@@$2PPPPPPPM@A@EAAPEBVIXMPPathSegment_v1@AdobeXMPCore@@PEBD0AEAPEBVIError_v1@AdobeXMPCommon@@@Z 0000000180017c54 f i XMPCoreObjectFactoryImpl.obj
 0001:00016c60       ?CreateSimpleNode@IXMPCoreObjectFactory_I@AdobeXMPCore_Int@@$2PPPPPPPM@A@EAAPEAVIXMPSimpleNode_v1@AdobeXMPCore@@PEBD00KAEAPEBVIError_v1@AdobeXMPCommon@@@Z 0000000180017c60 f i XMPCoreObjectFactoryImpl.obj
 0001:00016c6c       ??_EXMPCoreObjectFactoryImpl@AdobeXMPCore_Int@@$4PPPPPPPM@A@EAAPEAXI@Z 0000000180017c6c f i XMPCoreObjectFactoryImpl.obj
 0001:00016c78       ?CreateEmptyNameSpacePrefixMap@IXMPCoreObjectFactory_I@AdobeXMPCore_Int@@$R2BA@BA@PPPPPPPM@BI@EAAPEAVIXMPNameSpacePrefixMap_v1@AdobeXMPCore@@KAEAPEBVIError_v1@AdobeXMPCommon@@@Z 0000000180017c78 f i XMPCoreObjectFactoryImpl.obj
 0001:00016c94       ?CreateQualifiers@IXMPCoreObjectFactory_I@AdobeXMPCore_Int@@$R2BA@BA@PPPPPPPM@BI@EAAPEAVIXMPQualifiers_v1@AdobeXMPCore@@KAEAPEBVIError_v1@AdobeXMPCommon@@@Z 0000000180017c94 f i XMPCoreObjectFactoryImpl.obj
 0001:00016cb0       ?GetDOMImplementationRegistry_I@XMPCoreObjectFactoryImpl@AdobeXMPCore_Int@@$4PPPPPPPM@A@EAA?AV?$shared_ptr@VIXMPDOMImplementationRegistry_I@AdobeXMPCore_Int@@@std@@XZ 0000000180017cb0 f i XMPCoreObjectFactoryImpl.obj
 0001:00016cbc       ?CreatePathByParsing@IXMPCoreObjectFactory_I@AdobeXMPCore_Int@@$R2BA@BA@PPPPPPPM@BI@EAAPEAVIXMPPath_v1@AdobeXMPCore@@PEBDPEBVIXMPNameSpacePrefixMap_v1@4@KAEAPEBVIError_v1@AdobeXMPCommon@@@Z 0000000180017cbc f i XMPCoreObjectFactoryImpl.obj
 0001:00016cd8       ?CreateEmptyNameSpacePrefixMap@IXMPCoreObjectFactory_I@AdobeXMPCore_Int@@$2PPPPPPPM@A@EAAPEAVIXMPNameSpacePrefixMap_v1@AdobeXMPCore@@KAEAPEBVIError_v1@AdobeXMPCommon@@@Z 0000000180017cd8 f i XMPCoreObjectFactoryImpl.obj
 0001:00016ce4       ?CreateQualifiers@IXMPCoreObjectFactory_I@AdobeXMPCore_Int@@$2PPPPPPPM@A@EAAPEAVIXMPQualifiers_v1@AdobeXMPCore@@KAEAPEBVIError_v1@AdobeXMPCommon@@@Z 0000000180017ce4 f i XMPCoreObjectFactoryImpl.obj
 0001:00016cf0       ?CreateArrayIndexPathSegment@IXMPCoreObjectFactory_I@AdobeXMPCore_Int@@$R2BA@BA@PPPPPPPM@BI@EAAPEBVIXMPPathSegment_v1@AdobeXMPCore@@PEBD_KAEAPEBVIError_v1@AdobeXMPCommon@@@Z 0000000180017cf0 f i XMPCoreObjectFactoryImpl.obj
 0001:00016d0c       ?CreatePathByParsing_I@XMPCoreObjectFactoryImpl@AdobeXMPCore_Int@@$4PPPPPPPM@A@EAA?AV?$shared_ptr@VIXMPPath_I@AdobeXMPCore_Int@@@std@@PEBDAEBV?$shared_ptr@$$CBVIXMPNameSpacePrefixMap_I@AdobeXMPCore_Int@@@4@W4eMultiThreadingSupport@AdobeXMPCommon@@@Z 0000000180017d0c f i XMPCoreObjectFactoryImpl.obj
 0001:00016d18       ?CreateClientInitiatedError@IXMPCoreObjectFactory_I@AdobeXMPCore_Int@@$R2BA@BA@PPPPPPPM@BI@EAAPEBVIError_v1@AdobeXMPCommon@@KKKPEBD0K_KPEAPEBDAEAPEBV34@@Z 0000000180017d18 f i XMPCoreObjectFactoryImpl.obj
 0001:00016d34       ?CreatePathByParsing@IXMPCoreObjectFactory_I@AdobeXMPCore_Int@@$2PPPPPPPM@A@EAAPEAVIXMPPath_v1@AdobeXMPCore@@PEBDPEBVIXMPNameSpacePrefixMap_v1@4@KAEAPEBVIError_v1@AdobeXMPCommon@@@Z 0000000180017d34 f i XMPCoreObjectFactoryImpl.obj
 0001:00016d40       ?GetDefaultNameSpacePrefixMap_I@XMPCoreObjectFactoryImpl@AdobeXMPCore_Int@@$4PPPPPPPM@A@EAA?AV?$shared_ptr@$$CBVIXMPNameSpacePrefixMap_I@AdobeXMPCore_Int@@@std@@XZ 0000000180017d40 f i XMPCoreObjectFactoryImpl.obj
 0001:00016d4c       ??_EXMPCoreObjectFactoryImpl@AdobeXMPCore_Int@@WCI@EAAPEAXI@Z 0000000180017d4c f i XMPCoreObjectFactoryImpl.obj
 0001:00016d58       ?CreateArrayIndexPathSegment@IXMPCoreObjectFactory_I@AdobeXMPCore_Int@@$2PPPPPPPM@A@EAAPEBVIXMPPathSegment_v1@AdobeXMPCore@@PEBD_KAEAPEBVIError_v1@AdobeXMPCommon@@@Z 0000000180017d58 f i XMPCoreObjectFactoryImpl.obj
 0001:00016dac       ?ConjureUURI@XMPDocOpsUtils@@SAXPEBDPEAV?$basic_string@DU?$char_traits@D@std@@V?$allocator@D@2@@std@@PEAVXMP_ReadWriteLock@@@Z 0000000180017dac f   XMPDocOps-Utils.obj
 0001:0001707c       ?GetLastModTime@XMPDocOpsUtils@@SA_NAEBVXMPMeta@@PEAUXMP_DateTime@@@Z 000000018001807c f   XMPDocOps-Utils.obj
 0001:00017208       ?EnsureHistoryForm@XMPDocOpsUtils@@SAXPEAVXMPMeta@@@Z 0000000180018208 f   XMPDocOps-Utils.obj
 0001:0001726c       ?FillResourceRef@XMPDocOpsUtils@@SAXAEBVXMPMeta@@PEAV2@PEBD2@Z 000000018001826c f   XMPDocOps-Utils.obj
 0001:0001763c       ?NormalizePartPath@XMPDocOpsUtils@@SAXAEAV?$basic_string@DU?$char_traits@D@std@@V?$allocator@D@2@@std@@@Z 000000018001863c f   XMPDocOps-Utils.obj
 0001:00017770       ?NormalizePartsList@XMPDocOpsUtils@@SAXPEAVXMP_Node@@@Z 0000000180018770 f   XMPDocOps-Utils.obj
 0001:00017974       ?PruneOneRedundantRun@XMPDocOpsUtils@@SAJPEAVXMP_Node@@J@Z 0000000180018974 f   XMPDocOps-Utils.obj
 0001:00017b30       ?IsPartInList@XMPDocOpsUtils@@SA_NPEAPEBDJAEBVXMP_Node@@@Z 0000000180018b30 f   XMPDocOps-Utils.obj
 0001:00017d58       ??4?$basic_string@DU?$char_traits@D@std@@V?$allocator@D@2@@std@@QEAAAEAV01@PEBD@Z 0000000180018d58 f i XMPDocOps-Utils.obj
 0001:00017d90       ?insert@?$basic_string@DU?$char_traits@D@std@@V?$allocator@D@2@@std@@QEAAAEAV12@_K0D@Z 0000000180018d90 f i XMPDocOps-Utils.obj
 0001:00017ea4       ?compare@?$basic_string@DU?$char_traits@D@std@@V?$allocator@D@2@@std@@QEBAH_K0AEBV12@@Z 0000000180018ea4 f i XMPDocOps-Utils.obj
 0001:00017f44       ??1?$vector@VXPathStepInfo@@V?$allocator@VXPathStepInfo@@@std@@@std@@QEAA@XZ 0000000180018f44 f i XMPDocOps-Utils.obj
 0001:00017f4c       ?append@?$basic_string@DU?$char_traits@D@std@@V?$allocator@D@2@@std@@QEAAAEAV12@AEBV12@_K1@Z 0000000180018f4c f i XMPDocOps-Utils.obj
 0001:00018068       ?append@?$basic_string@DU?$char_traits@D@std@@V?$allocator@D@2@@std@@QEAAAEAV12@PEBD_K@Z 0000000180019068 f i XMPDocOps-Utils.obj
 0001:000181a0       ?append@?$basic_string@DU?$char_traits@D@std@@V?$allocator@D@2@@std@@QEAAAEAV12@_KD@Z 00000001800191a0 f i XMPDocOps-Utils.obj
 0001:0001829c       ?find@?$basic_string@DU?$char_traits@D@std@@V?$allocator@D@2@@std@@QEBA_KPEBD_K1@Z 000000018001929c f i XMPDocOps-Utils.obj
 0001:0001835c       ?_Tidy@?$vector@VXPathStepInfo@@V?$allocator@VXPathStepInfo@@@std@@@std@@IEAAXXZ 000000018001935c f i XMPDocOps-Utils.obj
 0001:000183d8       ??$?8DU?$char_traits@D@std@@V?$allocator@D@1@@std@@YA_NAEBV?$basic_string@DU?$char_traits@D@std@@V?$allocator@D@2@@0@PEBD@Z 00000001800193d8 f i XMPDocOps-Utils.obj
 0001:00018474       ??$?8DU?$char_traits@D@std@@V?$allocator@D@1@@std@@YA_NAEBV?$basic_string@DU?$char_traits@D@std@@V?$allocator@D@2@@0@0@Z 0000000180019474 f i XMPDocOps-Utils.obj
 0001:000184ec       ?PruneOneRedundantRun_v2@XMPDocOpsUtils@@SAJAEAV?$shared_ptr@VIXMPArrayNode_I@AdobeXMPCore_Int@@@std@@J@Z 00000001800194ec f   XMPDocOps-Utils2.obj
 0001:00018d14       ?IsPartInList_v2@XMPDocOpsUtils@@SA_NPEAPEBDJV?$shared_ptr@VIXMPNode_I@AdobeXMPCore_Int@@@std@@@Z 0000000180019d14 f   XMPDocOps-Utils2.obj
 0001:00019170       ?NormalizePartsList_v2@XMPDocOpsUtils@@SAXAEAV?$shared_ptr@VIXMPNode_I@AdobeXMPCore_Int@@@std@@@Z 000000018001a170 f   XMPDocOps-Utils2.obj
 0001:000193dc       ?GetLastModTime_v2@XMPDocOpsUtils@@SA_NAEBVXMPMeta@@PEAUXMP_DateTime@@@Z 000000018001a3dc f   XMPDocOps-Utils2.obj
 0001:00019ac8       ??$AdaptConstNodeTo_I@VIXMPSimpleNode_I@AdobeXMPCore_Int@@$0A@@IXMPNode_I@AdobeXMPCore_Int@@SA?AV?$shared_ptr@$$CBVIXMPSimpleNode_I@AdobeXMPCore_Int@@@std@@AEBV?$shared_ptr@$$CBVIXMPNode_I@AdobeXMPCore_Int@@@3@@Z 000000018001aac8 f i XMPDocOps-Utils2.obj
 0001:00019b98       ??$dynamic_pointer_cast@VIXMPArrayNode_I@AdobeXMPCore_Int@@VIXMPNode_I@2@@std@@YA?AV?$shared_ptr@VIXMPArrayNode_I@AdobeXMPCore_Int@@@0@AEBV?$shared_ptr@VIXMPNode_I@AdobeXMPCore_Int@@@0@@Z 000000018001ab98 f i XMPDocOps-Utils2.obj
 0001:00019c68       ??$const_pointer_cast@VIXMPNode_I@AdobeXMPCore_Int@@$$CBV12@@std@@YA?AV?$shared_ptr@VIXMPNode_I@AdobeXMPCore_Int@@@0@AEBV?$shared_ptr@$$CBVIXMPNode_I@AdobeXMPCore_Int@@@0@@Z 000000018001ac68 f i XMPDocOps-Utils2.obj
 0001:00019ce0       ??0XMPDocOps@@QEAA@XZ      000000018001ace0 f   XMPDocOps.obj
 0001:00019d7c       ??_EXMPDocOps@@UEAAPEAXI@Z 000000018001ad7c f i * CIL library *:* CIL module *
 0001:00019d7c       ??_GXMPDocOps@@UEAAPEAXI@Z 000000018001ad7c f i XMPDocOps.obj
 0001:00019db4       ??1XMPDocOps@@UEAA@XZ      000000018001adb4 f   XMPDocOps.obj
 0001:00019e94       ?ResetDoc@XMPDocOps@@IEAAXPEAVXMPMeta@@@Z 000000018001ae94 f   XMPDocOps.obj
 0001:00019f20       ?AppendHistory@XMPDocOps@@IEAAXPEBD0@Z 000000018001af20 f   XMPDocOps.obj
 0001:00019ff0       ?AppendHistory@XMPDocOps@@IEAAXPEBD000@Z 000000018001aff0 f   XMPDocOps.obj
 0001:0001a2bc       ?PruneRedundantHistory@XMPDocOps@@MEAAXXZ 000000018001b2bc f   XMPDocOps.obj
 0001:0001a3fc       ?NewXMP@XMPDocOps@@QEAAXPEAVXMPMeta@@PEBDK@Z 000000018001b3fc f   XMPDocOps.obj
 0001:0001a524       ?OpenXMP@XMPDocOps@@QEAAXPEAVXMPMeta@@PEBD1PEAUXMP_DateTime@@K@Z 000000018001b524 f   XMPDocOps.obj
 0001:0001a75c       ?BranchXMP@XMPDocOps@@QEAAXPEAV1@PEAVXMPMeta@@PEBDK@Z 000000018001b75c f   XMPDocOps.obj
 0001:0001aa7c       ?PrepareForSave@XMPDocOps@@QEAAXPEBD0PEAUXMP_DateTime@@K@Z 000000018001ba7c f   XMPDocOps.obj
 0001:0001b26c       ?NoteChange@XMPDocOps@@QEAAXPEAPEBDJ@Z 000000018001c26c f   XMPDocOps.obj
 0001:0001b7c4       ?InternalNoteChangeAll@XMPDocOps@@IEAAXXZ 000000018001c7c4 f   XMPDocOps.obj
 0001:0001b920       ?HasPartChanged@XMPDocOps@@UEBACPEBDPEAPEBDJ@Z 000000018001c920 f   XMPDocOps.obj
 0001:0001bb7c       ?GetPartChangeID@XMPDocOps@@UEBA_NPEAPEBDJ0PEAK@Z 000000018001cb7c f   XMPDocOps.obj
 0001:0001bdc8       ?EnsureIDsExist@XMPDocOps@@QEAA_NK@Z 000000018001cdc8 f   XMPDocOps.obj
 0001:0001c02c       ?Clone@XMPDocOps@@QEBAXPEAV1@K@Z 000000018001d02c f   XMPDocOps.obj
 0001:0001c1fc       ??0?$basic_string@DU?$char_traits@D@std@@V?$allocator@D@2@@std@@QEAA@$$QEAV01@@Z 000000018001d1fc f i XMPDocOps.obj
 0001:0001c26c       ??4?$vector@V?$basic_string@DU?$char_traits@D@std@@V?$allocator@D@2@@std@@V?$allocator@V?$basic_string@DU?$char_traits@D@std@@V?$allocator@D@2@@std@@@2@@std@@QEAAAEAV01@AEBV01@@Z 000000018001d26c f i XMPDocOps.obj
 0001:0001c4a8       ?_Reserve@?$vector@V?$basic_string@DU?$char_traits@D@std@@V?$allocator@D@2@@std@@V?$allocator@V?$basic_string@DU?$char_traits@D@std@@V?$allocator@D@2@@std@@@2@@std@@IEAAX_K@Z 000000018001d4a8 f i XMPDocOps.obj
 0001:0001c520       ?_Tidy@?$vector@V?$basic_string@DU?$char_traits@D@std@@V?$allocator@D@2@@std@@V?$allocator@V?$basic_string@DU?$char_traits@D@std@@V?$allocator@D@2@@std@@@2@@std@@IEAAXXZ 000000018001d520 f i XMPDocOps.obj
 0001:0001c59c       ?_Reallocate@?$vector@V?$basic_string@DU?$char_traits@D@std@@V?$allocator@D@2@@std@@V?$allocator@V?$basic_string@DU?$char_traits@D@std@@V?$allocator@D@2@@std@@@2@@std@@IEAAX_K@Z 000000018001d59c f i XMPDocOps.obj
 0001:0001c680       ??4?$basic_string@DU?$char_traits@D@std@@V?$allocator@D@2@@std@@QEAAAEAV01@$$QEAV01@@Z 000000018001d680 f i XMPDocOps.obj
 0001:0001c710       ?replace@?$basic_string@DU?$char_traits@D@std@@V?$allocator@D@2@@std@@QEAAAEAV12@_K0AEBV12@00@Z 000000018001d710 f i XMPDocOps.obj
 0001:0001caac       ??$_Uninit_copy@PEAV?$basic_string@DU?$char_traits@D@std@@V?$allocator@D@2@@std@@PEAV12@V?$allocator@V?$basic_string@DU?$char_traits@D@std@@V?$allocator@D@2@@std@@@2@@std@@YAPEAV?$basic_string@DU?$char_traits@D@std@@V?$allocator@D@2@@0@PEAV10@00AEAU?$_Wrap_alloc@V?$allocator@V?$basic_string@DU?$char_traits@D@std@@V?$allocator@D@2@@std@@@std@@@0@U_Nonscalar_ptr_iterator_tag@0@@Z 000000018001daac f i XMPDocOps.obj
 0001:0001cb20       ??$_Uninit_move@PEAV?$basic_string@DU?$char_traits@D@std@@V?$allocator@D@2@@std@@PEAV12@V?$allocator@V?$basic_string@DU?$char_traits@D@std@@V?$allocator@D@2@@std@@@2@V12@@std@@YAPEAV?$basic_string@DU?$char_traits@D@std@@V?$allocator@D@2@@0@PEAV10@00AEAU?$_Wrap_alloc@V?$allocator@V?$basic_string@DU?$char_traits@D@std@@V?$allocator@D@2@@std@@@std@@@0@0U_Nonscalar_ptr_iterator_tag@0@@Z 000000018001db20 f i XMPDocOps.obj
 0001:0001cb70       ??_EXMPDocOps2@@UEAAPEAXI@Z 000000018001db70 f i * CIL library *:* CIL module *
 0001:0001cb70       ??_GXMPDocOps2@@UEAAPEAXI@Z 000000018001db70 f i XMPDocOps2.obj
 0001:0001cbac       ?GetPartChangeID@XMPDocOps2@@UEBA_NPEAPEBDJ0PEAK@Z 000000018001dbac f   XMPDocOps2.obj
 0001:0001dc6c       ?HasPartChanged@XMPDocOps2@@UEBACPEBDPEAPEBDJ@Z 000000018001ec6c f   XMPDocOps2.obj
 0001:0001ec84       ?PruneRedundantHistory@XMPDocOps2@@EEAAXXZ 000000018001fc84 f   XMPDocOps2.obj
 0001:0001f0bc       ??$?4VIXMPStructureNode_I@AdobeXMPCore_Int@@@?$shared_ptr@VIXMPNode_I@AdobeXMPCore_Int@@@std@@QEAAAEAV01@AEBV?$shared_ptr@VIXMPStructureNode_I@AdobeXMPCore_Int@@@1@@Z 00000001800200bc f i XMPUtils.obj
 0001:0001f0bc       ??$?4VIXMPArrayNode_I@AdobeXMPCore_Int@@@?$shared_ptr@VIXMPNode_I@AdobeXMPCore_Int@@@std@@QEAAAEAV01@AEBV?$shared_ptr@VIXMPArrayNode_I@AdobeXMPCore_Int@@@1@@Z 00000001800200bc f i XMPDocOps2.obj
 0001:0001f0bc       ??$?4VIXMPSimpleNode_I@AdobeXMPCore_Int@@@?$shared_ptr@VIXMPNode_I@AdobeXMPCore_Int@@@std@@QEAAAEAV01@AEBV?$shared_ptr@VIXMPSimpleNode_I@AdobeXMPCore_Int@@@1@@Z 00000001800200bc f i XMPUtils.obj
 0001:0001f124       ??_Glogic_error@std@@UEAAPEAXI@Z 0000000180020124 f i XMPDOMImplementationRegistryImpl.obj
 0001:0001f124       ??_Ebad_weak_ptr@std@@UEAAPEAXI@Z 0000000180020124 f i * CIL library *:* CIL module *
 0001:0001f124       ??_Gbad_weak_ptr@std@@UEAAPEAXI@Z 0000000180020124 f i XMPCommon:UTF8StringImpl.obj
 0001:0001f124       ??_Elogic_error@std@@UEAAPEAXI@Z 0000000180020124 f i * CIL library *:* CIL module *
 0001:0001f15c       ??1logic_error@std@@UEAA@XZ 000000018002015c f i XMPDOMImplementationRegistryImpl.obj
 0001:0001f15c       ??1bad_weak_ptr@std@@UEAA@XZ 000000018002015c f i XMPCommon:UTF8StringImpl.obj
 0001:0001f164       ??1IXMPDOMImplementationRegistry_v1@AdobeXMPCore@@MEAA@XZ 0000000180020164 f i XMPDOMImplementationRegistryImpl.obj
 0001:0001f184       ??1IXMPDOMImplementationRegistry_I@AdobeXMPCore_Int@@MEAA@XZ 0000000180020184 f i XMPDOMImplementationRegistryImpl.obj
 0001:0001f1e0       ?CreateParser@IXMPDOMImplementationRegistry_I@AdobeXMPCore_Int@@MEBAPEAVIXMPDOMParser_v1@AdobeXMPCore@@PEBDKAEAPEBVIError_v1@AdobeXMPCommon@@@Z 00000001800201e0 f i XMPDOMImplementationRegistryImpl.obj
 0001:0001f228       ?CreateSerializer@IXMPDOMImplementationRegistry_I@AdobeXMPCore_Int@@MEBAPEAVIXMPDOMSerializer_v1@AdobeXMPCore@@PEBDKAEAPEBVIError_v1@AdobeXMPCommon@@@Z 0000000180020228 f i XMPDOMImplementationRegistryImpl.obj
 0001:0001f270       ??1XMPDOMImplementationRegistryImpl@AdobeXMPCore_Int@@UEAA@XZ 0000000180020270 f i XMPDOMImplementationRegistryImpl.obj
 0001:0001f34c       ??_EXMPDOMImplementationRegistryImpl@AdobeXMPCore_Int@@UEAAPEAXI@Z 000000018002034c f i * CIL library *:* CIL module *
 0001:0001f34c       ??_GXMPDOMImplementationRegistryImpl@AdobeXMPCore_Int@@UEAAPEAXI@Z 000000018002034c f i XMPDOMImplementationRegistryImpl.obj
 0001:0001f438       ?CreateParser_I@XMPDOMImplementationRegistryImpl@AdobeXMPCore_Int@@UEBA?AV?$shared_ptr@VIXMPDOMParser_I@AdobeXMPCore_Int@@@std@@PEBDW4eMultiThreadingSupport@AdobeXMPCommon@@@Z 0000000180020438 f   XMPDOMImplementationRegistryImpl.obj
 0001:0001f508       ?CreateSerializer_I@XMPDOMImplementationRegistryImpl@AdobeXMPCore_Int@@UEBA?AV?$shared_ptr@VIXMPDOMSerializer_I@AdobeXMPCore_Int@@@std@@PEBDW4eMultiThreadingSupport@AdobeXMPCommon@@@Z 0000000180020508 f   XMPDOMImplementationRegistryImpl.obj
 0001:0001f5d8       ?RegisterSerializer_I@XMPDOMImplementationRegistryImpl@AdobeXMPCore_Int@@UEAAXPEBDAEBV?$shared_ptr@VIXMPDOMSerializer_I@AdobeXMPCore_Int@@@std@@@Z 00000001800205d8 f   XMPDOMImplementationRegistryImpl.obj
 0001:0001f5d8       ?RegisterParser_I@XMPDOMImplementationRegistryImpl@AdobeXMPCore_Int@@UEAAXPEBDAEBV?$shared_ptr@VIXMPDOMParser_I@AdobeXMPCore_Int@@@std@@@Z 00000001800205d8 f   XMPDOMImplementationRegistryImpl.obj
 0001:0001f618       ??0logic_error@std@@QEAA@AEBV01@@Z 0000000180020618 f i XMPDOMImplementationRegistryImpl.obj
 0001:0001f63c       ??0XMPDOMImplementationRegistryImpl@AdobeXMPCore_Int@@QEAA@XZ 000000018002063c f   XMPDOMImplementationRegistryImpl.obj
 0001:0001f7dc       ?Instance@?$TSingleton@VXMPDOMImplementationRegistryImpl@AdobeXMPCore_Int@@V?$TCreateUsingNew@VXMPDOMImplementationRegistryImpl@AdobeXMPCore_Int@@@AdobeXMPCommon_Int@@VTInitTermiateControlledLifeTime@4@VTSingleThreaded@4@@AdobeXMPCommon_Int@@SAAEAVXMPDOMImplementationRegistryImpl@AdobeXMPCore_Int@@XZ 00000001800207dc f i XMPDOMImplementationRegistryImpl.obj
 0001:0001f824       ??$CallConstUnSafeFunctionReturningSharedPointer@VIXMPDOMImplementationRegistry_I@AdobeXMPCore_Int@@PEAVIXMPDOMParser_v1@AdobeXMPCore@@VIXMPDOMParser_I@2@PEBDW4eMultiThreadingSupport@AdobeXMPCommon@@@AdobeXMPCommon_Int@@YAPEAVIXMPDOMParser_v1@AdobeXMPCore@@AEAPEBVIError_v1@AdobeXMPCommon@@QEBVIXMPDOMImplementationRegistry_I@AdobeXMPCore_Int@@P856@EBA?AV?$shared_ptr@VIXMPDOMParser_I@AdobeXMPCore_Int@@@std@@PEBDW4eMultiThreadingSupport@4@@Z23@Z 0000000180020824 f i XMPDOMImplementationRegistryImpl.obj
 0001:0001f824       ??$CallConstUnSafeFunctionReturningSharedPointer@VIXMPDOMImplementationRegistry_I@AdobeXMPCore_Int@@PEAVIXMPDOMSerializer_v1@AdobeXMPCore@@VIXMPDOMSerializer_I@2@PEBDW4eMultiThreadingSupport@AdobeXMPCommon@@@AdobeXMPCommon_Int@@YAPEAVIXMPDOMSerializer_v1@AdobeXMPCore@@AEAPEBVIError_v1@AdobeXMPCommon@@QEBVIXMPDOMImplementationRegistry_I@AdobeXMPCore_Int@@P856@EBA?AV?$shared_ptr@VIXMPDOMSerializer_I@AdobeXMPCore_Int@@@std@@PEBDW4eMultiThreadingSupport@4@@Z23@Z 0000000180020824 f i XMPDOMImplementationRegistryImpl.obj
 0001:0001f944       ??$MakeUncheckedSharedPointer@VRDFXMPDOMParserImpl@AdobeXMPCore_Int@@@AdobeXMPCommon_Int@@YA?AV?$shared_ptr@VRDFXMPDOMParserImpl@AdobeXMPCore_Int@@@std@@PEAVRDFXMPDOMParserImpl@AdobeXMPCore_Int@@@Z 0000000180020944 f i XMPDOMImplementationRegistryImpl.obj
 0001:0001f9c0       ??$MakeUncheckedSharedPointer@VRDFXMPDOMSerializerImpl@AdobeXMPCore_Int@@@AdobeXMPCommon_Int@@YA?AV?$shared_ptr@VRDFXMPDOMSerializerImpl@AdobeXMPCore_Int@@@std@@PEAVRDFXMPDOMSerializerImpl@AdobeXMPCore_Int@@@Z 00000001800209c0 f i XMPDOMImplementationRegistryImpl.obj
 0001:0001fa3c       ?Destroy@?$TSingleton@VXMPDOMImplementationRegistryImpl@AdobeXMPCore_Int@@V?$TCreateUsingNew@VXMPDOMImplementationRegistryImpl@AdobeXMPCore_Int@@@AdobeXMPCommon_Int@@VTInitTermiateControlledLifeTime@4@VTSingleThreaded@4@@AdobeXMPCommon_Int@@SAXXZ 0000000180020a3c f i XMPDOMImplementationRegistryImpl.obj
 0001:0001fa78       ??$_Resetp@VRDFXMPDOMParserImpl@AdobeXMPCore_Int@@V?$_Mem_fn_wrap@XP8IntrusiveRefCountSharedOwnership@AdobeXMPCommon_Int@@EBAXXZ$$CBV12@$$$V@std@@V?$TAllocator@VRDFXMPDOMParserImpl@AdobeXMPCore_Int@@@AdobeXMPCommon_Int@@@?$shared_ptr@VRDFXMPDOMParserImpl@AdobeXMPCore_Int@@@std@@AEAAXPEAVRDFXMPDOMParserImpl@AdobeXMPCore_Int@@V?$_Mem_fn_wrap@XP8IntrusiveRefCountSharedOwnership@AdobeXMPCommon_Int@@EBAXXZ$$CBV12@$$$V@1@V?$TAllocator@VRDFXMPDOMParserImpl@AdobeXMPCore_Int@@@AdobeXMPCommon_Int@@@Z 0000000180020a78 f i XMPDOMImplementationRegistryImpl.obj
 0001:0001fb14       ??$_Resetp@VRDFXMPDOMSerializerImpl@AdobeXMPCore_Int@@V?$_Mem_fn_wrap@XP8IntrusiveRefCountSharedOwnership@AdobeXMPCommon_Int@@EBAXXZ$$CBV12@$$$V@std@@V?$TAllocator@VRDFXMPDOMSerializerImpl@AdobeXMPCore_Int@@@AdobeXMPCommon_Int@@@?$shared_ptr@VRDFXMPDOMSerializerImpl@AdobeXMPCore_Int@@@std@@AEAAXPEAVRDFXMPDOMSerializerImpl@AdobeXMPCore_Int@@V?$_Mem_fn_wrap@XP8IntrusiveRefCountSharedOwnership@AdobeXMPCommon_Int@@EBAXXZ$$CBV12@$$$V@1@V?$TAllocator@VRDFXMPDOMSerializerImpl@AdobeXMPCore_Int@@@AdobeXMPCommon_Int@@@Z 0000000180020b14 f i XMPDOMImplementationRegistryImpl.obj
 0001:0001fbb0       ?CreateParser_I@XMPDOMImplementationRegistryImpl@AdobeXMPCore_Int@@$4PPPPPPPM@A@EBA?AV?$shared_ptr@VIXMPDOMParser_I@AdobeXMPCore_Int@@@std@@PEBDW4eMultiThreadingSupport@AdobeXMPCommon@@@Z 0000000180020bb0 f i XMPDOMImplementationRegistryImpl.obj
 0001:0001fbbc       ??_EXMPDOMImplementationRegistryImpl@AdobeXMPCore_Int@@$4PPPPPPPM@A@EAAPEAXI@Z 0000000180020bbc f i XMPDOMImplementationRegistryImpl.obj
 0001:0001fbc8       ?ReleaseSharedOwnership@ErrorNotificationManagerImpl@AdobeXMPCommon_Int@@$4PPPPPPPM@A@EBAXXZ 0000000180020bc8 f i XMPCommon:ErrorNotificationManagerImpl.obj
 0001:0001fbc8       ?RegisterSerializer@IXMPDOMImplementationRegistry_I@AdobeXMPCore_Int@@$2PPPPPPPM@A@EAAXPEBDPEAVIXMPDOMSerializer_v1@AdobeXMPCore@@AEAPEBVIError_v1@AdobeXMPCommon@@@Z 0000000180020bc8 f i XMPDOMImplementationRegistryImpl.obj
 0001:0001fbc8       ?Destroy@AllocatorManagerImpl@AdobeXMPCommon_Int@@$4PPPPPPPM@A@EAAXXZ 0000000180020bc8 f i XMPCommon:AllocatorManagerImpl.obj
 0001:0001fbc8       ?AcquireSharedOwnership@ErrorNotificationManagerImpl@AdobeXMPCommon_Int@@$4PPPPPPPM@A@EBAXXZ 0000000180020bc8 f i XMPCommon:ErrorNotificationManagerImpl.obj
 0001:0001fbc8       ?ReleaseSharedOwnership@ConfigurationManagerImpl@AdobeXMPCommon_Int@@$4PPPPPPPM@A@EBAXXZ 0000000180020bc8 f i XMPCommon:ConfigurationManagerImpl.obj
 0001:0001fbc8       ?RegisterParser@IXMPDOMImplementationRegistry_I@AdobeXMPCore_Int@@$2PPPPPPPM@A@EAAXPEBDPEAVIXMPDOMParser_v1@AdobeXMPCore@@AEAPEBVIError_v1@AdobeXMPCommon@@@Z 0000000180020bc8 f i XMPDOMImplementationRegistryImpl.obj
 0001:0001fbc8       ?AcquireSharedOwnershipForRawPointer@XMPDOMImplementationRegistryImpl@AdobeXMPCore_Int@@$4PPPPPPPM@A@EBAXXZ 0000000180020bc8 f i XMPDOMImplementationRegistryImpl.obj
 0001:0001fbc8       ?AcquireSharedOwnership@XMPDOMImplementationRegistryImpl@AdobeXMPCore_Int@@$4PPPPPPPM@A@EBAXXZ 0000000180020bc8 f i XMPDOMImplementationRegistryImpl.obj
 0001:0001fbc8       ?ReleaseSharedOwnership@DefaultAllocatorImpl@AdobeXMPCommon_Int@@$4PPPPPPPM@A@EBAXXZ 0000000180020bc8 f i XMPCommon:AllocatorManagerImpl.obj
 0001:0001fbc8       ?AcquireSharedOwnership@AllocatorManagerImpl@AdobeXMPCommon_Int@@$4PPPPPPPM@A@EBAXXZ 0000000180020bc8 f i XMPCommon:AllocatorManagerImpl.obj
 0001:0001fbc8       ?ReleaseSharedOwnership@XMPDOMImplementationRegistryImpl@AdobeXMPCore_Int@@$4PPPPPPPM@A@EBAXXZ 0000000180020bc8 f i XMPDOMImplementationRegistryImpl.obj
 0001:0001fbc8       ?ReleaseSharedOwnership@AllocatorManagerImpl@AdobeXMPCommon_Int@@$4PPPPPPPM@A@EBAXXZ 0000000180020bc8 f i XMPCommon:AllocatorManagerImpl.obj
 0001:0001fbc8       ?AcquireSharedOwnership@ConfigurationManagerImpl@AdobeXMPCommon_Int@@$4PPPPPPPM@A@EBAXXZ 0000000180020bc8 f i XMPCommon:ConfigurationManagerImpl.obj
 0001:0001fbc8       ?Destroy@ErrorNotificationManagerImpl@AdobeXMPCommon_Int@@$4PPPPPPPM@A@EAAXXZ 0000000180020bc8 f i XMPCommon:ErrorNotificationManagerImpl.obj
 0001:0001fbc8       ?AcquireSharedOwnershipForRawPointer@ErrorNotificationManagerImpl@AdobeXMPCommon_Int@@$4PPPPPPPM@A@EBAXXZ 0000000180020bc8 f i XMPCommon:ErrorNotificationManagerImpl.obj
 0001:0001fbc8       ?AcquireSharedOwnership@DefaultAllocatorImpl@AdobeXMPCommon_Int@@$4PPPPPPPM@A@EBAXXZ 0000000180020bc8 f i XMPCommon:AllocatorManagerImpl.obj
 0001:0001fbd4       ?CreateParser@IXMPDOMImplementationRegistry_I@AdobeXMPCore_Int@@$2PPPPPPPM@A@EBAPEAVIXMPDOMParser_v1@AdobeXMPCore@@PEBDKAEAPEBVIError_v1@AdobeXMPCommon@@@Z 0000000180020bd4 f i XMPDOMImplementationRegistryImpl.obj
 0001:0001fbe0       ?RegisterSerializer@IXMPDOMImplementationRegistry_I@AdobeXMPCore_Int@@$R2EI@BE@PPPPPPPM@DA@EAAXPEBDPEAVIXMPDOMSerializer_v1@AdobeXMPCore@@AEAPEBVIError_v1@AdobeXMPCommon@@@Z 0000000180020be0 f i XMPDOMImplementationRegistryImpl.obj
 0001:0001fbe0       ?RegisterParser@IXMPDOMImplementationRegistry_I@AdobeXMPCore_Int@@$R2EI@BE@PPPPPPPM@DA@EAAXPEBDPEAVIXMPDOMParser_v1@AdobeXMPCore@@AEAPEBVIError_v1@AdobeXMPCommon@@@Z 0000000180020be0 f i XMPDOMImplementationRegistryImpl.obj
 0001:0001fbfc       ?RegisterParser_I@XMPDOMImplementationRegistryImpl@AdobeXMPCore_Int@@$4PPPPPPPM@A@EAAXPEBDAEBV?$shared_ptr@VIXMPDOMParser_I@AdobeXMPCore_Int@@@std@@@Z 0000000180020bfc f i XMPDOMImplementationRegistryImpl.obj
 0001:0001fbfc       ?RegisterSerializer_I@XMPDOMImplementationRegistryImpl@AdobeXMPCore_Int@@$4PPPPPPPM@A@EAAXPEBDAEBV?$shared_ptr@VIXMPDOMSerializer_I@AdobeXMPCore_Int@@@std@@@Z 0000000180020bfc f i XMPDOMImplementationRegistryImpl.obj
 0001:0001fc08       ?CreateSerializer@IXMPDOMImplementationRegistry_I@AdobeXMPCore_Int@@$R2EI@BE@PPPPPPPM@DA@EBAPEAVIXMPDOMSerializer_v1@AdobeXMPCore@@PEBDKAEAPEBVIError_v1@AdobeXMPCommon@@@Z 0000000180020c08 f i XMPDOMImplementationRegistryImpl.obj
 0001:0001fc24       ??_EXMPDOMImplementationRegistryImpl@AdobeXMPCore_Int@@WFA@EAAPEAXI@Z 0000000180020c24 f i XMPDOMImplementationRegistryImpl.obj
 0001:0001fc30       ?CreateParser@IXMPDOMImplementationRegistry_I@AdobeXMPCore_Int@@$R2EI@BE@PPPPPPPM@DA@EBAPEAVIXMPDOMParser_v1@AdobeXMPCore@@PEBDKAEAPEBVIError_v1@AdobeXMPCommon@@@Z 0000000180020c30 f i XMPDOMImplementationRegistryImpl.obj
 0001:0001fc4c       ?CreateSerializer_I@XMPDOMImplementationRegistryImpl@AdobeXMPCore_Int@@$4PPPPPPPM@A@EBA?AV?$shared_ptr@VIXMPDOMSerializer_I@AdobeXMPCore_Int@@@std@@PEBDW4eMultiThreadingSupport@AdobeXMPCommon@@@Z 0000000180020c4c f i XMPDOMImplementationRegistryImpl.obj
 0001:0001fc58       ?CreateSerializer@IXMPDOMImplementationRegistry_I@AdobeXMPCore_Int@@$2PPPPPPPM@A@EBAPEAVIXMPDOMSerializer_v1@AdobeXMPCore@@PEBDKAEAPEBVIError_v1@AdobeXMPCommon@@@Z 0000000180020c58 f i XMPDOMImplementationRegistryImpl.obj
 0001:0001fc64       ??0XMP_Node@@QEAA@PEAV0@PEBDK@Z 0000000180020c64 f i XMPIterator.obj
 0001:0001fd10       ??1XMP_Node@@UEAA@XZ       0000000180020d10 f i XMPIterator.obj
 0001:0001fe48       ??_GXMP_Node@@UEAAPEAXI@Z  0000000180020e48 f i XMPIterator.obj
 0001:0001fe48       ??_EXMP_Node@@UEAAPEAXI@Z  0000000180020e48 f i * CIL library *:* CIL module *
 0001:0001fe80       ??1IterNode@@QEAA@XZ       0000000180020e80 f i XMPIterator.obj
 0001:0001ff48       ??_EXMPIterator@@UEAAPEAXI@Z 0000000180020f48 f i * CIL library *:* CIL module *
 0001:0001ff48       ??_GXMPIterator@@UEAAPEAXI@Z 0000000180020f48 f i XMPIterator.obj
 0001:0001ff80       ??1IterInfo@@QEAA@XZ       0000000180020f80 f i XMPIterator.obj
 0001:00020740       ??0XMPIterator@@QEAA@AEBVXMPMeta@@PEBD1K@Z 0000000180021740 f   XMPIterator.obj
 0001:00020d00       ??0XMPIterator@@QEAA@PEBD0K@Z 0000000180021d00 f   XMPIterator.obj
 0001:00020e10       ??1XMPIterator@@UEAA@XZ    0000000180021e10 f   XMPIterator.obj
 0001:00020ea0       ??1?$vector@PEAVXML_Node@@V?$allocator@PEAVXML_Node@@@std@@@std@@QEAA@XZ 0000000180021ea0 f i ExpatAdapter.obj
 0001:00020ea0       ??1?$vector@PEAVXMP_Node@@V?$allocator@PEAVXMP_Node@@@std@@@std@@QEAA@XZ 0000000180021ea0 f i XMPIterator.obj
 0001:00020ecc       ?push_back@?$vector@UIterNode@@V?$allocator@UIterNode@@@std@@@std@@QEAAX$$QEAUIterNode@@@Z 0000000180021ecc f i XMPIterator.obj
 0001:00020f4c       ??1?$vector@UIterNode@@V?$allocator@UIterNode@@@std@@@std@@QEAA@XZ 0000000180021f4c f i XMPIterator.obj
 0001:00020fac       ?push_back@?$vector@U?$pair@V?$_Vector_iterator@V?$_Vector_val@U?$_Simple_types@UIterNode@@@std@@@std@@@std@@V12@@std@@V?$allocator@U?$pair@V?$_Vector_iterator@V?$_Vector_val@U?$_Simple_types@UIterNode@@@std@@@std@@@std@@V12@@std@@@2@@std@@QEAAX$$QEAU?$pair@V?$_Vector_iterator@V?$_Vector_val@U?$_Simple_types@UIterNode@@@std@@@std@@@std@@V12@@2@@Z 0000000180021fac f i XMPIterator.obj
 0001:000210e8       ?_Reserve@?$vector@UIterNode@@V?$allocator@UIterNode@@@std@@@std@@IEAAX_K@Z 00000001800220e8 f i XMPIterator.obj
 0001:0002119c       ?_Reallocate@?$vector@UIterNode@@V?$allocator@UIterNode@@@std@@@std@@IEAAX_K@Z 000000018002219c f i XMPIterator.obj
 0001:00021290       ?_Reallocate@?$vector@U?$pair@V?$_Vector_iterator@V?$_Vector_val@U?$_Simple_types@UIterNode@@@std@@@std@@@std@@V12@@std@@V?$allocator@U?$pair@V?$_Vector_iterator@V?$_Vector_val@U?$_Simple_types@UIterNode@@@std@@@std@@@std@@V12@@std@@@2@@std@@IEAAX_K@Z 0000000180022290 f i XMPIterator.obj
 0001:00021330       ??$construct@UIterNode@@U1@@?$_Wrap_alloc@V?$allocator@UIterNode@@@std@@@std@@QEAAXPEAUIterNode@@$$QEAU2@@Z 0000000180022330 f i XMPIterator.obj
 0001:000213bc       ??0IterNode@@QEAA@AEBU0@@Z 00000001800223bc f i XMPIterator.obj
 0001:0002143c       ??0?$vector@UIterNode@@V?$allocator@UIterNode@@@std@@@std@@QEAA@AEBV01@@Z 000000018002243c f i XMPIterator.obj
 0001:00021514       ??$_Uninit_move@PEAUIterNode@@PEAU1@V?$allocator@UIterNode@@@std@@U1@@std@@YAPEAUIterNode@@PEAU1@00AEAU?$_Wrap_alloc@V?$allocator@UIterNode@@@std@@@0@0U_Nonscalar_ptr_iterator_tag@0@@Z 0000000180022514 f i XMPIterator.obj
 0001:00021574       ??$_Uninit_move@PEAU?$pair@V?$_Vector_iterator@V?$_Vector_val@U?$_Simple_types@UIterNode@@@std@@@std@@@std@@V12@@std@@PEAU12@V?$allocator@U?$pair@V?$_Vector_iterator@V?$_Vector_val@U?$_Simple_types@UIterNode@@@std@@@std@@@std@@V12@@std@@@2@U12@@std@@YAPEAU?$pair@V?$_Vector_iterator@V?$_Vector_val@U?$_Simple_types@UIterNode@@@std@@@std@@@std@@V12@@0@PEAU10@00AEAU?$_Wrap_alloc@V?$allocator@U?$pair@V?$_Vector_iterator@V?$_Vector_val@U?$_Simple_types@UIterNode@@@std@@@std@@@std@@V12@@std@@@std@@@0@0U_Nonscalar_ptr_iterator_tag@0@@Z 0000000180022574 f i XMPIterator.obj
 0001:0002159c       ??$_Uninit_copy@PEBUIterNode@@PEAU1@V?$allocator@UIterNode@@@std@@@std@@YAPEAUIterNode@@PEBU1@0PEAU1@AEAU?$_Wrap_alloc@V?$allocator@UIterNode@@@std@@@0@U_Nonscalar_ptr_iterator_tag@0@@Z 000000018002259c f i XMPIterator.obj
 0001:000215fc       ?SetValue@XMP_Node@@QEAAXPEBD@Z 00000001800225fc f   XMPMeta-GetSet.obj
 0001:00021fc0       ?GetProperty@XMPMeta@@UEBA_NPEBD0PEAPEBDPEAK2@Z 0000000180022fc0 f   XMPMeta-GetSet.obj
 0001:00022070       ?GetArrayItem@XMPMeta@@UEBA_NPEBD0JPEAPEBDPEAK2@Z 0000000180023070 f   XMPMeta-GetSet.obj
 0001:00022178       ?GetStructField@XMPMeta@@UEBA_NPEBD000PEAPEBDPEAK2@Z 0000000180023178 f   XMPMeta-GetSet.obj
 0001:00022250       ?GetQualifier@XMPMeta@@UEBA_NPEBD000PEAPEBDPEAK2@Z 0000000180023250 f   XMPMeta-GetSet.obj
 0001:00022328       ?SetProperty@XMPMeta@@UEAAXPEBD00K@Z 0000000180023328 f   XMPMeta-GetSet.obj
 0001:00022410       ?SetArrayItem@XMPMeta@@UEAAXPEBD0J0K@Z 0000000180023410 f   XMPMeta-GetSet.obj
 0001:000224e0       ?AppendArrayItem@XMPMeta@@UEAAXPEBD0K0K@Z 00000001800234e0 f   XMPMeta-GetSet.obj
 0001:000226b0       ?SetStructField@XMPMeta@@QEAAXPEBD0000K@Z 00000001800236b0 f   XMPMeta-GetSet.obj
 0001:00022770       ?SetQualifier@XMPMeta@@UEAAXPEBD0000K@Z 0000000180023770 f   XMPMeta-GetSet.obj
 0001:000228c4       ?DeleteProperty@XMPMeta@@UEAAXPEBD0@Z 00000001800238c4 f   XMPMeta-GetSet.obj
 0001:000229f0       ?DeleteArrayItem@XMPMeta@@UEAAXPEBD0J@Z 00000001800239f0 f   XMPMeta-GetSet.obj
 0001:00022a8c       ?DeleteStructField@XMPMeta@@UEAAXPEBD000@Z 0000000180023a8c f   XMPMeta-GetSet.obj
 0001:00022b34       ?DeleteQualifier@XMPMeta@@UEAAXPEBD000@Z 0000000180023b34 f   XMPMeta-GetSet.obj
 0001:00022bdc       ?DoesPropertyExist@XMPMeta@@UEBA_NPEBD0@Z 0000000180023bdc f   XMPMeta-GetSet.obj
 0001:00022c48       ?GetLocalizedText@XMPMeta@@UEBA_NPEBD000PEAPEBDPEAK122@Z 0000000180023c48 f   XMPMeta-GetSet.obj
 0001:00022e48       ?SetLocalizedText@XMPMeta@@UEAAXPEBD0000K@Z 0000000180023e48 f   XMPMeta-GetSet.obj
 0001:000232f8       ?DeleteLocalizedText@XMPMeta@@UEAAXPEBD000@Z 00000001800242f8 f   XMPMeta-GetSet.obj
 0001:000236b0       ?GetProperty_Int@XMPMeta@@QEBA_NPEBD0PEAJPEAK@Z 00000001800246b0 f   XMPMeta-GetSet.obj
 0001:00023740       ?GetProperty_Int64@XMPMeta@@QEBA_NPEBD0PEA_JPEAK@Z 0000000180024740 f   XMPMeta-GetSet.obj
 0001:00023844       ?GetProperty_Float@XMPMeta@@QEBA_NPEBD0PEANPEAK@Z 0000000180024844 f   XMPMeta-GetSet.obj
 0001:00023948       ?SetProperty_Bool@XMPMeta@@QEAAXPEBD0_NK@Z 0000000180024948 f   XMPMeta-GetSet.obj
 0001:00023a1c       ?SetProperty_Int@XMPMeta@@QEAAXPEBD0JK@Z 0000000180024a1c f   XMPMeta-GetSet.obj
 0001:00023ac8       ?SetProperty_Date@XMPMeta@@QEAAXPEBD0AEBUXMP_DateTime@@K@Z 0000000180024ac8 f   XMPMeta-GetSet.obj
 0001:00023cf4       ?GetBulkMarkers@XMPUtils@@SA_NAEBVXMPMeta@@PEBD1PEAXKP6APEAX2J@ZP6APEAXPEAUXMPDMO_MarkerInfo@@J@Z@Z 0000000180024cf4 f   XMPMeta-GetSet.obj
 0001:000241ac       ?SetBulkMarkers@XMPUtils@@SAXPEAVXMPMeta@@PEBD1JPEBXKP6AXPEBUXMPDMO_MarkerInfo@@PEAPEBUXMPDMO_CuePointInfo@@PEAJ@Z@Z 00000001800251ac f   XMPMeta-GetSet.obj
 0001:00024648       ?push_back@?$vector@PEAVXMP_Node@@V?$allocator@PEAVXMP_Node@@@std@@@std@@QEAAXAEBQEAVXMP_Node@@@Z 0000000180025648 f i XMPMeta-GetSet.obj
 0001:00024794       ?_Swap_bx@?$basic_string@DU?$char_traits@D@std@@V?$allocator@D@2@@std@@QEAAXAEAV12@@Z 0000000180025794 f i XMPMeta-GetSet.obj
 0001:0002484c       ?_Reallocate@?$vector@PEAVXML_Node@@V?$allocator@PEAVXML_Node@@@std@@@std@@IEAAX_K@Z 000000018002584c f i ExpatAdapter.obj
 0001:0002484c       ?_Reallocate@?$vector@PEAVXMP_Node@@V?$allocator@PEAVXMP_Node@@@std@@@std@@IEAAX_K@Z 000000018002584c f i XMPMeta-GetSet.obj
 0001:000248f0       ?_Insert_n@?$vector@PEAVXMP_Node@@V?$allocator@PEAVXMP_Node@@@std@@@std@@IEAA?AV?$_Vector_iterator@V?$_Vector_val@U?$_Simple_types@PEAVXMP_Node@@@std@@@std@@@2@V?$_Vector_const_iterator@V?$_Vector_val@U?$_Simple_types@PEAVXMP_Node@@@std@@@std@@@2@_KAEBQEAVXMP_Node@@@Z 00000001800258f0 f i XMPMeta-GetSet.obj
 0001:00024b64       ?NotifyClient@GenericErrorCallback@@QEBAXEAEAVXMP_Error@@PEBD@Z 0000000180025b64 f i XMPMeta-Parse.obj
 0001:00024c28       ??0XMP_Node@@QEAA@PEAV0@PEBD1K@Z 0000000180025c28 f i XMPMeta-Parse.obj
 0001:00024d0c       ?ClearNode@XMP_Node@@QEAAXXZ 0000000180025d0c f i XMPMeta-Parse.obj
 0001:00024efc       ?NormalizeDCArrays@@YAXPEAVXMP_Node@@@Z 0000000180025efc f   XMPMeta-Parse.obj
 0001:00025450       ?MoveExplicitAliases@@YAXPEAVXMP_Node@@KAEAVErrorCallbackInfo@XMPMeta@@@Z 0000000180026450 f   XMPMeta-Parse.obj
 0001:00025ca4       ?TouchUpDataModel@@YAXPEAVXMPMeta@@AEAVErrorCallbackInfo@1@@Z 0000000180026ca4 f   XMPMeta-Parse.obj
 0001:000264d4       ?ProcessXMLBuffer@XMPMeta@@AEAA_NPEBDK_N@Z 00000001800274d4 f   XMPMeta-Parse.obj
 0001:00026738       ?ProcessXMLTree@XMPMeta@@AEAAXK@Z 0000000180027738 f   XMPMeta-Parse.obj
 0001:00026890       ?ParseFromBuffer@XMPMeta@@UEAAXPEBDKK@Z 0000000180027890 f   XMPMeta-Parse.obj
 0001:000269b8       ?insert@?$basic_string@DU?$char_traits@D@std@@V?$allocator@D@2@@std@@QEAAAEAV12@_KPEBD@Z 00000001800279b8 f i XMPMeta-Parse.obj
 0001:00026b3c       ?find@?$_Tree@V?$_Tmap_traits@V?$basic_string@DU?$char_traits@D@std@@V?$allocator@D@2@@std@@V?$vector@VXPathStepInfo@@V?$allocator@VXPathStepInfo@@@std@@@2@U?$less@V?$basic_string@DU?$char_traits@D@std@@V?$allocator@D@2@@std@@@2@V?$allocator@U?$pair@$$CBV?$basic_string@DU?$char_traits@D@std@@V?$allocator@D@2@@std@@V?$vector@VXPathStepInfo@@V?$allocator@VXPathStepInfo@@@std@@@2@@std@@@2@$0A@@std@@@std@@QEAA?AV?$_Tree_iterator@V?$_Tree_val@U?$_Tree_simple_types@U?$pair@$$CBV?$basic_string@DU?$char_traits@D@std@@V?$allocator@D@2@@std@@V?$vector@VXPathStepInfo@@V?$allocator@VXPathStepInfo@@@std@@@2@@std@@@std@@@std@@@2@AEBV?$basic_string@DU?$char_traits@D@std@@V?$allocator@D@2@@2@@Z 0000000180027b3c f i XMPMeta-Parse.obj
 0001:00026bd0       ?insert@?$basic_string@DU?$char_traits@D@std@@V?$allocator@D@2@@std@@QEAAAEAV12@_KAEBV12@00@Z 0000000180027bd0 f i XMPMeta-Parse.obj
 0001:00026d64       ??$?MDU?$char_traits@D@std@@V?$allocator@D@1@@std@@YA_NAEBV?$basic_string@DU?$char_traits@D@std@@V?$allocator@D@2@@0@0@Z 0000000180027d64 f i XMPMeta-Parse.obj
 0001:000299a8       ?SerializeToBuffer@XMPMeta@@UEBAXPEAV?$basic_string@DU?$char_traits@D@std@@V?$allocator@D@2@@std@@KKPEBD1J@Z 000000018002a9a8 f   XMPMeta-Serialize.obj
 0001:0002a43c       ?substr@?$basic_string@DU?$char_traits@D@std@@V?$allocator@D@2@@std@@QEBA?AV12@_K0@Z 000000018002b43c f i XMPMeta-Serialize.obj
 0001:0002a470       ??$?HDU?$char_traits@D@std@@V?$allocator@D@1@@std@@YA?AV?$basic_string@DU?$char_traits@D@std@@V?$allocator@D@2@@0@AEBV10@PEBD@Z 000000018002b470 f i XMPMeta-Serialize.obj
 0001:0002a54c       ??_GGenericErrorCallback@@UEAAPEAXI@Z 000000018002b54c f i XMPMeta.obj
 0001:0002a54c       ??_GErrorCallbackInfo@XMPMeta@@UEAAPEAXI@Z 000000018002b54c f i XMPMeta.obj
 0001:0002a54c       ??_EErrorCallbackInfo@XMPMeta@@UEAAPEAXI@Z 000000018002b54c f i * CIL library *:* CIL module *
 0001:0002a54c       ??_EGenericErrorCallback@@UEAAPEAXI@Z 000000018002b54c f i * CIL library *:* CIL module *
 0001:0002a574       ??1XMP_NamespaceTable@@UEAA@XZ 000000018002b574 f i XMPMeta.obj
 0001:0002a614       ??_EXMP_NamespaceTable@@UEAAPEAXI@Z 000000018002b614 f i * CIL library *:* CIL module *
 0001:0002a614       ??_GXMP_NamespaceTable@@UEAAPEAXI@Z 000000018002b614 f i XMPMeta.obj
 0001:0002a64c       ??1?$map@V?$basic_string@DU?$char_traits@D@std@@V?$allocator@D@2@@std@@V12@U?$less@V?$basic_string@DU?$char_traits@D@std@@V?$allocator@D@2@@std@@@2@V?$allocator@U?$pair@$$CBV?$basic_string@DU?$char_traits@D@std@@V?$allocator@D@2@@std@@V12@@std@@@2@@std@@QEAA@XZ 000000018002b64c f i XMPMeta.obj
 0001:0002a690       ??_GXMPMeta@@UEAAPEAXI@Z   000000018002b690 f i XMPMeta.obj
 0001:0002a690       ??_EXMPMeta@@UEAAPEAXI@Z   000000018002b690 f i * CIL library *:* CIL module *
 0001:0002a6c8       ??1IClientAllocator_v1@AdobeXMPCommon@@MEAA@XZ 000000018002b6c8 f i XMPMeta.obj
 0001:0002a6e8       ??1IClientAllocator_I@AdobeXMPCommon_Int@@MEAA@XZ 000000018002b6e8 f i XMPMeta.obj
 0001:0002a728       ?Allocate@InternalClientAllocator@@UEAAPEAX_K@Z 000000018002b728 f i XMPMeta.obj
 0001:0002a734       ?Deallocate@InternalClientAllocator@@UEAAXPEAX@Z 000000018002b734 f i XMPMeta.obj
 0001:0002a740       ?DumpNodeOptions@@YAXKP6AJPEAXPEBDK@Z0@Z 000000018002b740 f   XMPMeta.obj
 0001:0002b720       ??1?$pair@$$CBV?$basic_string@DU?$char_traits@D@std@@V?$allocator@D@2@@std@@V?$vector@VXPathStepInfo@@V?$allocator@VXPathStepInfo@@@std@@@2@@std@@QEAA@XZ 000000018002c720 f i XMPMeta.obj
 0001:0002bc2c       ??0XMPMeta@@QEAA@XZ        000000018002cc2c f   XMPMeta.obj
 0001:0002bd00       ??1XMPMeta@@UEAA@XZ        000000018002cd00 f   XMPMeta.obj
 0001:0002bd58       ?Initialize@XMPMeta@@SA_NP6APEAX_K@ZP6AXPEAX@Z@Z 000000018002cd58 f   XMPMeta.obj
 0001:0002c940       ??0InternalClientAllocator@@QEAA@XZ 000000018002d940 f i XMPMeta.obj
 0001:0002caa0       ??_GInternalClientAllocator@@UEAAPEAXI@Z 000000018002daa0 f i XMPMeta.obj
 0001:0002caa0       ??_EInternalClientAllocator@@UEAAPEAXI@Z 000000018002daa0 f i * CIL library *:* CIL module *
 0001:0002cb8c       ?Terminate@XMPMeta@@SAXXZ  000000018002db8c f   XMPMeta.obj
 0001:0002cdd0       XMP_GetAssertNotify        000000018002ddd0 f   XMPMeta.obj
 0001:0002cde8       ?RegisterNamespace@XMPMeta@@SA_NPEBD0PEAPEBDPEAK@Z 000000018002dde8 f   XMPMeta.obj
 0001:0002cf7c       ?DumpObject@XMPMeta@@UEBAXP6AJPEAXPEBDK@Z0@Z 000000018002df7c f   XMPMeta.obj
 0001:0002d328       ?CountArrayItems@XMPMeta@@UEBAJPEBD0@Z 000000018002e328 f   XMPMeta.obj
 0001:0002d3fc       ?GetObjectName@XMPMeta@@UEBAXPEAPEBDPEAK@Z 000000018002e3fc f   XMPMeta.obj
 0001:0002d41c       ?SetObjectName@XMPMeta@@UEAAXPEBD@Z 000000018002e41c f   XMPMeta.obj
 0001:0002d4a0       ?Clone@XMPMeta@@UEBAXPEAV1@K@Z 000000018002e4a0 f   XMPMeta.obj
 0001:0002d600       ?GetLocalURI@XMP_Node@@QEBAXPEAPEBDPEAK@Z 000000018002e600 f   XMPMeta.obj
 0001:0002d710       ?CanNotify@ErrorCallbackInfo@XMPMeta@@UEBA_NXZ 000000018002e710 f   XMPMeta.obj
 0001:0002d71c       ?ClientCallbackWrapper@ErrorCallbackInfo@XMPMeta@@UEBA_NPEBDEJ0@Z 000000018002e71c f   XMPMeta.obj
 0001:0002d744       ?push_back@?$vector@VXPathStepInfo@@V?$allocator@VXPathStepInfo@@@std@@@std@@QEAAX$$QEAVXPathStepInfo@@@Z 000000018002e744 f i XMPMeta.obj
 0001:0002d848       ??4?$vector@VXPathStepInfo@@V?$allocator@VXPathStepInfo@@@std@@@std@@QEAAAEAV01@AEBV01@@Z 000000018002e848 f i XMPMeta.obj
 0001:0002db04       ??1?$_Tree@V?$_Tmap_traits@V?$basic_string@DU?$char_traits@D@std@@V?$allocator@D@2@@std@@V?$vector@VXPathStepInfo@@V?$allocator@VXPathStepInfo@@@std@@@2@U?$less@V?$basic_string@DU?$char_traits@D@std@@V?$allocator@D@2@@std@@@2@V?$allocator@U?$pair@$$CBV?$basic_string@DU?$char_traits@D@std@@V?$allocator@D@2@@std@@V?$vector@VXPathStepInfo@@V?$allocator@VXPathStepInfo@@@std@@@2@@std@@@2@$0A@@std@@@std@@QEAA@XZ 000000018002eb04 f i XMPMeta.obj
 0001:0002dbb4       ?_Reserve@?$vector@VXPathStepInfo@@V?$allocator@VXPathStepInfo@@@std@@@std@@IEAAX_K@Z 000000018002ebb4 f i XMPMeta.obj
 0001:0002dc68       ?_Reallocate@?$vector@VXPathStepInfo@@V?$allocator@VXPathStepInfo@@@std@@@std@@IEAAX_K@Z 000000018002ec68 f i XMPMeta.obj
 0001:0002dd80       ?_Erase@?$_Tree@V?$_Tmap_traits@V?$basic_string@DU?$char_traits@D@std@@V?$allocator@D@2@@std@@V12@U?$less@V?$basic_string@DU?$char_traits@D@std@@V?$allocator@D@2@@std@@@2@V?$allocator@U?$pair@$$CBV?$basic_string@DU?$char_traits@D@std@@V?$allocator@D@2@@std@@V12@@std@@@2@$0A@@std@@@std@@IEAAXPEAU?$_Tree_node@U?$pair@$$CBV?$basic_string@DU?$char_traits@D@std@@V?$allocator@D@2@@std@@V12@@std@@PEAX@2@@Z 000000018002ed80 f i XMPMeta.obj
 0001:0002de24       ?_Erase@?$_Tree@V?$_Tmap_traits@V?$basic_string@DU?$char_traits@D@std@@V?$allocator@D@2@@std@@V?$vector@VXPathStepInfo@@V?$allocator@VXPathStepInfo@@@std@@@2@U?$less@V?$basic_string@DU?$char_traits@D@std@@V?$allocator@D@2@@std@@@2@V?$allocator@U?$pair@$$CBV?$basic_string@DU?$char_traits@D@std@@V?$allocator@D@2@@std@@V?$vector@VXPathStepInfo@@V?$allocator@VXPathStepInfo@@@std@@@2@@std@@@2@$0A@@std@@@std@@IEAAXPEAU?$_Tree_node@U?$pair@$$CBV?$basic_string@DU?$char_traits@D@std@@V?$allocator@D@2@@std@@V?$vector@VXPathStepInfo@@V?$allocator@VXPathStepInfo@@@std@@@2@@std@@PEAX@2@@Z 000000018002ee24 f i XMPMeta.obj
 0001:0002dea8       ?_Buyheadnode@?$_Tree_alloc@$0A@U?$_Tree_base_types@U?$pair@$$CBV?$basic_string@DU?$char_traits@D@std@@V?$allocator@D@2@@std@@V12@@std@@V?$allocator@U?$pair@$$CBV?$basic_string@DU?$char_traits@D@std@@V?$allocator@D@2@@std@@V12@@std@@@2@@std@@@std@@QEAAPEAU?$_Tree_node@U?$pair@$$CBV?$basic_string@DU?$char_traits@D@std@@V?$allocator@D@2@@std@@V12@@std@@PEAX@2@XZ 000000018002eea8 f i XMPMeta.obj
 0001:0002dee8       ?_Buyheadnode@?$_Tree_alloc@$0A@U?$_Tree_base_types@U?$pair@$$CBV?$basic_string@DU?$char_traits@D@std@@V?$allocator@D@2@@std@@V?$vector@VXPathStepInfo@@V?$allocator@VXPathStepInfo@@@std@@@2@@std@@V?$allocator@U?$pair@$$CBV?$basic_string@DU?$char_traits@D@std@@V?$allocator@D@2@@std@@V?$vector@VXPathStepInfo@@V?$allocator@VXPathStepInfo@@@std@@@2@@std@@@2@@std@@@std@@QEAAPEAU?$_Tree_node@U?$pair@$$CBV?$basic_string@DU?$char_traits@D@std@@V?$allocator@D@2@@std@@V?$vector@VXPathStepInfo@@V?$allocator@VXPathStepInfo@@@std@@@2@@std@@PEAX@2@XZ 000000018002eee8 f i XMPMeta.obj
 0001:0002df28       ??$MakeUncheckedSharedPointer@VInternalClientAllocator@@@AdobeXMPCommon_Int@@YA?AV?$shared_ptr@VInternalClientAllocator@@@std@@PEAVInternalClientAllocator@@@Z 000000018002ef28 f i XMPMeta.obj
 0001:0002dfa4       ??$_Insert_nohint@U?$pair@$$CBV?$basic_string@DU?$char_traits@D@std@@V?$allocator@D@2@@std@@V?$vector@VXPathStepInfo@@V?$allocator@VXPathStepInfo@@@std@@@2@@std@@U_Nil@2@@?$_Tree@V?$_Tmap_traits@V?$basic_string@DU?$char_traits@D@std@@V?$allocator@D@2@@std@@V?$vector@VXPathStepInfo@@V?$allocator@VXPathStepInfo@@@std@@@2@U?$less@V?$basic_string@DU?$char_traits@D@std@@V?$allocator@D@2@@std@@@2@V?$allocator@U?$pair@$$CBV?$basic_string@DU?$char_traits@D@std@@V?$allocator@D@2@@std@@V?$vector@VXPathStepInfo@@V?$allocator@VXPathStepInfo@@@std@@@2@@std@@@2@$0A@@std@@@std@@IEAA?AU?$pair@V?$_Tree_iterator@V?$_Tree_val@U?$_Tree_simple_types@U?$pair@$$CBV?$basic_string@DU?$char_traits@D@std@@V?$allocator@D@2@@std@@V?$vector@VXPathStepInfo@@V?$allocator@VXPathStepInfo@@@std@@@2@@std@@@std@@@std@@@std@@_N@1@_N$$QEAU?$pair@$$CBV?$basic_string@DU?$char_traits@D@std@@V?$allocator@D@2@@std@@V?$vector@VXPathStepInfo@@V?$allocator@VXPathStepInfo@@@std@@@2@@1@U_Nil@1@@Z 000000018002efa4 f i XMPMeta.obj
 0001:0002e0f4       ??0?$vector@VXPathStepInfo@@V?$allocator@VXPathStepInfo@@@std@@@std@@QEAA@AEBV01@@Z 000000018002f0f4 f i XMPMeta.obj
 0001:0002e1d0       ??$_Sort@PEAPEAVXMP_Node@@_JP6A_NPEAV1@0@Z@std@@YAXPEAPEAVXMP_Node@@0_JP6A_NPEAV1@2@Z@Z 000000018002f1d0 f i XMPMeta.obj
 0001:0002e388       ??$_Insert_at@U?$pair@$$CBV?$basic_string@DU?$char_traits@D@std@@V?$allocator@D@2@@std@@V?$vector@VXPathStepInfo@@V?$allocator@VXPathStepInfo@@@std@@@2@@std@@U_Nil@2@@?$_Tree@V?$_Tmap_traits@V?$basic_string@DU?$char_traits@D@std@@V?$allocator@D@2@@std@@V?$vector@VXPathStepInfo@@V?$allocator@VXPathStepInfo@@@std@@@2@U?$less@V?$basic_string@DU?$char_traits@D@std@@V?$allocator@D@2@@std@@@2@V?$allocator@U?$pair@$$CBV?$basic_string@DU?$char_traits@D@std@@V?$allocator@D@2@@std@@V?$vector@VXPathStepInfo@@V?$allocator@VXPathStepInfo@@@std@@@2@@std@@@2@$0A@@std@@@std@@IEAA?AV?$_Tree_iterator@V?$_Tree_val@U?$_Tree_simple_types@U?$pair@$$CBV?$basic_string@DU?$char_traits@D@std@@V?$allocator@D@2@@std@@V?$vector@VXPathStepInfo@@V?$allocator@VXPathStepInfo@@@std@@@2@@std@@@std@@@std@@@1@_NPEAU?$_Tree_node@U?$pair@$$CBV?$basic_string@DU?$char_traits@D@std@@V?$allocator@D@2@@std@@V?$vector@VXPathStepInfo@@V?$allocator@VXPathStepInfo@@@std@@@2@@std@@PEAX@1@$$QEAU?$pair@$$CBV?$basic_string@DU?$char_traits@D@std@@V?$allocator@D@2@@std@@V?$vector@VXPathStepInfo@@V?$allocator@VXPathStepInfo@@@std@@@2@@1@U_Nil@1@@Z 000000018002f388 f i XMPMeta.obj
 0001:0002e618       ??1?$_Temp_iterator@PEAVXMP_Node@@@std@@QEAA@XZ 000000018002f618 f i XMPMeta.obj
 0001:0002e630       ??$_Unguarded_partition@PEAPEAVXMP_Node@@P6A_NPEAV1@0@Z@std@@YA?AU?$pair@PEAPEAVXMP_Node@@PEAPEAV1@@0@PEAPEAVXMP_Node@@0P6A_NPEAV2@1@Z@Z 000000018002f630 f i XMPMeta.obj
 0001:0002e87c       ??$_Insertion_sort@PEAPEAVXMP_Node@@P6A_NPEAV1@0@Z@std@@YAXPEAPEAVXMP_Node@@0P6A_NPEAV1@1@Z@Z 000000018002f87c f i XMPMeta.obj
 0001:0002e938       ??$_Stable_sort@PEAPEAVXMP_Node@@_JPEAV1@P6A_NPEAV1@0@Z@std@@YAXPEAPEAVXMP_Node@@0_JAEAV?$_Temp_iterator@PEAVXMP_Node@@@0@P6A_NPEAV1@3@Z@Z 000000018002f938 f i XMPMeta.obj
 0001:0002ea2c       ??$_Resetp@VInternalClientAllocator@@V?$_Mem_fn_wrap@XP8IntrusiveRefCountSharedOwnership@AdobeXMPCommon_Int@@EBAXXZ$$CBV12@$$$V@std@@V?$TAllocator@VInternalClientAllocator@@@AdobeXMPCommon_Int@@@?$shared_ptr@VInternalClientAllocator@@@std@@AEAAXPEAVInternalClientAllocator@@V?$_Mem_fn_wrap@XP8IntrusiveRefCountSharedOwnership@AdobeXMPCommon_Int@@EBAXXZ$$CBV12@$$$V@1@V?$TAllocator@VInternalClientAllocator@@@AdobeXMPCommon_Int@@@Z 000000018002fa2c f i XMPMeta.obj
 0001:0002eac8       ?_Maxlen@?$_Temp_iterator@PEAVXMP_Node@@@std@@QEAA_JXZ 000000018002fac8 f i XMPMeta.obj
 0001:0002eb68       ?_Destroy@?$_Ref_count_del_alloc@VInternalClientAllocator@@V?$_Mem_fn_wrap@XP8IntrusiveRefCountSharedOwnership@AdobeXMPCommon_Int@@EBAXXZ$$CBV12@$$$V@std@@V?$TAllocator@VInternalClientAllocator@@@AdobeXMPCommon_Int@@@std@@EEAAXXZ 000000018002fb68 f i XMPMeta.obj
 0001:0002ebb0       ??$_Buffered_merge_sort@PEAPEAVXMP_Node@@_JPEAV1@P6A_NPEAV1@0@Z@std@@YAXPEAPEAVXMP_Node@@0_JAEAV?$_Temp_iterator@PEAVXMP_Node@@@0@P6A_NPEAV1@3@Z@Z 000000018002fbb0 f i XMPMeta.obj
 0001:0002edf8       ??$_Buffered_merge@PEAPEAVXMP_Node@@_JPEAV1@P6A_NPEAV1@0@Z@std@@YAXPEAPEAVXMP_Node@@00_J1AEAV?$_Temp_iterator@PEAVXMP_Node@@@0@P6A_NPEAV1@3@Z@Z 000000018002fdf8 f i XMPMeta.obj
 0001:0002f1e4       ??$_Uninit_copy@PEAVXPathStepInfo@@PEAV1@V?$allocator@VXPathStepInfo@@@std@@@std@@YAPEAVXPathStepInfo@@PEAV1@00AEAU?$_Wrap_alloc@V?$allocator@VXPathStepInfo@@@std@@@0@U_Nonscalar_ptr_iterator_tag@0@@Z 00000001800301e4 f i XMPMeta.obj
 0001:0002f1e4       ??$_Uninit_copy@PEBVXPathStepInfo@@PEAV1@V?$allocator@VXPathStepInfo@@@std@@@std@@YAPEAVXPathStepInfo@@PEBV1@0PEAV1@AEAU?$_Wrap_alloc@V?$allocator@VXPathStepInfo@@@std@@@0@U_Nonscalar_ptr_iterator_tag@0@@Z 00000001800301e4 f i XMPMeta.obj
 0001:0002f1e4       ??$_Uninit_move@PEAVXPathStepInfo@@PEAV1@V?$allocator@VXPathStepInfo@@@std@@V1@@std@@YAPEAVXPathStepInfo@@PEAV1@00AEAU?$_Wrap_alloc@V?$allocator@VXPathStepInfo@@@std@@@0@0U_Nonscalar_ptr_iterator_tag@0@@Z 00000001800301e4 f i XMPMeta.obj
 0001:0002f260       ??$_Buynode@U?$pair@$$CBV?$basic_string@DU?$char_traits@D@std@@V?$allocator@D@2@@std@@V?$vector@VXPathStepInfo@@V?$allocator@VXPathStepInfo@@@std@@@2@@std@@@?$_Tree_buy@U?$pair@$$CBV?$basic_string@DU?$char_traits@D@std@@V?$allocator@D@2@@std@@V?$vector@VXPathStepInfo@@V?$allocator@VXPathStepInfo@@@std@@@2@@std@@V?$allocator@U?$pair@$$CBV?$basic_string@DU?$char_traits@D@std@@V?$allocator@D@2@@std@@V?$vector@VXPathStepInfo@@V?$allocator@VXPathStepInfo@@@std@@@2@@std@@@2@@std@@QEAAPEAU?$_Tree_node@U?$pair@$$CBV?$basic_string@DU?$char_traits@D@std@@V?$allocator@D@2@@std@@V?$vector@VXPathStepInfo@@V?$allocator@VXPathStepInfo@@@std@@@2@@std@@PEAX@1@$$QEAU?$pair@$$CBV?$basic_string@DU?$char_traits@D@std@@V?$allocator@D@2@@std@@V?$vector@VXPathStepInfo@@V?$allocator@VXPathStepInfo@@@std@@@2@@1@@Z 0000000180030260 f i XMPMeta.obj
 0001:0002f310       ?_Buynode0@?$_Tree_buy@U?$pair@$$CBV?$basic_string@DU?$char_traits@D@std@@V?$allocator@D@2@@std@@V?$vector@VXPathStepInfo@@V?$allocator@VXPathStepInfo@@@std@@@2@@std@@V?$allocator@U?$pair@$$CBV?$basic_string@DU?$char_traits@D@std@@V?$allocator@D@2@@std@@V?$vector@VXPathStepInfo@@V?$allocator@VXPathStepInfo@@@std@@@2@@std@@@2@@std@@QEAAPEAU?$_Tree_node@U?$pair@$$CBV?$basic_string@DU?$char_traits@D@std@@V?$allocator@D@2@@std@@V?$vector@VXPathStepInfo@@V?$allocator@VXPathStepInfo@@@std@@@2@@std@@PEAX@2@XZ 0000000180030310 f i XMPMeta.obj
 0001:0002f360       ??$_Med3@PEAPEAVXMP_Node@@P6A_NPEAV1@0@Z@std@@YAXPEAPEAVXMP_Node@@00P6A_NPEAV1@1@Z@Z 0000000180030360 f i XMPMeta.obj
 0001:0002f3dc       ??$_Adjust_heap@PEAPEAVXMP_Node@@_JPEAV1@P6A_NPEAV1@0@Z@std@@YAXPEAPEAVXMP_Node@@_J1$$QEAPEAV1@P6A_NPEAV1@3@Z@Z 00000001800303dc f i XMPMeta.obj
 0001:0002f4a4       ??$_Move@PEAPEAVXMP_Node@@V?$_Temp_iterator@PEAVXMP_Node@@@std@@@std@@YA?AV?$_Temp_iterator@PEAVXMP_Node@@@0@PEAPEAVXMP_Node@@0V10@@Z 00000001800304a4 f i XMPMeta.obj
 0001:0002f4f8       ??$_Merge@PEAPEAVXMP_Node@@PEAPEAV1@PEAPEAV1@P6A_NPEAV1@0@Z@std@@YAPEAPEAVXMP_Node@@PEAPEAV1@0000P6A_NPEAV1@1@Z@Z 00000001800304f8 f i XMPMeta.obj
 0001:0002f5c0       ??$_Buffered_rotate@PEAPEAVXMP_Node@@_JPEAV1@@std@@YAPEAPEAVXMP_Node@@PEAPEAV1@00_J1AEAV?$_Temp_iterator@PEAVXMP_Node@@@0@@Z 00000001800305c0 f i XMPMeta.obj
 0001:0002f808       ??$_Merge@PEAPEAVXMP_Node@@PEAPEAV1@V?$_Temp_iterator@PEAVXMP_Node@@@std@@P6A_NPEAV1@0@Z@std@@YA?AV?$_Temp_iterator@PEAVXMP_Node@@@0@PEAPEAVXMP_Node@@000V10@P6A_NPEAV2@2@Z@Z 0000000180030808 f i XMPMeta.obj
 0001:0002f9a8       ??$_Move@PEAPEAVXMP_Node@@V?$_Temp_iterator@PEAVXMP_Node@@@std@@@std@@YA?AV?$_Temp_iterator@PEAVXMP_Node@@@0@PEAPEAVXMP_Node@@0V10@U_Nonscalar_ptr_iterator_tag@0@@Z 00000001800309a8 f i XMPMeta.obj
 0001:0002fa54       ??_EInternalClientAllocator@@$4PPPPPPPM@A@EAAPEAXI@Z 0000000180030a54 f i XMPMeta.obj
 0001:0002fa60       ??_GXMPMeta2@@UEAAPEAXI@Z  0000000180030a60 f i XMPMeta2-GetSet.obj
 0001:0002fa60       ??_EXMPMeta2@@UEAAPEAXI@Z  0000000180030a60 f i * CIL library *:* CIL module *
 0001:0002ff10       ??0XMPMeta2@@QEAA@XZ       0000000180030f10 f   XMPMeta2-GetSet.obj
 0001:0002ff98       ??1XMPMeta2@@UEAA@XZ       0000000180030f98 f   XMPMeta2-GetSet.obj
 0001:0002ffec       ?GetProperty@XMPMeta2@@UEBA_NPEBD0PEAPEBDPEAK2@Z 0000000180030fec f   XMPMeta2-GetSet.obj
 0001:00031bbc       ?CountArrayItems@XMPMeta2@@UEBAJPEBD0@Z 0000000180032bbc f   XMPMeta2-GetSet.obj
 0001:00031d1c       ?ParseFromBuffer@XMPMeta2@@UEAAXPEBDKK@Z 0000000180032d1c f   XMPMeta2-GetSet.obj
 0001:00031e0c       ?SerializeToBuffer@XMPMeta2@@UEBAXPEAV?$basic_string@DU?$char_traits@D@std@@V?$allocator@D@2@@std@@KKPEBD1J@Z 0000000180032e0c f   XMPMeta2-GetSet.obj
 0001:00032074       ?Erase@XMPMeta2@@UEAAXXZ   0000000180033074 f   XMPMeta2-GetSet.obj
 0001:000320c8       ?DoesPropertyExist@XMPMeta2@@UEBA_NPEBD0@Z 00000001800330c8 f   XMPMeta2-GetSet.obj
 0001:00032188       ?SetProperty@XMPMeta2@@UEAAXPEBD00K@Z 0000000180033188 f   XMPMeta2-GetSet.obj
 0001:000322cc       ?SetArrayItem@XMPMeta2@@UEAAXPEBD0J0K@Z 00000001800332cc f   XMPMeta2-GetSet.obj
 0001:00032490       ?AppendArrayItem@XMPMeta2@@UEAAXPEBD0K0K@Z 0000000180033490 f   XMPMeta2-GetSet.obj
 0001:00032824       ?SetQualifier@XMPMeta2@@UEAAXPEBD0000K@Z 0000000180033824 f   XMPMeta2-GetSet.obj
 0001:000329cc       ?Clone@XMPMeta2@@UEBAXPEAVXMPMeta@@K@Z 00000001800339cc f   XMPMeta2-GetSet.obj
 0001:00032b78       ?DeleteProperty@XMPMeta2@@UEAAXPEBD0@Z 0000000180033b78 f   XMPMeta2-GetSet.obj
 0001:000330c8       ?GetObjectName@XMPMeta2@@UEBAXPEAPEBDPEAK@Z 00000001800340c8 f   XMPMeta2-GetSet.obj
 0001:000331c0       ?SetObjectName@XMPMeta2@@UEAAXPEBD@Z 00000001800341c0 f   XMPMeta2-GetSet.obj
 0001:00034228       ?GetLocalizedText@XMPMeta2@@UEBA_NPEBD000PEAPEBDPEAK122@Z 0000000180035228 f   XMPMeta2-GetSet.obj
 0001:00034714       ?DeleteLocalizedText@XMPMeta2@@UEAAXPEBD000@Z 0000000180035714 f   XMPMeta2-GetSet.obj
 0001:00035514       ?SetLocalizedText@XMPMeta2@@UEAAXPEBD0000K@Z 0000000180036514 f   XMPMeta2-GetSet.obj
 0001:00037e58       ?DumpObject@XMPMeta2@@UEBAXP6AJPEAXPEBDK@Z0@Z 0000000180038e58 f   XMPMeta2-GetSet.obj
 0001:000389c4       ??1?$map@V?$basic_string@DU?$char_traits@D@std@@V?$allocator@D@2@@std@@_NU?$less@V?$basic_string@DU?$char_traits@D@std@@V?$allocator@D@2@@std@@@2@V?$allocator@U?$pair@$$CBV?$basic_string@DU?$char_traits@D@std@@V?$allocator@D@2@@std@@_N@std@@@2@@std@@QEAA@XZ 00000001800399c4 f i XMPMeta2-GetSet.obj
 0001:000389cc       ??1?$_Tree@V?$_Tmap_traits@V?$basic_string@DU?$char_traits@D@std@@V?$allocator@D@2@@std@@_NU?$less@V?$basic_string@DU?$char_traits@D@std@@V?$allocator@D@2@@std@@@2@V?$allocator@U?$pair@$$CBV?$basic_string@DU?$char_traits@D@std@@V?$allocator@D@2@@std@@_N@std@@@2@$0A@@std@@@std@@QEAA@XZ 00000001800399cc f i XMPMeta2-GetSet.obj
 0001:00038a74       ?count@?$_Tree@V?$_Tmap_traits@V?$basic_string@DU?$char_traits@D@std@@V?$allocator@D@2@@std@@_NU?$less@V?$basic_string@DU?$char_traits@D@std@@V?$allocator@D@2@@std@@@2@V?$allocator@U?$pair@$$CBV?$basic_string@DU?$char_traits@D@std@@V?$allocator@D@2@@std@@_N@std@@@2@$0A@@std@@@std@@QEBA_KAEBV?$basic_string@DU?$char_traits@D@std@@V?$allocator@D@2@@2@@Z 0000000180039a74 f i XMPMeta2-GetSet.obj
 0001:00038b80       ?_Erase@?$_Tree@V?$_Tmap_traits@V?$basic_string@DU?$char_traits@D@std@@V?$allocator@D@2@@std@@_NU?$less@V?$basic_string@DU?$char_traits@D@std@@V?$allocator@D@2@@std@@@2@V?$allocator@U?$pair@$$CBV?$basic_string@DU?$char_traits@D@std@@V?$allocator@D@2@@std@@_N@std@@@2@$0A@@std@@@std@@IEAAXPEAU?$_Tree_node@U?$pair@$$CBV?$basic_string@DU?$char_traits@D@std@@V?$allocator@D@2@@std@@_N@std@@PEAX@2@@Z 0000000180039b80 f i XMPMeta2-GetSet.obj
 0001:00038bfc       ?_Buyheadnode@?$_Tree_alloc@$0A@U?$_Tree_base_types@U?$pair@$$CBV?$basic_string@DU?$char_traits@D@std@@V?$allocator@D@2@@std@@_N@std@@V?$allocator@U?$pair@$$CBV?$basic_string@DU?$char_traits@D@std@@V?$allocator@D@2@@std@@_N@std@@@2@@std@@@std@@QEAAPEAU?$_Tree_node@U?$pair@$$CBV?$basic_string@DU?$char_traits@D@std@@V?$allocator@D@2@@std@@_N@std@@PEAX@2@XZ 0000000180039bfc f i XMPMeta2-GetSet.obj
 0001:00038c3c       ??$static_pointer_cast@VIXMPNode_I@AdobeXMPCore_Int@@VIXMPSimpleNode_I@2@@std@@YA?AV?$shared_ptr@VIXMPNode_I@AdobeXMPCore_Int@@@0@AEBV?$shared_ptr@VIXMPSimpleNode_I@AdobeXMPCore_Int@@@0@@Z 0000000180039c3c f i XMPMeta2-GetSet.obj
 0001:00038ccc       ??$AdaptNodeTo_I@VIXMPMetadata_I@AdobeXMPCore_Int@@$01@IXMPNode_I@AdobeXMPCore_Int@@SA?AV?$shared_ptr@VIXMPMetadata_I@AdobeXMPCore_Int@@@std@@AEBV?$shared_ptr@VIXMPNode_I@AdobeXMPCore_Int@@@3@@Z 0000000180039ccc f i XMPMeta2-GetSet.obj
 0001:00038e58       ??$?HDU?$char_traits@D@std@@V?$allocator@D@1@@std@@YA?AV?$basic_string@DU?$char_traits@D@std@@V?$allocator@D@2@@0@$$QEAV10@PEBD@Z 0000000180039e58 f i XMPMeta2-GetSet.obj
 0001:00038eb0       ??$AdaptConstNodeTo_I@VIXMPArrayNode_I@AdobeXMPCore_Int@@$00@IXMPNode_I@AdobeXMPCore_Int@@SA?AV?$shared_ptr@$$CBVIXMPArrayNode_I@AdobeXMPCore_Int@@@std@@AEBV?$shared_ptr@$$CBVIXMPNode_I@AdobeXMPCore_Int@@@3@@Z 0000000180039eb0 f i XMPMeta2-GetSet.obj
 0001:00038f80       ??$AdaptConstNodeTo_I@VIXMPStructureNode_I@AdobeXMPCore_Int@@$01@IXMPNode_I@AdobeXMPCore_Int@@SA?AV?$shared_ptr@$$CBVIXMPStructureNode_I@AdobeXMPCore_Int@@@std@@AEBV?$shared_ptr@$$CBVIXMPNode_I@AdobeXMPCore_Int@@@3@@Z 0000000180039f80 f i XMPMeta2-GetSet.obj
 0001:00039050       ??$MakeSharedPointer@VIXMPMetadata_I@AdobeXMPCore_Int@@VIXMPNode_I@2@@AdobeXMPCommon_Int@@YA?AV?$shared_ptr@VIXMPMetadata_I@AdobeXMPCore_Int@@@std@@PEAVIXMPNode_I@AdobeXMPCore_Int@@@Z 000000018003a050 f i XMPMeta2-GetSet.obj
 0001:000391cc       ??$_Buynode@AEBUpiecewise_construct_t@std@@V?$tuple@$$QEAV?$basic_string@DU?$char_traits@D@std@@V?$allocator@D@2@@std@@@2@V?$tuple@$$$V@2@@?$_Tree_buy@U?$pair@$$CBV?$basic_string@DU?$char_traits@D@std@@V?$allocator@D@2@@std@@_N@std@@V?$allocator@U?$pair@$$CBV?$basic_string@DU?$char_traits@D@std@@V?$allocator@D@2@@std@@_N@std@@@2@@std@@QEAAPEAU?$_Tree_node@U?$pair@$$CBV?$basic_string@DU?$char_traits@D@std@@V?$allocator@D@2@@std@@_N@std@@PEAX@1@AEBUpiecewise_construct_t@1@$$QEAV?$tuple@$$QEAV?$basic_string@DU?$char_traits@D@std@@V?$allocator@D@2@@std@@@1@$$QEAV?$tuple@$$$V@1@@Z 000000018003a1cc f i XMPMeta2-GetSet.obj
 0001:00039218       ??$_Insert_hint@AEAU?$pair@$$CBV?$basic_string@DU?$char_traits@D@std@@V?$allocator@D@2@@std@@_N@std@@PEAU?$_Tree_node@U?$pair@$$CBV?$basic_string@DU?$char_traits@D@std@@V?$allocator@D@2@@std@@_N@std@@PEAX@2@@?$_Tree@V?$_Tmap_traits@V?$basic_string@DU?$char_traits@D@std@@V?$allocator@D@2@@std@@_NU?$less@V?$basic_string@DU?$char_traits@D@std@@V?$allocator@D@2@@std@@@2@V?$allocator@U?$pair@$$CBV?$basic_string@DU?$char_traits@D@std@@V?$allocator@D@2@@std@@_N@std@@@2@$0A@@std@@@std@@IEAA?AV?$_Tree_iterator@V?$_Tree_val@U?$_Tree_simple_types@U?$pair@$$CBV?$basic_string@DU?$char_traits@D@std@@V?$allocator@D@2@@std@@_N@std@@@std@@@std@@@1@V?$_Tree_const_iterator@V?$_Tree_val@U?$_Tree_simple_types@U?$pair@$$CBV?$basic_string@DU?$char_traits@D@std@@V?$allocator@D@2@@std@@_N@std@@@std@@@std@@@1@AEAU?$pair@$$CBV?$basic_string@DU?$char_traits@D@std@@V?$allocator@D@2@@std@@_N@1@PEAU?$_Tree_node@U?$pair@$$CBV?$basic_string@DU?$char_traits@D@std@@V?$allocator@D@2@@std@@_N@std@@PEAX@1@@Z 000000018003a218 f i XMPMeta2-GetSet.obj
 0001:000394ac       ?_Buynode0@?$_Tree_buy@U?$pair@$$CBV?$basic_string@DU?$char_traits@D@std@@V?$allocator@D@2@@std@@_N@std@@V?$allocator@U?$pair@$$CBV?$basic_string@DU?$char_traits@D@std@@V?$allocator@D@2@@std@@_N@std@@@2@@std@@QEAAPEAU?$_Tree_node@U?$pair@$$CBV?$basic_string@DU?$char_traits@D@std@@V?$allocator@D@2@@std@@_N@std@@PEAX@2@XZ 000000018003a4ac f i XMPMeta2-GetSet.obj
 0001:000394fc       ??$_Insert_at@AEAU?$pair@$$CBV?$basic_string@DU?$char_traits@D@std@@V?$allocator@D@2@@std@@_N@std@@PEAU?$_Tree_node@U?$pair@$$CBV?$basic_string@DU?$char_traits@D@std@@V?$allocator@D@2@@std@@_N@std@@PEAX@2@@?$_Tree@V?$_Tmap_traits@V?$basic_string@DU?$char_traits@D@std@@V?$allocator@D@2@@std@@_NU?$less@V?$basic_string@DU?$char_traits@D@std@@V?$allocator@D@2@@std@@@2@V?$allocator@U?$pair@$$CBV?$basic_string@DU?$char_traits@D@std@@V?$allocator@D@2@@std@@_N@std@@@2@$0A@@std@@@std@@IEAA?AV?$_Tree_iterator@V?$_Tree_val@U?$_Tree_simple_types@U?$pair@$$CBV?$basic_string@DU?$char_traits@D@std@@V?$allocator@D@2@@std@@_N@std@@@std@@@std@@@1@_NPEAU?$_Tree_node@U?$pair@$$CBV?$basic_string@DU?$char_traits@D@std@@V?$allocator@D@2@@std@@_N@std@@PEAX@1@AEAU?$pair@$$CBV?$basic_string@DU?$char_traits@D@std@@V?$allocator@D@2@@std@@_N@1@1@Z 000000018003a4fc f i XMPMeta2-GetSet.obj
 0001:0003979c       ??$_Insert_nohint@AEAU?$pair@$$CBV?$basic_string@DU?$char_traits@D@std@@V?$allocator@D@2@@std@@_N@std@@PEAU?$_Tree_node@U?$pair@$$CBV?$basic_string@DU?$char_traits@D@std@@V?$allocator@D@2@@std@@_N@std@@PEAX@2@@?$_Tree@V?$_Tmap_traits@V?$basic_string@DU?$char_traits@D@std@@V?$allocator@D@2@@std@@_NU?$less@V?$basic_string@DU?$char_traits@D@std@@V?$allocator@D@2@@std@@@2@V?$allocator@U?$pair@$$CBV?$basic_string@DU?$char_traits@D@std@@V?$allocator@D@2@@std@@_N@std@@@2@$0A@@std@@@std@@IEAA?AU?$pair@V?$_Tree_iterator@V?$_Tree_val@U?$_Tree_simple_types@U?$pair@$$CBV?$basic_string@DU?$char_traits@D@std@@V?$allocator@D@2@@std@@_N@std@@@std@@@std@@@std@@_N@1@_NAEAU?$pair@$$CBV?$basic_string@DU?$char_traits@D@std@@V?$allocator@D@2@@std@@_N@1@PEAU?$_Tree_node@U?$pair@$$CBV?$basic_string@DU?$char_traits@D@std@@V?$allocator@D@2@@std@@_N@std@@PEAX@1@@Z 000000018003a79c f i XMPMeta2-GetSet.obj
 0001:00039920       ??$_Resetp@VIXMPMetadata_I@AdobeXMPCore_Int@@V?$_Mem_fn_wrap@XP8ISharedOwnership_v1@AdobeXMPCommon@@EBAXXZ$$CBV12@$$$V@std@@V?$TAllocator@VIXMPMetadata_I@AdobeXMPCore_Int@@@AdobeXMPCommon_Int@@@?$shared_ptr@VIXMPMetadata_I@AdobeXMPCore_Int@@@std@@AEAAXPEAVIXMPMetadata_I@AdobeXMPCore_Int@@V?$_Mem_fn_wrap@XP8ISharedOwnership_v1@AdobeXMPCommon@@EBAXXZ$$CBV12@$$$V@1@V?$TAllocator@VIXMPMetadata_I@AdobeXMPCore_Int@@@AdobeXMPCommon_Int@@@Z 000000018003a920 f i XMPMeta2-GetSet.obj
 0001:000399c0       ??1IXMPStructureNode_v1@AdobeXMPCore@@MEAA@XZ 000000018003a9c0 f i XMPMetadataImpl.obj
 0001:00039a08       ??1IXMPMetadata_v1@AdobeXMPCore@@MEAA@XZ 000000018003aa08 f i XMPMetadataImpl.obj
 0001:00039a68       ??1IXMPStructureNode_I@AdobeXMPCore_Int@@MEAA@XZ 000000018003aa68 f i XMPMetadataImpl.obj
 0001:00039b34       ?GetNode@IXMPStructureNode_I@AdobeXMPCore_Int@@MEBAPEBVIXMPNode_v1@AdobeXMPCore@@PEBD0AEAPEBVIError_v1@AdobeXMPCommon@@@Z 000000018003ab34 f i XMPMetadataImpl.obj
 0001:00039b7c       ?GetNode@IXMPStructureNode_I@AdobeXMPCore_Int@@MEAAPEAVIXMPNode_v1@AdobeXMPCore@@PEBD0AEAPEBVIError_v1@AdobeXMPCommon@@@Z 000000018003ab7c f i XMPMetadataImpl.obj
 0001:00039bc4       ?InsertNode@IXMPStructureNode_I@AdobeXMPCore_Int@@MEAAXPEAVIXMPNode_v1@AdobeXMPCore@@AEAPEBVIError_v1@AdobeXMPCommon@@@Z 000000018003abc4 f i XMPMetadataImpl.obj
 0001:00039c5c       ?ReplaceNode@IXMPStructureNode_I@AdobeXMPCore_Int@@MEAAXPEAVIXMPNode_v1@AdobeXMPCore@@AEAPEBVIError_v1@AdobeXMPCommon@@@Z 000000018003ac5c f i XMPMetadataImpl.obj
 0001:00039cf4       ?RemoveNode@IXMPStructureNode_I@AdobeXMPCore_Int@@MEAAPEAVIXMPNode_v1@AdobeXMPCore@@PEBD0AEAPEBVIError_v1@AdobeXMPCommon@@@Z 000000018003acf4 f i XMPMetadataImpl.obj
 0001:00039d3c       ??1IXMPMetadata_I@AdobeXMPCore_Int@@MEAA@XZ 000000018003ad3c f i XMPMetadataImpl.obj
 0001:00039e44       ?GetAboutURI@IXMPMetadata_I@AdobeXMPCore_Int@@MEBAPEBVIUTF8String_v1@AdobeXMPCommon@@AEAPEBVIError_v1@4@@Z 000000018003ae44 f i XMPMetadataImpl.obj
 0001:00039e88       ?SetAboutURI@IXMPMetadata_I@AdobeXMPCore_Int@@MEAAXPEBDAEAPEBVIError_v1@AdobeXMPCommon@@@Z 000000018003ae88 f i XMPMetadataImpl.obj
 0001:00039ecc       ??0XMPStructureNodeImpl@AdobeXMPCore_Int@@QEAA@XZ 000000018003aecc f i XMPMetadataImpl.obj
 0001:0003a058       ??_EXMPStructureNodeImpl@AdobeXMPCore_Int@@MEAAPEAXI@Z 000000018003b058 f i * CIL library *:* CIL module *
 0001:0003a058       ??_GXMPStructureNodeImpl@AdobeXMPCore_Int@@MEAAPEAXI@Z 000000018003b058 f i XMPMetadataImpl.obj
 0001:0003a08c       ??0IXMPStructureNode_I@AdobeXMPCore_Int@@QEAA@XZ 000000018003b08c f i XMPMetadataImpl.obj
 0001:0003a160       ??_DXMPStructureNodeImpl@AdobeXMPCore_Int@@IEAAXXZ 000000018003b160 f i XMPMetadataImpl.obj
 0001:0003a408       ??1XMPStructureNodeImpl@AdobeXMPCore_Int@@MEAA@XZ 000000018003b408 f i XMPMetadataImpl.obj
 0001:0003a5bc       ??1XMPMetadataImpl@AdobeXMPCore_Int@@MEAA@XZ 000000018003b5bc f i XMPMetadataImpl.obj
 0001:0003a800       ??_EXMPMetadataImpl@AdobeXMPCore_Int@@MEAAPEAXI@Z 000000018003b800 f i * CIL library *:* CIL module *
 0001:0003a800       ??_GXMPMetadataImpl@AdobeXMPCore_Int@@MEAAPEAXI@Z 000000018003b800 f i XMPMetadataImpl.obj
 0001:0003a834       ??_DXMPMetadataImpl@AdobeXMPCore_Int@@IEAAXXZ 000000018003b834 f i XMPMetadataImpl.obj
 0001:0003ab6c       ?CreateMetadata_I@IXMPMetadata_I@AdobeXMPCore_Int@@SA?AV?$shared_ptr@VIXMPMetadata_I@AdobeXMPCore_Int@@@std@@W4eMultiThreadingSupport@AdobeXMPCommon@@@Z 000000018003bb6c f   XMPMetadataImpl.obj
 0001:0003ac18       ?GetAboutURI_I@XMPMetadataImpl@AdobeXMPCore_Int@@UEBA?AV?$shared_ptr@$$CBVIUTF8String_I@AdobeXMPCommon_Int@@@std@@XZ 000000018003bc18 f   XMPMetadataImpl.obj
 0001:0003ac90       ?SetAboutURI@XMPMetadataImpl@AdobeXMPCore_Int@@UEAAXPEBD@Z 000000018003bc90 f   XMPMetadataImpl.obj
 0001:0003ad24       ?ClearContents@XMPMetadataImpl@AdobeXMPCore_Int@@UEAAXXZ 000000018003bd24 f   XMPMetadataImpl.obj
 0001:0003ada0       ??0XMPMetadataImpl@AdobeXMPCore_Int@@QEAA@W4eMultiThreadingSupport@AdobeXMPCommon@@@Z 000000018003bda0 f   XMPMetadataImpl.obj
 0001:0003b4f4       ?CloneContents@XMPMetadataImpl@AdobeXMPCore_Int@@UEBA?AV?$shared_ptr@VIXMPNode_I@AdobeXMPCore_Int@@@std@@_N0_KW4eMultiThreadingSupport@AdobeXMPCommon@@@Z 000000018003c4f4 f   XMPMetadataImpl.obj
 0001:0003b6a4       ?GetName_I@XMPMetadataImpl@AdobeXMPCore_Int@@UEBA?AV?$shared_ptr@$$CBVIUTF8String_I@AdobeXMPCommon_Int@@@std@@XZ 000000018003c6a4 f   XMPMetadataImpl.obj
 0001:0003b6a4       ?GetNameSpace_I@XMPMetadataImpl@AdobeXMPCore_Int@@UEBA?AV?$shared_ptr@$$CBVIUTF8String_I@AdobeXMPCommon_Int@@@std@@XZ 000000018003c6a4 f   XMPMetadataImpl.obj
 0001:0003b6c4       ?erase@?$_Tree@V?$_Tmap_traits@UQualifiedName@XMPStructureNodeImpl@AdobeXMPCore_Int@@V?$shared_ptr@VIXMPNode_I@AdobeXMPCore_Int@@@std@@UCompareQualifiedName@23@V?$TAllocator@V?$shared_ptr@VIXMPNode_I@AdobeXMPCore_Int@@@std@@@AdobeXMPCommon_Int@@$0A@@std@@@std@@QEAA?AV?$_Tree_iterator@V?$_Tree_val@U?$_Tree_simple_types@U?$pair@$$CBUQualifiedName@XMPStructureNodeImpl@AdobeXMPCore_Int@@V?$shared_ptr@VIXMPNode_I@AdobeXMPCore_Int@@@std@@@std@@@std@@@std@@@2@V?$_Tree_const_iterator@V?$_Tree_val@U?$_Tree_simple_types@U?$pair@$$CBUQualifiedName@XMPStructureNodeImpl@AdobeXMPCore_Int@@V?$shared_ptr@VIXMPNode_I@AdobeXMPCore_Int@@@std@@@std@@@std@@@std@@@2@@Z 000000018003c6c4 f i XMPMetadataImpl.obj
 0001:0003bb84       ?_Erase@?$_Tree@V?$_Tmap_traits@UQualifiedName@XMPStructureNodeImpl@AdobeXMPCore_Int@@V?$shared_ptr@VIXMPNode_I@AdobeXMPCore_Int@@@std@@UCompareQualifiedName@23@V?$TAllocator@V?$shared_ptr@VIXMPNode_I@AdobeXMPCore_Int@@@std@@@AdobeXMPCommon_Int@@$0A@@std@@@std@@IEAAXPEAU?$_Tree_node@U?$pair@$$CBUQualifiedName@XMPStructureNodeImpl@AdobeXMPCore_Int@@V?$shared_ptr@VIXMPNode_I@AdobeXMPCore_Int@@@std@@@std@@PEAX@2@@Z 000000018003cb84 f i XMPMetadataImpl.obj
 0001:0003bc14       ?_Buyheadnode@?$_Tree_alloc@$0A@U?$_Tree_base_types@U?$pair@$$CBUQualifiedName@XMPStructureNodeImpl@AdobeXMPCore_Int@@V?$shared_ptr@VIXMPNode_I@AdobeXMPCore_Int@@@std@@@std@@V?$TAllocator@V?$shared_ptr@VIXMPNode_I@AdobeXMPCore_Int@@@std@@@AdobeXMPCommon_Int@@@std@@@std@@QEAAPEAU?$_Tree_node@U?$pair@$$CBUQualifiedName@XMPStructureNodeImpl@AdobeXMPCore_Int@@V?$shared_ptr@VIXMPNode_I@AdobeXMPCore_Int@@@std@@@std@@PEAX@2@XZ 000000018003cc14 f i XMPMetadataImpl.obj
 0001:0003bc50       ??$MakeUncheckedSharedPointer@VXMPMetadataImpl@AdobeXMPCore_Int@@@AdobeXMPCommon_Int@@YA?AV?$shared_ptr@VXMPMetadataImpl@AdobeXMPCore_Int@@@std@@PEAVXMPMetadataImpl@AdobeXMPCore_Int@@@Z 000000018003cc50 f i XMPMetadataImpl.obj
 0001:0003bccc       ??$_Resetp@VXMPMetadataImpl@AdobeXMPCore_Int@@V?$_Mem_fn_wrap@XP8XMPNodeImpl@AdobeXMPCore_Int@@EBAXXZ$$CBV12@$$$V@std@@V?$TAllocator@VXMPMetadataImpl@AdobeXMPCore_Int@@@AdobeXMPCommon_Int@@@?$shared_ptr@VXMPMetadataImpl@AdobeXMPCore_Int@@@std@@AEAAXPEAVXMPMetadataImpl@AdobeXMPCore_Int@@V?$_Mem_fn_wrap@XP8XMPNodeImpl@AdobeXMPCore_Int@@EBAXXZ$$CBV12@$$$V@1@V?$TAllocator@VXMPMetadataImpl@AdobeXMPCore_Int@@@AdobeXMPCommon_Int@@@Z 000000018003cccc f i XMPMetadataImpl.obj
 0001:0003bd68       ??1QualifiedName@XMPStructureNodeImpl@AdobeXMPCore_Int@@QEAA@XZ 000000018003cd68 f i XMPMetadataImpl.obj
 0001:0003bd68       ??1?$pair@$$CBV?$shared_ptr@$$CBVIUTF8String_I@AdobeXMPCommon_Int@@@std@@V12@@std@@QEAA@XZ 000000018003cd68 f i XMPNameSpacePrefixMapImpl.obj
 0001:0003bdf0       ?_Destroy@?$_Ref_count_del_alloc@VXMPQualifiersImpl@AdobeXMPCore_Int@@V?$_Mem_fn_wrap@XP8XMPNodeImpl@AdobeXMPCore_Int@@EBAXXZ$$CBV12@$$$V@std@@V?$TAllocator@VXMPQualifiersImpl@AdobeXMPCore_Int@@@AdobeXMPCommon_Int@@@std@@EEAAXXZ 000000018003cdf0 f i XMPQualifiersImpl.obj
 0001:0003bdf0       ?_Destroy@?$_Ref_count_del_alloc@VXMPMetadataImpl@AdobeXMPCore_Int@@V?$_Mem_fn_wrap@XP8XMPNodeImpl@AdobeXMPCore_Int@@EBAXXZ$$CBV12@$$$V@std@@V?$TAllocator@VXMPMetadataImpl@AdobeXMPCore_Int@@@AdobeXMPCommon_Int@@@std@@EEAAXXZ 000000018003cdf0 f i XMPMetadataImpl.obj
 0001:0003be58       ?GetChildCount@IXMPCompositeNode_I@AdobeXMPCore_Int@@$R2II@BI@PPPPPPPM@FI@EBA_KAEAPEBVIError_v1@AdobeXMPCommon@@@Z 000000018003ce58 f i XMPMetadataImpl.obj
 0001:0003be74       ?GetName_I@XMPMetadataImpl@AdobeXMPCore_Int@@$4PPPPPPPM@A@EBA?AV?$shared_ptr@$$CBVIUTF8String_I@AdobeXMPCommon_Int@@@std@@XZ 000000018003ce74 f i XMPMetadataImpl.obj
 0001:0003be74       ?GetNameSpace_I@XMPMetadataImpl@AdobeXMPCore_Int@@$4PPPPPPPM@A@EBA?AV?$shared_ptr@$$CBVIUTF8String_I@AdobeXMPCommon_Int@@@std@@XZ 000000018003ce74 f i XMPMetadataImpl.obj
 0001:0003be80       ?InsertNode_I@XMPStructureNodeImpl@AdobeXMPCore_Int@@$4PPPPPPPM@A@EAAXAEBV?$shared_ptr@VIXMPNode_I@AdobeXMPCore_Int@@@std@@@Z 000000018003ce80 f i XMPMetadataImpl.obj
 0001:0003be8c       ?ReplaceNode@IXMPStructureNode_I@AdobeXMPCore_Int@@$R2KI@CA@PPPPPPPM@IA@EAAXPEAVIXMPNode_v1@AdobeXMPCore@@AEAPEBVIError_v1@AdobeXMPCommon@@@Z 000000018003ce8c f i XMPMetadataImpl.obj
 0001:0003bea8       ?Iterator@IXMPCompositeNode_I@AdobeXMPCore_Int@@$R2HI@BI@PPPPPPPM@FI@EBAPEAVIXMPConstNodeIterator_v1@AdobeXMPCore@@KAEAPEBVIError_v1@AdobeXMPCommon@@@Z 000000018003cea8 f i XMPMetadataImpl.obj
 0001:0003bec4       ?Iterator@IXMPCompositeNode_I@AdobeXMPCore_Int@@$R2HI@BI@PPPPPPPM@FI@EAAPEAVIXMPNodeIterator_v1@AdobeXMPCore@@KAEAPEBVIError_v1@AdobeXMPCommon@@@Z 000000018003cec4 f i XMPMetadataImpl.obj
 0001:0003bee0       ?GetNameSpace_I@XMPNodeImpl@AdobeXMPCore_Int@@$R4GA@CM@PPPPPPPM@MI@EBA?AV?$shared_ptr@$$CBVIUTF8String_I@AdobeXMPCommon_Int@@@std@@XZ 000000018003cee0 f i XMPMetadataImpl.obj
 0001:0003befc       ?RemoveNode_I@XMPCompositeNodeImpl@AdobeXMPCore_Int@@$R4KA@DI@PPPPPPPM@BBA@EAA?AV?$shared_ptr@VIXMPNode_I@AdobeXMPCore_Int@@@std@@AEBV?$shared_ptr@$$CBVIXMPPath_I@AdobeXMPCore_Int@@@4@@Z 000000018003cefc f i XMPMetadataImpl.obj
 0001:0003bf18       ?ReplaceNode@IXMPCompositeNode_I@AdobeXMPCore_Int@@$R2II@BI@PPPPPPPM@FI@EAAXPEAVIXMPNode_v1@AdobeXMPCore@@PEBVIXMPPath_v1@4@AEAPEBVIError_v1@AdobeXMPCommon@@@Z 000000018003cf18 f i XMPMetadataImpl.obj
 0001:0003bf34       ?AppendNode@IXMPCompositeNode_I@AdobeXMPCore_Int@@$R2II@BI@PPPPPPPM@FI@EAAXPEAVIXMPNode_v1@AdobeXMPCore@@AEAPEBVIError_v1@AdobeXMPCommon@@@Z 000000018003cf34 f i XMPMetadataImpl.obj
 0001:0003bf50       ?GetNodeType@IXMPNode_I@AdobeXMPCore_Int@@$R2FI@BA@PPPPPPPM@DA@EBAKAEAPEBVIError_v1@AdobeXMPCommon@@@Z 000000018003cf50 f i XMPMetadataImpl.obj
 0001:0003bf6c       ?GetQualifier@IXMPNode_I@AdobeXMPCore_Int@@$R2FI@BA@PPPPPPPM@DA@EBAPEBVIXMPNode_v1@AdobeXMPCore@@PEBD0AEAPEBVIError_v1@AdobeXMPCommon@@@Z 000000018003cf6c f i XMPMetadataImpl.obj
 0001:0003bf88       ?GetQualifier@IXMPNode_I@AdobeXMPCore_Int@@$R2FI@BA@PPPPPPPM@DA@EAAPEAVIXMPNode_v1@AdobeXMPCore@@PEBD0AEAPEBVIError_v1@AdobeXMPCommon@@@Z 000000018003cf88 f i XMPMetadataImpl.obj
 0001:0003bfa4       ?GetName@IXMPNode_I@AdobeXMPCore_Int@@$R2FI@BA@PPPPPPPM@DA@EBAPEBVIUTF8String_v1@AdobeXMPCommon@@AEAPEBVIError_v1@4@@Z 000000018003cfa4 f i XMPMetadataImpl.obj
 0001:0003bfc0       ?IsEmpty@IXMPCompositeNode_I@AdobeXMPCore_Int@@$R2HI@BI@PPPPPPPM@FI@EBAKAEAPEBVIError_v1@AdobeXMPCommon@@@Z 000000018003cfc0 f i XMPMetadataImpl.obj
 0001:0003bfdc       ?GetPath@IXMPNode_I@AdobeXMPCore_Int@@$R2FI@BA@PPPPPPPM@DA@EBAPEAVIXMPPath_v1@AdobeXMPCore@@KAEAPEBVIError_v1@AdobeXMPCommon@@@Z 000000018003cfdc f i XMPMetadataImpl.obj
 0001:0003bff8       ?ReleaseSharedOwnership@XMPNodeImpl@AdobeXMPCore_Int@@$R4CA@CM@PPPPPPPM@HA@EBAXXZ 000000018003cff8 f i XMPMetadataImpl.obj
 0001:0003c014       ?SetAboutURI@IXMPMetadata_I@AdobeXMPCore_Int@@$2PPPPPPPM@A@EAAXPEBDAEAPEBVIError_v1@AdobeXMPCommon@@@Z 000000018003d014 f i XMPMetadataImpl.obj
 0001:0003c020       ?Clone@IXMPNode_I@AdobeXMPCore_Int@@$R2FI@BA@PPPPPPPM@DA@EBAPEAVIXMPNode_v1@AdobeXMPCore@@KKKAEAPEBVIError_v1@AdobeXMPCommon@@@Z 000000018003d020 f i XMPMetadataImpl.obj
 0001:0003c03c       ?RemoveNode@IXMPStructureNode_I@AdobeXMPCore_Int@@$R2KI@CA@PPPPPPPM@IA@EAAPEAVIXMPNode_v1@AdobeXMPCore@@PEBD0AEAPEBVIError_v1@AdobeXMPCommon@@@Z 000000018003d03c f i XMPMetadataImpl.obj
 0001:0003c058       ?ChangeParent_I@XMPNodeImpl@AdobeXMPCore_Int@@$R4GA@CM@PPPPPPPM@MI@EAAXPEAVIXMPNode_I@2@@Z 000000018003d058 f i XMPMetadataImpl.obj
 0001:0003c074       ?RemoveNode@IXMPCompositeNode_I@AdobeXMPCore_Int@@$R2II@BI@PPPPPPPM@FI@EAAPEAVIXMPNode_v1@AdobeXMPCore@@PEBVIXMPPath_v1@4@AEAPEBVIError_v1@AdobeXMPCommon@@@Z 000000018003d074 f i XMPMetadataImpl.obj
 0001:0003c090       ?HasQualifiers@XMPNodeImpl@AdobeXMPCore_Int@@$R4HA@DE@PPPPPPPM@MI@EBA_NXZ 000000018003d090 f i XMPMetadataImpl.obj
 0001:0003c0ac       ?ReplaceQualifier_I@XMPNodeImpl@AdobeXMPCore_Int@@$R4HA@DE@PPPPPPPM@MI@EAAXAEBV?$shared_ptr@VIXMPNode_I@AdobeXMPCore_Int@@@std@@@Z 000000018003d0ac f i XMPMetadataImpl.obj
 0001:0003c0c8       ?ReplaceQualifier@IXMPNode_I@AdobeXMPCore_Int@@$R2FI@BA@PPPPPPPM@DA@EAAXPEAVIXMPNode_v1@AdobeXMPCore@@AEAPEBVIError_v1@AdobeXMPCommon@@@Z 000000018003d0c8 f i XMPMetadataImpl.obj
 0001:0003c0e4       ?Clear@XMPNodeImpl@AdobeXMPCore_Int@@$R4HA@DE@PPPPPPPM@MI@EAAX_N0@Z 000000018003d0e4 f i XMPMetadataImpl.obj
 0001:0003c100       ?RemoveQualifier_I@XMPNodeImpl@AdobeXMPCore_Int@@$R4HA@DE@PPPPPPPM@MI@EAA?AV?$shared_ptr@VIXMPNode_I@AdobeXMPCore_Int@@@std@@PEBD0@Z 000000018003d100 f i XMPMetadataImpl.obj
 0001:0003c11c       ?InsertQualifier@IXMPNode_I@AdobeXMPCore_Int@@$R2FI@BA@PPPPPPPM@DA@EAAXPEAVIXMPNode_v1@AdobeXMPCore@@AEAPEBVIError_v1@AdobeXMPCommon@@@Z 000000018003d11c f i XMPMetadataImpl.obj
 0001:0003c138       ?GetQualifier_I@XMPNodeImpl@AdobeXMPCore_Int@@$R4GA@CM@PPPPPPPM@MI@EBA?AV?$shared_ptr@$$CBVIXMPNode_I@AdobeXMPCore_Int@@@std@@PEBD0@Z 000000018003d138 f i XMPMetadataImpl.obj
 0001:0003c154       ?GetQualifier_I@XMPNodeImpl@AdobeXMPCore_Int@@$R4GA@CM@PPPPPPPM@MI@EAA?AV?$shared_ptr@VIXMPNode_I@AdobeXMPCore_Int@@@std@@PEBD0@Z 000000018003d154 f i XMPMetadataImpl.obj
 0001:0003c170       ?AcquireSharedOwnership@XMPNodeImpl@AdobeXMPCore_Int@@$R4DA@DE@PPPPPPPM@HA@EBAXXZ 000000018003d170 f i XMPMetadataImpl.obj
 0001:0003c18c       ?GetPath_I@XMPNodeImpl@AdobeXMPCore_Int@@$R4GA@CM@PPPPPPPM@MI@EBA?AV?$shared_ptr@VIXMPPath_I@AdobeXMPCore_Int@@@std@@W4eMultiThreadingSupport@AdobeXMPCommon@@@Z 000000018003d18c f i XMPMetadataImpl.obj
 0001:0003c1a8       ?CloneContents@XMPMetadataImpl@AdobeXMPCore_Int@@$4PPPPPPPM@A@EBA?AV?$shared_ptr@VIXMPNode_I@AdobeXMPCore_Int@@@std@@_N0_KW4eMultiThreadingSupport@AdobeXMPCommon@@@Z 000000018003d1a8 f i XMPMetadataImpl.obj
 0001:0003c1b4       ?GetChildCount@XMPStructureNodeImpl@AdobeXMPCore_Int@@$R4KA@DM@PPPPPPPM@JA@EBA_KXZ 000000018003d1b4 f i XMPMetadataImpl.obj
 0001:0003c1d0       ?InsertQualifier_I@XMPNodeImpl@AdobeXMPCore_Int@@$R4HA@DE@PPPPPPPM@MI@EAAXAEBV?$shared_ptr@VIXMPNode_I@AdobeXMPCore_Int@@@std@@@Z 000000018003d1d0 f i XMPMetadataImpl.obj
 0001:0003c1ec       ?GetParent_I@XMPNodeImpl@AdobeXMPCore_Int@@$R4HA@DE@PPPPPPPM@MI@EBA?AV?$shared_ptr@$$CBVIXMPNode_I@AdobeXMPCore_Int@@@std@@XZ 000000018003d1ec f i XMPMetadataImpl.obj
 0001:0003c208       ?GetParent_I@XMPNodeImpl@AdobeXMPCore_Int@@$R4HA@DE@PPPPPPPM@MI@EAA?AV?$shared_ptr@VIXMPNode_I@AdobeXMPCore_Int@@@std@@XZ 000000018003d208 f i XMPMetadataImpl.obj
 0001:0003c224       ?Clear@IXMPNode_I@AdobeXMPCore_Int@@$R2FI@BA@PPPPPPPM@DA@EAAXKKAEAPEBVIError_v1@AdobeXMPCommon@@@Z 000000018003d224 f i XMPMetadataImpl.obj
 0001:0003c240       ??_EXMPStructureNodeImpl@AdobeXMPCore_Int@@$2PPPPPPPM@A@EAAPEAXI@Z 000000018003d240 f i XMPMetadataImpl.obj
 0001:0003c24c       ?ReplaceNode_I@XMPCompositeNodeImpl@AdobeXMPCore_Int@@$R4KA@DI@PPPPPPPM@BBA@EAAXAEBV?$shared_ptr@VIXMPNode_I@AdobeXMPCore_Int@@@std@@AEBV?$shared_ptr@$$CBVIXMPPath_I@AdobeXMPCore_Int@@@4@@Z 000000018003d24c f i XMPMetadataImpl.obj
 0001:0003c268       ?RemoveNode_I@XMPCompositeNodeImpl@AdobeXMPCore_Int@@$R4JA@DA@PPPPPPPM@BBA@EAA?AV?$shared_ptr@VIXMPNode_I@AdobeXMPCore_Int@@@std@@AEBV?$shared_ptr@$$CBVIXMPPath_I@AdobeXMPCore_Int@@@4@@Z 000000018003d268 f i XMPMetadataImpl.obj
 0001:0003c288       ?GetParent@IXMPNode_I@AdobeXMPCore_Int@@$R2EI@BA@PPPPPPPM@DA@EBAPEBVIXMPNode_v1@AdobeXMPCore@@AEAPEBVIError_v1@AdobeXMPCommon@@@Z 000000018003d288 f i XMPMetadataImpl.obj
 0001:0003c2a4       ?GetParent@IXMPNode_I@AdobeXMPCore_Int@@$R2EI@BA@PPPPPPPM@DA@EAAPEAVIXMPNode_v1@AdobeXMPCore@@AEAPEBVIError_v1@AdobeXMPCommon@@@Z 000000018003d2a4 f i XMPMetadataImpl.obj
 0001:0003c2c0       ?InsertNode@IXMPStructureNode_I@AdobeXMPCore_Int@@$2PPPPPPPM@A@EAAXPEAVIXMPNode_v1@AdobeXMPCore@@AEAPEBVIError_v1@AdobeXMPCommon@@@Z 000000018003d2c0 f i XMPMetadataImpl.obj
 0001:0003c2cc       ?Iterator_I@XMPStructureNodeImpl@AdobeXMPCore_Int@@$R4KA@DM@PPPPPPPM@JA@EBA?AV?$shared_ptr@VIXMPConstNodeIterator_I@AdobeXMPCore_Int@@@std@@W4eMultiThreadingSupport@AdobeXMPCommon@@@Z 000000018003d2cc f i XMPMetadataImpl.obj
 0001:0003c2e8       ?Iterator_I@XMPStructureNodeImpl@AdobeXMPCore_Int@@$R4KA@DM@PPPPPPPM@JA@EAA?AV?$shared_ptr@VIXMPNodeIterator_I@AdobeXMPCore_Int@@@std@@W4eMultiThreadingSupport@AdobeXMPCommon@@@Z 000000018003d2e8 f i XMPMetadataImpl.obj
 0001:0003c304       ?GetNameSpace@IXMPNode_I@AdobeXMPCore_Int@@$R2FI@BA@PPPPPPPM@DA@EBAPEBVIUTF8String_v1@AdobeXMPCommon@@AEAPEBVIError_v1@4@@Z 000000018003d304 f i XMPMetadataImpl.obj
 0001:0003c320       ?SetAboutURI@IXMPMetadata_I@AdobeXMPCore_Int@@$R2OI@CI@PPPPPPPM@KI@EAAXPEBDAEAPEBVIError_v1@AdobeXMPCommon@@@Z 000000018003d320 f i XMPMetadataImpl.obj
 0001:0003c33c       ?IsArrayItem@XMPNodeImpl@AdobeXMPCore_Int@@$R4HA@DE@PPPPPPPM@MI@EBA_NXZ 000000018003d33c f i XMPMetadataImpl.obj
 0001:0003c358       ?HasQualifiers@IXMPNode_I@AdobeXMPCore_Int@@$R2FI@BA@PPPPPPPM@DA@EBAKAEAPEBVIError_v1@AdobeXMPCommon@@@Z 000000018003d358 f i XMPMetadataImpl.obj
 0001:0003c374       ?RemoveQualifier@IXMPNode_I@AdobeXMPCore_Int@@$R2EI@BA@PPPPPPPM@DA@EAAPEAVIXMPNode_v1@AdobeXMPCore@@PEBD0AEAPEBVIError_v1@AdobeXMPCommon@@@Z 000000018003d374 f i XMPMetadataImpl.obj
 0001:0003c390       ?GetRawParentPointer_I@XMPNodeImpl@AdobeXMPCore_Int@@$R4HA@DE@PPPPPPPM@MI@EAAPEAVIXMPNode_I@2@XZ 000000018003d390 f i XMPMetadataImpl.obj
 0001:0003c390       ?GetRawParentPointer_I@XMPNodeImpl@AdobeXMPCore_Int@@$R4HA@DE@PPPPPPPM@MI@EBAPEBVIXMPNode_I@2@XZ 000000018003d390 f i XMPMetadataImpl.obj
 0001:0003c3ac       ?GetQualifiers@IXMPNode_I@AdobeXMPCore_Int@@$R2FI@BA@PPPPPPPM@DA@EBAPEBVIXMPQualifiers_v1@AdobeXMPCore@@AEAPEBVIError_v1@AdobeXMPCommon@@@Z 000000018003d3ac f i XMPMetadataImpl.obj
 0001:0003c3c8       ?GetQualifiers@IXMPNode_I@AdobeXMPCore_Int@@$R2FI@BA@PPPPPPPM@DA@EAAPEAVIXMPQualifiers_v1@AdobeXMPCore@@AEAPEBVIError_v1@AdobeXMPCommon@@@Z 000000018003d3c8 f i XMPMetadataImpl.obj
 0001:0003c3e4       ?HasQualifiers@XMPNodeImpl@AdobeXMPCore_Int@@$R4GA@CM@PPPPPPPM@MI@EBA_NXZ 000000018003d3e4 f i XMPMetadataImpl.obj
 0001:0003c400       ?ReplaceQualifier_I@XMPNodeImpl@AdobeXMPCore_Int@@$R4GA@CM@PPPPPPPM@MI@EAAXAEBV?$shared_ptr@VIXMPNode_I@AdobeXMPCore_Int@@@std@@@Z 000000018003d400 f i XMPMetadataImpl.obj
 0001:0003c41c       ?InsertNode@IXMPStructureNode_I@AdobeXMPCore_Int@@$R2HI@CA@PPPPPPPM@IA@EAAXPEAVIXMPNode_v1@AdobeXMPCore@@AEAPEBVIError_v1@AdobeXMPCommon@@@Z 000000018003d41c f i XMPMetadataImpl.obj
 0001:0003c438       ?ReplaceNode@IXMPStructureNode_I@AdobeXMPCore_Int@@$2PPPPPPPM@A@EAAXPEAVIXMPNode_v1@AdobeXMPCore@@AEAPEBVIError_v1@AdobeXMPCommon@@@Z 000000018003d438 f i XMPMetadataImpl.obj
 0001:0003c444       ?AppendNode_I@XMPStructureNodeImpl@AdobeXMPCore_Int@@$R4KA@DM@PPPPPPPM@JA@EAAXAEBV?$shared_ptr@VIXMPNode_I@AdobeXMPCore_Int@@@std@@@Z 000000018003d444 f i XMPMetadataImpl.obj
 0001:0003c460       ?IsArrayItem@IXMPNode_I@AdobeXMPCore_Int@@$R2FI@BA@PPPPPPPM@DA@EBAKAEAPEBVIError_v1@AdobeXMPCommon@@@Z 000000018003d460 f i XMPMetadataImpl.obj
 0001:0003c47c       ?GetNode@IXMPStructureNode_I@AdobeXMPCore_Int@@$R2KI@CA@PPPPPPPM@IA@EBAPEBVIXMPNode_v1@AdobeXMPCore@@PEBD0AEAPEBVIError_v1@AdobeXMPCommon@@@Z 000000018003d47c f i XMPMetadataImpl.obj
 0001:0003c498       ?GetNode@IXMPStructureNode_I@AdobeXMPCore_Int@@$R2KI@CA@PPPPPPPM@IA@EAAPEAVIXMPNode_v1@AdobeXMPCore@@PEBD0AEAPEBVIError_v1@AdobeXMPCommon@@@Z 000000018003d498 f i XMPMetadataImpl.obj
 0001:0003c4b4       ?Clear@XMPNodeImpl@AdobeXMPCore_Int@@$R4GA@CM@PPPPPPPM@MI@EAAX_N0@Z 000000018003d4b4 f i XMPMetadataImpl.obj
 0001:0003c4d0       ?RemoveQualifier_I@XMPNodeImpl@AdobeXMPCore_Int@@$R4GA@CM@PPPPPPPM@MI@EAA?AV?$shared_ptr@VIXMPNode_I@AdobeXMPCore_Int@@@std@@PEBD0@Z 000000018003d4d0 f i XMPMetadataImpl.obj
 0001:0003c4ec       ?RemoveNode_I@XMPStructureNodeImpl@AdobeXMPCore_Int@@$R4NA@DM@PPPPPPPM@MA@EAA?AV?$shared_ptr@VIXMPNode_I@AdobeXMPCore_Int@@@std@@PEBD0@Z 000000018003d4ec f i XMPMetadataImpl.obj
 0001:0003c508       ?InsertNode@IXMPStructureNode_I@AdobeXMPCore_Int@@$R2LI@CA@PPPPPPPM@IA@EAAXPEAVIXMPNode_v1@AdobeXMPCore@@AEAPEBVIError_v1@AdobeXMPCommon@@@Z 000000018003d508 f i XMPMetadataImpl.obj
 0001:0003c524       ?GetNode@IXMPCompositeNode_I@AdobeXMPCore_Int@@$R2II@BI@PPPPPPPM@FI@EBAPEBVIXMPNode_v1@AdobeXMPCore@@PEBVIXMPPath_v1@4@AEAPEBVIError_v1@AdobeXMPCommon@@@Z 000000018003d524 f i XMPMetadataImpl.obj
 0001:0003c540       ?GetNode@IXMPCompositeNode_I@AdobeXMPCore_Int@@$R2II@BI@PPPPPPPM@FI@EAAPEAVIXMPNode_v1@AdobeXMPCore@@PEBVIXMPPath_v1@4@AEAPEBVIError_v1@AdobeXMPCommon@@@Z 000000018003d540 f i XMPMetadataImpl.obj
 0001:0003c55c       ?GetQualifiers_I@XMPNodeImpl@AdobeXMPCore_Int@@$R4HA@DE@PPPPPPPM@MI@EAA?AV?$shared_ptr@VIXMPQualifiers_I@AdobeXMPCore_Int@@@std@@XZ 000000018003d55c f i XMPMetadataImpl.obj
 0001:0003c55c       ?GetQualifiers_I@XMPNodeImpl@AdobeXMPCore_Int@@$R4HA@DE@PPPPPPPM@MI@EBA?AV?$shared_ptr@$$CBVIXMPQualifiers_I@AdobeXMPCore_Int@@@std@@XZ 000000018003d55c f i XMPMetadataImpl.obj
 0001:0003c578       ?GetChildCount@XMPStructureNodeImpl@AdobeXMPCore_Int@@$4PPPPPPPM@A@EBA_KXZ 000000018003d578 f i XMPMetadataImpl.obj
 0001:0003c584       ?InsertNode@IXMPCompositeNode_I@AdobeXMPCore_Int@@$R2HI@BI@PPPPPPPM@FI@EAAXPEAVIXMPNode_v1@AdobeXMPCore@@PEBVIXMPPath_v1@4@AEAPEBVIError_v1@AdobeXMPCommon@@@Z 000000018003d584 f i XMPMetadataImpl.obj
 0001:0003c5a0       ?AcquireSharedOwnership@XMPNodeImpl@AdobeXMPCore_Int@@$R4CA@CM@PPPPPPPM@HA@EBAXXZ 000000018003d5a0 f i XMPMetadataImpl.obj
 0001:0003c5bc       ?SetQualifiers@IXMPNode_I@AdobeXMPCore_Int@@$R2FI@BA@PPPPPPPM@DA@EAAXPEAVIXMPQualifiers_v1@AdobeXMPCore@@AEAPEBVIError_v1@AdobeXMPCommon@@@Z 000000018003d5bc f i XMPMetadataImpl.obj
 0001:0003c5d8       ?InsertQualifier_I@XMPNodeImpl@AdobeXMPCore_Int@@$R4GA@CM@PPPPPPPM@MI@EAAXAEBV?$shared_ptr@VIXMPNode_I@AdobeXMPCore_Int@@@std@@@Z 000000018003d5d8 f i XMPMetadataImpl.obj
 0001:0003c5f4       ?GetParent_I@XMPNodeImpl@AdobeXMPCore_Int@@$R4GA@CM@PPPPPPPM@MI@EBA?AV?$shared_ptr@$$CBVIXMPNode_I@AdobeXMPCore_Int@@@std@@XZ 000000018003d5f4 f i XMPMetadataImpl.obj
 0001:0003c610       ?GetParent_I@XMPNodeImpl@AdobeXMPCore_Int@@$R4GA@CM@PPPPPPPM@MI@EAA?AV?$shared_ptr@VIXMPNode_I@AdobeXMPCore_Int@@@std@@XZ 000000018003d610 f i XMPMetadataImpl.obj
 0001:0003c62c       ?ReplaceNode@IXMPStructureNode_I@AdobeXMPCore_Int@@$R2HI@CA@PPPPPPPM@IA@EAAXPEAVIXMPNode_v1@AdobeXMPCore@@AEAPEBVIError_v1@AdobeXMPCommon@@@Z 000000018003d62c f i XMPMetadataImpl.obj
 0001:0003c648       ?RemoveNode@IXMPStructureNode_I@AdobeXMPCore_Int@@$2PPPPPPPM@A@EAAPEAVIXMPNode_v1@AdobeXMPCore@@PEBD0AEAPEBVIError_v1@AdobeXMPCommon@@@Z 000000018003d648 f i XMPMetadataImpl.obj
 0001:0003c654       ?GetAboutURI_I@XMPMetadataImpl@AdobeXMPCore_Int@@$4PPPPPPPM@A@EBA?AV?$shared_ptr@$$CBVIUTF8String_I@AdobeXMPCommon_Int@@@std@@XZ 000000018003d654 f i XMPMetadataImpl.obj
 0001:0003c660       ?GetNode_I@XMPCompositeNodeImpl@AdobeXMPCore_Int@@$R4KA@DI@PPPPPPPM@BBA@EBA?AV?$shared_ptr@$$CBVIXMPNode_I@AdobeXMPCore_Int@@@std@@AEBV?$shared_ptr@$$CBVIXMPPath_I@AdobeXMPCore_Int@@@4@@Z 000000018003d660 f i XMPMetadataImpl.obj
 0001:0003c67c       ?GetNode_I@XMPCompositeNodeImpl@AdobeXMPCore_Int@@$R4KA@DI@PPPPPPPM@BBA@EAA?AV?$shared_ptr@VIXMPNode_I@AdobeXMPCore_Int@@@std@@AEBV?$shared_ptr@$$CBVIXMPPath_I@AdobeXMPCore_Int@@@4@@Z 000000018003d67c f i XMPMetadataImpl.obj
 0001:0003c698       ?SetQualifiers_I@XMPNodeImpl@AdobeXMPCore_Int@@$R4HA@DE@PPPPPPPM@MI@EAAXAEBV?$shared_ptr@VIXMPQualifiers_I@AdobeXMPCore_Int@@@std@@@Z 000000018003d698 f i XMPMetadataImpl.obj
 0001:0003c6b4       ?AcquireSharedOwnershipForRawPointer@XMPNodeImpl@AdobeXMPCore_Int@@$R4EA@DE@PPPPPPPM@IA@EBAXXZ 000000018003d6b4 f i XMPMetadataImpl.obj
 0001:0003c6d0       ?Iterator_I@XMPStructureNodeImpl@AdobeXMPCore_Int@@$4PPPPPPPM@A@EBA?AV?$shared_ptr@VIXMPConstNodeIterator_I@AdobeXMPCore_Int@@@std@@W4eMultiThreadingSupport@AdobeXMPCommon@@@Z 000000018003d6d0 f i XMPMetadataImpl.obj
 0001:0003c6dc       ?Iterator_I@XMPStructureNodeImpl@AdobeXMPCore_Int@@$4PPPPPPPM@A@EAA?AV?$shared_ptr@VIXMPNodeIterator_I@AdobeXMPCore_Int@@@std@@W4eMultiThreadingSupport@AdobeXMPCommon@@@Z 000000018003d6dc f i XMPMetadataImpl.obj
 0001:0003c6e8       ?ReplaceNode_I@XMPCompositeNodeImpl@AdobeXMPCore_Int@@$R4JA@DA@PPPPPPPM@BBA@EAAXAEBV?$shared_ptr@VIXMPNode_I@AdobeXMPCore_Int@@@std@@AEBV?$shared_ptr@$$CBVIXMPPath_I@AdobeXMPCore_Int@@@4@@Z 000000018003d6e8 f i XMPMetadataImpl.obj
 0001:0003c708       ?GetChildCount@IXMPCompositeNode_I@AdobeXMPCore_Int@@$R2HI@BI@PPPPPPPM@FI@EBA_KAEAPEBVIError_v1@AdobeXMPCommon@@@Z 000000018003d708 f i XMPMetadataImpl.obj
 0001:0003c724       ?ReplaceNode@IXMPStructureNode_I@AdobeXMPCore_Int@@$R2LI@CA@PPPPPPPM@IA@EAAXPEAVIXMPNode_v1@AdobeXMPCore@@AEAPEBVIError_v1@AdobeXMPCommon@@@Z 000000018003d724 f i XMPMetadataImpl.obj
 0001:0003c740       ?InsertNode_I@XMPCompositeNodeImpl@AdobeXMPCore_Int@@$R4KA@DI@PPPPPPPM@BBA@EAAXAEBV?$shared_ptr@VIXMPNode_I@AdobeXMPCore_Int@@@std@@AEBV?$shared_ptr@$$CBVIXMPPath_I@AdobeXMPCore_Int@@@4@@Z 000000018003d740 f i XMPMetadataImpl.obj
 0001:0003c75c       ?Iterator@IXMPCompositeNode_I@AdobeXMPCore_Int@@$R2II@BI@PPPPPPPM@FI@EBAPEAVIXMPConstNodeIterator_v1@AdobeXMPCore@@KAEAPEBVIError_v1@AdobeXMPCommon@@@Z 000000018003d75c f i XMPMetadataImpl.obj
 0001:0003c778       ?Iterator@IXMPCompositeNode_I@AdobeXMPCore_Int@@$R2II@BI@PPPPPPPM@FI@EAAPEAVIXMPNodeIterator_v1@AdobeXMPCore@@KAEAPEBVIError_v1@AdobeXMPCommon@@@Z 000000018003d778 f i XMPMetadataImpl.obj
 0001:0003c794       ??_EXMPMetadataImpl@AdobeXMPCore_Int@@$2PPPPPPPM@A@EAAPEAXI@Z 000000018003d794 f i XMPMetadataImpl.obj
 0001:0003c7a0       ?RemoveNode_I@XMPStructureNodeImpl@AdobeXMPCore_Int@@$4PPPPPPPM@A@EAA?AV?$shared_ptr@VIXMPNode_I@AdobeXMPCore_Int@@@std@@PEBD0@Z 000000018003d7a0 f i XMPMetadataImpl.obj
 0001:0003c7ac       ?ReplaceNode@IXMPCompositeNode_I@AdobeXMPCore_Int@@$R2HI@BI@PPPPPPPM@FI@EAAXPEAVIXMPNode_v1@AdobeXMPCore@@PEBVIXMPPath_v1@4@AEAPEBVIError_v1@AdobeXMPCommon@@@Z 000000018003d7ac f i XMPMetadataImpl.obj
 0001:0003c7c8       ?AppendNode@IXMPCompositeNode_I@AdobeXMPCore_Int@@$R2HI@BI@PPPPPPPM@FI@EAAXPEAVIXMPNode_v1@AdobeXMPCore@@AEAPEBVIError_v1@AdobeXMPCommon@@@Z 000000018003d7c8 f i XMPMetadataImpl.obj
 0001:0003c7e4       ?GetNodeType@IXMPNode_I@AdobeXMPCore_Int@@$R2EI@BA@PPPPPPPM@DA@EBAKAEAPEBVIError_v1@AdobeXMPCommon@@@Z 000000018003d7e4 f i XMPMetadataImpl.obj
 0001:0003c800       ?GetQualifier@IXMPNode_I@AdobeXMPCore_Int@@$R2EI@BA@PPPPPPPM@DA@EBAPEBVIXMPNode_v1@AdobeXMPCore@@PEBD0AEAPEBVIError_v1@AdobeXMPCommon@@@Z 000000018003d800 f i XMPMetadataImpl.obj
 0001:0003c81c       ?GetQualifier@IXMPNode_I@AdobeXMPCore_Int@@$R2EI@BA@PPPPPPPM@DA@EAAPEAVIXMPNode_v1@AdobeXMPCore@@PEBD0AEAPEBVIError_v1@AdobeXMPCommon@@@Z 000000018003d81c f i XMPMetadataImpl.obj
 0001:0003c838       ?GetName@IXMPNode_I@AdobeXMPCore_Int@@$R2EI@BA@PPPPPPPM@DA@EBAPEBVIUTF8String_v1@AdobeXMPCommon@@AEAPEBVIError_v1@4@@Z 000000018003d838 f i XMPMetadataImpl.obj
 0001:0003c854       ?GetAboutURI@IXMPMetadata_I@AdobeXMPCore_Int@@$2PPPPPPPM@A@EBAPEBVIUTF8String_v1@AdobeXMPCommon@@AEAPEBVIError_v1@4@@Z 000000018003d854 f i XMPMetadataImpl.obj
 0001:0003c860       ??_EXMPMetadataImpl@AdobeXMPCore_Int@@OPI@EAAPEAXI@Z 000000018003d860 f i XMPMetadataImpl.obj
 0001:0003c86c       ?IsEmpty@IXMPCompositeNode_I@AdobeXMPCore_Int@@$R2II@BI@PPPPPPPM@FI@EBAKAEAPEBVIError_v1@AdobeXMPCommon@@@Z 000000018003d86c f i XMPMetadataImpl.obj
 0001:0003c888       ?ClearContents@XMPStructureNodeImpl@AdobeXMPCore_Int@@$4PPPPPPPM@A@EAAXXZ 000000018003d888 f i XMPMetadataImpl.obj
 0001:0003c894       ?IsArrayItem@XMPNodeImpl@AdobeXMPCore_Int@@$R4GA@CM@PPPPPPPM@MI@EBA_NXZ 000000018003d894 f i XMPMetadataImpl.obj
 0001:0003c8b0       ?GetPath@IXMPNode_I@AdobeXMPCore_Int@@$R2EI@BA@PPPPPPPM@DA@EBAPEAVIXMPPath_v1@AdobeXMPCore@@KAEAPEBVIError_v1@AdobeXMPCommon@@@Z 000000018003d8b0 f i XMPMetadataImpl.obj
 0001:0003c8cc       ?RemoveNode@IXMPStructureNode_I@AdobeXMPCore_Int@@$R2HI@CA@PPPPPPPM@IA@EAAPEAVIXMPNode_v1@AdobeXMPCore@@PEBD0AEAPEBVIError_v1@AdobeXMPCommon@@@Z 000000018003d8cc f i XMPMetadataImpl.obj
 0001:0003c8e8       ?AppendNode_I@XMPStructureNodeImpl@AdobeXMPCore_Int@@$4PPPPPPPM@A@EAAXAEBV?$shared_ptr@VIXMPNode_I@AdobeXMPCore_Int@@@std@@@Z 000000018003d8e8 f i XMPMetadataImpl.obj
 0001:0003c8f4       ?GetRawParentPointer_I@XMPNodeImpl@AdobeXMPCore_Int@@$R4GA@CM@PPPPPPPM@MI@EBAPEBVIXMPNode_I@2@XZ 000000018003d8f4 f i XMPMetadataImpl.obj
 0001:0003c8f4       ?GetRawParentPointer_I@XMPNodeImpl@AdobeXMPCore_Int@@$R4GA@CM@PPPPPPPM@MI@EAAPEAVIXMPNode_I@2@XZ 000000018003d8f4 f i XMPMetadataImpl.obj
 0001:0003c910       ?GetName_I@XMPNodeImpl@AdobeXMPCore_Int@@$R4GA@CM@PPPPPPPM@MI@EBA?AV?$shared_ptr@$$CBVIUTF8String_I@AdobeXMPCommon_Int@@@std@@XZ 000000018003d910 f i XMPMetadataImpl.obj
 0001:0003c92c       ?Clone@IXMPNode_I@AdobeXMPCore_Int@@$R2EI@BA@PPPPPPPM@DA@EBAPEAVIXMPNode_v1@AdobeXMPCore@@KKKAEAPEBVIError_v1@AdobeXMPCommon@@@Z 000000018003d92c f i XMPMetadataImpl.obj
 0001:0003c948       ?RemoveNode@IXMPStructureNode_I@AdobeXMPCore_Int@@$R2LI@CA@PPPPPPPM@IA@EAAPEAVIXMPNode_v1@AdobeXMPCore@@PEBD0AEAPEBVIError_v1@AdobeXMPCommon@@@Z 000000018003d948 f i XMPMetadataImpl.obj
 0001:0003c964       ?GetNodeType@XMPStructureNodeImpl@AdobeXMPCore_Int@@$R4HA@DM@PPPPPPPM@GA@EBA?AW4eXMPNodeType@IXMPNode_v1@AdobeXMPCore@@XZ 000000018003d964 f i XMPMetadataImpl.obj
 0001:0003c980       ?RemoveNode@IXMPCompositeNode_I@AdobeXMPCore_Int@@$R2HI@BI@PPPPPPPM@FI@EAAPEAVIXMPNode_v1@AdobeXMPCore@@PEBVIXMPPath_v1@4@AEAPEBVIError_v1@AdobeXMPCommon@@@Z 000000018003d980 f i XMPMetadataImpl.obj
 0001:0003c99c       ?ReplaceQualifier@IXMPNode_I@AdobeXMPCore_Int@@$R2EI@BA@PPPPPPPM@DA@EAAXPEAVIXMPNode_v1@AdobeXMPCore@@AEAPEBVIError_v1@AdobeXMPCommon@@@Z 000000018003d99c f i XMPMetadataImpl.obj
 0001:0003c9b8       ?ReplaceNode_I@XMPStructureNodeImpl@AdobeXMPCore_Int@@$R4NA@DM@PPPPPPPM@MA@EAAXAEBV?$shared_ptr@VIXMPNode_I@AdobeXMPCore_Int@@@std@@@Z 000000018003d9b8 f i XMPMetadataImpl.obj
 0001:0003c9d4       ?GetQualifiers_I@XMPNodeImpl@AdobeXMPCore_Int@@$R4GA@CM@PPPPPPPM@MI@EAA?AV?$shared_ptr@VIXMPQualifiers_I@AdobeXMPCore_Int@@@std@@XZ 000000018003d9d4 f i XMPMetadataImpl.obj
 0001:0003c9d4       ?GetQualifiers_I@XMPNodeImpl@AdobeXMPCore_Int@@$R4GA@CM@PPPPPPPM@MI@EBA?AV?$shared_ptr@$$CBVIXMPQualifiers_I@AdobeXMPCore_Int@@@std@@XZ 000000018003d9d4 f i XMPMetadataImpl.obj
 0001:0003c9f0       ?InsertQualifier@IXMPNode_I@AdobeXMPCore_Int@@$R2EI@BA@PPPPPPPM@DA@EAAXPEAVIXMPNode_v1@AdobeXMPCore@@AEAPEBVIError_v1@AdobeXMPCommon@@@Z 000000018003d9f0 f i XMPMetadataImpl.obj
 0001:0003ca0c       ?Clone_I@XMPNodeImpl@AdobeXMPCore_Int@@$R4HA@DE@PPPPPPPM@MI@EBA?AV?$shared_ptr@VIXMPNode_I@AdobeXMPCore_Int@@@std@@_N0W4eMultiThreadingSupport@AdobeXMPCommon@@@Z 000000018003da0c f i XMPMetadataImpl.obj
 0001:0003ca28       ??_EXMPStructureNodeImpl@AdobeXMPCore_Int@@OMI@EAAPEAXI@Z 000000018003da28 f i XMPMetadataImpl.obj
 0001:0003ca34       ?GetNode_I@XMPCompositeNodeImpl@AdobeXMPCore_Int@@$R4JA@DA@PPPPPPPM@BBA@EBA?AV?$shared_ptr@$$CBVIXMPNode_I@AdobeXMPCore_Int@@@std@@AEBV?$shared_ptr@$$CBVIXMPPath_I@AdobeXMPCore_Int@@@4@@Z 000000018003da34 f i XMPMetadataImpl.obj
 0001:0003ca54       ?GetNode_I@XMPCompositeNodeImpl@AdobeXMPCore_Int@@$R4JA@DA@PPPPPPPM@BBA@EAA?AV?$shared_ptr@VIXMPNode_I@AdobeXMPCore_Int@@@std@@AEBV?$shared_ptr@$$CBVIXMPPath_I@AdobeXMPCore_Int@@@4@@Z 000000018003da54 f i XMPMetadataImpl.obj
 0001:0003ca74       ?SetQualifiers_I@XMPNodeImpl@AdobeXMPCore_Int@@$R4GA@CM@PPPPPPPM@MI@EAAXAEBV?$shared_ptr@VIXMPQualifiers_I@AdobeXMPCore_Int@@@std@@@Z 000000018003da74 f i XMPMetadataImpl.obj
 0001:0003ca90       ?Clear@IXMPNode_I@AdobeXMPCore_Int@@$R2EI@BA@PPPPPPPM@DA@EAAXKKAEAPEBVIError_v1@AdobeXMPCommon@@@Z 000000018003da90 f i XMPMetadataImpl.obj
 0001:0003caac       ?AcquireSharedOwnershipForRawPointer@XMPNodeImpl@AdobeXMPCore_Int@@$R4DA@CM@PPPPPPPM@IA@EBAXXZ 000000018003daac f i XMPMetadataImpl.obj
 0001:0003cac8       ?ReplaceNode_I@XMPStructureNodeImpl@AdobeXMPCore_Int@@$4PPPPPPPM@A@EAAXAEBV?$shared_ptr@VIXMPNode_I@AdobeXMPCore_Int@@@std@@@Z 000000018003dac8 f i XMPMetadataImpl.obj
 0001:0003cad4       ?InsertNode_I@XMPCompositeNodeImpl@AdobeXMPCore_Int@@$R4JA@DA@PPPPPPPM@BBA@EAAXAEBV?$shared_ptr@VIXMPNode_I@AdobeXMPCore_Int@@@std@@AEBV?$shared_ptr@$$CBVIXMPPath_I@AdobeXMPCore_Int@@@4@@Z 000000018003dad4 f i XMPMetadataImpl.obj
 0001:0003caf4       ?GetNode@IXMPStructureNode_I@AdobeXMPCore_Int@@$2PPPPPPPM@A@EBAPEBVIXMPNode_v1@AdobeXMPCore@@PEBD0AEAPEBVIError_v1@AdobeXMPCommon@@@Z 000000018003daf4 f i XMPMetadataImpl.obj
 0001:0003cb00       ?GetNode@IXMPStructureNode_I@AdobeXMPCore_Int@@$2PPPPPPPM@A@EAAPEAVIXMPNode_v1@AdobeXMPCore@@PEBD0AEAPEBVIError_v1@AdobeXMPCommon@@@Z 000000018003db00 f i XMPMetadataImpl.obj
 0001:0003cb0c       ?GetAboutURI@IXMPMetadata_I@AdobeXMPCore_Int@@$R2OI@CI@PPPPPPPM@KI@EBAPEBVIUTF8String_v1@AdobeXMPCommon@@AEAPEBVIError_v1@4@@Z 000000018003db0c f i XMPMetadataImpl.obj
 0001:0003cb28       ?IsEmpty@XMPStructureNodeImpl@AdobeXMPCore_Int@@$R4KA@DM@PPPPPPPM@JA@EBA_NXZ 000000018003db28 f i XMPMetadataImpl.obj
 0001:0003cb44       ?GetParent@IXMPNode_I@AdobeXMPCore_Int@@$R2FI@BA@PPPPPPPM@DA@EBAPEBVIXMPNode_v1@AdobeXMPCore@@AEAPEBVIError_v1@AdobeXMPCommon@@@Z 000000018003db44 f i XMPMetadataImpl.obj
 0001:0003cb60       ?GetParent@IXMPNode_I@AdobeXMPCore_Int@@$R2FI@BA@PPPPPPPM@DA@EAAPEAVIXMPNode_v1@AdobeXMPCore@@AEAPEBVIError_v1@AdobeXMPCommon@@@Z 000000018003db60 f i XMPMetadataImpl.obj
 0001:0003cb7c       ?GetNameSpace@IXMPNode_I@AdobeXMPCore_Int@@$R2EI@BA@PPPPPPPM@DA@EBAPEBVIUTF8String_v1@AdobeXMPCommon@@AEAPEBVIError_v1@4@@Z 000000018003db7c f i XMPMetadataImpl.obj
 0001:0003cb98       ?HasQualifiers@IXMPNode_I@AdobeXMPCore_Int@@$R2EI@BA@PPPPPPPM@DA@EBAKAEAPEBVIError_v1@AdobeXMPCommon@@@Z 000000018003db98 f i XMPMetadataImpl.obj
 0001:0003cbb4       ?ClearContents@XMPMetadataImpl@AdobeXMPCore_Int@@$4PPPPPPPM@A@EAAXXZ 000000018003dbb4 f i XMPMetadataImpl.obj
 0001:0003cbc0       ?RemoveQualifier@IXMPNode_I@AdobeXMPCore_Int@@$R2FI@BA@PPPPPPPM@DA@EAAPEAVIXMPNode_v1@AdobeXMPCore@@PEBD0AEAPEBVIError_v1@AdobeXMPCommon@@@Z 000000018003dbc0 f i XMPMetadataImpl.obj
 0001:0003cbdc       ?ReleaseSharedOwnership@XMPNodeImpl@AdobeXMPCore_Int@@$R4DA@DE@PPPPPPPM@HA@EBAXXZ 000000018003dbdc f i XMPMetadataImpl.obj
 0001:0003cbf8       ?GetQualifiers@IXMPNode_I@AdobeXMPCore_Int@@$R2EI@BA@PPPPPPPM@DA@EBAPEBVIXMPQualifiers_v1@AdobeXMPCore@@AEAPEBVIError_v1@AdobeXMPCommon@@@Z 000000018003dbf8 f i XMPMetadataImpl.obj
 0001:0003cc14       ?GetQualifiers@IXMPNode_I@AdobeXMPCore_Int@@$R2EI@BA@PPPPPPPM@DA@EAAPEAVIXMPQualifiers_v1@AdobeXMPCore@@AEAPEBVIError_v1@AdobeXMPCommon@@@Z 000000018003dc14 f i XMPMetadataImpl.obj
 0001:0003cc30       ?GetNode@IXMPStructureNode_I@AdobeXMPCore_Int@@$R2HI@CA@PPPPPPPM@IA@EBAPEBVIXMPNode_v1@AdobeXMPCore@@PEBD0AEAPEBVIError_v1@AdobeXMPCommon@@@Z 000000018003dc30 f i XMPMetadataImpl.obj
 0001:0003cc4c       ?GetNode@IXMPStructureNode_I@AdobeXMPCore_Int@@$R2HI@CA@PPPPPPPM@IA@EAAPEAVIXMPNode_v1@AdobeXMPCore@@PEBD0AEAPEBVIError_v1@AdobeXMPCommon@@@Z 000000018003dc4c f i XMPMetadataImpl.obj
 0001:0003cc68       ?GetNode_I@XMPStructureNodeImpl@AdobeXMPCore_Int@@$R4NA@DM@PPPPPPPM@MA@EBA?AV?$shared_ptr@$$CBVIXMPNode_I@AdobeXMPCore_Int@@@std@@PEBD0@Z 000000018003dc68 f i XMPMetadataImpl.obj
 0001:0003cc84       ?GetNode_I@XMPStructureNodeImpl@AdobeXMPCore_Int@@$R4NA@DM@PPPPPPPM@MA@EAA?AV?$shared_ptr@VIXMPNode_I@AdobeXMPCore_Int@@@std@@PEBD0@Z 000000018003dc84 f i XMPMetadataImpl.obj
 0001:0003cca0       ?ChangeParent_I@XMPNodeImpl@AdobeXMPCore_Int@@$R4HA@DE@PPPPPPPM@MI@EAAXPEAVIXMPNode_I@2@@Z 000000018003dca0 f i XMPMetadataImpl.obj
 0001:0003ccbc       ?IsArrayItem@IXMPNode_I@AdobeXMPCore_Int@@$R2EI@BA@PPPPPPPM@DA@EBAKAEAPEBVIError_v1@AdobeXMPCommon@@@Z 000000018003dcbc f i XMPMetadataImpl.obj
 0001:0003ccd8       ?InsertNode_I@XMPStructureNodeImpl@AdobeXMPCore_Int@@$R4NA@DM@PPPPPPPM@MA@EAAXAEBV?$shared_ptr@VIXMPNode_I@AdobeXMPCore_Int@@@std@@@Z 000000018003dcd8 f i XMPMetadataImpl.obj
 0001:0003ccf4       ?GetNode@IXMPStructureNode_I@AdobeXMPCore_Int@@$R2LI@CA@PPPPPPPM@IA@EBAPEBVIXMPNode_v1@AdobeXMPCore@@PEBD0AEAPEBVIError_v1@AdobeXMPCommon@@@Z 000000018003dcf4 f i XMPMetadataImpl.obj
 0001:0003cd10       ?GetNode@IXMPStructureNode_I@AdobeXMPCore_Int@@$R2LI@CA@PPPPPPPM@IA@EAAPEAVIXMPNode_v1@AdobeXMPCore@@PEBD0AEAPEBVIError_v1@AdobeXMPCommon@@@Z 000000018003dd10 f i XMPMetadataImpl.obj
 0001:0003cd2c       ?InsertNode@IXMPStructureNode_I@AdobeXMPCore_Int@@$R2KI@CA@PPPPPPPM@IA@EAAXPEAVIXMPNode_v1@AdobeXMPCore@@AEAPEBVIError_v1@AdobeXMPCommon@@@Z 000000018003dd2c f i XMPMetadataImpl.obj
 0001:0003cd48       ?GetNode@IXMPCompositeNode_I@AdobeXMPCore_Int@@$R2HI@BI@PPPPPPPM@FI@EBAPEBVIXMPNode_v1@AdobeXMPCore@@PEBVIXMPPath_v1@4@AEAPEBVIError_v1@AdobeXMPCommon@@@Z 000000018003dd48 f i XMPMetadataImpl.obj
 0001:0003cd64       ?GetNode@IXMPCompositeNode_I@AdobeXMPCore_Int@@$R2HI@BI@PPPPPPPM@FI@EAAPEAVIXMPNode_v1@AdobeXMPCore@@PEBVIXMPPath_v1@4@AEAPEBVIError_v1@AdobeXMPCommon@@@Z 000000018003dd64 f i XMPMetadataImpl.obj
 0001:0003cd80       ?GetNodeType@XMPStructureNodeImpl@AdobeXMPCore_Int@@$4PPPPPPPM@A@EBA?AW4eXMPNodeType@IXMPNode_v1@AdobeXMPCore@@XZ 000000018003dd80 f i XMPMetadataImpl.obj
 0001:0003cd8c       ?SetAboutURI@XMPMetadataImpl@AdobeXMPCore_Int@@$4PPPPPPPM@A@EAAXPEBD@Z 000000018003dd8c f i XMPMetadataImpl.obj
 0001:0003cd98       ?InsertNode@IXMPCompositeNode_I@AdobeXMPCore_Int@@$R2II@BI@PPPPPPPM@FI@EAAXPEAVIXMPNode_v1@AdobeXMPCore@@PEBVIXMPPath_v1@4@AEAPEBVIError_v1@AdobeXMPCommon@@@Z 000000018003dd98 f i XMPMetadataImpl.obj
 0001:0003cdb4       ?GetQualifier_I@XMPNodeImpl@AdobeXMPCore_Int@@$R4HA@DE@PPPPPPPM@MI@EBA?AV?$shared_ptr@$$CBVIXMPNode_I@AdobeXMPCore_Int@@@std@@PEBD0@Z 000000018003ddb4 f i XMPMetadataImpl.obj
 0001:0003cdd0       ?GetQualifier_I@XMPNodeImpl@AdobeXMPCore_Int@@$R4HA@DE@PPPPPPPM@MI@EAA?AV?$shared_ptr@VIXMPNode_I@AdobeXMPCore_Int@@@std@@PEBD0@Z 000000018003ddd0 f i XMPMetadataImpl.obj
 0001:0003cdec       ?CloneContents@XMPStructureNodeImpl@AdobeXMPCore_Int@@$4PPPPPPPM@A@EBA?AV?$shared_ptr@VIXMPNode_I@AdobeXMPCore_Int@@@std@@_N0_KW4eMultiThreadingSupport@AdobeXMPCommon@@@Z 000000018003ddec f i XMPMetadataImpl.obj
 0001:0003cdf8       ?Clone_I@XMPNodeImpl@AdobeXMPCore_Int@@$R4GA@CM@PPPPPPPM@MI@EBA?AV?$shared_ptr@VIXMPNode_I@AdobeXMPCore_Int@@@std@@_N0W4eMultiThreadingSupport@AdobeXMPCommon@@@Z 000000018003ddf8 f i XMPMetadataImpl.obj
 0001:0003ce14       ?SetQualifiers@IXMPNode_I@AdobeXMPCore_Int@@$R2EI@BA@PPPPPPPM@DA@EAAXPEAVIXMPQualifiers_v1@AdobeXMPCore@@AEAPEBVIError_v1@AdobeXMPCommon@@@Z 000000018003de14 f i XMPMetadataImpl.obj
 0001:0003ce30       ?GetPath_I@XMPNodeImpl@AdobeXMPCore_Int@@$R4HA@DE@PPPPPPPM@MI@EBA?AV?$shared_ptr@VIXMPPath_I@AdobeXMPCore_Int@@@std@@W4eMultiThreadingSupport@AdobeXMPCommon@@@Z 000000018003de30 f i XMPMetadataImpl.obj
 0001:0003ce4c       ?GetNode_I@XMPStructureNodeImpl@AdobeXMPCore_Int@@$4PPPPPPPM@A@EBA?AV?$shared_ptr@$$CBVIXMPNode_I@AdobeXMPCore_Int@@@std@@PEBD0@Z 000000018003de4c f i XMPMetadataImpl.obj
 0001:0003ce58       ?GetNode_I@XMPStructureNodeImpl@AdobeXMPCore_Int@@$4PPPPPPPM@A@EAA?AV?$shared_ptr@VIXMPNode_I@AdobeXMPCore_Int@@@std@@PEBD0@Z 000000018003de58 f i XMPMetadataImpl.obj
 0001:0003ce64       ?IsEmpty@XMPStructureNodeImpl@AdobeXMPCore_Int@@$4PPPPPPPM@A@EBA_NXZ 000000018003de64 f i XMPMetadataImpl.obj
 0001:0003ce70       ??1IXMPNameSpacePrefixMap_v1@AdobeXMPCore@@MEAA@XZ 000000018003de70 f i XMPNameSpacePrefixMapImpl.obj
 0001:0003ce90       ??1IXMPNameSpacePrefixMap_I@AdobeXMPCore_Int@@MEAA@XZ 000000018003de90 f i XMPNameSpacePrefixMapImpl.obj
 0001:0003ceec       ?AddOrReplacePair@IXMPNameSpacePrefixMap_I@AdobeXMPCore_Int@@MEAAKPEBD0AEAPEBVIError_v1@AdobeXMPCommon@@@Z 000000018003deec f i XMPNameSpacePrefixMapImpl.obj
 0001:0003cf38       ?IsPrefixPresent@IXMPNameSpacePrefixMap_I@AdobeXMPCore_Int@@MEBAKPEBDAEAPEBVIError_v1@AdobeXMPCommon@@@Z 000000018003df38 f i XMPNameSpacePrefixMapImpl.obj
 0001:0003cf7c       ?IsNameSpacePresent@IXMPNameSpacePrefixMap_I@AdobeXMPCore_Int@@MEBAKPEBDAEAPEBVIError_v1@AdobeXMPCommon@@@Z 000000018003df7c f i XMPNameSpacePrefixMapImpl.obj
 0001:0003cfc0       ?GetNameSpace@IXMPNameSpacePrefixMap_I@AdobeXMPCore_Int@@MEBAPEBVIUTF8String_v1@AdobeXMPCommon@@PEBDAEAPEBVIError_v1@4@@Z 000000018003dfc0 f i XMPNameSpacePrefixMapImpl.obj
 0001:0003d004       ?GetPrefix@IXMPNameSpacePrefixMap_I@AdobeXMPCore_Int@@MEBAPEBVIUTF8String_v1@AdobeXMPCommon@@PEBDAEAPEBVIError_v1@4@@Z 000000018003e004 f i XMPNameSpacePrefixMapImpl.obj
 0001:0003d048       ?GetPairsCount@IXMPNameSpacePrefixMap_I@AdobeXMPCore_Int@@MEBA_KAEAPEBVIError_v1@AdobeXMPCommon@@@Z 000000018003e048 f i XMPNameSpacePrefixMapImpl.obj
 0001:0003d088       ?Clone@IXMPNameSpacePrefixMap_I@AdobeXMPCore_Int@@MEBAPEAVIXMPNameSpacePrefixMap_v1@AdobeXMPCore@@KAEAPEBVIError_v1@AdobeXMPCommon@@@Z 000000018003e088 f i XMPNameSpacePrefixMapImpl.obj
 0001:0003d0cc       ?RemoveNameSpace@IXMPNameSpacePrefixMap_I@AdobeXMPCore_Int@@MEAAKPEBDAEAPEBVIError_v1@AdobeXMPCommon@@@Z 000000018003e0cc f i XMPNameSpacePrefixMapImpl.obj
 0001:0003d110       ?RemovePrefix@IXMPNameSpacePrefixMap_I@AdobeXMPCore_Int@@MEAAKPEBDAEAPEBVIError_v1@AdobeXMPCommon@@@Z 000000018003e110 f i XMPNameSpacePrefixMapImpl.obj
 0001:0003d154       ??1XMPNameSpacePrefixMapImpl@AdobeXMPCore_Int@@MEAA@XZ 000000018003e154 f i XMPNameSpacePrefixMapImpl.obj
 0001:0003d278       ??_GXMPNameSpacePrefixMapImpl@AdobeXMPCore_Int@@MEAAPEAXI@Z 000000018003e278 f i XMPNameSpacePrefixMapImpl.obj
 0001:0003d278       ??_EXMPNameSpacePrefixMapImpl@AdobeXMPCore_Int@@MEAAPEAXI@Z 000000018003e278 f i * CIL library *:* CIL module *
 0001:0003d3d0       ??1?$map@V?$shared_ptr@$$CBVIUTF8String_I@AdobeXMPCommon_Int@@@std@@V12@UCompareUTF8Strings@XMPNameSpacePrefixMapImpl@AdobeXMPCore_Int@@V?$TAllocator@V?$shared_ptr@VIUTF8String_I@AdobeXMPCommon_Int@@@std@@@AdobeXMPCommon_Int@@@std@@QEAA@XZ 000000018003e3d0 f i XMPNameSpacePrefixMapImpl.obj
 0001:0003d83c       ?CreateEmptyNameSpacePrefixMap_I@IXMPNameSpacePrefixMap_I@AdobeXMPCore_Int@@SA?AV?$shared_ptr@VIXMPNameSpacePrefixMap_I@AdobeXMPCore_Int@@@std@@W4eMultiThreadingSupport@AdobeXMPCommon@@@Z 000000018003e83c f   XMPNameSpacePrefixMapImpl.obj
 0001:0003d8e8       ?GetDefaultNameSpacePrefixMap_I@IXMPNameSpacePrefixMap_I@AdobeXMPCore_Int@@SA?AV?$shared_ptr@$$CBVIXMPNameSpacePrefixMap_I@AdobeXMPCore_Int@@@std@@XZ 000000018003e8e8 f   XMPNameSpacePrefixMapImpl.obj
 0001:0003d954       ?AddOrReplacePair@XMPNameSpacePrefixMapImpl@AdobeXMPCore_Int@@UEAA_NPEBD0@Z 000000018003e954 f   XMPNameSpacePrefixMapImpl.obj
 0001:0003de88       ?RemovePrefix@XMPNameSpacePrefixMapImpl@AdobeXMPCore_Int@@UEAA_NPEBD@Z 000000018003ee88 f   XMPNameSpacePrefixMapImpl.obj
 0001:0003e164       ?RemoveNameSpace@XMPNameSpacePrefixMapImpl@AdobeXMPCore_Int@@UEAA_NPEBD@Z 000000018003f164 f   XMPNameSpacePrefixMapImpl.obj
 0001:0003e440       ?IsPrefixPresent@XMPNameSpacePrefixMapImpl@AdobeXMPCore_Int@@UEBA_NPEBD@Z 000000018003f440 f   XMPNameSpacePrefixMapImpl.obj
 0001:0003e668       ?IsNameSpacePresent@XMPNameSpacePrefixMapImpl@AdobeXMPCore_Int@@UEBA_NPEBD@Z 000000018003f668 f   XMPNameSpacePrefixMapImpl.obj
 0001:0003e890       ?GetNameSpace_I@XMPNameSpacePrefixMapImpl@AdobeXMPCore_Int@@UEBA?AV?$shared_ptr@$$CBVIUTF8String_I@AdobeXMPCommon_Int@@@std@@PEBD@Z 000000018003f890 f   XMPNameSpacePrefixMapImpl.obj
 0001:0003eb30       ?GetPrefix_I@XMPNameSpacePrefixMapImpl@AdobeXMPCore_Int@@UEBA?AV?$shared_ptr@$$CBVIUTF8String_I@AdobeXMPCommon_Int@@@std@@PEBD@Z 000000018003fb30 f   XMPNameSpacePrefixMapImpl.obj
 0001:0003edc4       ?GetPairsCount@XMPNameSpacePrefixMapImpl@AdobeXMPCore_Int@@UEBA_KXZ 000000018003fdc4 f   XMPNameSpacePrefixMapImpl.obj
 0001:0003edf8       ?Clone_I@XMPNameSpacePrefixMapImpl@AdobeXMPCore_Int@@UEBA?AV?$shared_ptr@VIXMPNameSpacePrefixMap_I@AdobeXMPCore_Int@@@std@@W4eMultiThreadingSupport@AdobeXMPCommon@@@Z 000000018003fdf8 f   XMPNameSpacePrefixMapImpl.obj
 0001:0003f074       ??0XMPNameSpacePrefixMapImpl@AdobeXMPCore_Int@@QEAA@W4eMultiThreadingSupport@AdobeXMPCommon@@@Z 0000000180040074 f   XMPNameSpacePrefixMapImpl.obj
 0001:0003f328       ??RCompareUTF8Strings@XMPNameSpacePrefixMapImpl@AdobeXMPCore_Int@@QEBA_NAEBV?$shared_ptr@$$CBVIUTF8String_I@AdobeXMPCommon_Int@@@std@@0@Z 0000000180040328 f   XMPNameSpacePrefixMapImpl.obj
 0001:0003f404       ??A?$map@V?$shared_ptr@$$CBVIUTF8String_I@AdobeXMPCommon_Int@@@std@@V12@UCompareUTF8Strings@XMPNameSpacePrefixMapImpl@AdobeXMPCore_Int@@V?$TAllocator@V?$shared_ptr@VIUTF8String_I@AdobeXMPCommon_Int@@@std@@@AdobeXMPCommon_Int@@@std@@QEAAAEAV?$shared_ptr@$$CBVIUTF8String_I@AdobeXMPCommon_Int@@@1@AEBV21@@Z 0000000180040404 f i XMPNameSpacePrefixMapImpl.obj
 0001:0003f4a8       ?erase@?$_Tree@V?$_Tmap_traits@V?$shared_ptr@$$CBVIUTF8String_I@AdobeXMPCommon_Int@@@std@@V12@UCompareUTF8Strings@XMPNameSpacePrefixMapImpl@AdobeXMPCore_Int@@V?$TAllocator@V?$shared_ptr@VIUTF8String_I@AdobeXMPCommon_Int@@@std@@@AdobeXMPCommon_Int@@$0A@@std@@@std@@QEAA_KAEBV?$shared_ptr@$$CBVIUTF8String_I@AdobeXMPCommon_Int@@@2@@Z 00000001800404a8 f i XMPNameSpacePrefixMapImpl.obj
 0001:0003f5c0       ?find@?$_Tree@V?$_Tmap_traits@V?$shared_ptr@$$CBVIUTF8String_I@AdobeXMPCommon_Int@@@std@@V12@UCompareUTF8Strings@XMPNameSpacePrefixMapImpl@AdobeXMPCore_Int@@V?$TAllocator@V?$shared_ptr@VIUTF8String_I@AdobeXMPCommon_Int@@@std@@@AdobeXMPCommon_Int@@$0A@@std@@@std@@QEBA?AV?$_Tree_const_iterator@V?$_Tree_val@U?$_Tree_simple_types@U?$pair@$$CBV?$shared_ptr@$$CBVIUTF8String_I@AdobeXMPCommon_Int@@@std@@V12@@std@@@std@@@std@@@2@AEBV?$shared_ptr@$$CBVIUTF8String_I@AdobeXMPCommon_Int@@@2@@Z 00000001800405c0 f i XMPNameSpacePrefixMapImpl.obj
 0001:0003f5c0       ?find@?$_Tree@V?$_Tmap_traits@V?$shared_ptr@$$CBVIUTF8String_I@AdobeXMPCommon_Int@@@std@@V12@UCompareUTF8Strings@XMPNameSpacePrefixMapImpl@AdobeXMPCore_Int@@V?$TAllocator@V?$shared_ptr@VIUTF8String_I@AdobeXMPCommon_Int@@@std@@@AdobeXMPCommon_Int@@$0A@@std@@@std@@QEAA?AV?$_Tree_iterator@V?$_Tree_val@U?$_Tree_simple_types@U?$pair@$$CBV?$shared_ptr@$$CBVIUTF8String_I@AdobeXMPCommon_Int@@@std@@V12@@std@@@std@@@std@@@2@AEBV?$shared_ptr@$$CBVIUTF8String_I@AdobeXMPCommon_Int@@@2@@Z 00000001800405c0 f i XMPNameSpacePrefixMapImpl.obj
 0001:0003f64c       ?erase@?$_Tree@V?$_Tmap_traits@V?$shared_ptr@$$CBVIUTF8String_I@AdobeXMPCommon_Int@@@std@@V12@UCompareUTF8Strings@XMPNameSpacePrefixMapImpl@AdobeXMPCore_Int@@V?$TAllocator@V?$shared_ptr@VIUTF8String_I@AdobeXMPCommon_Int@@@std@@@AdobeXMPCommon_Int@@$0A@@std@@@std@@QEAA?AV?$_Tree_iterator@V?$_Tree_val@U?$_Tree_simple_types@U?$pair@$$CBV?$shared_ptr@$$CBVIUTF8String_I@AdobeXMPCommon_Int@@@std@@V12@@std@@@std@@@std@@@2@V?$_Tree_const_iterator@V?$_Tree_val@U?$_Tree_simple_types@U?$pair@$$CBV?$shared_ptr@$$CBVIUTF8String_I@AdobeXMPCommon_Int@@@std@@V12@@std@@@std@@@std@@@2@0@Z 000000018004064c f i XMPNameSpacePrefixMapImpl.obj
 0001:0003f754       ?erase@?$_Tree@V?$_Tmap_traits@V?$shared_ptr@$$CBVIUTF8String_I@AdobeXMPCommon_Int@@@std@@V12@UCompareUTF8Strings@XMPNameSpacePrefixMapImpl@AdobeXMPCore_Int@@V?$TAllocator@V?$shared_ptr@VIUTF8String_I@AdobeXMPCommon_Int@@@std@@@AdobeXMPCommon_Int@@$0A@@std@@@std@@QEAA?AV?$_Tree_iterator@V?$_Tree_val@U?$_Tree_simple_types@U?$pair@$$CBV?$shared_ptr@$$CBVIUTF8String_I@AdobeXMPCommon_Int@@@std@@V12@@std@@@std@@@std@@@2@V?$_Tree_const_iterator@V?$_Tree_val@U?$_Tree_simple_types@U?$pair@$$CBV?$shared_ptr@$$CBVIUTF8String_I@AdobeXMPCommon_Int@@@std@@V12@@std@@@std@@@std@@@2@@Z 0000000180040754 f i XMPNameSpacePrefixMapImpl.obj
 0001:0003fbe8       ?_Erase@?$_Tree@V?$_Tmap_traits@V?$shared_ptr@$$CBVIUTF8String_I@AdobeXMPCommon_Int@@@std@@V12@UCompareUTF8Strings@XMPNameSpacePrefixMapImpl@AdobeXMPCore_Int@@V?$TAllocator@V?$shared_ptr@VIUTF8String_I@AdobeXMPCommon_Int@@@std@@@AdobeXMPCommon_Int@@$0A@@std@@@std@@IEAAXPEAU?$_Tree_node@U?$pair@$$CBV?$shared_ptr@$$CBVIUTF8String_I@AdobeXMPCommon_Int@@@std@@V12@@std@@PEAX@2@@Z 0000000180040be8 f i XMPNameSpacePrefixMapImpl.obj
 0001:0003fc40       ?_Buyheadnode@?$_Tree_alloc@$0A@U?$_Tree_base_types@U?$pair@$$CBV?$shared_ptr@$$CBVIUTF8String_I@AdobeXMPCommon_Int@@@std@@V12@@std@@V?$TAllocator@V?$shared_ptr@VIUTF8String_I@AdobeXMPCommon_Int@@@std@@@AdobeXMPCommon_Int@@@std@@@std@@QEAAPEAU?$_Tree_node@U?$pair@$$CBV?$shared_ptr@$$CBVIUTF8String_I@AdobeXMPCommon_Int@@@std@@V12@@std@@PEAX@2@XZ 0000000180040c40 f i XMPNameSpacePrefixMapImpl.obj
 0001:0003fc7c       ??$CallUnSafeFunction@VIXMPNameSpacePrefixMap_I@AdobeXMPCore_Int@@K_NPEBDPEBD@AdobeXMPCommon_Int@@YAKAEAPEBVIError_v1@AdobeXMPCommon@@PEAVIXMPNameSpacePrefixMap_I@AdobeXMPCore_Int@@KP834@EAA_NPEBD2@Z22@Z 0000000180040c7c f i XMPNameSpacePrefixMapImpl.obj
 0001:0003fccc       ??$CallConstUnSafeFunction@VIXMPNameSpacePrefixMap_I@AdobeXMPCore_Int@@K_NPEBD@AdobeXMPCommon_Int@@YAKAEAPEBVIError_v1@AdobeXMPCommon@@QEBVIXMPNameSpacePrefixMap_I@AdobeXMPCore_Int@@KP834@EBA_NPEBD@Z2@Z 0000000180040ccc f i XMPNameSpacePrefixMapImpl.obj
 0001:0003fd14       ??$CallConstUnSafeFunctionReturningSharedPointer@VIError_I@AdobeXMPCommon_Int@@PEBVIUTF8String_v1@AdobeXMPCommon@@$$CBVIUTF8String_I@2@_K@AdobeXMPCommon_Int@@YAPEBVIUTF8String_v1@AdobeXMPCommon@@AEAPEBVIError_v1@2@QEBVIError_I@0@P840@EBA?AV?$shared_ptr@$$CBVIUTF8String_I@AdobeXMPCommon_Int@@@std@@_K@Z2@Z 0000000180040d14 f i XMPCommon:ErrorImpl.obj
 0001:0003fd14       ??$CallConstUnSafeFunctionReturningSharedPointer@VIXMPDOMSerializer_I@AdobeXMPCore_Int@@PEAVIUTF8String_v1@AdobeXMPCommon@@VIUTF8String_I@AdobeXMPCommon_Int@@AEBV?$shared_ptr@VIXMPNode_I@AdobeXMPCore_Int@@@std@@@AdobeXMPCommon_Int@@YAPEAVIUTF8String_v1@AdobeXMPCommon@@AEAPEBVIError_v1@2@QEBVIXMPDOMSerializer_I@AdobeXMPCore_Int@@P845@EBA?AV?$shared_ptr@VIUTF8String_I@AdobeXMPCommon_Int@@@std@@AEBV?$shared_ptr@VIXMPNode_I@AdobeXMPCore_Int@@@7@@Z2@Z 0000000180040d14 f i RDFXMPDOMSerializerImpl.obj
 0001:0003fd14       ??$CallConstUnSafeFunctionReturningSharedPointer@VIXMPPath_I@AdobeXMPCore_Int@@PEAVIUTF8String_v1@AdobeXMPCommon@@VIUTF8String_I@AdobeXMPCommon_Int@@AEBV?$shared_ptr@$$CBVIXMPNameSpacePrefixMap_I@AdobeXMPCore_Int@@@std@@@AdobeXMPCommon_Int@@YAPEAVIUTF8String_v1@AdobeXMPCommon@@AEAPEBVIError_v1@2@QEBVIXMPPath_I@AdobeXMPCore_Int@@P845@EBA?AV?$shared_ptr@VIUTF8String_I@AdobeXMPCommon_Int@@@std@@AEBV?$shared_ptr@$$CBVIXMPNameSpacePrefixMap_I@AdobeXMPCore_Int@@@7@@Z2@Z 0000000180040d14 f i XMPPathImpl.obj
 0001:0003fd14       ??$CallConstUnSafeFunctionReturningSharedPointer@VIXMPNameSpacePrefixMap_I@AdobeXMPCore_Int@@PEBVIUTF8String_v1@AdobeXMPCommon@@$$CBVIUTF8String_I@AdobeXMPCommon_Int@@PEBD@AdobeXMPCommon_Int@@YAPEBVIUTF8String_v1@AdobeXMPCommon@@AEAPEBVIError_v1@2@QEBVIXMPNameSpacePrefixMap_I@AdobeXMPCore_Int@@P845@EBA?AV?$shared_ptr@$$CBVIUTF8String_I@AdobeXMPCommon_Int@@@std@@PEBD@Z2@Z 0000000180040d14 f i XMPNameSpacePrefixMapImpl.obj
 0001:0003fe28       ??$CallUnSafeFunction@VIConfigurationManager_I@AdobeXMPCommon_Int@@K_NAEBV?$shared_ptr@VIClientErrorNotifier_I@AdobeXMPCommon_Int@@@std@@@AdobeXMPCommon_Int@@YAKAEAPEBVIError_v1@AdobeXMPCommon@@PEAVIConfigurationManager_I@0@KP830@EAA_NAEBV?$shared_ptr@VIClientErrorNotifier_I@AdobeXMPCommon_Int@@@std@@@Z2@Z 0000000180040e28 f i XMPCommon:ConfigurationManagerImpl.obj
 0001:0003fe28       ??$CallUnSafeFunction@VIXMPNameSpacePrefixMap_I@AdobeXMPCore_Int@@K_NPEBD@AdobeXMPCommon_Int@@YAKAEAPEBVIError_v1@AdobeXMPCommon@@PEAVIXMPNameSpacePrefixMap_I@AdobeXMPCore_Int@@KP834@EAA_NPEBD@Z2@Z 0000000180040e28 f i XMPNameSpacePrefixMapImpl.obj
 0001:0003fe28       ??$CallUnSafeFunction@VIConfigurationManager_I@AdobeXMPCommon_Int@@K_NAEBV?$shared_ptr@VIClientAllocator_I@AdobeXMPCommon_Int@@@std@@@AdobeXMPCommon_Int@@YAKAEAPEBVIError_v1@AdobeXMPCommon@@PEAVIConfigurationManager_I@0@KP830@EAA_NAEBV?$shared_ptr@VIClientAllocator_I@AdobeXMPCommon_Int@@@std@@@Z2@Z 0000000180040e28 f i XMPCommon:ConfigurationManagerImpl.obj
 0001:0003fe70       ??$MakeUncheckedSharedPointer@VXMPNameSpacePrefixMapImpl@AdobeXMPCore_Int@@@AdobeXMPCommon_Int@@YA?AV?$shared_ptr@VXMPNameSpacePrefixMapImpl@AdobeXMPCore_Int@@@std@@PEAVXMPNameSpacePrefixMapImpl@AdobeXMPCore_Int@@@Z 0000000180040e70 f i XMPNameSpacePrefixMapImpl.obj
 0001:0003feec       ??$_Buynode@AEBUpiecewise_construct_t@std@@V?$tuple@AEBV?$shared_ptr@$$CBVIUTF8String_I@AdobeXMPCommon_Int@@@std@@@2@V?$tuple@$$$V@2@@?$_Tree_buy@U?$pair@$$CBV?$shared_ptr@$$CBVIUTF8String_I@AdobeXMPCommon_Int@@@std@@V12@@std@@V?$TAllocator@V?$shared_ptr@VIUTF8String_I@AdobeXMPCommon_Int@@@std@@@AdobeXMPCommon_Int@@@std@@QEAAPEAU?$_Tree_node@U?$pair@$$CBV?$shared_ptr@$$CBVIUTF8String_I@AdobeXMPCommon_Int@@@std@@V12@@std@@PEAX@1@AEBUpiecewise_construct_t@1@$$QEAV?$tuple@AEBV?$shared_ptr@$$CBVIUTF8String_I@AdobeXMPCommon_Int@@@std@@@1@$$QEAV?$tuple@$$$V@1@@Z 0000000180040eec f i XMPNameSpacePrefixMapImpl.obj
 0001:0003ff40       ??$_Insert_hint@AEAU?$pair@$$CBV?$shared_ptr@$$CBVIUTF8String_I@AdobeXMPCommon_Int@@@std@@V12@@std@@PEAU?$_Tree_node@U?$pair@$$CBV?$shared_ptr@$$CBVIUTF8String_I@AdobeXMPCommon_Int@@@std@@V12@@std@@PEAX@2@@?$_Tree@V?$_Tmap_traits@V?$shared_ptr@$$CBVIUTF8String_I@AdobeXMPCommon_Int@@@std@@V12@UCompareUTF8Strings@XMPNameSpacePrefixMapImpl@AdobeXMPCore_Int@@V?$TAllocator@V?$shared_ptr@VIUTF8String_I@AdobeXMPCommon_Int@@@std@@@AdobeXMPCommon_Int@@$0A@@std@@@std@@IEAA?AV?$_Tree_iterator@V?$_Tree_val@U?$_Tree_simple_types@U?$pair@$$CBV?$shared_ptr@$$CBVIUTF8String_I@AdobeXMPCommon_Int@@@std@@V12@@std@@@std@@@std@@@1@V?$_Tree_const_iterator@V?$_Tree_val@U?$_Tree_simple_types@U?$pair@$$CBV?$shared_ptr@$$CBVIUTF8String_I@AdobeXMPCommon_Int@@@std@@V12@@std@@@std@@@std@@@1@AEAU?$pair@$$CBV?$shared_ptr@$$CBVIUTF8String_I@AdobeXMPCommon_Int@@@std@@V12@@1@PEAU?$_Tree_node@U?$pair@$$CBV?$shared_ptr@$$CBVIUTF8String_I@AdobeXMPCommon_Int@@@std@@V12@@std@@PEAX@1@@Z 0000000180040f40 f i XMPNameSpacePrefixMapImpl.obj
 0001:000401d4       ?_Buynode0@?$_Tree_buy@U?$pair@$$CBV?$shared_ptr@$$CBVIUTF8String_I@AdobeXMPCommon_Int@@@std@@V12@@std@@V?$TAllocator@V?$shared_ptr@VIUTF8String_I@AdobeXMPCommon_Int@@@std@@@AdobeXMPCommon_Int@@@std@@QEAAPEAU?$_Tree_node@U?$pair@$$CBV?$shared_ptr@$$CBVIUTF8String_I@AdobeXMPCommon_Int@@@std@@V12@@std@@PEAX@2@XZ 00000001800411d4 f i XMPNameSpacePrefixMapImpl.obj
 0001:0004021c       ??$_Resetp@VXMPNameSpacePrefixMapImpl@AdobeXMPCore_Int@@V?$_Mem_fn_wrap@XP8IntrusiveRefCountSharedOwnership@AdobeXMPCommon_Int@@EBAXXZ$$CBV12@$$$V@std@@V?$TAllocator@VXMPNameSpacePrefixMapImpl@AdobeXMPCore_Int@@@AdobeXMPCommon_Int@@@?$shared_ptr@VXMPNameSpacePrefixMapImpl@AdobeXMPCore_Int@@@std@@AEAAXPEAVXMPNameSpacePrefixMapImpl@AdobeXMPCore_Int@@V?$_Mem_fn_wrap@XP8IntrusiveRefCountSharedOwnership@AdobeXMPCommon_Int@@EBAXXZ$$CBV12@$$$V@1@V?$TAllocator@VXMPNameSpacePrefixMapImpl@AdobeXMPCore_Int@@@AdobeXMPCommon_Int@@@Z 000000018004121c f i XMPNameSpacePrefixMapImpl.obj
 0001:000402b8       ??$_Insert_at@AEAU?$pair@$$CBV?$shared_ptr@$$CBVIUTF8String_I@AdobeXMPCommon_Int@@@std@@V12@@std@@PEAU?$_Tree_node@U?$pair@$$CBV?$shared_ptr@$$CBVIUTF8String_I@AdobeXMPCommon_Int@@@std@@V12@@std@@PEAX@2@@?$_Tree@V?$_Tmap_traits@V?$shared_ptr@$$CBVIUTF8String_I@AdobeXMPCommon_Int@@@std@@V12@UCompareUTF8Strings@XMPNameSpacePrefixMapImpl@AdobeXMPCore_Int@@V?$TAllocator@V?$shared_ptr@VIUTF8String_I@AdobeXMPCommon_Int@@@std@@@AdobeXMPCommon_Int@@$0A@@std@@@std@@IEAA?AV?$_Tree_iterator@V?$_Tree_val@U?$_Tree_simple_types@U?$pair@$$CBV?$shared_ptr@$$CBVIUTF8String_I@AdobeXMPCommon_Int@@@std@@V12@@std@@@std@@@std@@@1@_NPEAU?$_Tree_node@U?$pair@$$CBV?$shared_ptr@$$CBVIUTF8String_I@AdobeXMPCommon_Int@@@std@@V12@@std@@PEAX@1@AEAU?$pair@$$CBV?$shared_ptr@$$CBVIUTF8String_I@AdobeXMPCommon_Int@@@std@@V12@@1@1@Z 00000001800412b8 f i XMPNameSpacePrefixMapImpl.obj
 0001:00040540       ??$_Insert_nohint@AEAU?$pair@$$CBV?$shared_ptr@$$CBVIUTF8String_I@AdobeXMPCommon_Int@@@std@@V12@@std@@PEAU?$_Tree_node@U?$pair@$$CBV?$shared_ptr@$$CBVIUTF8String_I@AdobeXMPCommon_Int@@@std@@V12@@std@@PEAX@2@@?$_Tree@V?$_Tmap_traits@V?$shared_ptr@$$CBVIUTF8String_I@AdobeXMPCommon_Int@@@std@@V12@UCompareUTF8Strings@XMPNameSpacePrefixMapImpl@AdobeXMPCore_Int@@V?$TAllocator@V?$shared_ptr@VIUTF8String_I@AdobeXMPCommon_Int@@@std@@@AdobeXMPCommon_Int@@$0A@@std@@@std@@IEAA?AU?$pair@V?$_Tree_iterator@V?$_Tree_val@U?$_Tree_simple_types@U?$pair@$$CBV?$shared_ptr@$$CBVIUTF8String_I@AdobeXMPCommon_Int@@@std@@V12@@std@@@std@@@std@@@std@@_N@1@_NAEAU?$pair@$$CBV?$shared_ptr@$$CBVIUTF8String_I@AdobeXMPCommon_Int@@@std@@V12@@1@PEAU?$_Tree_node@U?$pair@$$CBV?$shared_ptr@$$CBVIUTF8String_I@AdobeXMPCommon_Int@@@std@@V12@@std@@PEAX@1@@Z 0000000180041540 f i XMPNameSpacePrefixMapImpl.obj
 0001:000406bc       ?AddOrReplacePair@XMPNameSpacePrefixMapImpl@AdobeXMPCore_Int@@$4PPPPPPPM@A@EAA_NPEBD0@Z 00000001800416bc f i XMPNameSpacePrefixMapImpl.obj
 0001:000406c8       ?AddOrReplacePair@IXMPNameSpacePrefixMap_I@AdobeXMPCore_Int@@$R2IA@BE@PPPPPPPM@DA@EAAKPEBD0AEAPEBVIError_v1@AdobeXMPCommon@@@Z 00000001800416c8 f i XMPNameSpacePrefixMapImpl.obj
 0001:000406e4       ?Clone@IXMPNameSpacePrefixMap_I@AdobeXMPCore_Int@@$2PPPPPPPM@A@EBAPEAVIXMPNameSpacePrefixMap_v1@AdobeXMPCore@@KAEAPEBVIError_v1@AdobeXMPCommon@@@Z 00000001800416e4 f i XMPNameSpacePrefixMapImpl.obj
 0001:000406f0       ?ReleaseSharedOwnership@IntrusiveRefCountSharedOwnership@AdobeXMPCommon_Int@@$R4EA@M@PPPPPPPM@CA@EBAXXZ 00000001800416f0 f i XMPNameSpacePrefixMapImpl.obj
 0001:0004070c       ?GetNameSpace_I@XMPNameSpacePrefixMapImpl@AdobeXMPCore_Int@@$4PPPPPPPM@A@EBA?AV?$shared_ptr@$$CBVIUTF8String_I@AdobeXMPCommon_Int@@@std@@PEBD@Z 000000018004170c f i XMPNameSpacePrefixMapImpl.obj
 0001:00040718       ?IsNameSpacePresent@IXMPNameSpacePrefixMap_I@AdobeXMPCore_Int@@$2PPPPPPPM@A@EBAKPEBDAEAPEBVIError_v1@AdobeXMPCommon@@@Z 0000000180041718 f i XMPNameSpacePrefixMapImpl.obj
 0001:00040724       ??_EXMPNameSpacePrefixMapImpl@AdobeXMPCore_Int@@OGI@EAAPEAXI@Z 0000000180041724 f i XMPNameSpacePrefixMapImpl.obj
 0001:00040730       ?IsPrefixPresent@XMPNameSpacePrefixMapImpl@AdobeXMPCore_Int@@$4PPPPPPPM@A@EBA_NPEBD@Z 0000000180041730 f i XMPNameSpacePrefixMapImpl.obj
 0001:0004073c       ?IsPrefixPresent@IXMPNameSpacePrefixMap_I@AdobeXMPCore_Int@@$R2IA@BE@PPPPPPPM@DA@EBAKPEBDAEAPEBVIError_v1@AdobeXMPCommon@@@Z 000000018004173c f i XMPNameSpacePrefixMapImpl.obj
 0001:00040758       ?Clone_I@XMPNameSpacePrefixMapImpl@AdobeXMPCore_Int@@$4PPPPPPPM@A@EBA?AV?$shared_ptr@VIXMPNameSpacePrefixMap_I@AdobeXMPCore_Int@@@std@@W4eMultiThreadingSupport@AdobeXMPCommon@@@Z 0000000180041758 f i XMPNameSpacePrefixMapImpl.obj
 0001:00040764       ?RemoveNameSpace@IXMPNameSpacePrefixMap_I@AdobeXMPCore_Int@@$2PPPPPPPM@A@EAAKPEBDAEAPEBVIError_v1@AdobeXMPCommon@@@Z 0000000180041764 f i XMPNameSpacePrefixMapImpl.obj
 0001:00040770       ?GetPrefix@IXMPNameSpacePrefixMap_I@AdobeXMPCore_Int@@$R2IA@BE@PPPPPPPM@DA@EBAPEBVIUTF8String_v1@AdobeXMPCommon@@PEBDAEAPEBVIError_v1@4@@Z 0000000180041770 f i XMPNameSpacePrefixMapImpl.obj
 0001:0004078c       ?GetPairsCount@IXMPNameSpacePrefixMap_I@AdobeXMPCore_Int@@$2PPPPPPPM@A@EBA_KAEAPEBVIError_v1@AdobeXMPCommon@@@Z 000000018004178c f i XMPNameSpacePrefixMapImpl.obj
 0001:00040798       ?RemovePrefix@IXMPNameSpacePrefixMap_I@AdobeXMPCore_Int@@$2PPPPPPPM@A@EAAKPEBDAEAPEBVIError_v1@AdobeXMPCommon@@@Z 0000000180041798 f i XMPNameSpacePrefixMapImpl.obj
 0001:000407a4       ?GetNameSpace@IXMPNameSpacePrefixMap_I@AdobeXMPCore_Int@@$2PPPPPPPM@A@EBAPEBVIUTF8String_v1@AdobeXMPCommon@@PEBDAEAPEBVIError_v1@4@@Z 00000001800417a4 f i XMPNameSpacePrefixMapImpl.obj
 0001:000407b0       ?IsNameSpacePresent@XMPNameSpacePrefixMapImpl@AdobeXMPCore_Int@@$4PPPPPPPM@A@EBA_NPEBD@Z 00000001800417b0 f i XMPNameSpacePrefixMapImpl.obj
 0001:000407bc       ?Clone@IXMPNameSpacePrefixMap_I@AdobeXMPCore_Int@@$R2IA@BE@PPPPPPPM@DA@EBAPEAVIXMPNameSpacePrefixMap_v1@AdobeXMPCore@@KAEAPEBVIError_v1@AdobeXMPCommon@@@Z 00000001800417bc f i XMPNameSpacePrefixMapImpl.obj
 0001:000407d8       ?AcquireSharedOwnership@IntrusiveRefCountSharedOwnership@AdobeXMPCommon_Int@@$R4EA@M@PPPPPPPM@CA@EBAXXZ 00000001800417d8 f i XMPNameSpacePrefixMapImpl.obj
 0001:000407f4       ?IsNameSpacePresent@IXMPNameSpacePrefixMap_I@AdobeXMPCore_Int@@$R2IA@BE@PPPPPPPM@DA@EBAKPEBDAEAPEBVIError_v1@AdobeXMPCommon@@@Z 00000001800417f4 f i XMPNameSpacePrefixMapImpl.obj
 0001:00040810       ?GetPairsCount@XMPNameSpacePrefixMapImpl@AdobeXMPCore_Int@@$4PPPPPPPM@A@EBA_KXZ 0000000180041810 f i XMPNameSpacePrefixMapImpl.obj
 0001:0004081c       ?RemoveNameSpace@XMPNameSpacePrefixMapImpl@AdobeXMPCore_Int@@$4PPPPPPPM@A@EAA_NPEBD@Z 000000018004181c f i XMPNameSpacePrefixMapImpl.obj
 0001:00040828       ?RemoveNameSpace@IXMPNameSpacePrefixMap_I@AdobeXMPCore_Int@@$R2IA@BE@PPPPPPPM@DA@EAAKPEBDAEAPEBVIError_v1@AdobeXMPCommon@@@Z 0000000180041828 f i XMPNameSpacePrefixMapImpl.obj
 0001:00040844       ?AddOrReplacePair@IXMPNameSpacePrefixMap_I@AdobeXMPCore_Int@@$2PPPPPPPM@A@EAAKPEBD0AEAPEBVIError_v1@AdobeXMPCommon@@@Z 0000000180041844 f i XMPNameSpacePrefixMapImpl.obj
 0001:00040850       ?GetPrefix_I@XMPNameSpacePrefixMapImpl@AdobeXMPCore_Int@@$4PPPPPPPM@A@EBA?AV?$shared_ptr@$$CBVIUTF8String_I@AdobeXMPCommon_Int@@@std@@PEBD@Z 0000000180041850 f i XMPNameSpacePrefixMapImpl.obj
 0001:0004085c       ?RemovePrefix@XMPNameSpacePrefixMapImpl@AdobeXMPCore_Int@@$4PPPPPPPM@A@EAA_NPEBD@Z 000000018004185c f i XMPNameSpacePrefixMapImpl.obj
 0001:00040868       ?GetPairsCount@IXMPNameSpacePrefixMap_I@AdobeXMPCore_Int@@$R2IA@BE@PPPPPPPM@DA@EBA_KAEAPEBVIError_v1@AdobeXMPCommon@@@Z 0000000180041868 f i XMPNameSpacePrefixMapImpl.obj
 0001:00040884       ?RemovePrefix@IXMPNameSpacePrefixMap_I@AdobeXMPCore_Int@@$R2IA@BE@PPPPPPPM@DA@EAAKPEBDAEAPEBVIError_v1@AdobeXMPCommon@@@Z 0000000180041884 f i XMPNameSpacePrefixMapImpl.obj
 0001:000408a0       ?GetNameSpace@IXMPNameSpacePrefixMap_I@AdobeXMPCore_Int@@$R2IA@BE@PPPPPPPM@DA@EBAPEBVIUTF8String_v1@AdobeXMPCommon@@PEBDAEAPEBVIError_v1@4@@Z 00000001800418a0 f i XMPNameSpacePrefixMapImpl.obj
 0001:000408bc       ?AcquireSharedOwnershipForRawPointer@IntrusiveRefCountSharedOwnership@AdobeXMPCommon_Int@@$R4FA@M@PPPPPPPM@DA@EBAXXZ 00000001800418bc f i XMPNameSpacePrefixMapImpl.obj
 0001:000408d8       ??_EXMPNameSpacePrefixMapImpl@AdobeXMPCore_Int@@$2PPPPPPPM@A@EAAPEAXI@Z 00000001800418d8 f i XMPNameSpacePrefixMapImpl.obj
 0001:000408e4       ?IsPrefixPresent@IXMPNameSpacePrefixMap_I@AdobeXMPCore_Int@@$2PPPPPPPM@A@EBAKPEBDAEAPEBVIError_v1@AdobeXMPCommon@@@Z 00000001800418e4 f i XMPNameSpacePrefixMapImpl.obj
 0001:000408f0       ?GetPrefix@IXMPNameSpacePrefixMap_I@AdobeXMPCore_Int@@$2PPPPPPPM@A@EBAPEBVIUTF8String_v1@AdobeXMPCommon@@PEBDAEAPEBVIError_v1@4@@Z 00000001800418f0 f i XMPNameSpacePrefixMapImpl.obj
 0001:000408fc       ?CreatePathSegmentToParent@AdobeXMPCore_Int@@YA?AV?$shared_ptr@VIXMPPathSegment_I@AdobeXMPCore_Int@@@std@@PEBVIXMPNode_I@1@0W4eMultiThreadingSupport@AdobeXMPCommon@@@Z 00000001800418fc f   XMPNodeImpl.obj
 0001:00040f94       ?AcquireSharedOwnership@XMPNodeImpl@AdobeXMPCore_Int@@UEBAXXZ 0000000180041f94 f   XMPNodeImpl.obj
 0001:00040ff4       ?ReleaseSharedOwnership@XMPNodeImpl@AdobeXMPCore_Int@@UEBAXXZ 0000000180041ff4 f   XMPNodeImpl.obj
 0001:00041040       ?AcquireSharedOwnershipForRawPointer@XMPNodeImpl@AdobeXMPCore_Int@@UEBAXXZ 0000000180042040 f   XMPNodeImpl.obj
 0001:00041094       ?GetParent_I@XMPNodeImpl@AdobeXMPCore_Int@@UEBA?AV?$shared_ptr@$$CBVIXMPNode_I@AdobeXMPCore_Int@@@std@@XZ 0000000180042094 f   XMPNodeImpl.obj
 0001:00041154       ?GetParent_I@XMPNodeImpl@AdobeXMPCore_Int@@UEAA?AV?$shared_ptr@VIXMPNode_I@AdobeXMPCore_Int@@@std@@XZ 0000000180042154 f   XMPNodeImpl.obj
 0001:000411cc       ?GetName_I@XMPNodeImpl@AdobeXMPCore_Int@@UEBA?AV?$shared_ptr@$$CBVIUTF8String_I@AdobeXMPCommon_Int@@@std@@XZ 00000001800421cc f   XMPNodeImpl.obj
 0001:00041264       ?GetNameSpace_I@XMPNodeImpl@AdobeXMPCore_Int@@UEBA?AV?$shared_ptr@$$CBVIUTF8String_I@AdobeXMPCommon_Int@@@std@@XZ 0000000180042264 f   XMPNodeImpl.obj
 0001:000412fc       ?GetPath_I@XMPNodeImpl@AdobeXMPCore_Int@@UEBA?AV?$shared_ptr@VIXMPPath_I@AdobeXMPCore_Int@@@std@@W4eMultiThreadingSupport@AdobeXMPCommon@@@Z 00000001800422fc f   XMPNodeImpl.obj
 0001:000416ec       ?GetQualifiers_I@XMPNodeImpl@AdobeXMPCore_Int@@UEAA?AV?$shared_ptr@VIXMPQualifiers_I@AdobeXMPCore_Int@@@std@@XZ 00000001800426ec f   XMPNodeImpl.obj
 0001:000416ec       ?GetQualifiers_I@XMPNodeImpl@AdobeXMPCore_Int@@UEBA?AV?$shared_ptr@$$CBVIXMPQualifiers_I@AdobeXMPCore_Int@@@std@@XZ 00000001800426ec f   XMPNodeImpl.obj
 0001:0004179c       ?IsArrayItem@XMPNodeImpl@AdobeXMPCore_Int@@UEBA_NXZ 000000018004279c f   XMPNodeImpl.obj
 0001:000417f4       ?HasQualifiers@XMPNodeImpl@AdobeXMPCore_Int@@UEBA_NXZ 00000001800427f4 f   XMPNodeImpl.obj
 0001:00041854       ??0XMPNodeImpl@AdobeXMPCore_Int@@QEAA@PEBD0W4eMultiThreadingSupport@AdobeXMPCommon@@@Z 0000000180042854 f   XMPNodeImpl.obj
 0001:00041dbc       ?ChangeParent_I@XMPNodeImpl@AdobeXMPCore_Int@@UEAAXPEAVIXMPNode_I@2@@Z 0000000180042dbc f   XMPNodeImpl.obj
 0001:00041e50       ?UpdateParentSharedPointer@XMPNodeImpl@AdobeXMPCore_Int@@IEAAX_N@Z 0000000180042e50 f   XMPNodeImpl.obj
 0001:00041f28       ?SetQualifiers_I@XMPNodeImpl@AdobeXMPCore_Int@@UEAAXAEBV?$shared_ptr@VIXMPQualifiers_I@AdobeXMPCore_Int@@@std@@@Z 0000000180042f28 f   XMPNodeImpl.obj
 0001:00042000       ?GetQualifier_I@XMPNodeImpl@AdobeXMPCore_Int@@UEBA?AV?$shared_ptr@$$CBVIXMPNode_I@AdobeXMPCore_Int@@@std@@PEBD0@Z 0000000180043000 f   XMPNodeImpl.obj
 0001:000420f8       ?GetQualifier_I@XMPNodeImpl@AdobeXMPCore_Int@@UEAA?AV?$shared_ptr@VIXMPNode_I@AdobeXMPCore_Int@@@std@@PEBD0@Z 00000001800430f8 f   XMPNodeImpl.obj
 0001:00042198       ?InsertQualifier_I@XMPNodeImpl@AdobeXMPCore_Int@@UEAAXAEBV?$shared_ptr@VIXMPNode_I@AdobeXMPCore_Int@@@std@@@Z 0000000180043198 f   XMPNodeImpl.obj
 0001:000422ac       ?ReplaceQualifier_I@XMPNodeImpl@AdobeXMPCore_Int@@UEAAXAEBV?$shared_ptr@VIXMPNode_I@AdobeXMPCore_Int@@@std@@@Z 00000001800432ac f   XMPNodeImpl.obj
 0001:000424f4       ?RemoveQualifier_I@XMPNodeImpl@AdobeXMPCore_Int@@UEAA?AV?$shared_ptr@VIXMPNode_I@AdobeXMPCore_Int@@@std@@PEBD0@Z 00000001800434f4 f   XMPNodeImpl.obj
 0001:00042594       ?Clear@XMPNodeImpl@AdobeXMPCore_Int@@UEAAX_N0@Z 0000000180043594 f   XMPNodeImpl.obj
 0001:00042618       ?GetRawParentPointer_I@XMPNodeImpl@AdobeXMPCore_Int@@UEAAPEAVIXMPNode_I@2@XZ 0000000180043618 f   XMPNodeImpl.obj
 0001:00042618       ?GetRawParentPointer_I@XMPNodeImpl@AdobeXMPCore_Int@@UEBAPEBVIXMPNode_I@2@XZ 0000000180043618 f   XMPNodeImpl.obj
 0001:00042620       ?Clone_I@XMPNodeImpl@AdobeXMPCore_Int@@UEBA?AV?$shared_ptr@VIXMPNode_I@AdobeXMPCore_Int@@@std@@_N0W4eMultiThreadingSupport@AdobeXMPCommon@@@Z 0000000180043620 f   XMPNodeImpl.obj
 0001:00042830       ??1?$vector@PEBVIXMPNode_I@AdobeXMPCore_Int@@V?$TAllocator@PEBVIXMPNode_I@AdobeXMPCore_Int@@@AdobeXMPCommon_Int@@@std@@QEAA@XZ 0000000180043830 f i XMPNodeImpl.obj
 0001:0004285c       ?_Reallocate@?$vector@PEBVIXMPNode_I@AdobeXMPCore_Int@@V?$TAllocator@PEBVIXMPNode_I@AdobeXMPCore_Int@@@AdobeXMPCommon_Int@@@std@@IEAAX_K@Z 000000018004385c f i XMPNodeImpl.obj
 0001:000428d8       ??$MakeUncheckedSharedPointer@VIXMPQualifiers_I@AdobeXMPCore_Int@@@AdobeXMPCommon_Int@@YA?AV?$shared_ptr@VIXMPQualifiers_I@AdobeXMPCore_Int@@@std@@PEAVIXMPQualifiers_I@AdobeXMPCore_Int@@@Z 00000001800438d8 f i XMPNodeImpl.obj
 0001:00042940       ??$AdaptNodeTo_I@VIXMPQualifiers_I@AdobeXMPCore_Int@@$01@IXMPNode_I@AdobeXMPCore_Int@@SA?AV?$shared_ptr@VIXMPQualifiers_I@AdobeXMPCore_Int@@@std@@AEBV?$shared_ptr@VIXMPNode_I@AdobeXMPCore_Int@@@3@@Z 0000000180043940 f i XMPNodeImpl.obj
 0001:00042acc       ??$MakeSharedPointer@VIXMPQualifiers_I@AdobeXMPCore_Int@@VIXMPNode_I@2@@AdobeXMPCommon_Int@@YA?AV?$shared_ptr@VIXMPQualifiers_I@AdobeXMPCore_Int@@@std@@PEAVIXMPNode_I@AdobeXMPCore_Int@@@Z 0000000180043acc f i XMPNodeImpl.obj
 0001:00042c48       ??$_Uninit_move@PEAPEBVIXMPNode_I@AdobeXMPCore_Int@@PEAPEBV12@V?$TAllocator@PEBVIXMPNode_I@AdobeXMPCore_Int@@@AdobeXMPCommon_Int@@PEBV12@@std@@YAPEAPEBVIXMPNode_I@AdobeXMPCore_Int@@PEAPEBV12@00AEAU?$_Wrap_alloc@V?$TAllocator@PEBVIXMPNode_I@AdobeXMPCore_Int@@@AdobeXMPCommon_Int@@@0@0U_Nonscalar_ptr_iterator_tag@0@@Z 0000000180043c48 f i XMPNodeImpl.obj
 0001:00042c88       ??1IXMPPath_v1@AdobeXMPCore@@MEAA@XZ 0000000180043c88 f i XMPPathImpl.obj
 0001:00042ca8       ??1IXMPPath_I@AdobeXMPCore_Int@@MEAA@XZ 0000000180043ca8 f i XMPPathImpl.obj
 0001:00042d04       ?Serialize@IXMPPath_I@AdobeXMPCore_Int@@MEBAPEAVIUTF8String_v1@AdobeXMPCommon@@PEBVIXMPNameSpacePrefixMap_v1@AdobeXMPCore@@AEAPEBVIError_v1@4@@Z 0000000180043d04 f i XMPPathImpl.obj
 0001:00042d8c       ?AppendPathSegment@IXMPPath_I@AdobeXMPCore_Int@@MEAAXPEBVIXMPPathSegment_v1@AdobeXMPCore@@AEAPEBVIError_v1@AdobeXMPCommon@@@Z 0000000180043d8c f i XMPPathImpl.obj
 0001:00042e24       ?RemovePathSegment@IXMPPath_I@AdobeXMPCore_Int@@MEAAX_KAEAPEBVIError_v1@AdobeXMPCommon@@@Z 0000000180043e24 f i XMPPathImpl.obj
 0001:00042e68       ?GetPathSegment@IXMPPath_I@AdobeXMPCore_Int@@MEBAPEBVIXMPPathSegment_v1@AdobeXMPCore@@_KAEAPEBVIError_v1@AdobeXMPCommon@@@Z 0000000180043e68 f i XMPPathImpl.obj
 0001:00042eac       ?GetPathSegmentCount@IXMPPath_I@AdobeXMPCore_Int@@MEBA_KAEAPEBVIError_v1@AdobeXMPCommon@@@Z 0000000180043eac f i XMPPathImpl.obj
 0001:00042eec       ?IsEmpty@IXMPPath_I@AdobeXMPCore_Int@@MEBAKAEAPEBVIError_v1@AdobeXMPCommon@@@Z 0000000180043eec f i XMPPathImpl.obj
 0001:00042f30       ?CloneSubPath@IXMPPath_I@AdobeXMPCore_Int@@MEBAPEAVIXMPPath_v1@AdobeXMPCore@@_K0KAEAPEBVIError_v1@AdobeXMPCommon@@@Z 0000000180043f30 f i XMPPathImpl.obj
 0001:00042f7c       ??1XMPPathImpl@AdobeXMPCore_Int@@MEAA@XZ 0000000180043f7c f i XMPPathImpl.obj
 0001:000430f4       ??_GXMPPathImpl@AdobeXMPCore_Int@@MEAAPEAXI@Z 00000001800440f4 f i XMPPathImpl.obj
 0001:000430f4       ??_EXMPPathImpl@AdobeXMPCore_Int@@MEAAPEAXI@Z 00000001800440f4 f i * CIL library *:* CIL module *
 0001:00043248       ?CreatePathByParsing_I@IXMPPath_I@AdobeXMPCore_Int@@SA?AV?$shared_ptr@VIXMPPath_I@AdobeXMPCore_Int@@@std@@PEBDAEBV?$shared_ptr@$$CBVIXMPNameSpacePrefixMap_I@AdobeXMPCore_Int@@@4@W4eMultiThreadingSupport@AdobeXMPCommon@@@Z 0000000180044248 f   XMPPathImpl.obj
 0001:00043400       ?Serialize_I@XMPPathImpl@AdobeXMPCore_Int@@UEBA?AV?$shared_ptr@VIUTF8String_I@AdobeXMPCommon_Int@@@std@@AEBV?$shared_ptr@$$CBVIXMPNameSpacePrefixMap_I@AdobeXMPCore_Int@@@4@@Z 0000000180044400 f   XMPPathImpl.obj
 0001:00043e90       ??_D?$basic_stringstream@DU?$char_traits@D@std@@V?$TAllocator@D@AdobeXMPCommon_Int@@@std@@QEAAXXZ 0000000180044e90 f i XMPPathImpl.obj
 0001:00043ef4       ?AppendPathSegment_I@XMPPathImpl@AdobeXMPCore_Int@@UEAAXAEBV?$shared_ptr@$$CBVIXMPPathSegment_I@AdobeXMPCore_Int@@@std@@@Z 0000000180044ef4 f   XMPPathImpl.obj
 0001:00044234       ?GetPathSegment_I@XMPPathImpl@AdobeXMPCore_Int@@UEBA?AV?$shared_ptr@$$CBVIXMPPathSegment_I@AdobeXMPCore_Int@@@std@@_K@Z 0000000180045234 f   XMPPathImpl.obj
 0001:00044434       ?GetPathSegmentCount@XMPPathImpl@AdobeXMPCore_Int@@UEBA_KXZ 0000000180045434 f   XMPPathImpl.obj
 0001:0004447c       ?IsEmpty@XMPPathImpl@AdobeXMPCore_Int@@UEBA_NXZ 000000018004547c f   XMPPathImpl.obj
 0001:000444b8       ?CloneSubPath_I@XMPPathImpl@AdobeXMPCore_Int@@UEBA?AV?$shared_ptr@VIXMPPath_I@AdobeXMPCore_Int@@@std@@_K0W4eMultiThreadingSupport@AdobeXMPCommon@@@Z 00000001800454b8 f   XMPPathImpl.obj
 0001:0004479c       ??0XMPPathImpl@AdobeXMPCore_Int@@QEAA@W4eMultiThreadingSupport@AdobeXMPCommon@@@Z 000000018004579c f   XMPPathImpl.obj
 0001:00044a24       ?RemovePathSegment@XMPPathImpl@AdobeXMPCore_Int@@UEAAX_K@Z 0000000180045a24 f   XMPPathImpl.obj
 0001:00044bd0       ??1?$vector@V?$shared_ptr@VIXMPPathSegment_I@AdobeXMPCore_Int@@@std@@V?$TAllocator@V?$shared_ptr@VIXMPPathSegment_I@AdobeXMPCore_Int@@@std@@@AdobeXMPCommon_Int@@@std@@QEAA@XZ 0000000180045bd0 f i XMPPathImpl.obj
 0001:00044bd0       ??1?$vector@V?$shared_ptr@$$CBVIUTF8String_I@AdobeXMPCommon_Int@@@std@@V?$TAllocator@V?$shared_ptr@$$CBVIUTF8String_I@AdobeXMPCommon_Int@@@std@@@AdobeXMPCommon_Int@@@std@@QEAA@XZ 0000000180045bd0 f i XMPCommon:ErrorImpl.obj
 0001:00044c50       ?erase@?$vector@V?$shared_ptr@VIXMPPathSegment_I@AdobeXMPCore_Int@@@std@@V?$TAllocator@V?$shared_ptr@VIXMPPathSegment_I@AdobeXMPCore_Int@@@std@@@AdobeXMPCommon_Int@@@std@@QEAA?AV?$_Vector_iterator@V?$_Vector_val@U?$_Simple_types@V?$shared_ptr@VIXMPPathSegment_I@AdobeXMPCore_Int@@@std@@@std@@@std@@@2@V?$_Vector_const_iterator@V?$_Vector_val@U?$_Simple_types@V?$shared_ptr@VIXMPPathSegment_I@AdobeXMPCore_Int@@@std@@@std@@@std@@@2@@Z 0000000180045c50 f i XMPPathImpl.obj
 0001:00044d8c       ??0?$basic_stringstream@DU?$char_traits@D@std@@V?$TAllocator@D@AdobeXMPCommon_Int@@@std@@QEAA@H@Z 0000000180045d8c f i XMPPathImpl.obj
 0001:00044e3c       ?str@?$basic_stringstream@DU?$char_traits@D@std@@V?$TAllocator@D@AdobeXMPCommon_Int@@@std@@QEBA?AV?$basic_string@DU?$char_traits@D@std@@V?$TAllocator@D@AdobeXMPCommon_Int@@@2@XZ 0000000180045e3c f i XMPPathImpl.obj
 0001:00044e5c       ??1?$basic_stringbuf@DU?$char_traits@D@std@@V?$TAllocator@D@AdobeXMPCommon_Int@@@std@@UEAA@XZ 0000000180045e5c f i XMPPathImpl.obj
 0001:00044ec4       ?overflow@?$basic_stringbuf@DU?$char_traits@D@std@@V?$TAllocator@D@AdobeXMPCommon_Int@@@std@@MEAAHH@Z 0000000180045ec4 f i XMPPathImpl.obj
 0001:000450c0       ?pbackfail@?$basic_stringbuf@DU?$char_traits@D@std@@V?$TAllocator@D@AdobeXMPCommon_Int@@@std@@MEAAHH@Z 00000001800460c0 f i XMPPathImpl.obj
 0001:00045124       ?underflow@?$basic_stringbuf@DU?$char_traits@D@std@@V?$TAllocator@D@AdobeXMPCommon_Int@@@std@@MEAAHXZ 0000000180046124 f i XMPPathImpl.obj
 0001:00045184       ?seekoff@?$basic_stringbuf@DU?$char_traits@D@std@@V?$TAllocator@D@AdobeXMPCommon_Int@@@std@@MEAA?AV?$fpos@H@2@_JHH@Z 0000000180046184 f i XMPPathImpl.obj
 0001:000452fc       ?seekpos@?$basic_stringbuf@DU?$char_traits@D@std@@V?$TAllocator@D@AdobeXMPCommon_Int@@@std@@MEAA?AV?$fpos@H@2@V32@H@Z 00000001800462fc f i XMPPathImpl.obj
 0001:0004540c       ??1?$basic_string@DU?$char_traits@D@std@@V?$TAllocator@D@AdobeXMPCommon_Int@@@std@@QEAA@XZ 000000018004640c f i XMPPathImpl.obj
 0001:0004543c       ??_E?$basic_stringstream@DU?$char_traits@D@std@@V?$TAllocator@D@AdobeXMPCommon_Int@@@std@@UEAAPEAXI@Z 000000018004643c f i * CIL library *:* CIL module *
 0001:0004543c       ??_G?$basic_stringstream@DU?$char_traits@D@std@@V?$TAllocator@D@AdobeXMPCommon_Int@@@std@@UEAAPEAXI@Z 000000018004643c f i XMPPathImpl.obj
 0001:00045478       ??_G?$basic_stringbuf@DU?$char_traits@D@std@@V?$TAllocator@D@AdobeXMPCommon_Int@@@std@@UEAAPEAXI@Z 0000000180046478 f i XMPPathImpl.obj
 0001:00045478       ??_E?$basic_stringbuf@DU?$char_traits@D@std@@V?$TAllocator@D@AdobeXMPCommon_Int@@@std@@UEAAPEAXI@Z 0000000180046478 f i * CIL library *:* CIL module *
 0001:000454b0       ?str@?$basic_stringbuf@DU?$char_traits@D@std@@V?$TAllocator@D@AdobeXMPCommon_Int@@@std@@QEBA?AV?$basic_string@DU?$char_traits@D@std@@V?$TAllocator@D@AdobeXMPCommon_Int@@@2@XZ 00000001800464b0 f i XMPPathImpl.obj
 0001:00045610       ?_Reallocate@?$vector@V?$shared_ptr@VIXMPPathSegment_I@AdobeXMPCore_Int@@@std@@V?$TAllocator@V?$shared_ptr@VIXMPPathSegment_I@AdobeXMPCore_Int@@@std@@@AdobeXMPCommon_Int@@@std@@IEAAX_K@Z 0000000180046610 f i XMPPathImpl.obj
 0001:000456d4       ?assign@?$basic_string@DU?$char_traits@D@std@@V?$TAllocator@D@AdobeXMPCommon_Int@@@std@@QEAAAEAV12@PEBD_K@Z 00000001800466d4 f i XMPPathImpl.obj
 0001:000457d8       ?assign@?$basic_string@DU?$char_traits@D@std@@V?$TAllocator@D@AdobeXMPCommon_Int@@@std@@QEAAAEAV12@AEBV12@_K1@Z 00000001800467d8 f i XMPPathImpl.obj
 0001:00045940       ?_Copy@?$basic_string@DU?$char_traits@D@std@@V?$TAllocator@D@AdobeXMPCommon_Int@@@std@@QEAAX_K0@Z 0000000180046940 f i XMPPathImpl.obj
 0001:00045a2c       ??$MakeSharedPointer@$$CBVIXMPPathSegment_I@AdobeXMPCore_Int@@$$CBVIXMPPathSegment_v1@AdobeXMPCore@@@AdobeXMPCommon_Int@@YA?AV?$shared_ptr@$$CBVIXMPPathSegment_I@AdobeXMPCore_Int@@@std@@PEBVIXMPPathSegment_v1@AdobeXMPCore@@AEAPEBVIError_v1@AdobeXMPCommon@@@Z 0000000180046a2c f i XMPPathImpl.obj
 0001:00045a70       ??$CallConstUnSafeFunction@VIXMPPathSegment_I@AdobeXMPCore_Int@@_K_K@AdobeXMPCommon_Int@@YA_KAEAPEBVIError_v1@AdobeXMPCommon@@QEBVIXMPPathSegment_I@AdobeXMPCore_Int@@_KP834@EBA_KXZ@Z 0000000180046a70 f i XMPPathSegmentImpl.obj
 0001:00045a70       ??$CallConstUnSafeFunction@VIXMPPath_I@AdobeXMPCore_Int@@_K_K@AdobeXMPCommon_Int@@YA_KAEAPEBVIError_v1@AdobeXMPCommon@@QEBVIXMPPath_I@AdobeXMPCore_Int@@_KP834@EBA_KXZ@Z 0000000180046a70 f i XMPPathImpl.obj
 0001:00045ab0       ??$CallConstUnSafeFunction@VIXMPPath_I@AdobeXMPCore_Int@@_N_N@AdobeXMPCommon_Int@@YA_NAEAPEBVIError_v1@AdobeXMPCommon@@QEBVIXMPPath_I@AdobeXMPCore_Int@@_NP834@EBA_NXZ@Z 0000000180046ab0 f i XMPPathImpl.obj
 0001:00045af0       ??$CallConstUnSafeFunctionReturningSharedPointer@VIXMPPath_I@AdobeXMPCore_Int@@PEAVIXMPPath_v1@AdobeXMPCore@@V12@_K_KW4eMultiThreadingSupport@AdobeXMPCommon@@@AdobeXMPCommon_Int@@YAPEAVIXMPPath_v1@AdobeXMPCore@@AEAPEBVIError_v1@AdobeXMPCommon@@QEBVIXMPPath_I@AdobeXMPCore_Int@@P856@EBA?AV?$shared_ptr@VIXMPPath_I@AdobeXMPCore_Int@@@std@@_K2W4eMultiThreadingSupport@4@@Z223@Z 0000000180046af0 f i XMPPathImpl.obj
 0001:00045c20       ??$MakeUncheckedSharedPointer@VXMPPathImpl@AdobeXMPCore_Int@@@AdobeXMPCommon_Int@@YA?AV?$shared_ptr@VXMPPathImpl@AdobeXMPCore_Int@@@std@@PEAVXMPPathImpl@AdobeXMPCore_Int@@@Z 0000000180046c20 f i XMPPathImpl.obj
 0001:00045c9c       ??$MakeSharedPointer@$$CBVIXMPPathSegment_I@AdobeXMPCore_Int@@$$CBVIXMPPathSegment_v1@AdobeXMPCore@@@AdobeXMPCommon_Int@@YA?AV?$shared_ptr@$$CBVIXMPPathSegment_I@AdobeXMPCore_Int@@@std@@PEBVIXMPPathSegment_v1@AdobeXMPCore@@@Z 0000000180046c9c f i XMPPathImpl.obj
 0001:00045e18       ??$_Resetp@VXMPPathImpl@AdobeXMPCore_Int@@V?$_Mem_fn_wrap@XP8IntrusiveRefCountSharedOwnership@AdobeXMPCommon_Int@@EBAXXZ$$CBV12@$$$V@std@@V?$TAllocator@VXMPPathImpl@AdobeXMPCore_Int@@@AdobeXMPCommon_Int@@@?$shared_ptr@VXMPPathImpl@AdobeXMPCore_Int@@@std@@AEAAXPEAVXMPPathImpl@AdobeXMPCore_Int@@V?$_Mem_fn_wrap@XP8IntrusiveRefCountSharedOwnership@AdobeXMPCommon_Int@@EBAXXZ$$CBV12@$$$V@1@V?$TAllocator@VXMPPathImpl@AdobeXMPCore_Int@@@AdobeXMPCommon_Int@@@Z 0000000180046e18 f i XMPPathImpl.obj
 0001:00045eb4       ??$_Resetp@$$CBVIXMPPathSegment_I@AdobeXMPCore_Int@@V?$_Mem_fn_wrap@XP8ISharedOwnership_v1@AdobeXMPCommon@@EBAXXZ$$CBV12@$$$V@std@@V?$TAllocator@$$CBVIXMPPathSegment_I@AdobeXMPCore_Int@@@AdobeXMPCommon_Int@@@?$shared_ptr@$$CBVIXMPPathSegment_I@AdobeXMPCore_Int@@@std@@AEAAXPEBVIXMPPathSegment_I@AdobeXMPCore_Int@@V?$_Mem_fn_wrap@XP8ISharedOwnership_v1@AdobeXMPCommon@@EBAXXZ$$CBV12@$$$V@1@V?$TAllocator@$$CBVIXMPPathSegment_I@AdobeXMPCore_Int@@@AdobeXMPCommon_Int@@@Z 0000000180046eb4 f i XMPPathImpl.obj
 0001:00045f54       ??$_Uninit_move@PEAV?$shared_ptr@VIXMPPathSegment_I@AdobeXMPCore_Int@@@std@@PEAV12@V?$TAllocator@V?$shared_ptr@VIXMPPathSegment_I@AdobeXMPCore_Int@@@std@@@AdobeXMPCommon_Int@@V12@@std@@YAPEAV?$shared_ptr@VIXMPPathSegment_I@AdobeXMPCore_Int@@@0@PEAV10@00AEAU?$_Wrap_alloc@V?$TAllocator@V?$shared_ptr@VIXMPPathSegment_I@AdobeXMPCore_Int@@@std@@@AdobeXMPCommon_Int@@@0@0U_Nonscalar_ptr_iterator_tag@0@@Z 0000000180046f54 f i XMPPathImpl.obj
 0001:00045ff0       ?Serialize@IXMPPath_I@AdobeXMPCore_Int@@$R2HI@BE@PPPPPPPM@DA@EBAPEAVIUTF8String_v1@AdobeXMPCommon@@PEBVIXMPNameSpacePrefixMap_v1@AdobeXMPCore@@AEAPEBVIError_v1@4@@Z 0000000180046ff0 f i XMPPathImpl.obj
 0001:0004600c       ?IsEmpty@IXMPPath_I@AdobeXMPCore_Int@@$2PPPPPPPM@A@EBAKAEAPEBVIError_v1@AdobeXMPCommon@@@Z 000000018004700c f i XMPPathImpl.obj
 0001:00046018       ?GetPathSegment_I@XMPPathImpl@AdobeXMPCore_Int@@$4PPPPPPPM@A@EBA?AV?$shared_ptr@$$CBVIXMPPathSegment_I@AdobeXMPCore_Int@@@std@@_K@Z 0000000180047018 f i XMPPathImpl.obj
 0001:00046024       ?IsEmpty@IXMPPath_I@AdobeXMPCore_Int@@$R2HI@BE@PPPPPPPM@DA@EBAKAEAPEBVIError_v1@AdobeXMPCommon@@@Z 0000000180047024 f i XMPPathImpl.obj
 0001:00046040       ?AcquireSharedOwnership@IntrusiveRefCountSharedOwnership@AdobeXMPCommon_Int@@$R4DI@M@PPPPPPPM@CA@EBAXXZ 0000000180047040 f i XMPPathImpl.obj
 0001:0004605c       ?RemovePathSegment@IXMPPath_I@AdobeXMPCore_Int@@$2PPPPPPPM@A@EAAX_KAEAPEBVIError_v1@AdobeXMPCommon@@@Z 000000018004705c f i XMPPathImpl.obj
 0001:00046068       ?CloneSubPath_I@XMPPathImpl@AdobeXMPCore_Int@@$4PPPPPPPM@A@EBA?AV?$shared_ptr@VIXMPPath_I@AdobeXMPCore_Int@@@std@@_K0W4eMultiThreadingSupport@AdobeXMPCommon@@@Z 0000000180047068 f i XMPPathImpl.obj
 0001:00046074       ?GetPathSegmentCount@IXMPPath_I@AdobeXMPCore_Int@@$2PPPPPPPM@A@EBA_KAEAPEBVIError_v1@AdobeXMPCommon@@@Z 0000000180047074 f i XMPPathImpl.obj
 0001:00046080       ?GetPathSegment@IXMPPath_I@AdobeXMPCore_Int@@$2PPPPPPPM@A@EBAPEBVIXMPPathSegment_v1@AdobeXMPCore@@_KAEAPEBVIError_v1@AdobeXMPCommon@@@Z 0000000180047080 f i XMPPathImpl.obj
 0001:0004608c       ??_E?$basic_stringstream@DU?$char_traits@D@std@@V?$TAllocator@D@AdobeXMPCommon_Int@@@std@@$4PPPPPPPM@A@EAAPEAXI@Z 000000018004708c f i XMPPathImpl.obj
 0001:00046098       ?RemovePathSegment@IXMPPath_I@AdobeXMPCore_Int@@$R2HI@BE@PPPPPPPM@DA@EAAX_KAEAPEBVIError_v1@AdobeXMPCommon@@@Z 0000000180047098 f i XMPPathImpl.obj
 0001:000460b4       ?IsEmpty@XMPPathImpl@AdobeXMPCore_Int@@$4PPPPPPPM@A@EBA_NXZ 00000001800470b4 f i XMPPathImpl.obj
 0001:000460c0       ?GetPathSegmentCount@IXMPPath_I@AdobeXMPCore_Int@@$R2HI@BE@PPPPPPPM@DA@EBA_KAEAPEBVIError_v1@AdobeXMPCommon@@@Z 00000001800470c0 f i XMPPathImpl.obj
 0001:000460dc       ?GetPathSegment@IXMPPath_I@AdobeXMPCore_Int@@$R2HI@BE@PPPPPPPM@DA@EBAPEBVIXMPPathSegment_v1@AdobeXMPCore@@_KAEAPEBVIError_v1@AdobeXMPCommon@@@Z 00000001800470dc f i XMPPathImpl.obj
 0001:000460f8       ?AcquireSharedOwnershipForRawPointer@IntrusiveRefCountSharedOwnership@AdobeXMPCommon_Int@@$R4EI@M@PPPPPPPM@DA@EBAXXZ 00000001800470f8 f i XMPPathImpl.obj
 0001:00046114       ?GetPathSegmentCount@XMPPathImpl@AdobeXMPCore_Int@@$4PPPPPPPM@A@EBA_KXZ 0000000180047114 f i XMPPathImpl.obj
 0001:00046120       ??_EXMPPathImpl@AdobeXMPCore_Int@@$2PPPPPPPM@A@EAAPEAXI@Z 0000000180047120 f i XMPPathImpl.obj
 0001:0004612c       ?AppendPathSegment@IXMPPath_I@AdobeXMPCore_Int@@$2PPPPPPPM@A@EAAXPEBVIXMPPathSegment_v1@AdobeXMPCore@@AEAPEBVIError_v1@AdobeXMPCommon@@@Z 000000018004712c f i XMPPathImpl.obj
 0001:00046138       ?RemovePathSegment@XMPPathImpl@AdobeXMPCore_Int@@$4PPPPPPPM@A@EAAX_K@Z 0000000180047138 f i XMPPathImpl.obj
 0001:00046144       ?AppendPathSegment_I@XMPPathImpl@AdobeXMPCore_Int@@$4PPPPPPPM@A@EAAXAEBV?$shared_ptr@$$CBVIXMPPathSegment_I@AdobeXMPCore_Int@@@std@@@Z 0000000180047144 f i XMPPathImpl.obj
 0001:00046150       ?Serialize_I@XMPPathImpl@AdobeXMPCore_Int@@$4PPPPPPPM@A@EBA?AV?$shared_ptr@VIUTF8String_I@AdobeXMPCommon_Int@@@std@@AEBV?$shared_ptr@$$CBVIXMPNameSpacePrefixMap_I@AdobeXMPCore_Int@@@4@@Z 0000000180047150 f i XMPPathImpl.obj
 0001:0004615c       ?AppendPathSegment@IXMPPath_I@AdobeXMPCore_Int@@$R2HI@BE@PPPPPPPM@DA@EAAXPEBVIXMPPathSegment_v1@AdobeXMPCore@@AEAPEBVIError_v1@AdobeXMPCommon@@@Z 000000018004715c f i XMPPathImpl.obj
 0001:00046178       ?CloneSubPath@IXMPPath_I@AdobeXMPCore_Int@@$2PPPPPPPM@A@EBAPEAVIXMPPath_v1@AdobeXMPCore@@_K0KAEAPEBVIError_v1@AdobeXMPCommon@@@Z 0000000180047178 f i XMPPathImpl.obj
 0001:00046184       ?ReleaseSharedOwnership@IntrusiveRefCountSharedOwnership@AdobeXMPCommon_Int@@$R4DI@M@PPPPPPPM@CA@EBAXXZ 0000000180047184 f i XMPPathImpl.obj
 0001:000461a0       ?CloneSubPath@IXMPPath_I@AdobeXMPCore_Int@@$R2HI@BE@PPPPPPPM@DA@EBAPEAVIXMPPath_v1@AdobeXMPCore@@_K0KAEAPEBVIError_v1@AdobeXMPCommon@@@Z 00000001800471a0 f i XMPPathImpl.obj
 0001:000461bc       ?Serialize@IXMPPath_I@AdobeXMPCore_Int@@$2PPPPPPPM@A@EBAPEAVIUTF8String_v1@AdobeXMPCommon@@PEBVIXMPNameSpacePrefixMap_v1@AdobeXMPCore@@AEAPEBVIError_v1@4@@Z 00000001800471bc f i XMPPathImpl.obj
 0001:000461c8       ??_EXMPPathImpl@AdobeXMPCore_Int@@OGI@EAAPEAXI@Z 00000001800471c8 f i XMPPathImpl.obj
 0001:000461d4       ??1IXMPPathSegment_v1@AdobeXMPCore@@MEAA@XZ 00000001800471d4 f i XMPPathSegmentImpl.obj
 0001:000461f4       ??1IXMPPathSegment_I@AdobeXMPCore_Int@@MEAA@XZ 00000001800471f4 f i XMPPathSegmentImpl.obj
 0001:00046250       ?GetMessage@IError_I@AdobeXMPCommon_Int@@MEBAPEBVIUTF8String_v1@AdobeXMPCommon@@AEAPEBVIError_v1@4@@Z 0000000180047250 f i XMPCommon:ErrorImpl.obj
 0001:00046250       ?GetNameSpace@IXMPPathSegment_I@AdobeXMPCore_Int@@MEBAPEBVIUTF8String_v1@AdobeXMPCommon@@AEAPEBVIError_v1@4@@Z 0000000180047250 f i XMPPathSegmentImpl.obj
 0001:00046290       ?GetLocation@IError_I@AdobeXMPCommon_Int@@MEBAPEBVIUTF8String_v1@AdobeXMPCommon@@AEAPEBVIError_v1@4@@Z 0000000180047290 f i XMPCommon:ErrorImpl.obj
 0001:00046290       ?GetName@IXMPPathSegment_I@AdobeXMPCore_Int@@MEBAPEBVIUTF8String_v1@AdobeXMPCommon@@AEAPEBVIError_v1@4@@Z 0000000180047290 f i XMPPathSegmentImpl.obj
 0001:000462d0       ?GetType@IXMPPathSegment_I@AdobeXMPCore_Int@@MEBAKAEAPEBVIError_v1@AdobeXMPCommon@@@Z 00000001800472d0 f i XMPPathSegmentImpl.obj
 0001:00046310       ?GetIndex@IXMPPathSegment_I@AdobeXMPCore_Int@@MEBA_KAEAPEBVIError_v1@AdobeXMPCommon@@@Z 0000000180047310 f i XMPPathSegmentImpl.obj
 0001:00046350       ??1XMPPathSegmentImpl@AdobeXMPCore_Int@@UEAA@XZ 0000000180047350 f i XMPPathSegmentImpl.obj
 0001:000464dc       ??_EXMPPathSegmentImpl@AdobeXMPCore_Int@@UEAAPEAXI@Z 00000001800474dc f i * CIL library *:* CIL module *
 0001:000464dc       ??_GXMPPathSegmentImpl@AdobeXMPCore_Int@@UEAAPEAXI@Z 00000001800474dc f i XMPPathSegmentImpl.obj
 0001:00046644       ?CreatePropertyPathSegment_I@IXMPPathSegment_I@AdobeXMPCore_Int@@SA?AV?$shared_ptr@VIXMPPathSegment_I@AdobeXMPCore_Int@@@std@@PEBD0W4eMultiThreadingSupport@AdobeXMPCommon@@@Z 0000000180047644 f   XMPPathSegmentImpl.obj
 0001:00046884       ?CreateArrayIndexPathSegment_I@IXMPPathSegment_I@AdobeXMPCore_Int@@SA?AV?$shared_ptr@VIXMPPathSegment_I@AdobeXMPCore_Int@@@std@@PEBD_KW4eMultiThreadingSupport@AdobeXMPCommon@@@Z 0000000180047884 f   XMPPathSegmentImpl.obj
 0001:00046a94       ?CreateQualifierPathSegment_I@IXMPPathSegment_I@AdobeXMPCore_Int@@SA?AV?$shared_ptr@VIXMPPathSegment_I@AdobeXMPCore_Int@@@std@@PEBD0W4eMultiThreadingSupport@AdobeXMPCommon@@@Z 0000000180047a94 f   XMPPathSegmentImpl.obj
 0001:00046cd8       ?CreateQualifierSelectorPathSegment_I@IXMPPathSegment_I@AdobeXMPCore_Int@@SA?AV?$shared_ptr@VIXMPPathSegment_I@AdobeXMPCore_Int@@@std@@PEBD00W4eMultiThreadingSupport@AdobeXMPCommon@@@Z 0000000180047cd8 f   XMPPathSegmentImpl.obj
 0001:00046f50       ?GetNameSpace_I@XMPPathSegmentImpl@AdobeXMPCore_Int@@UEBA?AV?$shared_ptr@$$CBVIUTF8String_I@AdobeXMPCommon_Int@@@std@@XZ 0000000180047f50 f   XMPPathSegmentImpl.obj
 0001:00046fb4       ?GetName_I@XMPPathSegmentImpl@AdobeXMPCore_Int@@UEBA?AV?$shared_ptr@$$CBVIUTF8String_I@AdobeXMPCommon_Int@@@std@@XZ 0000000180047fb4 f   XMPPathSegmentImpl.obj
 0001:00047018       ?GetType@XMPPathSegmentImpl@AdobeXMPCore_Int@@UEBA?AW4eXMPPathSegmentType@IXMPPathSegment_v1@AdobeXMPCore@@XZ 0000000180048018 f   XMPPathSegmentImpl.obj
 0001:00047048       ?GetIndex@XMPPathSegmentImpl@AdobeXMPCore_Int@@UEBA_KXZ 0000000180048048 f   XMPPathSegmentImpl.obj
 0001:0004707c       ?GetValue_I@XMPPathSegmentImpl@AdobeXMPCore_Int@@UEBA?AV?$shared_ptr@$$CBVIUTF8String_I@AdobeXMPCommon_Int@@@std@@XZ 000000018004807c f   XMPPathSegmentImpl.obj
 0001:000470e0       ?ChangeToPropertyPathSegment@XMPPathSegmentImpl@AdobeXMPCore_Int@@UEAAXPEBD0@Z 00000001800480e0 f   XMPPathSegmentImpl.obj
 0001:00047298       ?ChangeToArrayIndexPathSegment@XMPPathSegmentImpl@AdobeXMPCore_Int@@UEAAXPEBD_K@Z 0000000180048298 f   XMPPathSegmentImpl.obj
 0001:00047420       ?ChangeToQualifierPathSegment@XMPPathSegmentImpl@AdobeXMPCore_Int@@UEAAXPEBD0@Z 0000000180048420 f   XMPPathSegmentImpl.obj
 0001:000475dc       ?ChangeToQualifierSelectorPathSegment@XMPPathSegmentImpl@AdobeXMPCore_Int@@UEAAXPEBD00@Z 00000001800485dc f   XMPPathSegmentImpl.obj
 0001:000477cc       ??0XMPPathSegmentImpl@AdobeXMPCore_Int@@QEAA@PEBD00W4eXMPPathSegmentType@IXMPPathSegment_v1@AdobeXMPCore@@_KW4eMultiThreadingSupport@AdobeXMPCommon@@@Z 00000001800487cc f   XMPPathSegmentImpl.obj
 0001:00047bd4       ?SetMemberVariables@XMPPathSegmentImpl@AdobeXMPCore_Int@@IEAAXPEBD00W4eXMPPathSegmentType@IXMPPathSegment_v1@AdobeXMPCore@@_K@Z 0000000180048bd4 f   XMPPathSegmentImpl.obj
 0001:00047d90       ?Clone_I@XMPPathSegmentImpl@AdobeXMPCore_Int@@UEBA?AV?$shared_ptr@VIXMPPathSegment_I@AdobeXMPCore_Int@@@std@@W4eMultiThreadingSupport@AdobeXMPCommon@@@Z 0000000180048d90 f   XMPPathSegmentImpl.obj
 0001:00047eec       ??$MakeUncheckedSharedPointer@VXMPPathSegmentImpl@AdobeXMPCore_Int@@@AdobeXMPCommon_Int@@YA?AV?$shared_ptr@VXMPPathSegmentImpl@AdobeXMPCore_Int@@@std@@PEAVXMPPathSegmentImpl@AdobeXMPCore_Int@@@Z 0000000180048eec f i XMPPathSegmentImpl.obj
 0001:00047f68       ??$_Resetp@VXMPPathSegmentImpl@AdobeXMPCore_Int@@V?$_Mem_fn_wrap@XP8IntrusiveRefCountSharedOwnership@AdobeXMPCommon_Int@@EBAXXZ$$CBV12@$$$V@std@@V?$TAllocator@VXMPPathSegmentImpl@AdobeXMPCore_Int@@@AdobeXMPCommon_Int@@@?$shared_ptr@VXMPPathSegmentImpl@AdobeXMPCore_Int@@@std@@AEAAXPEAVXMPPathSegmentImpl@AdobeXMPCore_Int@@V?$_Mem_fn_wrap@XP8IntrusiveRefCountSharedOwnership@AdobeXMPCommon_Int@@EBAXXZ$$CBV12@$$$V@1@V?$TAllocator@VXMPPathSegmentImpl@AdobeXMPCore_Int@@@AdobeXMPCommon_Int@@@Z 0000000180048f68 f i XMPPathSegmentImpl.obj
 0001:00048004       ?GetType@XMPPathSegmentImpl@AdobeXMPCore_Int@@$4PPPPPPPM@A@EBA?AW4eXMPPathSegmentType@IXMPPathSegment_v1@AdobeXMPCore@@XZ 0000000180049004 f i XMPPathSegmentImpl.obj
 0001:00048010       ?GetIndex@IXMPPathSegment_I@AdobeXMPCore_Int@@$2PPPPPPPM@A@EBA_KAEAPEBVIError_v1@AdobeXMPCommon@@@Z 0000000180049010 f i XMPPathSegmentImpl.obj
 0001:0004801c       ?ChangeToQualifierPathSegment@XMPPathSegmentImpl@AdobeXMPCore_Int@@$4PPPPPPPM@A@EAAXPEBD0@Z 000000018004901c f i XMPPathSegmentImpl.obj
 0001:00048028       ?ReleaseSharedOwnership@IntrusiveRefCountSharedOwnership@AdobeXMPCommon_Int@@$R4GA@M@PPPPPPPM@CA@EBAXXZ 0000000180049028 f i XMPPathSegmentImpl.obj
 0001:00048044       ?GetLocation@IError_I@AdobeXMPCommon_Int@@$2PPPPPPPM@A@EBAPEBVIUTF8String_v1@AdobeXMPCommon@@AEAPEBVIError_v1@4@@Z 0000000180049044 f i XMPCommon:ErrorImpl.obj
 0001:00048044       ?GetName@IXMPPathSegment_I@AdobeXMPCore_Int@@$2PPPPPPPM@A@EBAPEBVIUTF8String_v1@AdobeXMPCommon@@AEAPEBVIError_v1@4@@Z 0000000180049044 f i XMPPathSegmentImpl.obj
 0001:00048050       ?GetType@IXMPPathSegment_I@AdobeXMPCore_Int@@$R2KA@BE@PPPPPPPM@DA@EBAKAEAPEBVIError_v1@AdobeXMPCommon@@@Z 0000000180049050 f i XMPPathSegmentImpl.obj
 0001:0004806c       ??_EXMPPathSegmentImpl@AdobeXMPCore_Int@@WGI@EAAPEAXI@Z 000000018004906c f i XMPPathSegmentImpl.obj
 0001:00048078       ?Clone_I@XMPPathSegmentImpl@AdobeXMPCore_Int@@$4PPPPPPPM@A@EBA?AV?$shared_ptr@VIXMPPathSegment_I@AdobeXMPCore_Int@@@std@@W4eMultiThreadingSupport@AdobeXMPCommon@@@Z 0000000180049078 f i XMPPathSegmentImpl.obj
 0001:00048084       ?GetIndex@XMPPathSegmentImpl@AdobeXMPCore_Int@@$4PPPPPPPM@A@EBA_KXZ 0000000180049084 f i XMPPathSegmentImpl.obj
 0001:00048090       ?GetNameSpace_I@XMPPathSegmentImpl@AdobeXMPCore_Int@@$4PPPPPPPM@A@EBA?AV?$shared_ptr@$$CBVIUTF8String_I@AdobeXMPCommon_Int@@@std@@XZ 0000000180049090 f i XMPPathSegmentImpl.obj
 0001:0004809c       ?GetValue@IXMPPathSegment_I@AdobeXMPCore_Int@@$R2KA@BE@PPPPPPPM@DA@EBAPEBVIUTF8String_v1@AdobeXMPCommon@@AEAPEBVIError_v1@4@@Z 000000018004909c f i XMPPathSegmentImpl.obj
 0001:000480b8       ?GetNameSpace@IXMPPathSegment_I@AdobeXMPCore_Int@@$2PPPPPPPM@A@EBAPEBVIUTF8String_v1@AdobeXMPCommon@@AEAPEBVIError_v1@4@@Z 00000001800490b8 f i XMPPathSegmentImpl.obj
 0001:000480b8       ?GetMessage@IError_I@AdobeXMPCommon_Int@@$2PPPPPPPM@A@EBAPEBVIUTF8String_v1@AdobeXMPCommon@@AEAPEBVIError_v1@4@@Z 00000001800490b8 f i XMPCommon:ErrorImpl.obj
 0001:000480c4       ?GetIndex@IXMPPathSegment_I@AdobeXMPCore_Int@@$R2KA@BE@PPPPPPPM@DA@EBA_KAEAPEBVIError_v1@AdobeXMPCommon@@@Z 00000001800490c4 f i XMPPathSegmentImpl.obj
 0001:000480e0       ?AcquireSharedOwnership@IntrusiveRefCountSharedOwnership@AdobeXMPCommon_Int@@$R4GA@M@PPPPPPPM@CA@EBAXXZ 00000001800490e0 f i XMPPathSegmentImpl.obj
 0001:000480fc       ?GetValue_I@XMPPathSegmentImpl@AdobeXMPCore_Int@@$4PPPPPPPM@A@EBA?AV?$shared_ptr@$$CBVIUTF8String_I@AdobeXMPCommon_Int@@@std@@XZ 00000001800490fc f i XMPPathSegmentImpl.obj
 0001:00048108       ?GetName@IXMPPathSegment_I@AdobeXMPCore_Int@@$R2KA@BE@PPPPPPPM@DA@EBAPEBVIUTF8String_v1@AdobeXMPCommon@@AEAPEBVIError_v1@4@@Z 0000000180049108 f i XMPPathSegmentImpl.obj
 0001:00048124       ?ChangeToQualifierSelectorPathSegment@XMPPathSegmentImpl@AdobeXMPCore_Int@@$4PPPPPPPM@A@EAAXPEBD00@Z 0000000180049124 f i XMPPathSegmentImpl.obj
 0001:00048130       ?ChangeToPropertyPathSegment@XMPPathSegmentImpl@AdobeXMPCore_Int@@$4PPPPPPPM@A@EAAXPEBD0@Z 0000000180049130 f i XMPPathSegmentImpl.obj
 0001:0004813c       ?ChangeToArrayIndexPathSegment@XMPPathSegmentImpl@AdobeXMPCore_Int@@$4PPPPPPPM@A@EAAXPEBD_K@Z 000000018004913c f i XMPPathSegmentImpl.obj
 0001:00048148       ?AcquireSharedOwnershipForRawPointer@IntrusiveRefCountSharedOwnership@AdobeXMPCommon_Int@@$R4HA@M@PPPPPPPM@DA@EBAXXZ 0000000180049148 f i XMPPathSegmentImpl.obj
 0001:00048164       ?GetType@IXMPPathSegment_I@AdobeXMPCore_Int@@$2PPPPPPPM@A@EBAKAEAPEBVIError_v1@AdobeXMPCommon@@@Z 0000000180049164 f i XMPPathSegmentImpl.obj
 0001:00048170       ?GetNameSpace@IXMPPathSegment_I@AdobeXMPCore_Int@@$R2KA@BE@PPPPPPPM@DA@EBAPEBVIUTF8String_v1@AdobeXMPCommon@@AEAPEBVIError_v1@4@@Z 0000000180049170 f i XMPPathSegmentImpl.obj
 0001:0004818c       ??_EXMPPathSegmentImpl@AdobeXMPCore_Int@@$4PPPPPPPM@A@EAAPEAXI@Z 000000018004918c f i XMPPathSegmentImpl.obj
 0001:00048198       ?GetName_I@XMPPathSegmentImpl@AdobeXMPCore_Int@@$4PPPPPPPM@A@EBA?AV?$shared_ptr@$$CBVIUTF8String_I@AdobeXMPCommon_Int@@@std@@XZ 0000000180049198 f i XMPPathSegmentImpl.obj
 0001:000481a4       ??1IXMPQualifiers_v1@AdobeXMPCore@@MEAA@XZ 00000001800491a4 f i XMPQualifiersImpl.obj
 0001:00048204       ??1IXMPQualifiers_I@AdobeXMPCore_Int@@MEAA@XZ 0000000180049204 f i XMPQualifiersImpl.obj
 0001:0004830c       ?GetHost@IXMPQualifiers_I@AdobeXMPCore_Int@@MEBAPEBVIXMPNode_v1@AdobeXMPCore@@AEAPEBVIError_v1@AdobeXMPCommon@@@Z 000000018004930c f i XMPQualifiersImpl.obj
 0001:00048350       ?GetHost@IXMPQualifiers_I@AdobeXMPCore_Int@@MEAAPEAVIXMPNode_v1@AdobeXMPCore@@AEAPEBVIError_v1@AdobeXMPCommon@@@Z 0000000180049350 f i XMPQualifiersImpl.obj
 0001:00048394       ??1XMPQualifiersImpl@AdobeXMPCore_Int@@MEAA@XZ 0000000180049394 f i XMPQualifiersImpl.obj
 0001:0004855c       ??_GXMPQualifiersImpl@AdobeXMPCore_Int@@MEAAPEAXI@Z 000000018004955c f i XMPQualifiersImpl.obj
 0001:0004855c       ??_EXMPQualifiersImpl@AdobeXMPCore_Int@@MEAAPEAXI@Z 000000018004955c f i * CIL library *:* CIL module *
 0001:00048590       ??_DXMPQualifiersImpl@AdobeXMPCore_Int@@IEAAXXZ 0000000180049590 f i XMPQualifiersImpl.obj
 0001:000488b8       ?CreateQualifiers_I@IXMPQualifiers_I@AdobeXMPCore_Int@@SA?AV?$shared_ptr@VIXMPQualifiers_I@AdobeXMPCore_Int@@@std@@W4eMultiThreadingSupport@AdobeXMPCommon@@@Z 00000001800498b8 f   XMPQualifiersImpl.obj
 0001:00048964       ?GetHost_I@XMPQualifiersImpl@AdobeXMPCore_Int@@UEBA?AV?$shared_ptr@$$CBVIXMPNode_I@AdobeXMPCore_Int@@@std@@XZ 0000000180049964 f   XMPQualifiersImpl.obj
 0001:00048998       ?GetHost_I@XMPQualifiersImpl@AdobeXMPCore_Int@@UEAA?AV?$shared_ptr@VIXMPNode_I@AdobeXMPCore_Int@@@std@@XZ 0000000180049998 f   XMPQualifiersImpl.obj
 0001:000489cc       ??0XMPQualifiersImpl@AdobeXMPCore_Int@@QEAA@W4eMultiThreadingSupport@AdobeXMPCommon@@@Z 00000001800499cc f   XMPQualifiersImpl.obj
 0001:000490d4       ?CloneContents@XMPQualifiersImpl@AdobeXMPCore_Int@@UEBA?AV?$shared_ptr@VIXMPNode_I@AdobeXMPCore_Int@@@std@@_N0_KW4eMultiThreadingSupport@AdobeXMPCommon@@@Z 000000018004a0d4 f   XMPQualifiersImpl.obj
 0001:000492c0       ??$MakeUncheckedSharedPointer@VXMPQualifiersImpl@AdobeXMPCore_Int@@@AdobeXMPCommon_Int@@YA?AV?$shared_ptr@VXMPQualifiersImpl@AdobeXMPCore_Int@@@std@@PEAVXMPQualifiersImpl@AdobeXMPCore_Int@@@Z 000000018004a2c0 f i XMPQualifiersImpl.obj
 0001:0004933c       ??$_Resetp@VXMPQualifiersImpl@AdobeXMPCore_Int@@V?$_Mem_fn_wrap@XP8XMPNodeImpl@AdobeXMPCore_Int@@EBAXXZ$$CBV12@$$$V@std@@V?$TAllocator@VXMPQualifiersImpl@AdobeXMPCore_Int@@@AdobeXMPCommon_Int@@@?$shared_ptr@VXMPQualifiersImpl@AdobeXMPCore_Int@@@std@@AEAAXPEAVXMPQualifiersImpl@AdobeXMPCore_Int@@V?$_Mem_fn_wrap@XP8XMPNodeImpl@AdobeXMPCore_Int@@EBAXXZ$$CBV12@$$$V@1@V?$TAllocator@VXMPQualifiersImpl@AdobeXMPCore_Int@@@AdobeXMPCommon_Int@@@Z 000000018004a33c f i XMPQualifiersImpl.obj
 0001:000493d8       ?RemoveNode_I@XMPCompositeNodeImpl@AdobeXMPCore_Int@@$R4IA@DI@PPPPPPPM@BBA@EAA?AV?$shared_ptr@VIXMPNode_I@AdobeXMPCore_Int@@@std@@AEBV?$shared_ptr@$$CBVIXMPPath_I@AdobeXMPCore_Int@@@4@@Z 000000018004a3d8 f i XMPQualifiersImpl.obj
 0001:000493f4       ?ReplaceNode@IXMPCompositeNode_I@AdobeXMPCore_Int@@$R2GI@BI@PPPPPPPM@FI@EAAXPEAVIXMPNode_v1@AdobeXMPCore@@PEBVIXMPPath_v1@4@AEAPEBVIError_v1@AdobeXMPCommon@@@Z 000000018004a3f4 f i XMPQualifiersImpl.obj
 0001:00049410       ?AppendNode@IXMPCompositeNode_I@AdobeXMPCore_Int@@$R2GI@BI@PPPPPPPM@FI@EAAXPEAVIXMPNode_v1@AdobeXMPCore@@AEAPEBVIError_v1@AdobeXMPCommon@@@Z 000000018004a410 f i XMPQualifiersImpl.obj
 0001:0004942c       ?GetNodeType@IXMPNode_I@AdobeXMPCore_Int@@$R2DI@BA@PPPPPPPM@DA@EBAKAEAPEBVIError_v1@AdobeXMPCommon@@@Z 000000018004a42c f i XMPQualifiersImpl.obj
 0001:00049448       ?GetQualifier@IXMPNode_I@AdobeXMPCore_Int@@$R2DI@BA@PPPPPPPM@DA@EBAPEBVIXMPNode_v1@AdobeXMPCore@@PEBD0AEAPEBVIError_v1@AdobeXMPCommon@@@Z 000000018004a448 f i XMPQualifiersImpl.obj
 0001:00049464       ?GetQualifier@IXMPNode_I@AdobeXMPCore_Int@@$R2DI@BA@PPPPPPPM@DA@EAAPEAVIXMPNode_v1@AdobeXMPCore@@PEBD0AEAPEBVIError_v1@AdobeXMPCommon@@@Z 000000018004a464 f i XMPQualifiersImpl.obj
 0001:00049480       ?GetName@IXMPNode_I@AdobeXMPCore_Int@@$R2DI@BA@PPPPPPPM@DA@EBAPEBVIUTF8String_v1@AdobeXMPCommon@@AEAPEBVIError_v1@4@@Z 000000018004a480 f i XMPQualifiersImpl.obj
 0001:0004949c       ?CloneContents@XMPQualifiersImpl@AdobeXMPCore_Int@@$4PPPPPPPM@A@EBA?AV?$shared_ptr@VIXMPNode_I@AdobeXMPCore_Int@@@std@@_N0_KW4eMultiThreadingSupport@AdobeXMPCommon@@@Z 000000018004a49c f i XMPQualifiersImpl.obj
 0001:000494a8       ?GetPath@IXMPNode_I@AdobeXMPCore_Int@@$R2DI@BA@PPPPPPPM@DA@EBAPEAVIXMPPath_v1@AdobeXMPCore@@KAEAPEBVIError_v1@AdobeXMPCommon@@@Z 000000018004a4a8 f i XMPQualifiersImpl.obj
 0001:000494c4       ?Clone@IXMPNode_I@AdobeXMPCore_Int@@$R2DI@BA@PPPPPPPM@DA@EBAPEAVIXMPNode_v1@AdobeXMPCore@@KKKAEAPEBVIError_v1@AdobeXMPCommon@@@Z 000000018004a4c4 f i XMPQualifiersImpl.obj
 0001:000494e0       ?RemoveNode@IXMPCompositeNode_I@AdobeXMPCore_Int@@$R2GI@BI@PPPPPPPM@FI@EAAPEAVIXMPNode_v1@AdobeXMPCore@@PEBVIXMPPath_v1@4@AEAPEBVIError_v1@AdobeXMPCommon@@@Z 000000018004a4e0 f i XMPQualifiersImpl.obj
 0001:000494fc       ?HasQualifiers@XMPNodeImpl@AdobeXMPCore_Int@@$R4FA@DE@PPPPPPPM@MI@EBA_NXZ 000000018004a4fc f i XMPQualifiersImpl.obj
 0001:00049518       ?ReplaceQualifier_I@XMPNodeImpl@AdobeXMPCore_Int@@$R4FA@DE@PPPPPPPM@MI@EAAXAEBV?$shared_ptr@VIXMPNode_I@AdobeXMPCore_Int@@@std@@@Z 000000018004a518 f i XMPQualifiersImpl.obj
 0001:00049534       ?ReplaceQualifier@IXMPNode_I@AdobeXMPCore_Int@@$R2DI@BA@PPPPPPPM@DA@EAAXPEAVIXMPNode_v1@AdobeXMPCore@@AEAPEBVIError_v1@AdobeXMPCommon@@@Z 000000018004a534 f i XMPQualifiersImpl.obj
 0001:00049550       ?Clear@XMPNodeImpl@AdobeXMPCore_Int@@$R4FA@DE@PPPPPPPM@MI@EAAX_N0@Z 000000018004a550 f i XMPQualifiersImpl.obj
 0001:0004956c       ?RemoveQualifier_I@XMPNodeImpl@AdobeXMPCore_Int@@$R4FA@DE@PPPPPPPM@MI@EAA?AV?$shared_ptr@VIXMPNode_I@AdobeXMPCore_Int@@@std@@PEBD0@Z 000000018004a56c f i XMPQualifiersImpl.obj
 0001:00049588       ?InsertQualifier@IXMPNode_I@AdobeXMPCore_Int@@$R2DI@BA@PPPPPPPM@DA@EAAXPEAVIXMPNode_v1@AdobeXMPCore@@AEAPEBVIError_v1@AdobeXMPCommon@@@Z 000000018004a588 f i XMPQualifiersImpl.obj
 0001:000495a4       ?AcquireSharedOwnership@XMPNodeImpl@AdobeXMPCore_Int@@$R4BA@DE@PPPPPPPM@HA@EBAXXZ 000000018004a5a4 f i XMPQualifiersImpl.obj
 0001:000495c0       ?GetChildCount@XMPStructureNodeImpl@AdobeXMPCore_Int@@$R4IA@DM@PPPPPPPM@JA@EBA_KXZ 000000018004a5c0 f i XMPQualifiersImpl.obj
 0001:000495dc       ?InsertQualifier_I@XMPNodeImpl@AdobeXMPCore_Int@@$R4FA@DE@PPPPPPPM@MI@EAAXAEBV?$shared_ptr@VIXMPNode_I@AdobeXMPCore_Int@@@std@@@Z 000000018004a5dc f i XMPQualifiersImpl.obj
 0001:000495f8       ?GetParent_I@XMPNodeImpl@AdobeXMPCore_Int@@$R4FA@DE@PPPPPPPM@MI@EBA?AV?$shared_ptr@$$CBVIXMPNode_I@AdobeXMPCore_Int@@@std@@XZ 000000018004a5f8 f i XMPQualifiersImpl.obj
 0001:00049614       ?GetParent_I@XMPNodeImpl@AdobeXMPCore_Int@@$R4FA@DE@PPPPPPPM@MI@EAA?AV?$shared_ptr@VIXMPNode_I@AdobeXMPCore_Int@@@std@@XZ 000000018004a614 f i XMPQualifiersImpl.obj
 0001:00049630       ?Clear@IXMPNode_I@AdobeXMPCore_Int@@$R2DI@BA@PPPPPPPM@DA@EAAXKKAEAPEBVIError_v1@AdobeXMPCommon@@@Z 000000018004a630 f i XMPQualifiersImpl.obj
 0001:0004964c       ??_EXMPQualifiersImpl@AdobeXMPCore_Int@@$2PPPPPPPM@A@EAAPEAXI@Z 000000018004a64c f i XMPQualifiersImpl.obj
 0001:00049658       ?GetHost@IXMPQualifiers_I@AdobeXMPCore_Int@@$2PPPPPPPM@A@EBAPEBVIXMPNode_v1@AdobeXMPCore@@AEAPEBVIError_v1@AdobeXMPCommon@@@Z 000000018004a658 f i XMPQualifiersImpl.obj
 0001:00049664       ?GetHost@IXMPQualifiers_I@AdobeXMPCore_Int@@$2PPPPPPPM@A@EAAPEAVIXMPNode_v1@AdobeXMPCore@@AEAPEBVIError_v1@AdobeXMPCommon@@@Z 000000018004a664 f i XMPQualifiersImpl.obj
 0001:00049670       ??_EXMPQualifiersImpl@AdobeXMPCore_Int@@OPI@EAAPEAXI@Z 000000018004a670 f i XMPQualifiersImpl.obj
 0001:0004967c       ?ReplaceNode_I@XMPCompositeNodeImpl@AdobeXMPCore_Int@@$R4IA@DI@PPPPPPPM@BBA@EAAXAEBV?$shared_ptr@VIXMPNode_I@AdobeXMPCore_Int@@@std@@AEBV?$shared_ptr@$$CBVIXMPPath_I@AdobeXMPCore_Int@@@4@@Z 000000018004a67c f i XMPQualifiersImpl.obj
 0001:00049698       ?Iterator_I@XMPStructureNodeImpl@AdobeXMPCore_Int@@$R4IA@DM@PPPPPPPM@JA@EBA?AV?$shared_ptr@VIXMPConstNodeIterator_I@AdobeXMPCore_Int@@@std@@W4eMultiThreadingSupport@AdobeXMPCommon@@@Z 000000018004a698 f i XMPQualifiersImpl.obj
 0001:000496b4       ?Iterator_I@XMPStructureNodeImpl@AdobeXMPCore_Int@@$R4IA@DM@PPPPPPPM@JA@EAA?AV?$shared_ptr@VIXMPNodeIterator_I@AdobeXMPCore_Int@@@std@@W4eMultiThreadingSupport@AdobeXMPCommon@@@Z 000000018004a6b4 f i XMPQualifiersImpl.obj
 0001:000496d0       ?GetNameSpace@IXMPNode_I@AdobeXMPCore_Int@@$R2DI@BA@PPPPPPPM@DA@EBAPEBVIUTF8String_v1@AdobeXMPCommon@@AEAPEBVIError_v1@4@@Z 000000018004a6d0 f i XMPQualifiersImpl.obj
 0001:000496ec       ?IsArrayItem@XMPNodeImpl@AdobeXMPCore_Int@@$R4FA@DE@PPPPPPPM@MI@EBA_NXZ 000000018004a6ec f i XMPQualifiersImpl.obj
 0001:00049708       ?HasQualifiers@IXMPNode_I@AdobeXMPCore_Int@@$R2DI@BA@PPPPPPPM@DA@EBAKAEAPEBVIError_v1@AdobeXMPCommon@@@Z 000000018004a708 f i XMPQualifiersImpl.obj
 0001:00049724       ?GetRawParentPointer_I@XMPNodeImpl@AdobeXMPCore_Int@@$R4FA@DE@PPPPPPPM@MI@EBAPEBVIXMPNode_I@2@XZ 000000018004a724 f i XMPQualifiersImpl.obj
 0001:00049724       ?GetRawParentPointer_I@XMPNodeImpl@AdobeXMPCore_Int@@$R4FA@DE@PPPPPPPM@MI@EAAPEAVIXMPNode_I@2@XZ 000000018004a724 f i XMPQualifiersImpl.obj
 0001:00049740       ?GetName_I@XMPNodeImpl@AdobeXMPCore_Int@@$R4FA@DE@PPPPPPPM@MI@EBA?AV?$shared_ptr@$$CBVIUTF8String_I@AdobeXMPCommon_Int@@@std@@XZ 000000018004a740 f i XMPQualifiersImpl.obj
 0001:0004975c       ?GetQualifiers@IXMPNode_I@AdobeXMPCore_Int@@$R2DI@BA@PPPPPPPM@DA@EBAPEBVIXMPQualifiers_v1@AdobeXMPCore@@AEAPEBVIError_v1@AdobeXMPCommon@@@Z 000000018004a75c f i XMPQualifiersImpl.obj
 0001:00049778       ?GetQualifiers@IXMPNode_I@AdobeXMPCore_Int@@$R2DI@BA@PPPPPPPM@DA@EAAPEAVIXMPQualifiers_v1@AdobeXMPCore@@AEAPEBVIError_v1@AdobeXMPCommon@@@Z 000000018004a778 f i XMPQualifiersImpl.obj
 0001:00049794       ?GetHost_I@XMPQualifiersImpl@AdobeXMPCore_Int@@$4PPPPPPPM@A@EBA?AV?$shared_ptr@$$CBVIXMPNode_I@AdobeXMPCore_Int@@@std@@XZ 000000018004a794 f i XMPQualifiersImpl.obj
 0001:000497a0       ?GetHost_I@XMPQualifiersImpl@AdobeXMPCore_Int@@$4PPPPPPPM@A@EAA?AV?$shared_ptr@VIXMPNode_I@AdobeXMPCore_Int@@@std@@XZ 000000018004a7a0 f i XMPQualifiersImpl.obj
 0001:000497ac       ?AppendNode_I@XMPStructureNodeImpl@AdobeXMPCore_Int@@$R4IA@DM@PPPPPPPM@JA@EAAXAEBV?$shared_ptr@VIXMPNode_I@AdobeXMPCore_Int@@@std@@@Z 000000018004a7ac f i XMPQualifiersImpl.obj
 0001:000497c8       ?IsArrayItem@IXMPNode_I@AdobeXMPCore_Int@@$R2DI@BA@PPPPPPPM@DA@EBAKAEAPEBVIError_v1@AdobeXMPCommon@@@Z 000000018004a7c8 f i XMPQualifiersImpl.obj
 0001:000497e4       ?RemoveNode_I@XMPStructureNodeImpl@AdobeXMPCore_Int@@$R4LA@DM@PPPPPPPM@MA@EAA?AV?$shared_ptr@VIXMPNode_I@AdobeXMPCore_Int@@@std@@PEBD0@Z 000000018004a7e4 f i XMPQualifiersImpl.obj
 0001:00049800       ?InsertNode@IXMPStructureNode_I@AdobeXMPCore_Int@@$R2JI@CA@PPPPPPPM@IA@EAAXPEAVIXMPNode_v1@AdobeXMPCore@@AEAPEBVIError_v1@AdobeXMPCommon@@@Z 000000018004a800 f i XMPQualifiersImpl.obj
 0001:0004981c       ?GetNode@IXMPCompositeNode_I@AdobeXMPCore_Int@@$R2GI@BI@PPPPPPPM@FI@EBAPEBVIXMPNode_v1@AdobeXMPCore@@PEBVIXMPPath_v1@4@AEAPEBVIError_v1@AdobeXMPCommon@@@Z 000000018004a81c f i XMPQualifiersImpl.obj
 0001:00049838       ?GetNode@IXMPCompositeNode_I@AdobeXMPCore_Int@@$R2GI@BI@PPPPPPPM@FI@EAAPEAVIXMPNode_v1@AdobeXMPCore@@PEBVIXMPPath_v1@4@AEAPEBVIError_v1@AdobeXMPCommon@@@Z 000000018004a838 f i XMPQualifiersImpl.obj
 0001:00049854       ?GetQualifiers_I@XMPNodeImpl@AdobeXMPCore_Int@@$R4FA@DE@PPPPPPPM@MI@EAA?AV?$shared_ptr@VIXMPQualifiers_I@AdobeXMPCore_Int@@@std@@XZ 000000018004a854 f i XMPQualifiersImpl.obj
 0001:00049854       ?GetQualifiers_I@XMPNodeImpl@AdobeXMPCore_Int@@$R4FA@DE@PPPPPPPM@MI@EBA?AV?$shared_ptr@$$CBVIXMPQualifiers_I@AdobeXMPCore_Int@@@std@@XZ 000000018004a854 f i XMPQualifiersImpl.obj
 0001:00049870       ?GetHost@IXMPQualifiers_I@AdobeXMPCore_Int@@$R2MI@CI@PPPPPPPM@KI@EBAPEBVIXMPNode_v1@AdobeXMPCore@@AEAPEBVIError_v1@AdobeXMPCommon@@@Z 000000018004a870 f i XMPQualifiersImpl.obj
 0001:0004988c       ?GetHost@IXMPQualifiers_I@AdobeXMPCore_Int@@$R2MI@CI@PPPPPPPM@KI@EAAPEAVIXMPNode_v1@AdobeXMPCore@@AEAPEBVIError_v1@AdobeXMPCommon@@@Z 000000018004a88c f i XMPQualifiersImpl.obj
 0001:000498a8       ?SetQualifiers@IXMPNode_I@AdobeXMPCore_Int@@$R2DI@BA@PPPPPPPM@DA@EAAXPEAVIXMPQualifiers_v1@AdobeXMPCore@@AEAPEBVIError_v1@AdobeXMPCommon@@@Z 000000018004a8a8 f i XMPQualifiersImpl.obj
 0001:000498c4       ?GetNode_I@XMPCompositeNodeImpl@AdobeXMPCore_Int@@$R4IA@DI@PPPPPPPM@BBA@EBA?AV?$shared_ptr@$$CBVIXMPNode_I@AdobeXMPCore_Int@@@std@@AEBV?$shared_ptr@$$CBVIXMPPath_I@AdobeXMPCore_Int@@@4@@Z 000000018004a8c4 f i XMPQualifiersImpl.obj
 0001:000498e0       ?GetNode_I@XMPCompositeNodeImpl@AdobeXMPCore_Int@@$R4IA@DI@PPPPPPPM@BBA@EAA?AV?$shared_ptr@VIXMPNode_I@AdobeXMPCore_Int@@@std@@AEBV?$shared_ptr@$$CBVIXMPPath_I@AdobeXMPCore_Int@@@4@@Z 000000018004a8e0 f i XMPQualifiersImpl.obj
 0001:000498fc       ?SetQualifiers_I@XMPNodeImpl@AdobeXMPCore_Int@@$R4FA@DE@PPPPPPPM@MI@EAAXAEBV?$shared_ptr@VIXMPQualifiers_I@AdobeXMPCore_Int@@@std@@@Z 000000018004a8fc f i XMPQualifiersImpl.obj
 0001:00049918       ?AcquireSharedOwnershipForRawPointer@XMPNodeImpl@AdobeXMPCore_Int@@$R4CA@DE@PPPPPPPM@IA@EBAXXZ 000000018004a918 f i XMPQualifiersImpl.obj
 0001:00049934       ?ReplaceNode@IXMPStructureNode_I@AdobeXMPCore_Int@@$R2JI@CA@PPPPPPPM@IA@EAAXPEAVIXMPNode_v1@AdobeXMPCore@@AEAPEBVIError_v1@AdobeXMPCommon@@@Z 000000018004a934 f i XMPQualifiersImpl.obj
 0001:00049950       ?InsertNode_I@XMPCompositeNodeImpl@AdobeXMPCore_Int@@$R4IA@DI@PPPPPPPM@BBA@EAAXAEBV?$shared_ptr@VIXMPNode_I@AdobeXMPCore_Int@@@std@@AEBV?$shared_ptr@$$CBVIXMPPath_I@AdobeXMPCore_Int@@@4@@Z 000000018004a950 f i XMPQualifiersImpl.obj
 0001:0004996c       ?Iterator@IXMPCompositeNode_I@AdobeXMPCore_Int@@$R2GI@BI@PPPPPPPM@FI@EBAPEAVIXMPConstNodeIterator_v1@AdobeXMPCore@@KAEAPEBVIError_v1@AdobeXMPCommon@@@Z 000000018004a96c f i XMPQualifiersImpl.obj
 0001:00049988       ?Iterator@IXMPCompositeNode_I@AdobeXMPCore_Int@@$R2GI@BI@PPPPPPPM@FI@EAAPEAVIXMPNodeIterator_v1@AdobeXMPCore@@KAEAPEBVIError_v1@AdobeXMPCommon@@@Z 000000018004a988 f i XMPQualifiersImpl.obj
 0001:000499a4       ?IsEmpty@IXMPCompositeNode_I@AdobeXMPCore_Int@@$R2GI@BI@PPPPPPPM@FI@EBAKAEAPEBVIError_v1@AdobeXMPCommon@@@Z 000000018004a9a4 f i XMPQualifiersImpl.obj
 0001:000499c0       ?ClearContents@XMPStructureNodeImpl@AdobeXMPCore_Int@@$R4BBI@DM@PPPPPPPM@PI@EAAXXZ 000000018004a9c0 f i XMPQualifiersImpl.obj
 0001:000499dc       ?RemoveNode@IXMPStructureNode_I@AdobeXMPCore_Int@@$R2JI@CA@PPPPPPPM@IA@EAAPEAVIXMPNode_v1@AdobeXMPCore@@PEBD0AEAPEBVIError_v1@AdobeXMPCommon@@@Z 000000018004a9dc f i XMPQualifiersImpl.obj
 0001:000499f8       ?GetNodeType@XMPStructureNodeImpl@AdobeXMPCore_Int@@$R4FA@DM@PPPPPPPM@GA@EBA?AW4eXMPNodeType@IXMPNode_v1@AdobeXMPCore@@XZ 000000018004a9f8 f i XMPQualifiersImpl.obj
 0001:00049a14       ?ReplaceNode_I@XMPStructureNodeImpl@AdobeXMPCore_Int@@$R4LA@DM@PPPPPPPM@MA@EAAXAEBV?$shared_ptr@VIXMPNode_I@AdobeXMPCore_Int@@@std@@@Z 000000018004aa14 f i XMPQualifiersImpl.obj
 0001:00049a30       ?Clone_I@XMPNodeImpl@AdobeXMPCore_Int@@$R4FA@DE@PPPPPPPM@MI@EBA?AV?$shared_ptr@VIXMPNode_I@AdobeXMPCore_Int@@@std@@_N0W4eMultiThreadingSupport@AdobeXMPCommon@@@Z 000000018004aa30 f i XMPQualifiersImpl.obj
 0001:00049a4c       ?IsEmpty@XMPStructureNodeImpl@AdobeXMPCore_Int@@$R4IA@DM@PPPPPPPM@JA@EBA_NXZ 000000018004aa4c f i XMPQualifiersImpl.obj
 0001:00049a68       ?GetNameSpace_I@XMPNodeImpl@AdobeXMPCore_Int@@$R4FA@DE@PPPPPPPM@MI@EBA?AV?$shared_ptr@$$CBVIUTF8String_I@AdobeXMPCommon_Int@@@std@@XZ 000000018004aa68 f i XMPQualifiersImpl.obj
 0001:00049a84       ?GetParent@IXMPNode_I@AdobeXMPCore_Int@@$R2DI@BA@PPPPPPPM@DA@EBAPEBVIXMPNode_v1@AdobeXMPCore@@AEAPEBVIError_v1@AdobeXMPCommon@@@Z 000000018004aa84 f i XMPQualifiersImpl.obj
 0001:00049aa0       ?GetParent@IXMPNode_I@AdobeXMPCore_Int@@$R2DI@BA@PPPPPPPM@DA@EAAPEAVIXMPNode_v1@AdobeXMPCore@@AEAPEBVIError_v1@AdobeXMPCommon@@@Z 000000018004aaa0 f i XMPQualifiersImpl.obj
 0001:00049abc       ?RemoveQualifier@IXMPNode_I@AdobeXMPCore_Int@@$R2DI@BA@PPPPPPPM@DA@EAAPEAVIXMPNode_v1@AdobeXMPCore@@PEBD0AEAPEBVIError_v1@AdobeXMPCommon@@@Z 000000018004aabc f i XMPQualifiersImpl.obj
 0001:00049ad8       ?ReleaseSharedOwnership@XMPNodeImpl@AdobeXMPCore_Int@@$R4BA@DE@PPPPPPPM@HA@EBAXXZ 000000018004aad8 f i XMPQualifiersImpl.obj
 0001:00049af4       ?GetNode_I@XMPStructureNodeImpl@AdobeXMPCore_Int@@$R4LA@DM@PPPPPPPM@MA@EBA?AV?$shared_ptr@$$CBVIXMPNode_I@AdobeXMPCore_Int@@@std@@PEBD0@Z 000000018004aaf4 f i XMPQualifiersImpl.obj
 0001:00049b10       ?GetNode_I@XMPStructureNodeImpl@AdobeXMPCore_Int@@$R4LA@DM@PPPPPPPM@MA@EAA?AV?$shared_ptr@VIXMPNode_I@AdobeXMPCore_Int@@@std@@PEBD0@Z 000000018004ab10 f i XMPQualifiersImpl.obj
 0001:00049b2c       ?ChangeParent_I@XMPNodeImpl@AdobeXMPCore_Int@@$R4FA@DE@PPPPPPPM@MI@EAAXPEAVIXMPNode_I@2@@Z 000000018004ab2c f i XMPQualifiersImpl.obj
 0001:00049b48       ?InsertNode_I@XMPStructureNodeImpl@AdobeXMPCore_Int@@$R4LA@DM@PPPPPPPM@MA@EAAXAEBV?$shared_ptr@VIXMPNode_I@AdobeXMPCore_Int@@@std@@@Z 000000018004ab48 f i XMPQualifiersImpl.obj
 0001:00049b64       ?GetNode@IXMPStructureNode_I@AdobeXMPCore_Int@@$R2JI@CA@PPPPPPPM@IA@EBAPEBVIXMPNode_v1@AdobeXMPCore@@PEBD0AEAPEBVIError_v1@AdobeXMPCommon@@@Z 000000018004ab64 f i XMPQualifiersImpl.obj
 0001:00049b80       ?GetNode@IXMPStructureNode_I@AdobeXMPCore_Int@@$R2JI@CA@PPPPPPPM@IA@EAAPEAVIXMPNode_v1@AdobeXMPCore@@PEBD0AEAPEBVIError_v1@AdobeXMPCommon@@@Z 000000018004ab80 f i XMPQualifiersImpl.obj
 0001:00049b9c       ?InsertNode@IXMPCompositeNode_I@AdobeXMPCore_Int@@$R2GI@BI@PPPPPPPM@FI@EAAXPEAVIXMPNode_v1@AdobeXMPCore@@PEBVIXMPPath_v1@4@AEAPEBVIError_v1@AdobeXMPCommon@@@Z 000000018004ab9c f i XMPQualifiersImpl.obj
 0001:00049bb8       ?GetQualifier_I@XMPNodeImpl@AdobeXMPCore_Int@@$R4FA@DE@PPPPPPPM@MI@EBA?AV?$shared_ptr@$$CBVIXMPNode_I@AdobeXMPCore_Int@@@std@@PEBD0@Z 000000018004abb8 f i XMPQualifiersImpl.obj
 0001:00049bd4       ?GetQualifier_I@XMPNodeImpl@AdobeXMPCore_Int@@$R4FA@DE@PPPPPPPM@MI@EAA?AV?$shared_ptr@VIXMPNode_I@AdobeXMPCore_Int@@@std@@PEBD0@Z 000000018004abd4 f i XMPQualifiersImpl.obj
 0001:00049bf0       ?GetPath_I@XMPNodeImpl@AdobeXMPCore_Int@@$R4FA@DE@PPPPPPPM@MI@EBA?AV?$shared_ptr@VIXMPPath_I@AdobeXMPCore_Int@@@std@@W4eMultiThreadingSupport@AdobeXMPCommon@@@Z 000000018004abf0 f i XMPQualifiersImpl.obj
 0001:00049c0c       ?GetChildCount@IXMPCompositeNode_I@AdobeXMPCore_Int@@$R2GI@BI@PPPPPPPM@FI@EBA_KAEAPEBVIError_v1@AdobeXMPCommon@@@Z 000000018004ac0c f i XMPQualifiersImpl.obj
 0001:00049c28       ??1IXMPSimpleNode_v1@AdobeXMPCore@@MEAA@XZ 000000018004ac28 f i XMPSimpleNodeImpl.obj
 0001:00049c5c       ??1IXMPSimpleNode_I@AdobeXMPCore_Int@@MEAA@XZ 000000018004ac5c f i XMPSimpleNodeImpl.obj
 0001:00049cf0       ?GetValue@IXMPSimpleNode_I@AdobeXMPCore_Int@@MEBAPEBVIUTF8String_v1@AdobeXMPCommon@@AEAPEBVIError_v1@4@@Z 000000018004acf0 f i XMPSimpleNodeImpl.obj
 0001:00049d30       ?ChangeValue@IXMPSimpleNode_I@AdobeXMPCore_Int@@MEAAXPEBDAEAPEBVIError_v1@AdobeXMPCommon@@@Z 000000018004ad30 f i XMPSimpleNodeImpl.obj
 0001:00049d74       ?IsURIType@IXMPSimpleNode_I@AdobeXMPCore_Int@@MEBAKAEAPEBVIError_v1@AdobeXMPCommon@@@Z 000000018004ad74 f i XMPSimpleNodeImpl.obj
 0001:00049db4       ?ChangeURIType@IXMPSimpleNode_I@AdobeXMPCore_Int@@MEAAXKAEAPEBVIError_v1@AdobeXMPCommon@@@Z 000000018004adb4 f i XMPSimpleNodeImpl.obj
 0001:00049df8       ??1XMPSimpleNodeImpl@AdobeXMPCore_Int@@MEAA@XZ 000000018004adf8 f i XMPSimpleNodeImpl.obj
 0001:00049f44       ??_GXMPSimpleNodeImpl@AdobeXMPCore_Int@@MEAAPEAXI@Z 000000018004af44 f i XMPSimpleNodeImpl.obj
 0001:00049f44       ??_EXMPSimpleNodeImpl@AdobeXMPCore_Int@@MEAAPEAXI@Z 000000018004af44 f i * CIL library *:* CIL module *
 0001:00049f78       ??_DXMPSimpleNodeImpl@AdobeXMPCore_Int@@IEAAXXZ 000000018004af78 f i XMPSimpleNodeImpl.obj
 0001:0004a1ac       ?CreateSimpleNode_I@IXMPSimpleNode_I@AdobeXMPCore_Int@@SA?AV?$shared_ptr@VIXMPSimpleNode_I@AdobeXMPCore_Int@@@std@@PEBD00W4eMultiThreadingSupport@AdobeXMPCommon@@@Z 000000018004b1ac f   XMPSimpleNodeImpl.obj
 0001:0004a294       ?GetValue_I@XMPSimpleNodeImpl@AdobeXMPCore_Int@@UEBA?AV?$shared_ptr@$$CBVIUTF8String_I@AdobeXMPCommon_Int@@@std@@XZ 000000018004b294 f   XMPSimpleNodeImpl.obj
 0001:0004a30c       ?ChangeValue@XMPSimpleNodeImpl@AdobeXMPCore_Int@@UEAAXPEBD@Z 000000018004b30c f   XMPSimpleNodeImpl.obj
 0001:0004a3a0       ?IsURIType@XMPSimpleNodeImpl@AdobeXMPCore_Int@@UEBA_NXZ 000000018004b3a0 f   XMPSimpleNodeImpl.obj
 0001:0004a3e0       ?ChangeURIType@XMPSimpleNodeImpl@AdobeXMPCore_Int@@UEAAX_N@Z 000000018004b3e0 f   XMPSimpleNodeImpl.obj
 0001:0004a42c       ??0XMPSimpleNodeImpl@AdobeXMPCore_Int@@QEAA@PEBD00W4eMultiThreadingSupport@AdobeXMPCommon@@@Z 000000018004b42c f   XMPSimpleNodeImpl.obj
 0001:0004a814       ?ClearContents@XMPSimpleNodeImpl@AdobeXMPCore_Int@@UEAAXXZ 000000018004b814 f   XMPSimpleNodeImpl.obj
 0001:0004a878       ?CloneContents@XMPSimpleNodeImpl@AdobeXMPCore_Int@@UEBA?AV?$shared_ptr@VIXMPNode_I@AdobeXMPCore_Int@@@std@@_N0_KW4eMultiThreadingSupport@AdobeXMPCommon@@@Z 000000018004b878 f   XMPSimpleNodeImpl.obj
 0001:0004a9ec       ??$CallUnSafeFunctionReturningVoid@VIXMPSimpleNode_I@AdobeXMPCore_Int@@_N@AdobeXMPCommon_Int@@YAXAEAPEBVIError_v1@AdobeXMPCommon@@PEAVIXMPSimpleNode_I@AdobeXMPCore_Int@@P834@EAAX_N@Z2@Z 000000018004b9ec f i XMPSimpleNodeImpl.obj
 0001:0004aa28       ??$MakeUncheckedSharedPointer@VXMPSimpleNodeImpl@AdobeXMPCore_Int@@@AdobeXMPCommon_Int@@YA?AV?$shared_ptr@VXMPSimpleNodeImpl@AdobeXMPCore_Int@@@std@@PEAVXMPSimpleNodeImpl@AdobeXMPCore_Int@@@Z 000000018004ba28 f i XMPSimpleNodeImpl.obj
 0001:0004aaa4       ??$_Resetp@VXMPSimpleNodeImpl@AdobeXMPCore_Int@@V?$_Mem_fn_wrap@XP8XMPNodeImpl@AdobeXMPCore_Int@@EBAXXZ$$CBV12@$$$V@std@@V?$TAllocator@VXMPSimpleNodeImpl@AdobeXMPCore_Int@@@AdobeXMPCommon_Int@@@?$shared_ptr@VXMPSimpleNodeImpl@AdobeXMPCore_Int@@@std@@AEAAXPEAVXMPSimpleNodeImpl@AdobeXMPCore_Int@@V?$_Mem_fn_wrap@XP8XMPNodeImpl@AdobeXMPCore_Int@@EBAXXZ$$CBV12@$$$V@1@V?$TAllocator@VXMPSimpleNodeImpl@AdobeXMPCore_Int@@@AdobeXMPCommon_Int@@@Z 000000018004baa4 f i XMPSimpleNodeImpl.obj
 0001:0004ab40       ?_Destroy@?$_Ref_count_del_alloc@VXMPSimpleNodeImpl@AdobeXMPCore_Int@@V?$_Mem_fn_wrap@XP8XMPNodeImpl@AdobeXMPCore_Int@@EBAXXZ$$CBV12@$$$V@std@@V?$TAllocator@VXMPSimpleNodeImpl@AdobeXMPCore_Int@@@AdobeXMPCommon_Int@@@std@@EEAAXXZ 000000018004bb40 f i XMPSimpleNodeImpl.obj
 0001:0004aba8       ?GetNameSpace_I@XMPNodeImpl@AdobeXMPCore_Int@@$R4GI@CE@PPPPPPPM@MI@EBA?AV?$shared_ptr@$$CBVIUTF8String_I@AdobeXMPCommon_Int@@@std@@XZ 000000018004bba8 f i XMPSimpleNodeImpl.obj
 0001:0004abc4       ??_EXMPSimpleNodeImpl@AdobeXMPCore_Int@@$2PPPPPPPM@A@EAAPEAXI@Z 000000018004bbc4 f i XMPSimpleNodeImpl.obj
 0001:0004abd0       ?GetNameSpace@IXMPNode_I@AdobeXMPCore_Int@@$R2FA@BA@PPPPPPPM@DA@EBAPEBVIUTF8String_v1@AdobeXMPCommon@@AEAPEBVIError_v1@4@@Z 000000018004bbd0 f i XMPSimpleNodeImpl.obj
 0001:0004abec       ?HasQualifiers@IXMPNode_I@AdobeXMPCore_Int@@$R2FA@BA@PPPPPPPM@DA@EBAKAEAPEBVIError_v1@AdobeXMPCommon@@@Z 000000018004bbec f i XMPSimpleNodeImpl.obj
 0001:0004ac08       ?ReleaseSharedOwnership@XMPNodeImpl@AdobeXMPCore_Int@@$R4CI@CE@PPPPPPPM@HA@EBAXXZ 000000018004bc08 f i XMPSimpleNodeImpl.obj
 0001:0004ac24       ?IsURIType@XMPSimpleNodeImpl@AdobeXMPCore_Int@@$4PPPPPPPM@A@EBA_NXZ 000000018004bc24 f i XMPSimpleNodeImpl.obj
 0001:0004ac30       ?ChangeValue@IXMPSimpleNode_I@AdobeXMPCore_Int@@$R2IA@BI@PPPPPPPM@FI@EAAXPEBDAEAPEBVIError_v1@AdobeXMPCommon@@@Z 000000018004bc30 f i XMPSimpleNodeImpl.obj
 0001:0004ac4c       ?ChangeParent_I@XMPNodeImpl@AdobeXMPCore_Int@@$R4GI@CE@PPPPPPPM@MI@EAAXPEAVIXMPNode_I@2@@Z 000000018004bc4c f i XMPSimpleNodeImpl.obj
 0001:0004ac68       ?GetQualifiers@IXMPNode_I@AdobeXMPCore_Int@@$R2FA@BA@PPPPPPPM@DA@EBAPEBVIXMPQualifiers_v1@AdobeXMPCore@@AEAPEBVIError_v1@AdobeXMPCommon@@@Z 000000018004bc68 f i XMPSimpleNodeImpl.obj
 0001:0004ac84       ?GetQualifiers@IXMPNode_I@AdobeXMPCore_Int@@$R2FA@BA@PPPPPPPM@DA@EAAPEAVIXMPQualifiers_v1@AdobeXMPCore@@AEAPEBVIError_v1@AdobeXMPCommon@@@Z 000000018004bc84 f i XMPSimpleNodeImpl.obj
 0001:0004aca0       ?IsArrayItem@IXMPNode_I@AdobeXMPCore_Int@@$R2FA@BA@PPPPPPPM@DA@EBAKAEAPEBVIError_v1@AdobeXMPCommon@@@Z 000000018004bca0 f i XMPSimpleNodeImpl.obj
 0001:0004acbc       ?GetQualifier_I@XMPNodeImpl@AdobeXMPCore_Int@@$R4GI@CE@PPPPPPPM@MI@EBA?AV?$shared_ptr@$$CBVIXMPNode_I@AdobeXMPCore_Int@@@std@@PEBD0@Z 000000018004bcbc f i XMPSimpleNodeImpl.obj
 0001:0004acd8       ?GetQualifier_I@XMPNodeImpl@AdobeXMPCore_Int@@$R4GI@CE@PPPPPPPM@MI@EAA?AV?$shared_ptr@VIXMPNode_I@AdobeXMPCore_Int@@@std@@PEBD0@Z 000000018004bcd8 f i XMPSimpleNodeImpl.obj
 0001:0004acf4       ?IsURIType@IXMPSimpleNode_I@AdobeXMPCore_Int@@$2PPPPPPPM@A@EBAKAEAPEBVIError_v1@AdobeXMPCommon@@@Z 000000018004bcf4 f i XMPSimpleNodeImpl.obj
 0001:0004ad00       ?GetPath_I@XMPNodeImpl@AdobeXMPCore_Int@@$R4GI@CE@PPPPPPPM@MI@EBA?AV?$shared_ptr@VIXMPPath_I@AdobeXMPCore_Int@@@std@@W4eMultiThreadingSupport@AdobeXMPCommon@@@Z 000000018004bd00 f i XMPSimpleNodeImpl.obj
 0001:0004ad1c       ?SetQualifiers@IXMPNode_I@AdobeXMPCore_Int@@$R2FA@BA@PPPPPPPM@DA@EAAXPEAVIXMPQualifiers_v1@AdobeXMPCore@@AEAPEBVIError_v1@AdobeXMPCommon@@@Z 000000018004bd1c f i XMPSimpleNodeImpl.obj
 0001:0004ad38       ?ChangeValue@XMPSimpleNodeImpl@AdobeXMPCore_Int@@$4PPPPPPPM@A@EAAXPEBD@Z 000000018004bd38 f i XMPSimpleNodeImpl.obj
 0001:0004ad44       ?ChangeValue@IXMPSimpleNode_I@AdobeXMPCore_Int@@$2PPPPPPPM@A@EAAXPEBDAEAPEBVIError_v1@AdobeXMPCommon@@@Z 000000018004bd44 f i XMPSimpleNodeImpl.obj
 0001:0004ad50       ?GetValue@IXMPSimpleNode_I@AdobeXMPCore_Int@@$R2IA@BI@PPPPPPPM@FI@EBAPEBVIUTF8String_v1@AdobeXMPCommon@@AEAPEBVIError_v1@4@@Z 000000018004bd50 f i XMPSimpleNodeImpl.obj
 0001:0004ad6c       ?HasQualifiers@XMPNodeImpl@AdobeXMPCore_Int@@$R4GI@CE@PPPPPPPM@MI@EBA_NXZ 000000018004bd6c f i XMPSimpleNodeImpl.obj
 0001:0004ad88       ?ReplaceQualifier_I@XMPNodeImpl@AdobeXMPCore_Int@@$R4GI@CE@PPPPPPPM@MI@EAAXAEBV?$shared_ptr@VIXMPNode_I@AdobeXMPCore_Int@@@std@@@Z 000000018004bd88 f i XMPSimpleNodeImpl.obj
 0001:0004ada4       ?Clear@XMPNodeImpl@AdobeXMPCore_Int@@$R4GI@CE@PPPPPPPM@MI@EAAX_N0@Z 000000018004bda4 f i XMPSimpleNodeImpl.obj
 0001:0004adc0       ?RemoveQualifier_I@XMPNodeImpl@AdobeXMPCore_Int@@$R4GI@CE@PPPPPPPM@MI@EAA?AV?$shared_ptr@VIXMPNode_I@AdobeXMPCore_Int@@@std@@PEBD0@Z 000000018004bdc0 f i XMPSimpleNodeImpl.obj
 0001:0004addc       ?AcquireSharedOwnership@XMPNodeImpl@AdobeXMPCore_Int@@$R4CI@CE@PPPPPPPM@HA@EBAXXZ 000000018004bddc f i XMPSimpleNodeImpl.obj
 0001:0004adf8       ?ClearContents@XMPSimpleNodeImpl@AdobeXMPCore_Int@@$4PPPPPPPM@A@EAAXXZ 000000018004bdf8 f i XMPSimpleNodeImpl.obj
 0001:0004ae04       ?InsertQualifier_I@XMPNodeImpl@AdobeXMPCore_Int@@$R4GI@CE@PPPPPPPM@MI@EAAXAEBV?$shared_ptr@VIXMPNode_I@AdobeXMPCore_Int@@@std@@@Z 000000018004be04 f i XMPSimpleNodeImpl.obj
 0001:0004ae20       ?GetParent_I@XMPNodeImpl@AdobeXMPCore_Int@@$R4GI@CE@PPPPPPPM@MI@EBA?AV?$shared_ptr@$$CBVIXMPNode_I@AdobeXMPCore_Int@@@std@@XZ 000000018004be20 f i XMPSimpleNodeImpl.obj
 0001:0004ae3c       ?GetParent_I@XMPNodeImpl@AdobeXMPCore_Int@@$R4GI@CE@PPPPPPPM@MI@EAA?AV?$shared_ptr@VIXMPNode_I@AdobeXMPCore_Int@@@std@@XZ 000000018004be3c f i XMPSimpleNodeImpl.obj
 0001:0004ae58       ?GetParent@IXMPNode_I@AdobeXMPCore_Int@@$R2FA@BA@PPPPPPPM@DA@EBAPEBVIXMPNode_v1@AdobeXMPCore@@AEAPEBVIError_v1@AdobeXMPCommon@@@Z 000000018004be58 f i XMPSimpleNodeImpl.obj
 0001:0004ae74       ?GetParent@IXMPNode_I@AdobeXMPCore_Int@@$R2FA@BA@PPPPPPPM@DA@EAAPEAVIXMPNode_v1@AdobeXMPCore@@AEAPEBVIError_v1@AdobeXMPCommon@@@Z 000000018004be74 f i XMPSimpleNodeImpl.obj
 0001:0004ae90       ?GetValue@IXMPSimpleNode_I@AdobeXMPCore_Int@@$2PPPPPPPM@A@EBAPEBVIUTF8String_v1@AdobeXMPCommon@@AEAPEBVIError_v1@4@@Z 000000018004be90 f i XMPSimpleNodeImpl.obj
 0001:0004ae9c       ?IsArrayItem@XMPNodeImpl@AdobeXMPCore_Int@@$R4GI@CE@PPPPPPPM@MI@EBA_NXZ 000000018004be9c f i XMPSimpleNodeImpl.obj
 0001:0004aeb8       ?GetRawParentPointer_I@XMPNodeImpl@AdobeXMPCore_Int@@$R4GI@CE@PPPPPPPM@MI@EBAPEBVIXMPNode_I@2@XZ 000000018004beb8 f i XMPSimpleNodeImpl.obj
 0001:0004aeb8       ?GetRawParentPointer_I@XMPNodeImpl@AdobeXMPCore_Int@@$R4GI@CE@PPPPPPPM@MI@EAAPEAVIXMPNode_I@2@XZ 000000018004beb8 f i XMPSimpleNodeImpl.obj
 0001:0004aed4       ?GetName_I@XMPNodeImpl@AdobeXMPCore_Int@@$R4GI@CE@PPPPPPPM@MI@EBA?AV?$shared_ptr@$$CBVIUTF8String_I@AdobeXMPCommon_Int@@@std@@XZ 000000018004bed4 f i XMPSimpleNodeImpl.obj
 0001:0004aef0       ?RemoveQualifier@IXMPNode_I@AdobeXMPCore_Int@@$R2FA@BA@PPPPPPPM@DA@EAAPEAVIXMPNode_v1@AdobeXMPCore@@PEBD0AEAPEBVIError_v1@AdobeXMPCommon@@@Z 000000018004bef0 f i XMPSimpleNodeImpl.obj
 0001:0004af0c       ?GetQualifiers_I@XMPNodeImpl@AdobeXMPCore_Int@@$R4GI@CE@PPPPPPPM@MI@EBA?AV?$shared_ptr@$$CBVIXMPQualifiers_I@AdobeXMPCore_Int@@@std@@XZ 000000018004bf0c f i XMPSimpleNodeImpl.obj
 0001:0004af0c       ?GetQualifiers_I@XMPNodeImpl@AdobeXMPCore_Int@@$R4GI@CE@PPPPPPPM@MI@EAA?AV?$shared_ptr@VIXMPQualifiers_I@AdobeXMPCore_Int@@@std@@XZ 000000018004bf0c f i XMPSimpleNodeImpl.obj
 0001:0004af28       ?GetValue_I@XMPSimpleNodeImpl@AdobeXMPCore_Int@@$4PPPPPPPM@A@EBA?AV?$shared_ptr@$$CBVIUTF8String_I@AdobeXMPCommon_Int@@@std@@XZ 000000018004bf28 f i XMPSimpleNodeImpl.obj
 0001:0004af34       ?ChangeURIType@IXMPSimpleNode_I@AdobeXMPCore_Int@@$R2IA@BI@PPPPPPPM@FI@EAAXKAEAPEBVIError_v1@AdobeXMPCommon@@@Z 000000018004bf34 f i XMPSimpleNodeImpl.obj
 0001:0004af50       ?TryLockShared@SharedMutexImpl@AdobeXMPCommon_Int@@$4PPPPPPPM@A@EAA?AW4eMutexErr@ISharedMutex_I@2@XZ 000000018004bf50 f i XMPCommon:SharedMutexImpl.obj
 0001:0004af50       ?Lock@SharedMutexImpl@AdobeXMPCommon_Int@@$4PPPPPPPM@A@EAA?AW4eMutexErr@ISharedMutex_I@2@XZ 000000018004bf50 f i XMPCommon:SharedMutexImpl.obj
 0001:0004af50       ?LockShared@SharedMutexImpl@AdobeXMPCommon_Int@@$4PPPPPPPM@A@EAA?AW4eMutexErr@ISharedMutex_I@2@XZ 000000018004bf50 f i XMPCommon:SharedMutexImpl.obj
 0001:0004af50       ?UnlockShared@SharedMutexImpl@AdobeXMPCommon_Int@@$4PPPPPPPM@A@EAA?AW4eMutexErr@ISharedMutex_I@2@XZ 000000018004bf50 f i XMPCommon:SharedMutexImpl.obj
 0001:0004af50       ?TryLock@SharedMutexImpl@AdobeXMPCommon_Int@@$4PPPPPPPM@A@EAA?AW4eMutexErr@ISharedMutex_I@2@XZ 000000018004bf50 f i XMPCommon:SharedMutexImpl.obj
 0001:0004af50       ?Unlock@SharedMutexImpl@AdobeXMPCommon_Int@@$4PPPPPPPM@A@EAA?AW4eMutexErr@ISharedMutex_I@2@XZ 000000018004bf50 f i XMPCommon:SharedMutexImpl.obj
 0001:0004af50       ?GetNodeType@XMPSimpleNodeImpl@AdobeXMPCore_Int@@$4PPPPPPPM@A@EBA?AW4eXMPNodeType@IXMPNode_v1@AdobeXMPCore@@XZ 000000018004bf50 f i XMPSimpleNodeImpl.obj
 0001:0004af5c       ?SetQualifiers_I@XMPNodeImpl@AdobeXMPCore_Int@@$R4GI@CE@PPPPPPPM@MI@EAAXAEBV?$shared_ptr@VIXMPQualifiers_I@AdobeXMPCore_Int@@@std@@@Z 000000018004bf5c f i XMPSimpleNodeImpl.obj
 0001:0004af78       ?AcquireSharedOwnershipForRawPointer@XMPNodeImpl@AdobeXMPCore_Int@@$R4DI@CE@PPPPPPPM@IA@EBAXXZ 000000018004bf78 f i XMPSimpleNodeImpl.obj
 0001:0004af94       ?GetNodeType@IXMPNode_I@AdobeXMPCore_Int@@$R2FA@BA@PPPPPPPM@DA@EBAKAEAPEBVIError_v1@AdobeXMPCommon@@@Z 000000018004bf94 f i XMPSimpleNodeImpl.obj
 0001:0004afb0       ?GetQualifier@IXMPNode_I@AdobeXMPCore_Int@@$R2FA@BA@PPPPPPPM@DA@EBAPEBVIXMPNode_v1@AdobeXMPCore@@PEBD0AEAPEBVIError_v1@AdobeXMPCommon@@@Z 000000018004bfb0 f i XMPSimpleNodeImpl.obj
 0001:0004afcc       ?GetQualifier@IXMPNode_I@AdobeXMPCore_Int@@$R2FA@BA@PPPPPPPM@DA@EAAPEAVIXMPNode_v1@AdobeXMPCore@@PEBD0AEAPEBVIError_v1@AdobeXMPCommon@@@Z 000000018004bfcc f i XMPSimpleNodeImpl.obj
 0001:0004afe8       ?GetName@IXMPNode_I@AdobeXMPCore_Int@@$R2FA@BA@PPPPPPPM@DA@EBAPEBVIUTF8String_v1@AdobeXMPCommon@@AEAPEBVIError_v1@4@@Z 000000018004bfe8 f i XMPSimpleNodeImpl.obj
 0001:0004b004       ?ChangeURIType@XMPSimpleNodeImpl@AdobeXMPCore_Int@@$4PPPPPPPM@A@EAAX_N@Z 000000018004c004 f i XMPSimpleNodeImpl.obj
 0001:0004b010       ?GetPath@IXMPNode_I@AdobeXMPCore_Int@@$R2FA@BA@PPPPPPPM@DA@EBAPEAVIXMPPath_v1@AdobeXMPCore@@KAEAPEBVIError_v1@AdobeXMPCommon@@@Z 000000018004c010 f i XMPSimpleNodeImpl.obj
 0001:0004b02c       ?CloneContents@XMPSimpleNodeImpl@AdobeXMPCore_Int@@$4PPPPPPPM@A@EBA?AV?$shared_ptr@VIXMPNode_I@AdobeXMPCore_Int@@@std@@_N0_KW4eMultiThreadingSupport@AdobeXMPCommon@@@Z 000000018004c02c f i XMPSimpleNodeImpl.obj
 0001:0004b038       ?Clone@IXMPNode_I@AdobeXMPCore_Int@@$R2FA@BA@PPPPPPPM@DA@EBAPEAVIXMPNode_v1@AdobeXMPCore@@KKKAEAPEBVIError_v1@AdobeXMPCommon@@@Z 000000018004c038 f i XMPSimpleNodeImpl.obj
 0001:0004b054       ?ReplaceQualifier@IXMPNode_I@AdobeXMPCore_Int@@$R2FA@BA@PPPPPPPM@DA@EAAXPEAVIXMPNode_v1@AdobeXMPCore@@AEAPEBVIError_v1@AdobeXMPCommon@@@Z 000000018004c054 f i XMPSimpleNodeImpl.obj
 0001:0004b070       ?ChangeURIType@IXMPSimpleNode_I@AdobeXMPCore_Int@@$2PPPPPPPM@A@EAAXKAEAPEBVIError_v1@AdobeXMPCommon@@@Z 000000018004c070 f i XMPSimpleNodeImpl.obj
 0001:0004b07c       ?InsertQualifier@IXMPNode_I@AdobeXMPCore_Int@@$R2FA@BA@PPPPPPPM@DA@EAAXPEAVIXMPNode_v1@AdobeXMPCore@@AEAPEBVIError_v1@AdobeXMPCommon@@@Z 000000018004c07c f i XMPSimpleNodeImpl.obj
 0001:0004b098       ??_EXMPSimpleNodeImpl@AdobeXMPCore_Int@@OJI@EAAPEAXI@Z 000000018004c098 f i XMPSimpleNodeImpl.obj
 0001:0004b0a4       ?Clone_I@XMPNodeImpl@AdobeXMPCore_Int@@$R4GI@CE@PPPPPPPM@MI@EBA?AV?$shared_ptr@VIXMPNode_I@AdobeXMPCore_Int@@@std@@_N0W4eMultiThreadingSupport@AdobeXMPCommon@@@Z 000000018004c0a4 f i XMPSimpleNodeImpl.obj
 0001:0004b0c0       ?IsURIType@IXMPSimpleNode_I@AdobeXMPCore_Int@@$R2IA@BI@PPPPPPPM@FI@EBAKAEAPEBVIError_v1@AdobeXMPCommon@@@Z 000000018004c0c0 f i XMPSimpleNodeImpl.obj
 0001:0004b0dc       ?Clear@IXMPNode_I@AdobeXMPCore_Int@@$R2FA@BA@PPPPPPPM@DA@EAAXKKAEAPEBVIError_v1@AdobeXMPCommon@@@Z 000000018004c0dc f i XMPSimpleNodeImpl.obj
 0001:0004b0f8       ?CreateStructureNode_I@IXMPStructureNode_I@AdobeXMPCore_Int@@SA?AV?$shared_ptr@VIXMPStructureNode_I@AdobeXMPCore_Int@@@std@@PEBD0W4eMultiThreadingSupport@AdobeXMPCommon@@@Z 000000018004c0f8 f   XMPStructureNodeImpl.obj
 0001:0004b1d4       ??RCompareQualifiedName@XMPStructureNodeImpl@AdobeXMPCore_Int@@QEBA_NAEBUQualifiedName@12@0@Z 000000018004c1d4 f   XMPStructureNodeImpl.obj
 0001:0004b364       ?GetNode_I@XMPStructureNodeImpl@AdobeXMPCore_Int@@UEBA?AV?$shared_ptr@$$CBVIXMPNode_I@AdobeXMPCore_Int@@@std@@PEBD0@Z 000000018004c364 f   XMPStructureNodeImpl.obj
 0001:0004b3e4       ?GetNode_I@XMPStructureNodeImpl@AdobeXMPCore_Int@@UEAA?AV?$shared_ptr@VIXMPNode_I@AdobeXMPCore_Int@@@std@@PEBD0@Z 000000018004c3e4 f   XMPStructureNodeImpl.obj
 0001:0004b4ac       ?AppendNode_I@XMPStructureNodeImpl@AdobeXMPCore_Int@@UEAAXAEBV?$shared_ptr@VIXMPNode_I@AdobeXMPCore_Int@@@std@@@Z 000000018004c4ac f   XMPStructureNodeImpl.obj
 0001:0004b4c8       ?InsertNode_I@XMPStructureNodeImpl@AdobeXMPCore_Int@@UEAAXAEBV?$shared_ptr@VIXMPNode_I@AdobeXMPCore_Int@@@std@@@Z 000000018004c4c8 f   XMPStructureNodeImpl.obj
 0001:0004b8c0       ?Iterator_I@XMPStructureNodeImpl@AdobeXMPCore_Int@@UEBA?AV?$shared_ptr@VIXMPConstNodeIterator_I@AdobeXMPCore_Int@@@std@@W4eMultiThreadingSupport@AdobeXMPCommon@@@Z 000000018004c8c0 f   XMPStructureNodeImpl.obj
 0001:0004b8f0       ?Iterator_I@XMPStructureNodeImpl@AdobeXMPCore_Int@@UEAA?AV?$shared_ptr@VIXMPNodeIterator_I@AdobeXMPCore_Int@@@std@@W4eMultiThreadingSupport@AdobeXMPCommon@@@Z 000000018004c8f0 f   XMPStructureNodeImpl.obj
 0001:0004b920       ?RemoveNode_I@XMPStructureNodeImpl@AdobeXMPCore_Int@@UEAA?AV?$shared_ptr@VIXMPNode_I@AdobeXMPCore_Int@@@std@@PEBD0@Z 000000018004c920 f   XMPStructureNodeImpl.obj
 0001:0004ba74       ?GetChildCount@XMPStructureNodeImpl@AdobeXMPCore_Int@@UEBA_KXZ 000000018004ca74 f   XMPStructureNodeImpl.obj
 0001:0004bab4       ?ReplaceNode_I@XMPStructureNodeImpl@AdobeXMPCore_Int@@UEAAXAEBV?$shared_ptr@VIXMPNode_I@AdobeXMPCore_Int@@@std@@@Z 000000018004cab4 f   XMPStructureNodeImpl.obj
 0001:0004bf08       ??0XMPStructureNodeImpl@AdobeXMPCore_Int@@QEAA@PEBD0W4eMultiThreadingSupport@AdobeXMPCommon@@@Z 000000018004cf08 f   XMPStructureNodeImpl.obj
 0001:0004c404       ?IsEmpty@XMPStructureNodeImpl@AdobeXMPCore_Int@@UEBA_NXZ 000000018004d404 f   XMPStructureNodeImpl.obj
 0001:0004c448       ?ClearContents@XMPStructureNodeImpl@AdobeXMPCore_Int@@UEAAXXZ 000000018004d448 f   XMPStructureNodeImpl.obj
 0001:0004c4b4       ?GetNodeType@XMPStructureNodeImpl@AdobeXMPCore_Int@@UEBA?AW4eXMPNodeType@IXMPNode_v1@AdobeXMPCore@@XZ 000000018004d4b4 f   XMPStructureNodeImpl.obj
 0001:0004c4bc       ?CloneContents@XMPStructureNodeImpl@AdobeXMPCore_Int@@UEBA?AV?$shared_ptr@VIXMPNode_I@AdobeXMPCore_Int@@@std@@_N0_KW4eMultiThreadingSupport@AdobeXMPCommon@@@Z 000000018004d4bc f   XMPStructureNodeImpl.obj
 0001:0004c720       ??0QualifiedName@XMPStructureNodeImpl@AdobeXMPCore_Int@@QEAA@PEBD0@Z 000000018004d720 f   XMPStructureNodeImpl.obj
 0001:0004c81c       ?CreateNodeFromIterator@?$TXMPNodeIteratorImpl@V?$_Tree_iterator@V?$_Tree_val@U?$_Tree_simple_types@U?$pair@$$CBUQualifiedName@XMPStructureNodeImpl@AdobeXMPCore_Int@@V?$shared_ptr@VIXMPNode_I@AdobeXMPCore_Int@@@std@@@std@@@std@@@std@@@std@@@AdobeXMPCore_Int@@QEBA?AV?$shared_ptr@VIXMPNode_I@AdobeXMPCore_Int@@@std@@AEBV?$_Tree_iterator@V?$_Tree_val@U?$_Tree_simple_types@U?$pair@$$CBUQualifiedName@XMPStructureNodeImpl@AdobeXMPCore_Int@@V?$shared_ptr@VIXMPNode_I@AdobeXMPCore_Int@@@std@@@std@@@std@@@std@@@4@@Z 000000018004d81c f   XMPStructureNodeImpl.obj
 0001:0004c844       ?CreateNodeFromIterator@?$TXMPConstNodeIteratorImpl@V?$_Tree_const_iterator@V?$_Tree_val@U?$_Tree_simple_types@U?$pair@$$CBUQualifiedName@XMPStructureNodeImpl@AdobeXMPCore_Int@@V?$shared_ptr@VIXMPNode_I@AdobeXMPCore_Int@@@std@@@std@@@std@@@std@@@std@@@AdobeXMPCore_Int@@QEBA?AV?$shared_ptr@$$CBVIXMPNode_I@AdobeXMPCore_Int@@@std@@AEBV?$_Tree_const_iterator@V?$_Tree_val@U?$_Tree_simple_types@U?$pair@$$CBUQualifiedName@XMPStructureNodeImpl@AdobeXMPCore_Int@@V?$shared_ptr@VIXMPNode_I@AdobeXMPCore_Int@@@std@@@std@@@std@@@std@@@4@@Z 000000018004d844 f   XMPStructureNodeImpl.obj
 0001:0004c8b4       ??A?$map@UQualifiedName@XMPStructureNodeImpl@AdobeXMPCore_Int@@V?$shared_ptr@VIXMPNode_I@AdobeXMPCore_Int@@@std@@UCompareQualifiedName@23@V?$TAllocator@V?$shared_ptr@VIXMPNode_I@AdobeXMPCore_Int@@@std@@@AdobeXMPCommon_Int@@@std@@QEAAAEAV?$shared_ptr@VIXMPNode_I@AdobeXMPCore_Int@@@1@AEBUQualifiedName@XMPStructureNodeImpl@AdobeXMPCore_Int@@@Z 000000018004d8b4 f i XMPStructureNodeImpl.obj
 0001:0004c958       ?find@?$_Tree@V?$_Tmap_traits@UQualifiedName@XMPStructureNodeImpl@AdobeXMPCore_Int@@V?$shared_ptr@VIXMPNode_I@AdobeXMPCore_Int@@@std@@UCompareQualifiedName@23@V?$TAllocator@V?$shared_ptr@VIXMPNode_I@AdobeXMPCore_Int@@@std@@@AdobeXMPCommon_Int@@$0A@@std@@@std@@QEAA?AV?$_Tree_iterator@V?$_Tree_val@U?$_Tree_simple_types@U?$pair@$$CBUQualifiedName@XMPStructureNodeImpl@AdobeXMPCore_Int@@V?$shared_ptr@VIXMPNode_I@AdobeXMPCore_Int@@@std@@@std@@@std@@@std@@@2@AEBUQualifiedName@XMPStructureNodeImpl@AdobeXMPCore_Int@@@Z 000000018004d958 f i XMPStructureNodeImpl.obj
 0001:0004c9e4       ?GetNode_I@?$TXMPConstNodeIteratorImpl@V?$_Tree_const_iterator@V?$_Tree_val@U?$_Tree_simple_types@U?$pair@$$CBUQualifiedName@XMPStructureNodeImpl@AdobeXMPCore_Int@@V?$shared_ptr@VIXMPNode_I@AdobeXMPCore_Int@@@std@@@std@@@std@@@std@@@std@@@AdobeXMPCore_Int@@UEBA?AV?$shared_ptr@$$CBVIXMPNode_I@AdobeXMPCore_Int@@@std@@XZ 000000018004d9e4 f i XMPStructureNodeImpl.obj
 0001:0004ca58       ?Next_I@?$TXMPConstNodeIteratorImpl@V?$_Tree_const_iterator@V?$_Tree_val@U?$_Tree_simple_types@U?$pair@$$CBUQualifiedName@XMPStructureNodeImpl@AdobeXMPCore_Int@@V?$shared_ptr@VIXMPNode_I@AdobeXMPCore_Int@@@std@@@std@@@std@@@std@@@std@@@AdobeXMPCore_Int@@UEAA?AV?$shared_ptr@VIXMPConstNodeIterator_I@AdobeXMPCore_Int@@@std@@XZ 000000018004da58 f i XMPStructureNodeImpl.obj
 0001:0004cb6c       ?CreateConstIterator@?$TXMPConstNodeIteratorImpl@V?$_Tree_const_iterator@V?$_Tree_val@U?$_Tree_simple_types@U?$pair@$$CBUQualifiedName@XMPStructureNodeImpl@AdobeXMPCore_Int@@V?$shared_ptr@VIXMPNode_I@AdobeXMPCore_Int@@@std@@@std@@@std@@@std@@@std@@@AdobeXMPCore_Int@@SA?AV?$shared_ptr@VIXMPConstNodeIterator_I@AdobeXMPCore_Int@@@std@@V?$_Tree_const_iterator@V?$_Tree_val@U?$_Tree_simple_types@U?$pair@$$CBUQualifiedName@XMPStructureNodeImpl@AdobeXMPCore_Int@@V?$shared_ptr@VIXMPNode_I@AdobeXMPCore_Int@@@std@@@std@@@std@@@std@@@4@0W4eMultiThreadingSupport@AdobeXMPCommon@@@Z 000000018004db6c f i XMPStructureNodeImpl.obj
 0001:0004cc44       ??1?$TXMPConstNodeIteratorImpl@V?$_Tree_const_iterator@V?$_Tree_val@U?$_Tree_simple_types@U?$pair@$$CBUQualifiedName@XMPStructureNodeImpl@AdobeXMPCore_Int@@V?$shared_ptr@VIXMPNode_I@AdobeXMPCore_Int@@@std@@@std@@@std@@@std@@@std@@@AdobeXMPCore_Int@@MEAA@XZ 000000018004dc44 f i XMPStructureNodeImpl.obj
 0001:0004cd20       ?GetNode_I@?$TXMPNodeIteratorImpl@V?$_Tree_iterator@V?$_Tree_val@U?$_Tree_simple_types@U?$pair@$$CBUQualifiedName@XMPStructureNodeImpl@AdobeXMPCore_Int@@V?$shared_ptr@VIXMPNode_I@AdobeXMPCore_Int@@@std@@@std@@@std@@@std@@@std@@@AdobeXMPCore_Int@@UEBA?AV?$shared_ptr@VIXMPNode_I@AdobeXMPCore_Int@@@std@@XZ 000000018004dd20 f i XMPStructureNodeImpl.obj
 0001:0004cd94       ?Next_I@?$TXMPNodeIteratorImpl@V?$_Tree_iterator@V?$_Tree_val@U?$_Tree_simple_types@U?$pair@$$CBUQualifiedName@XMPStructureNodeImpl@AdobeXMPCore_Int@@V?$shared_ptr@VIXMPNode_I@AdobeXMPCore_Int@@@std@@@std@@@std@@@std@@@std@@@AdobeXMPCore_Int@@UEAA?AV?$shared_ptr@VIXMPNodeIterator_I@AdobeXMPCore_Int@@@std@@XZ 000000018004dd94 f i XMPStructureNodeImpl.obj
 0001:0004cea8       ?CreateIterator@?$TXMPNodeIteratorImpl@V?$_Tree_iterator@V?$_Tree_val@U?$_Tree_simple_types@U?$pair@$$CBUQualifiedName@XMPStructureNodeImpl@AdobeXMPCore_Int@@V?$shared_ptr@VIXMPNode_I@AdobeXMPCore_Int@@@std@@@std@@@std@@@std@@@std@@@AdobeXMPCore_Int@@SA?AV?$shared_ptr@VIXMPNodeIterator_I@AdobeXMPCore_Int@@@std@@V?$_Tree_iterator@V?$_Tree_val@U?$_Tree_simple_types@U?$pair@$$CBUQualifiedName@XMPStructureNodeImpl@AdobeXMPCore_Int@@V?$shared_ptr@VIXMPNode_I@AdobeXMPCore_Int@@@std@@@std@@@std@@@std@@@4@0W4eMultiThreadingSupport@AdobeXMPCommon@@@Z 000000018004dea8 f i XMPStructureNodeImpl.obj
 0001:0004cf80       ??1?$TXMPNodeIteratorImpl@V?$_Tree_iterator@V?$_Tree_val@U?$_Tree_simple_types@U?$pair@$$CBUQualifiedName@XMPStructureNodeImpl@AdobeXMPCore_Int@@V?$shared_ptr@VIXMPNode_I@AdobeXMPCore_Int@@@std@@@std@@@std@@@std@@@std@@@AdobeXMPCore_Int@@MEAA@XZ 000000018004df80 f i XMPStructureNodeImpl.obj
 0001:0004d05c       ??_G?$TXMPConstNodeIteratorImpl@V?$_Tree_const_iterator@V?$_Tree_val@U?$_Tree_simple_types@U?$pair@$$CBUQualifiedName@XMPStructureNodeImpl@AdobeXMPCore_Int@@V?$shared_ptr@VIXMPNode_I@AdobeXMPCore_Int@@@std@@@std@@@std@@@std@@@std@@@AdobeXMPCore_Int@@MEAAPEAXI@Z 000000018004e05c f i XMPStructureNodeImpl.obj
 0001:0004d05c       ??_E?$TXMPConstNodeIteratorImpl@V?$_Tree_const_iterator@V?$_Tree_val@U?$_Tree_simple_types@U?$pair@$$CBUQualifiedName@XMPStructureNodeImpl@AdobeXMPCore_Int@@V?$shared_ptr@VIXMPNode_I@AdobeXMPCore_Int@@@std@@@std@@@std@@@std@@@std@@@AdobeXMPCore_Int@@MEAAPEAXI@Z 000000018004e05c f i * CIL library *:* CIL module *
 0001:0004d1ac       ??_E?$TXMPNodeIteratorImpl@V?$_Tree_iterator@V?$_Tree_val@U?$_Tree_simple_types@U?$pair@$$CBUQualifiedName@XMPStructureNodeImpl@AdobeXMPCore_Int@@V?$shared_ptr@VIXMPNode_I@AdobeXMPCore_Int@@@std@@@std@@@std@@@std@@@std@@@AdobeXMPCore_Int@@MEAAPEAXI@Z 000000018004e1ac f i * CIL library *:* CIL module *
 0001:0004d1ac       ??_G?$TXMPNodeIteratorImpl@V?$_Tree_iterator@V?$_Tree_val@U?$_Tree_simple_types@U?$pair@$$CBUQualifiedName@XMPStructureNodeImpl@AdobeXMPCore_Int@@V?$shared_ptr@VIXMPNode_I@AdobeXMPCore_Int@@@std@@@std@@@std@@@std@@@std@@@AdobeXMPCore_Int@@MEAAPEAXI@Z 000000018004e1ac f i XMPStructureNodeImpl.obj
 0001:0004d2fc       ??0?$TXMPConstNodeIteratorImpl@V?$_Tree_const_iterator@V?$_Tree_val@U?$_Tree_simple_types@U?$pair@$$CBUQualifiedName@XMPStructureNodeImpl@AdobeXMPCore_Int@@V?$shared_ptr@VIXMPNode_I@AdobeXMPCore_Int@@@std@@@std@@@std@@@std@@@std@@@AdobeXMPCore_Int@@IEAA@V?$_Tree_const_iterator@V?$_Tree_val@U?$_Tree_simple_types@U?$pair@$$CBUQualifiedName@XMPStructureNodeImpl@AdobeXMPCore_Int@@V?$shared_ptr@VIXMPNode_I@AdobeXMPCore_Int@@@std@@@std@@@std@@@std@@@std@@0W4eMultiThreadingSupport@AdobeXMPCommon@@@Z 000000018004e2fc f i XMPStructureNodeImpl.obj
 0001:0004d534       ??0?$TXMPNodeIteratorImpl@V?$_Tree_iterator@V?$_Tree_val@U?$_Tree_simple_types@U?$pair@$$CBUQualifiedName@XMPStructureNodeImpl@AdobeXMPCore_Int@@V?$shared_ptr@VIXMPNode_I@AdobeXMPCore_Int@@@std@@@std@@@std@@@std@@@std@@@AdobeXMPCore_Int@@IEAA@V?$_Tree_iterator@V?$_Tree_val@U?$_Tree_simple_types@U?$pair@$$CBUQualifiedName@XMPStructureNodeImpl@AdobeXMPCore_Int@@V?$shared_ptr@VIXMPNode_I@AdobeXMPCore_Int@@@std@@@std@@@std@@@std@@@std@@0W4eMultiThreadingSupport@AdobeXMPCommon@@@Z 000000018004e534 f i XMPStructureNodeImpl.obj
 0001:0004d76c       ??$MakeUncheckedSharedPointer@VXMPStructureNodeImpl@AdobeXMPCore_Int@@@AdobeXMPCommon_Int@@YA?AV?$shared_ptr@VXMPStructureNodeImpl@AdobeXMPCore_Int@@@std@@PEAVXMPStructureNodeImpl@AdobeXMPCore_Int@@@Z 000000018004e76c f i XMPStructureNodeImpl.obj
 0001:0004d7e8       ??$MakeUncheckedSharedPointer@V?$TXMPConstNodeIteratorImpl@V?$_Tree_const_iterator@V?$_Tree_val@U?$_Tree_simple_types@U?$pair@$$CBUQualifiedName@XMPStructureNodeImpl@AdobeXMPCore_Int@@V?$shared_ptr@VIXMPNode_I@AdobeXMPCore_Int@@@std@@@std@@@std@@@std@@@std@@@AdobeXMPCore_Int@@@AdobeXMPCommon_Int@@YA?AV?$shared_ptr@V?$TXMPConstNodeIteratorImpl@V?$_Tree_const_iterator@V?$_Tree_val@U?$_Tree_simple_types@U?$pair@$$CBUQualifiedName@XMPStructureNodeImpl@AdobeXMPCore_Int@@V?$shared_ptr@VIXMPNode_I@AdobeXMPCore_Int@@@std@@@std@@@std@@@std@@@std@@@AdobeXMPCore_Int@@@std@@PEAV?$TXMPConstNodeIteratorImpl@V?$_Tree_const_iterator@V?$_Tree_val@U?$_Tree_simple_types@U?$pair@$$CBUQualifiedName@XMPStructureNodeImpl@AdobeXMPCore_Int@@V?$shared_ptr@VIXMPNode_I@AdobeXMPCore_Int@@@std@@@std@@@std@@@std@@@std@@@AdobeXMPCore_Int@@@Z 000000018004e7e8 f i XMPStructureNodeImpl.obj
 0001:0004d864       ??$MakeUncheckedSharedPointer@V?$TXMPNodeIteratorImpl@V?$_Tree_iterator@V?$_Tree_val@U?$_Tree_simple_types@U?$pair@$$CBUQualifiedName@XMPStructureNodeImpl@AdobeXMPCore_Int@@V?$shared_ptr@VIXMPNode_I@AdobeXMPCore_Int@@@std@@@std@@@std@@@std@@@std@@@AdobeXMPCore_Int@@@AdobeXMPCommon_Int@@YA?AV?$shared_ptr@V?$TXMPNodeIteratorImpl@V?$_Tree_iterator@V?$_Tree_val@U?$_Tree_simple_types@U?$pair@$$CBUQualifiedName@XMPStructureNodeImpl@AdobeXMPCore_Int@@V?$shared_ptr@VIXMPNode_I@AdobeXMPCore_Int@@@std@@@std@@@std@@@std@@@std@@@AdobeXMPCore_Int@@@std@@PEAV?$TXMPNodeIteratorImpl@V?$_Tree_iterator@V?$_Tree_val@U?$_Tree_simple_types@U?$pair@$$CBUQualifiedName@XMPStructureNodeImpl@AdobeXMPCore_Int@@V?$shared_ptr@VIXMPNode_I@AdobeXMPCore_Int@@@std@@@std@@@std@@@std@@@std@@@AdobeXMPCore_Int@@@Z 000000018004e864 f i XMPStructureNodeImpl.obj
 0001:0004d8e0       ??$_Buynode@AEBUpiecewise_construct_t@std@@V?$tuple@AEBUQualifiedName@XMPStructureNodeImpl@AdobeXMPCore_Int@@@2@V?$tuple@$$$V@2@@?$_Tree_buy@U?$pair@$$CBUQualifiedName@XMPStructureNodeImpl@AdobeXMPCore_Int@@V?$shared_ptr@VIXMPNode_I@AdobeXMPCore_Int@@@std@@@std@@V?$TAllocator@V?$shared_ptr@VIXMPNode_I@AdobeXMPCore_Int@@@std@@@AdobeXMPCommon_Int@@@std@@QEAAPEAU?$_Tree_node@U?$pair@$$CBUQualifiedName@XMPStructureNodeImpl@AdobeXMPCore_Int@@V?$shared_ptr@VIXMPNode_I@AdobeXMPCore_Int@@@std@@@std@@PEAX@1@AEBUpiecewise_construct_t@1@$$QEAV?$tuple@AEBUQualifiedName@XMPStructureNodeImpl@AdobeXMPCore_Int@@@1@$$QEAV?$tuple@$$$V@1@@Z 000000018004e8e0 f i XMPStructureNodeImpl.obj
 0001:0004d944       ??$_Insert_hint@AEAU?$pair@$$CBUQualifiedName@XMPStructureNodeImpl@AdobeXMPCore_Int@@V?$shared_ptr@VIXMPNode_I@AdobeXMPCore_Int@@@std@@@std@@PEAU?$_Tree_node@U?$pair@$$CBUQualifiedName@XMPStructureNodeImpl@AdobeXMPCore_Int@@V?$shared_ptr@VIXMPNode_I@AdobeXMPCore_Int@@@std@@@std@@PEAX@2@@?$_Tree@V?$_Tmap_traits@UQualifiedName@XMPStructureNodeImpl@AdobeXMPCore_Int@@V?$shared_ptr@VIXMPNode_I@AdobeXMPCore_Int@@@std@@UCompareQualifiedName@23@V?$TAllocator@V?$shared_ptr@VIXMPNode_I@AdobeXMPCore_Int@@@std@@@AdobeXMPCommon_Int@@$0A@@std@@@std@@IEAA?AV?$_Tree_iterator@V?$_Tree_val@U?$_Tree_simple_types@U?$pair@$$CBUQualifiedName@XMPStructureNodeImpl@AdobeXMPCore_Int@@V?$shared_ptr@VIXMPNode_I@AdobeXMPCore_Int@@@std@@@std@@@std@@@std@@@1@V?$_Tree_const_iterator@V?$_Tree_val@U?$_Tree_simple_types@U?$pair@$$CBUQualifiedName@XMPStructureNodeImpl@AdobeXMPCore_Int@@V?$shared_ptr@VIXMPNode_I@AdobeXMPCore_Int@@@std@@@std@@@std@@@std@@@1@AEAU?$pair@$$CBUQualifiedName@XMPStructureNodeImpl@AdobeXMPCore_Int@@V?$shared_ptr@VIXMPNode_I@AdobeXMPCore_Int@@@std@@@1@PEAU?$_Tree_node@U?$pair@$$CBUQualifiedName@XMPStructureNodeImpl@AdobeXMPCore_Int@@V?$shared_ptr@VIXMPNode_I@AdobeXMPCore_Int@@@std@@@std@@PEAX@1@@Z 000000018004e944 f i XMPStructureNodeImpl.obj
 0001:0004dbd8       ?_Buynode0@?$_Tree_buy@U?$pair@$$CBUQualifiedName@XMPStructureNodeImpl@AdobeXMPCore_Int@@V?$shared_ptr@VIXMPNode_I@AdobeXMPCore_Int@@@std@@@std@@V?$TAllocator@V?$shared_ptr@VIXMPNode_I@AdobeXMPCore_Int@@@std@@@AdobeXMPCommon_Int@@@std@@QEAAPEAU?$_Tree_node@U?$pair@$$CBUQualifiedName@XMPStructureNodeImpl@AdobeXMPCore_Int@@V?$shared_ptr@VIXMPNode_I@AdobeXMPCore_Int@@@std@@@std@@PEAX@2@XZ 000000018004ebd8 f i XMPStructureNodeImpl.obj
 0001:0004dc20       ??$_Resetp@VXMPStructureNodeImpl@AdobeXMPCore_Int@@V?$_Mem_fn_wrap@XP8XMPNodeImpl@AdobeXMPCore_Int@@EBAXXZ$$CBV12@$$$V@std@@V?$TAllocator@VXMPStructureNodeImpl@AdobeXMPCore_Int@@@AdobeXMPCommon_Int@@@?$shared_ptr@VXMPStructureNodeImpl@AdobeXMPCore_Int@@@std@@AEAAXPEAVXMPStructureNodeImpl@AdobeXMPCore_Int@@V?$_Mem_fn_wrap@XP8XMPNodeImpl@AdobeXMPCore_Int@@EBAXXZ$$CBV12@$$$V@1@V?$TAllocator@VXMPStructureNodeImpl@AdobeXMPCore_Int@@@AdobeXMPCommon_Int@@@Z 000000018004ec20 f i XMPStructureNodeImpl.obj
 0001:0004dcbc       ??$_Insert_at@AEAU?$pair@$$CBUQualifiedName@XMPStructureNodeImpl@AdobeXMPCore_Int@@V?$shared_ptr@VIXMPNode_I@AdobeXMPCore_Int@@@std@@@std@@PEAU?$_Tree_node@U?$pair@$$CBUQualifiedName@XMPStructureNodeImpl@AdobeXMPCore_Int@@V?$shared_ptr@VIXMPNode_I@AdobeXMPCore_Int@@@std@@@std@@PEAX@2@@?$_Tree@V?$_Tmap_traits@UQualifiedName@XMPStructureNodeImpl@AdobeXMPCore_Int@@V?$shared_ptr@VIXMPNode_I@AdobeXMPCore_Int@@@std@@UCompareQualifiedName@23@V?$TAllocator@V?$shared_ptr@VIXMPNode_I@AdobeXMPCore_Int@@@std@@@AdobeXMPCommon_Int@@$0A@@std@@@std@@IEAA?AV?$_Tree_iterator@V?$_Tree_val@U?$_Tree_simple_types@U?$pair@$$CBUQualifiedName@XMPStructureNodeImpl@AdobeXMPCore_Int@@V?$shared_ptr@VIXMPNode_I@AdobeXMPCore_Int@@@std@@@std@@@std@@@std@@@1@_NPEAU?$_Tree_node@U?$pair@$$CBUQualifiedName@XMPStructureNodeImpl@AdobeXMPCore_Int@@V?$shared_ptr@VIXMPNode_I@AdobeXMPCore_Int@@@std@@@std@@PEAX@1@AEAU?$pair@$$CBUQualifiedName@XMPStructureNodeImpl@AdobeXMPCore_Int@@V?$shared_ptr@VIXMPNode_I@AdobeXMPCore_Int@@@std@@@1@1@Z 000000018004ecbc f i XMPStructureNodeImpl.obj
 0001:0004df78       ??$_Insert_nohint@AEAU?$pair@$$CBUQualifiedName@XMPStructureNodeImpl@AdobeXMPCore_Int@@V?$shared_ptr@VIXMPNode_I@AdobeXMPCore_Int@@@std@@@std@@PEAU?$_Tree_node@U?$pair@$$CBUQualifiedName@XMPStructureNodeImpl@AdobeXMPCore_Int@@V?$shared_ptr@VIXMPNode_I@AdobeXMPCore_Int@@@std@@@std@@PEAX@2@@?$_Tree@V?$_Tmap_traits@UQualifiedName@XMPStructureNodeImpl@AdobeXMPCore_Int@@V?$shared_ptr@VIXMPNode_I@AdobeXMPCore_Int@@@std@@UCompareQualifiedName@23@V?$TAllocator@V?$shared_ptr@VIXMPNode_I@AdobeXMPCore_Int@@@std@@@AdobeXMPCommon_Int@@$0A@@std@@@std@@IEAA?AU?$pair@V?$_Tree_iterator@V?$_Tree_val@U?$_Tree_simple_types@U?$pair@$$CBUQualifiedName@XMPStructureNodeImpl@AdobeXMPCore_Int@@V?$shared_ptr@VIXMPNode_I@AdobeXMPCore_Int@@@std@@@std@@@std@@@std@@@std@@_N@1@_NAEAU?$pair@$$CBUQualifiedName@XMPStructureNodeImpl@AdobeXMPCore_Int@@V?$shared_ptr@VIXMPNode_I@AdobeXMPCore_Int@@@std@@@1@PEAU?$_Tree_node@U?$pair@$$CBUQualifiedName@XMPStructureNodeImpl@AdobeXMPCore_Int@@V?$shared_ptr@VIXMPNode_I@AdobeXMPCore_Int@@@std@@@std@@PEAX@1@@Z 000000018004ef78 f i XMPStructureNodeImpl.obj
 0001:0004e12c       ??$_Resetp@V?$TXMPConstNodeIteratorImpl@V?$_Tree_const_iterator@V?$_Tree_val@U?$_Tree_simple_types@U?$pair@$$CBUQualifiedName@XMPStructureNodeImpl@AdobeXMPCore_Int@@V?$shared_ptr@VIXMPNode_I@AdobeXMPCore_Int@@@std@@@std@@@std@@@std@@@std@@@AdobeXMPCore_Int@@V?$_Mem_fn_wrap@XP8IntrusiveRefCountSharedOwnership@AdobeXMPCommon_Int@@EBAXXZ$$CBV12@$$$V@std@@V?$TAllocator@V?$TXMPConstNodeIteratorImpl@V?$_Tree_const_iterator@V?$_Tree_val@U?$_Tree_simple_types@U?$pair@$$CBUQualifiedName@XMPStructureNodeImpl@AdobeXMPCore_Int@@V?$shared_ptr@VIXMPNode_I@AdobeXMPCore_Int@@@std@@@std@@@std@@@std@@@std@@@AdobeXMPCore_Int@@@AdobeXMPCommon_Int@@@?$shared_ptr@V?$TXMPConstNodeIteratorImpl@V?$_Tree_const_iterator@V?$_Tree_val@U?$_Tree_simple_types@U?$pair@$$CBUQualifiedName@XMPStructureNodeImpl@AdobeXMPCore_Int@@V?$shared_ptr@VIXMPNode_I@AdobeXMPCore_Int@@@std@@@std@@@std@@@std@@@std@@@AdobeXMPCore_Int@@@std@@AEAAXPEAV?$TXMPConstNodeIteratorImpl@V?$_Tree_const_iterator@V?$_Tree_val@U?$_Tree_simple_types@U?$pair@$$CBUQualifiedName@XMPStructureNodeImpl@AdobeXMPCore_Int@@V?$shared_ptr@VIXMPNode_I@AdobeXMPCore_Int@@@std@@@std@@@std@@@std@@@std@@@AdobeXMPCore_Int@@V?$_Mem_fn_wrap@XP8IntrusiveRefCountSharedOwnership@AdobeXMPCommon_Int@@EBAXXZ$$CBV12@$$$V@1@V?$TAllocator@V?$TXMPConstNodeIteratorImpl@V?$_Tree_const_iterator@V?$_Tree_val@U?$_Tree_simple_types@U?$pair@$$CBUQualifiedName@XMPStructureNodeImpl@AdobeXMPCore_Int@@V?$shared_ptr@VIXMPNode_I@AdobeXMPCore_Int@@@std@@@std@@@std@@@std@@@std@@@AdobeXMPCore_Int@@@AdobeXMPCommon_Int@@@Z 000000018004f12c f i XMPStructureNodeImpl.obj
 0001:0004e1c8       ??$_Resetp@V?$TXMPNodeIteratorImpl@V?$_Tree_iterator@V?$_Tree_val@U?$_Tree_simple_types@U?$pair@$$CBUQualifiedName@XMPStructureNodeImpl@AdobeXMPCore_Int@@V?$shared_ptr@VIXMPNode_I@AdobeXMPCore_Int@@@std@@@std@@@std@@@std@@@std@@@AdobeXMPCore_Int@@V?$_Mem_fn_wrap@XP8IntrusiveRefCountSharedOwnership@AdobeXMPCommon_Int@@EBAXXZ$$CBV12@$$$V@std@@V?$TAllocator@V?$TXMPNodeIteratorImpl@V?$_Tree_iterator@V?$_Tree_val@U?$_Tree_simple_types@U?$pair@$$CBUQualifiedName@XMPStructureNodeImpl@AdobeXMPCore_Int@@V?$shared_ptr@VIXMPNode_I@AdobeXMPCore_Int@@@std@@@std@@@std@@@std@@@std@@@AdobeXMPCore_Int@@@AdobeXMPCommon_Int@@@?$shared_ptr@V?$TXMPNodeIteratorImpl@V?$_Tree_iterator@V?$_Tree_val@U?$_Tree_simple_types@U?$pair@$$CBUQualifiedName@XMPStructureNodeImpl@AdobeXMPCore_Int@@V?$shared_ptr@VIXMPNode_I@AdobeXMPCore_Int@@@std@@@std@@@std@@@std@@@std@@@AdobeXMPCore_Int@@@std@@AEAAXPEAV?$TXMPNodeIteratorImpl@V?$_Tree_iterator@V?$_Tree_val@U?$_Tree_simple_types@U?$pair@$$CBUQualifiedName@XMPStructureNodeImpl@AdobeXMPCore_Int@@V?$shared_ptr@VIXMPNode_I@AdobeXMPCore_Int@@@std@@@std@@@std@@@std@@@std@@@AdobeXMPCore_Int@@V?$_Mem_fn_wrap@XP8IntrusiveRefCountSharedOwnership@AdobeXMPCommon_Int@@EBAXXZ$$CBV12@$$$V@1@V?$TAllocator@V?$TXMPNodeIteratorImpl@V?$_Tree_iterator@V?$_Tree_val@U?$_Tree_simple_types@U?$pair@$$CBUQualifiedName@XMPStructureNodeImpl@AdobeXMPCore_Int@@V?$shared_ptr@VIXMPNode_I@AdobeXMPCore_Int@@@std@@@std@@@std@@@std@@@std@@@AdobeXMPCore_Int@@@AdobeXMPCommon_Int@@@Z 000000018004f1c8 f i XMPStructureNodeImpl.obj
 0001:0004e264       ??_E?$TXMPConstNodeIteratorImpl@V?$_Tree_const_iterator@V?$_Tree_val@U?$_Tree_simple_types@U?$pair@$$CBUQualifiedName@XMPStructureNodeImpl@AdobeXMPCore_Int@@V?$shared_ptr@VIXMPNode_I@AdobeXMPCore_Int@@@std@@@std@@@std@@@std@@@std@@@AdobeXMPCore_Int@@$2PPPPPPPM@A@EAAPEAXI@Z 000000018004f264 f i XMPStructureNodeImpl.obj
 0001:0004e270       ??_E?$TXMPNodeIteratorImpl@V?$_Tree_iterator@V?$_Tree_val@U?$_Tree_simple_types@U?$pair@$$CBUQualifiedName@XMPStructureNodeImpl@AdobeXMPCore_Int@@V?$shared_ptr@VIXMPNode_I@AdobeXMPCore_Int@@@std@@@std@@@std@@@std@@@std@@@AdobeXMPCore_Int@@OGI@EAAPEAXI@Z 000000018004f270 f i XMPStructureNodeImpl.obj
 0001:0004e27c       ??_E?$TXMPConstNodeIteratorImpl@V?$_Tree_const_iterator@V?$_Tree_val@U?$_Tree_simple_types@U?$pair@$$CBUQualifiedName@XMPStructureNodeImpl@AdobeXMPCore_Int@@V?$shared_ptr@VIXMPNode_I@AdobeXMPCore_Int@@@std@@@std@@@std@@@std@@@std@@@AdobeXMPCore_Int@@OGI@EAAPEAXI@Z 000000018004f27c f i XMPStructureNodeImpl.obj
 0001:0004e288       ?Next_I@?$TXMPNodeIteratorImpl@V?$_Tree_iterator@V?$_Tree_val@U?$_Tree_simple_types@U?$pair@$$CBUQualifiedName@XMPStructureNodeImpl@AdobeXMPCore_Int@@V?$shared_ptr@VIXMPNode_I@AdobeXMPCore_Int@@@std@@@std@@@std@@@std@@@std@@@AdobeXMPCore_Int@@$4PPPPPPPM@A@EAA?AV?$shared_ptr@VIXMPNodeIterator_I@AdobeXMPCore_Int@@@std@@XZ 000000018004f288 f i XMPStructureNodeImpl.obj
 0001:0004e294       ?GetNode_I@?$TXMPNodeIteratorImpl@V?$_Tree_iterator@V?$_Tree_val@U?$_Tree_simple_types@U?$pair@$$CBUQualifiedName@XMPStructureNodeImpl@AdobeXMPCore_Int@@V?$shared_ptr@VIXMPNode_I@AdobeXMPCore_Int@@@std@@@std@@@std@@@std@@@std@@@AdobeXMPCore_Int@@$4PPPPPPPM@A@EBA?AV?$shared_ptr@VIXMPNode_I@AdobeXMPCore_Int@@@std@@XZ 000000018004f294 f i XMPStructureNodeImpl.obj
 0001:0004e2a0       ??_E?$TXMPNodeIteratorImpl@V?$_Tree_iterator@V?$_Tree_val@U?$_Tree_simple_types@U?$pair@$$CBUQualifiedName@XMPStructureNodeImpl@AdobeXMPCore_Int@@V?$shared_ptr@VIXMPNode_I@AdobeXMPCore_Int@@@std@@@std@@@std@@@std@@@std@@@AdobeXMPCore_Int@@$2PPPPPPPM@A@EAAPEAXI@Z 000000018004f2a0 f i XMPStructureNodeImpl.obj
 0001:0004e2ac       ?GetNode_I@?$TXMPConstNodeIteratorImpl@V?$_Tree_const_iterator@V?$_Tree_val@U?$_Tree_simple_types@U?$pair@$$CBUQualifiedName@XMPStructureNodeImpl@AdobeXMPCore_Int@@V?$shared_ptr@VIXMPNode_I@AdobeXMPCore_Int@@@std@@@std@@@std@@@std@@@std@@@AdobeXMPCore_Int@@$4PPPPPPPM@A@EBA?AV?$shared_ptr@$$CBVIXMPNode_I@AdobeXMPCore_Int@@@std@@XZ 000000018004f2ac f i XMPStructureNodeImpl.obj
 0001:0004e2b8       ?Next_I@?$TXMPConstNodeIteratorImpl@V?$_Tree_const_iterator@V?$_Tree_val@U?$_Tree_simple_types@U?$pair@$$CBUQualifiedName@XMPStructureNodeImpl@AdobeXMPCore_Int@@V?$shared_ptr@VIXMPNode_I@AdobeXMPCore_Int@@@std@@@std@@@std@@@std@@@std@@@AdobeXMPCore_Int@@$4PPPPPPPM@A@EAA?AV?$shared_ptr@VIXMPConstNodeIterator_I@AdobeXMPCore_Int@@@std@@XZ 000000018004f2b8 f i XMPStructureNodeImpl.obj
 0001:0004e2c4       ??0XMP_Node@@QEAA@PEAV0@AEBV?$basic_string@DU?$char_traits@D@std@@V?$allocator@D@2@@std@@1K@Z 000000018004f2c4 f i XMPUtils-FileInfo.obj
 0001:0004fc44       ?CatenateArrayItems@XMPUtils@@SAXAEBVXMPMeta@@PEBD111KPEAV?$basic_string@DU?$char_traits@D@std@@V?$allocator@D@2@@std@@@Z 0000000180050c44 f   XMPUtils-FileInfo.obj
 0001:00050190       ?SeparateArrayItems@XMPUtils@@SAXPEAVXMPMeta@@PEBD1K1@Z 0000000180051190 f   XMPUtils-FileInfo.obj
 0001:00050864       ?ApplyTemplate@XMPUtils@@SAXPEAVXMPMeta@@AEBV2@K@Z 0000000180051864 f   XMPUtils-FileInfo.obj
 0001:00050ce8       ?RemoveProperties@XMPUtils@@SAXPEAVXMPMeta@@PEBD1K@Z 0000000180051ce8 f   XMPUtils-FileInfo.obj
 0001:00050fc4       ?AppendProperties@XMPUtils@@SAXAEBVXMPMeta@@PEAV2@K@Z 0000000180051fc4 f   XMPUtils-FileInfo.obj
 0001:000511b4       ?DuplicateSubtree@XMPUtils@@SAXAEBVXMPMeta@@PEAV2@PEBD222K@Z 00000001800521b4 f   XMPUtils-FileInfo.obj
 0001:00051a0c       ?CollectMultiFileXMP@XMPUtils@@SAXAEBVXMPMeta@@PEAV2@K@Z 0000000180052a0c f   XMPUtils-FileInfo.obj
 0001:00051df0       ?DistributeMultiFileXMP@XMPUtils@@SAXAEBVXMPMeta@@PEAV2@K@Z 0000000180052df0 f   XMPUtils-FileInfo.obj
 0001:00051fec       ?IsPropertyMultiValued@XMPUtils@@SA_NAEBVXMPMeta@@PEBD1@Z 0000000180052fec f   XMPUtils-FileInfo.obj
 0001:000520dc       ?GetDateRange@XMPUtils@@SA_NAEBVXMPMeta@@PEBD1PEAUXMP_DateTime@@2@Z 00000001800530dc f   XMPUtils-FileInfo.obj
 0001:000522b4       ?GetMergedListPath@XMPUtils@@SA_NAEBVXMPMeta@@PEBD1PEAV?$basic_string@DU?$char_traits@D@std@@V?$allocator@D@2@@std@@@Z 00000001800532b4 f   XMPUtils-FileInfo.obj
 0001:00052468       ?RemoveMultiValueInfo@XMPUtils@@SAXPEAVXMPMeta@@PEBD1@Z 0000000180053468 f   XMPUtils-FileInfo.obj
 0001:0005284c       ??0?$vector@PEAVXMP_Node@@V?$allocator@PEAVXMP_Node@@@std@@@std@@QEAA@AEBV01@@Z 000000018005384c f i XMPUtils-FileInfo.obj
 0001:0005290c       ?SetIXMPNode@XMPUtils@@SAXAEBV?$shared_ptr@VIXMPNode_I@AdobeXMPCore_Int@@@std@@PEBDK@Z 000000018005390c f   XMPUtils.obj
 0001:00052d14       ?ConvertNewArrayFormToOldArrayForm@XMPUtils@@SAKV?$shared_ptr@VIXMPArrayNode_I@AdobeXMPCore_Int@@@std@@@Z 0000000180053d14 f   XMPUtils.obj
 0001:00052e50       ?CreateArrayChildNode@XMPUtils@@SA?AV?$shared_ptr@VIXMPNode_I@AdobeXMPCore_Int@@@std@@V?$shared_ptr@VIXMPArrayNode_I@AdobeXMPCore_Int@@@3@K@Z 0000000180053e50 f   XMPUtils.obj
 0001:00053408       ?DoSetIXMPArrayItem@XMPUtils@@SAXAEAV?$shared_ptr@VIXMPArrayNode_I@AdobeXMPCore_Int@@@std@@JPEBDK@Z 0000000180054408 f   XMPUtils.obj
 0001:000538a4       ?SetImplicitNodeInformation@XMPUtils@@SAXAEA_NAEAV?$shared_ptr@VIXMPNode_I@AdobeXMPCore_Int@@@std@@1AEAJJ@Z 00000001800548a4 f   XMPUtils.obj
 0001:0005392c       ?CreateTerminalNode@@YA?AV?$shared_ptr@VIXMPNode_I@AdobeXMPCore_Int@@@std@@PEBD0K@Z 000000018005492c f   XMPUtils.obj
 0001:00053bcc       ?HandleConstAliasStep@XMPUtils@@SA_NV?$shared_ptr@VIXMPMetadata_I@AdobeXMPCore_Int@@@std@@AEAV?$shared_ptr@VIXMPNode_I@AdobeXMPCore_Int@@@3@AEBV?$vector@VXPathStepInfo@@V?$allocator@VXPathStepInfo@@@std@@@3@PEAJ@Z 0000000180054bcc f   XMPUtils.obj
 0001:00054328       ?HandleAliasStep@XMPUtils@@SA_NV?$shared_ptr@VIXMPMetadata_I@AdobeXMPCore_Int@@@std@@AEAV?$vector@VXPathStepInfo@@V?$allocator@VXPathStepInfo@@@std@@@3@_NKAEAV?$shared_ptr@VIXMPNode_I@AdobeXMPCore_Int@@@3@PEAJ2@Z 0000000180055328 f   XMPUtils.obj
 0001:000558bc       ?FindIXMPNode@XMPUtils@@SA_NV?$shared_ptr@VIXMPMetadata_I@AdobeXMPCore_Int@@@std@@AEAV?$vector@VXPathStepInfo@@V?$allocator@VXPathStepInfo@@@std@@@3@_NKAEAV?$shared_ptr@VIXMPNode_I@AdobeXMPCore_Int@@@3@PEAJ2@Z 00000001800568bc f   XMPUtils.obj
 0001:00058b2c       ?FindConstIXMPNode@XMPUtils@@SA_NV?$shared_ptr@VIXMPMetadata_I@AdobeXMPCore_Int@@@std@@AEAV?$vector@VXPathStepInfo@@V?$allocator@VXPathStepInfo@@@std@@@3@AEAV?$shared_ptr@VIXMPNode_I@AdobeXMPCore_Int@@@3@PEAKPEAJ@Z 0000000180059b2c f   XMPUtils.obj
 0001:0005a71c       ?GetNodeChildCount@XMPUtils@@SA_KV?$shared_ptr@$$CBVIXMPNode_I@AdobeXMPCore_Int@@@std@@@Z 000000018005b71c f   XMPUtils.obj
 0001:0005a84c       ?GetNodeChildIterator@XMPUtils@@SA?AV?$shared_ptr@VIXMPConstNodeIterator_I@AdobeXMPCore_Int@@@std@@V?$shared_ptr@$$CBVIXMPNode_I@AdobeXMPCore_Int@@@3@@Z 000000018005b84c f   XMPUtils.obj
 0001:0005aa14       ?GetIXMPOptions@XMPUtils@@SAKV?$shared_ptr@$$CBVIXMPNode_I@AdobeXMPCore_Int@@@std@@@Z 000000018005ba14 f   XMPUtils.obj
 0001:0005b468       ?FindIXMPChildNode@XMPUtils@@SA?AV?$shared_ptr@VIXMPNode_I@AdobeXMPCore_Int@@@std@@V23@PEBD1_NPEA_K@Z 000000018005c468 f   XMPUtils.obj
 0001:0005b7d8       ?GetNodeValue@XMPUtils@@SA?AV?$shared_ptr@$$CBVIUTF8String_I@AdobeXMPCommon_Int@@@std@@V?$shared_ptr@VIXMPNode_I@AdobeXMPCore_Int@@@3@@Z 000000018005c7d8 f   XMPUtils.obj
 0001:0005c1d0       ?ComposeArrayItemPath@XMPUtils@@SAXPEBD0JPEAV?$basic_string@DU?$char_traits@D@std@@V?$allocator@D@2@@std@@@Z 000000018005d1d0 f   XMPUtils.obj
 0001:0005c37c       ?ComposeStructFieldPath@XMPUtils@@SAXPEBD000PEAV?$basic_string@DU?$char_traits@D@std@@V?$allocator@D@2@@std@@@Z 000000018005d37c f   XMPUtils.obj
 0001:0005c550       ?ComposeQualifierPath@XMPUtils@@SAXPEBD000PEAV?$basic_string@DU?$char_traits@D@std@@V?$allocator@D@2@@std@@@Z 000000018005d550 f   XMPUtils.obj
 0001:0005c730       ?ComposeLangSelector@XMPUtils@@SAXPEBD00PEAV?$basic_string@DU?$char_traits@D@std@@V?$allocator@D@2@@std@@@Z 000000018005d730 f   XMPUtils.obj
 0001:0005c900       ?ComposeFieldSelector@XMPUtils@@SAXPEBD0000PEAV?$basic_string@DU?$char_traits@D@std@@V?$allocator@D@2@@std@@@Z 000000018005d900 f   XMPUtils.obj
 0001:0005cb50       ?ConvertFromInt@XMPUtils@@SAXJPEBDPEAV?$basic_string@DU?$char_traits@D@std@@V?$allocator@D@2@@std@@@Z 000000018005db50 f   XMPUtils.obj
 0001:0005cbe4       ?ConvertFromInt64@XMPUtils@@SAX_JPEBDPEAV?$basic_string@DU?$char_traits@D@std@@V?$allocator@D@2@@std@@@Z 000000018005dbe4 f   XMPUtils.obj
 0001:0005cc78       ?ConvertFromFloat@XMPUtils@@SAXNPEBDPEAV?$basic_string@DU?$char_traits@D@std@@V?$allocator@D@2@@std@@@Z 000000018005dc78 f   XMPUtils.obj
 0001:0005cd14       ?ConvertFromDate@XMPUtils@@SAXAEBUXMP_DateTime@@PEAV?$basic_string@DU?$char_traits@D@std@@V?$allocator@D@2@@std@@@Z 000000018005dd14 f   XMPUtils.obj
 0001:0005d0c8       ?ConvertToBool@XMPUtils@@SA_NPEBD@Z 000000018005e0c8 f   XMPUtils.obj
 0001:0005d2a4       ?ConvertToInt@XMPUtils@@SAJPEBD@Z 000000018005e2a4 f   XMPUtils.obj
 0001:0005d384       ?ConvertToInt64@XMPUtils@@SA_JPEBD@Z 000000018005e384 f   XMPUtils.obj
 0001:0005d464       ?ConvertToFloat@XMPUtils@@SANPEBD@Z 000000018005e464 f   XMPUtils.obj
 0001:0005d5fc       ?ConvertToDate@XMPUtils@@SAXPEBDPEAUXMP_DateTime@@@Z 000000018005e5fc f   XMPUtils.obj
 0001:0005dd40       ?EncodeToBase64@XMPUtils@@SAXPEBDKPEAV?$basic_string@DU?$char_traits@D@std@@V?$allocator@D@2@@std@@@Z 000000018005ed40 f   XMPUtils.obj
 0001:0005dfa4       ?DecodeFromBase64@XMPUtils@@SAXPEBDKPEAV?$basic_string@DU?$char_traits@D@std@@V?$allocator@D@2@@std@@@Z 000000018005efa4 f   XMPUtils.obj
 0001:0005e218       ?PackageForJPEG@XMPUtils@@SAXAEBVXMPMeta@@PEAV?$basic_string@DU?$char_traits@D@std@@V?$allocator@D@2@@std@@11@Z 000000018005f218 f   XMPUtils.obj
 0001:0005ea7c       ??1?$multimap@_KU?$pair@PEAV?$basic_string@DU?$char_traits@D@std@@V?$allocator@D@2@@std@@PEAV12@@std@@U?$less@_K@2@V?$allocator@U?$pair@$$CB_KU?$pair@PEAV?$basic_string@DU?$char_traits@D@std@@V?$allocator@D@2@@std@@PEAV12@@std@@@std@@@2@@std@@QEAA@XZ 000000018005fa7c f i XMPUtils.obj
 0001:0005eafc       ?CurrentDateTime@XMPUtils@@SAXPEAUXMP_DateTime@@@Z 000000018005fafc f   XMPUtils.obj
 0001:0005ebd8       ?SetTimeZone@XMPUtils@@SAXPEAUXMP_DateTime@@@Z 000000018005fbd8 f   XMPUtils.obj
 0001:0005ef6c       ?ConvertToUTCTime@XMPUtils@@SAXPEAUXMP_DateTime@@@Z 000000018005ff6c f   XMPUtils.obj
 0001:0005efbc       ?ConvertToLocalTime@XMPUtils@@SAXPEAUXMP_DateTime@@@Z 000000018005ffbc f   XMPUtils.obj
 0001:0005f014       ?CompareDateTime@XMPUtils@@SAHAEBUXMP_DateTime@@0@Z 0000000180060014 f   XMPUtils.obj
 0001:0005f100       ?Trim@XMPUtils@@SAAEAV?$basic_string@DU?$char_traits@D@std@@V?$allocator@D@2@@std@@AEAV23@@Z 0000000180060100 f   XMPUtils.obj
 0001:0005f2e8       ?erase@?$_Tree@V?$_Tmap_traits@_KU?$pair@PEAV?$basic_string@DU?$char_traits@D@std@@V?$allocator@D@2@@std@@PEAV12@@std@@U?$less@_K@2@V?$allocator@U?$pair@$$CB_KU?$pair@PEAV?$basic_string@DU?$char_traits@D@std@@V?$allocator@D@2@@std@@PEAV12@@std@@@std@@@2@$00@std@@@std@@QEAA?AV?$_Tree_iterator@V?$_Tree_val@U?$_Tree_simple_types@U?$pair@$$CB_KU?$pair@PEAV?$basic_string@DU?$char_traits@D@std@@V?$allocator@D@2@@std@@PEAV12@@std@@@std@@@std@@@std@@@2@V?$_Tree_const_iterator@V?$_Tree_val@U?$_Tree_simple_types@U?$pair@$$CB_KU?$pair@PEAV?$basic_string@DU?$char_traits@D@std@@V?$allocator@D@2@@std@@PEAV12@@std@@@std@@@std@@@std@@@2@@Z 00000001800602e8 f i XMPUtils.obj
 0001:0005f76c       ?_Erase@?$_Tree@V?$_Tmap_traits@_KU?$pair@PEAV?$basic_string@DU?$char_traits@D@std@@V?$allocator@D@2@@std@@PEAV12@@std@@U?$less@_K@2@V?$allocator@U?$pair@$$CB_KU?$pair@PEAV?$basic_string@DU?$char_traits@D@std@@V?$allocator@D@2@@std@@PEAV12@@std@@@std@@@2@$00@std@@@std@@IEAAXPEAU?$_Tree_node@U?$pair@$$CB_KU?$pair@PEAV?$basic_string@DU?$char_traits@D@std@@V?$allocator@D@2@@std@@PEAV12@@std@@@std@@PEAX@2@@Z 000000018006076c f i XMPUtils.obj
 0001:0005f7c0       ?_Buyheadnode@?$_Tree_alloc@$0A@U?$_Tree_base_types@U?$pair@$$CB_KU?$pair@PEAV?$basic_string@DU?$char_traits@D@std@@V?$allocator@D@2@@std@@PEAV12@@std@@@std@@V?$allocator@U?$pair@$$CB_KU?$pair@PEAV?$basic_string@DU?$char_traits@D@std@@V?$allocator@D@2@@std@@PEAV12@@std@@@std@@@2@@std@@@std@@QEAAPEAU?$_Tree_node@U?$pair@$$CB_KU?$pair@PEAV?$basic_string@DU?$char_traits@D@std@@V?$allocator@D@2@@std@@PEAV12@@std@@@std@@PEAX@2@XZ 00000001800607c0 f i XMPUtils.obj
 0001:0005f800       ??$?4VIXMPSimpleNode_I@AdobeXMPCore_Int@@@?$shared_ptr@VIXMPNode_I@AdobeXMPCore_Int@@@std@@QEAAAEAV01@$$QEAV?$shared_ptr@VIXMPSimpleNode_I@AdobeXMPCore_Int@@@1@@Z 0000000180060800 f i XMPUtils.obj
 0001:0005f800       ??$?4VIXMPArrayNode_I@AdobeXMPCore_Int@@@?$shared_ptr@VIXMPNode_I@AdobeXMPCore_Int@@@std@@QEAAAEAV01@$$QEAV?$shared_ptr@VIXMPArrayNode_I@AdobeXMPCore_Int@@@1@@Z 0000000180060800 f i XMPUtils.obj
 0001:0005f880       ??$_Buynode@AEAU?$pair@$$CB_KU?$pair@PEAV?$basic_string@DU?$char_traits@D@std@@V?$allocator@D@2@@std@@PEAV12@@std@@@std@@@?$_Tree_buy@U?$pair@$$CB_KU?$pair@PEAV?$basic_string@DU?$char_traits@D@std@@V?$allocator@D@2@@std@@PEAV12@@std@@@std@@V?$allocator@U?$pair@$$CB_KU?$pair@PEAV?$basic_string@DU?$char_traits@D@std@@V?$allocator@D@2@@std@@PEAV12@@std@@@std@@@2@@std@@QEAAPEAU?$_Tree_node@U?$pair@$$CB_KU?$pair@PEAV?$basic_string@DU?$char_traits@D@std@@V?$allocator@D@2@@std@@PEAV12@@std@@@std@@PEAX@1@AEAU?$pair@$$CB_KU?$pair@PEAV?$basic_string@DU?$char_traits@D@std@@V?$allocator@D@2@@std@@PEAV12@@std@@@1@@Z 0000000180060880 f i XMPUtils.obj
 0001:0005f8b4       ??$_Insert_hint@AEAU?$pair@$$CB_KU?$pair@PEAV?$basic_string@DU?$char_traits@D@std@@V?$allocator@D@2@@std@@PEAV12@@std@@@std@@PEAU?$_Tree_node@U?$pair@$$CB_KU?$pair@PEAV?$basic_string@DU?$char_traits@D@std@@V?$allocator@D@2@@std@@PEAV12@@std@@@std@@PEAX@2@@?$_Tree@V?$_Tmap_traits@_KU?$pair@PEAV?$basic_string@DU?$char_traits@D@std@@V?$allocator@D@2@@std@@PEAV12@@std@@U?$less@_K@2@V?$allocator@U?$pair@$$CB_KU?$pair@PEAV?$basic_string@DU?$char_traits@D@std@@V?$allocator@D@2@@std@@PEAV12@@std@@@std@@@2@$00@std@@@std@@IEAA?AV?$_Tree_iterator@V?$_Tree_val@U?$_Tree_simple_types@U?$pair@$$CB_KU?$pair@PEAV?$basic_string@DU?$char_traits@D@std@@V?$allocator@D@2@@std@@PEAV12@@std@@@std@@@std@@@std@@@1@V?$_Tree_const_iterator@V?$_Tree_val@U?$_Tree_simple_types@U?$pair@$$CB_KU?$pair@PEAV?$basic_string@DU?$char_traits@D@std@@V?$allocator@D@2@@std@@PEAV12@@std@@@std@@@std@@@std@@@1@AEAU?$pair@$$CB_KU?$pair@PEAV?$basic_string@DU?$char_traits@D@std@@V?$allocator@D@2@@std@@PEAV12@@std@@@1@PEAU?$_Tree_node@U?$pair@$$CB_KU?$pair@PEAV?$basic_string@DU?$char_traits@D@std@@V?$allocator@D@2@@std@@PEAV12@@std@@@std@@PEAX@1@@Z 00000001800608b4 f i XMPUtils.obj
 0001:0005fad4       ?_Buynode0@?$_Tree_buy@U?$pair@$$CB_KU?$pair@PEAV?$basic_string@DU?$char_traits@D@std@@V?$allocator@D@2@@std@@PEAV12@@std@@@std@@V?$allocator@U?$pair@$$CB_KU?$pair@PEAV?$basic_string@DU?$char_traits@D@std@@V?$allocator@D@2@@std@@PEAV12@@std@@@std@@@2@@std@@QEAAPEAU?$_Tree_node@U?$pair@$$CB_KU?$pair@PEAV?$basic_string@DU?$char_traits@D@std@@V?$allocator@D@2@@std@@PEAV12@@std@@@std@@PEAX@2@XZ 0000000180060ad4 f i XMPUtils.obj
 0001:0005fb24       ??$_Insert_at@AEAU?$pair@$$CB_KU?$pair@PEAV?$basic_string@DU?$char_traits@D@std@@V?$allocator@D@2@@std@@PEAV12@@std@@@std@@PEAU?$_Tree_node@U?$pair@$$CB_KU?$pair@PEAV?$basic_string@DU?$char_traits@D@std@@V?$allocator@D@2@@std@@PEAV12@@std@@@std@@PEAX@2@@?$_Tree@V?$_Tmap_traits@_KU?$pair@PEAV?$basic_string@DU?$char_traits@D@std@@V?$allocator@D@2@@std@@PEAV12@@std@@U?$less@_K@2@V?$allocator@U?$pair@$$CB_KU?$pair@PEAV?$basic_string@DU?$char_traits@D@std@@V?$allocator@D@2@@std@@PEAV12@@std@@@std@@@2@$00@std@@@std@@IEAA?AV?$_Tree_iterator@V?$_Tree_val@U?$_Tree_simple_types@U?$pair@$$CB_KU?$pair@PEAV?$basic_string@DU?$char_traits@D@std@@V?$allocator@D@2@@std@@PEAV12@@std@@@std@@@std@@@std@@@1@_NPEAU?$_Tree_node@U?$pair@$$CB_KU?$pair@PEAV?$basic_string@DU?$char_traits@D@std@@V?$allocator@D@2@@std@@PEAV12@@std@@@std@@PEAX@1@AEAU?$pair@$$CB_KU?$pair@PEAV?$basic_string@DU?$char_traits@D@std@@V?$allocator@D@2@@std@@PEAV12@@std@@@1@1@Z 0000000180060b24 f i XMPUtils.obj
 0001:0005fda8       ??$_Insert_nohint@AEAU?$pair@$$CB_KU?$pair@PEAV?$basic_string@DU?$char_traits@D@std@@V?$allocator@D@2@@std@@PEAV12@@std@@@std@@PEAU?$_Tree_node@U?$pair@$$CB_KU?$pair@PEAV?$basic_string@DU?$char_traits@D@std@@V?$allocator@D@2@@std@@PEAV12@@std@@@std@@PEAX@2@@?$_Tree@V?$_Tmap_traits@_KU?$pair@PEAV?$basic_string@DU?$char_traits@D@std@@V?$allocator@D@2@@std@@PEAV12@@std@@U?$less@_K@2@V?$allocator@U?$pair@$$CB_KU?$pair@PEAV?$basic_string@DU?$char_traits@D@std@@V?$allocator@D@2@@std@@PEAV12@@std@@@std@@@2@$00@std@@@std@@IEAA?AU?$pair@V?$_Tree_iterator@V?$_Tree_val@U?$_Tree_simple_types@U?$pair@$$CB_KU?$pair@PEAV?$basic_string@DU?$char_traits@D@std@@V?$allocator@D@2@@std@@PEAV12@@std@@@std@@@std@@@std@@@std@@_N@1@_NAEAU?$pair@$$CB_KU?$pair@PEAV?$basic_string@DU?$char_traits@D@std@@V?$allocator@D@2@@std@@PEAV12@@std@@@1@PEAU?$_Tree_node@U?$pair@$$CB_KU?$pair@PEAV?$basic_string@DU?$char_traits@D@std@@V?$allocator@D@2@@std@@PEAV12@@std@@@std@@PEAX@1@@Z 0000000180060da8 f i XMPUtils.obj
 0001:0005fe2c       ??1IXMPDOMParser_v1@AdobeXMPCore@@MEAA@XZ 0000000180060e2c f i RDFXMPDOMParserImpl.obj
 0001:0005fe4c       ??1IXMPDOMParser_I@AdobeXMPCore_Int@@MEAA@XZ 0000000180060e4c f i RDFXMPDOMParserImpl.obj
 0001:0005fea8       ?ParseWithContext@IXMPDOMParser_I@AdobeXMPCore_Int@@MEBAXPEAVIXMPNode_v1@AdobeXMPCore@@KPEBD_KAEAPEBVIError_v1@AdobeXMPCommon@@@Z 0000000180060ea8 f i RDFXMPDOMParserImpl.obj
 0001:0005ff60       ?Parse@IXMPDOMParser_I@AdobeXMPCore_Int@@MEBAPEAVIXMPMetadata_v1@AdobeXMPCore@@PEBD_KAEAPEBVIError_v1@AdobeXMPCommon@@@Z 0000000180060f60 f i RDFXMPDOMParserImpl.obj
 0001:0005ffa8       ?Clone@IXMPDOMParser_I@AdobeXMPCore_Int@@MEBAPEAVIXMPDOMParser_v1@AdobeXMPCore@@KAEAPEBVIError_v1@AdobeXMPCommon@@@Z 0000000180060fa8 f i RDFXMPDOMParserImpl.obj
 0001:0005ffec       ??1RDFXMPDOMParserImpl@AdobeXMPCore_Int@@MEAA@XZ 0000000180060fec f i RDFXMPDOMParserImpl.obj
 0001:00060114       ??_GRDFXMPDOMParserImpl@AdobeXMPCore_Int@@MEAAPEAXI@Z 0000000180061114 f i RDFXMPDOMParserImpl.obj
 0001:00060114       ??_ERDFXMPDOMParserImpl@AdobeXMPCore_Int@@MEAAPEAXI@Z 0000000180061114 f i * CIL library *:* CIL module *
 0001:00060984       ?GetDOMConfiguration_I@RDFXMPDOMSerializerImpl@AdobeXMPCore_Int@@UEAA?AV?$shared_ptr@VIXMPDOMConfiguration_I@AdobeXMPCore_Int@@@std@@XZ 0000000180061984 f   RDFXMPDOMSerializerImpl.obj
 0001:00060984       ?GetDOMConfiguration_I@RDFXMPDOMParserImpl@AdobeXMPCore_Int@@UEAA?AV?$shared_ptr@VIXMPDOMConfiguration_I@AdobeXMPCore_Int@@@std@@XZ 0000000180061984 f   RDFXMPDOMParserImpl.obj
 0001:00060a30       ?Parse_I@RDFXMPDOMParserImpl@AdobeXMPCore_Int@@UEBA?AV?$shared_ptr@VIXMPMetadata_I@AdobeXMPCore_Int@@@std@@PEBD_K@Z 0000000180061a30 f   RDFXMPDOMParserImpl.obj
 0001:00060cc4       ?ParseWithContext_I@RDFXMPDOMParserImpl@AdobeXMPCore_Int@@UEBAXAEBV?$shared_ptr@VIXMPNode_I@AdobeXMPCore_Int@@@std@@W4eActionType@IXMPDOMParser_v1@AdobeXMPCore@@PEBD_K@Z 0000000180061cc4 f   RDFXMPDOMParserImpl.obj
 0001:00060dc8       ??0RDFXMPDOMParserImpl@AdobeXMPCore_Int@@QEAA@W4eMultiThreadingSupport@AdobeXMPCommon@@@Z 0000000180061dc8 f   RDFXMPDOMParserImpl.obj
 0001:00061040       ?Clone_I@RDFXMPDOMParserImpl@AdobeXMPCore_Int@@UEBA?AV?$shared_ptr@VIXMPDOMParser_I@AdobeXMPCore_Int@@@std@@W4eMultiThreadingSupport@AdobeXMPCommon@@@Z 0000000180062040 f   RDFXMPDOMParserImpl.obj
 0001:00061160       ??$CallConstUnSafeFunctionReturningVoid@VIXMPDOMParser_I@AdobeXMPCore_Int@@AEBV?$shared_ptr@VIXMPNode_I@AdobeXMPCore_Int@@@std@@W4eActionType@IXMPDOMParser_v1@AdobeXMPCore@@PEBD_K@AdobeXMPCommon_Int@@YAXAEAPEBVIError_v1@AdobeXMPCommon@@QEBVIXMPDOMParser_I@AdobeXMPCore_Int@@P834@EBAXAEBV?$shared_ptr@VIXMPNode_I@AdobeXMPCore_Int@@@std@@W4eActionType@IXMPDOMParser_v1@AdobeXMPCore@@PEBD_K@Z2345@Z 0000000180062160 f i RDFXMPDOMParserImpl.obj
 0001:000611c4       ??$CallConstUnSafeFunctionReturningSharedPointer@VIXMPDOMParser_I@AdobeXMPCore_Int@@PEAVIXMPMetadata_v1@AdobeXMPCore@@VIXMPMetadata_I@2@PEBD_K@AdobeXMPCommon_Int@@YAPEAVIXMPMetadata_v1@AdobeXMPCore@@AEAPEBVIError_v1@AdobeXMPCommon@@QEBVIXMPDOMParser_I@AdobeXMPCore_Int@@P856@EBA?AV?$shared_ptr@VIXMPMetadata_I@AdobeXMPCore_Int@@@std@@PEBD_K@Z23@Z 00000001800621c4 f i RDFXMPDOMParserImpl.obj
 0001:000612e4       ??$_Resetp@VXMPMeta@@@?$shared_ptr@VXMPMeta@@@std@@AEAAXPEAVXMPMeta@@@Z 00000001800622e4 f i RDFXMPDOMParserImpl.obj
 0001:00061380       ?_Destroy@?$_Ref_count@VXMPMeta@@@std@@EEAAXXZ 0000000180062380 f i RDFXMPDOMParserImpl.obj
 0001:0006139c       ?_Delete_this@?$_Ref_count@VXMPMeta@@@std@@EEAAXXZ 000000018006239c f i RDFXMPDOMParserImpl.obj
 0001:000613b8       ?ParseWithContext@IXMPDOMParser_I@AdobeXMPCore_Int@@$2PPPPPPPM@A@EBAXPEAVIXMPNode_v1@AdobeXMPCore@@KPEBD_KAEAPEBVIError_v1@AdobeXMPCommon@@@Z 00000001800623b8 f i RDFXMPDOMParserImpl.obj
 0001:000613c4       ?Clone@IXMPDOMParser_I@AdobeXMPCore_Int@@$R2HA@BE@PPPPPPPM@DA@EBAPEAVIXMPDOMParser_v1@AdobeXMPCore@@KAEAPEBVIError_v1@AdobeXMPCommon@@@Z 00000001800623c4 f i RDFXMPDOMParserImpl.obj
 0001:000613e0       ??_ERDFXMPDOMParserImpl@AdobeXMPCore_Int@@$2PPPPPPPM@A@EAAPEAXI@Z 00000001800623e0 f i RDFXMPDOMParserImpl.obj
 0001:000613ec       ?Clone@IXMPDOMParser_I@AdobeXMPCore_Int@@$2PPPPPPPM@A@EBAPEAVIXMPDOMParser_v1@AdobeXMPCore@@KAEAPEBVIError_v1@AdobeXMPCommon@@@Z 00000001800623ec f i RDFXMPDOMParserImpl.obj
 0001:000613f8       ?Parse@IXMPDOMParser_I@AdobeXMPCore_Int@@$R2HA@BE@PPPPPPPM@DA@EBAPEAVIXMPMetadata_v1@AdobeXMPCore@@PEBD_KAEAPEBVIError_v1@AdobeXMPCommon@@@Z 00000001800623f8 f i RDFXMPDOMParserImpl.obj
 0001:00061414       ?Parse@IXMPDOMParser_I@AdobeXMPCore_Int@@$2PPPPPPPM@A@EBAPEAVIXMPMetadata_v1@AdobeXMPCore@@PEBD_KAEAPEBVIError_v1@AdobeXMPCommon@@@Z 0000000180062414 f i RDFXMPDOMParserImpl.obj
 0001:00061420       ?ParseWithContext_I@RDFXMPDOMParserImpl@AdobeXMPCore_Int@@$4PPPPPPPM@A@EBAXAEBV?$shared_ptr@VIXMPNode_I@AdobeXMPCore_Int@@@std@@W4eActionType@IXMPDOMParser_v1@AdobeXMPCore@@PEBD_K@Z 0000000180062420 f i RDFXMPDOMParserImpl.obj
 0001:0006142c       ??_ERDFXMPDOMParserImpl@AdobeXMPCore_Int@@OGI@EAAPEAXI@Z 000000018006242c f i RDFXMPDOMParserImpl.obj
 0001:00061438       ?Clone_I@RDFXMPDOMParserImpl@AdobeXMPCore_Int@@$4PPPPPPPM@A@EBA?AV?$shared_ptr@VIXMPDOMParser_I@AdobeXMPCore_Int@@@std@@W4eMultiThreadingSupport@AdobeXMPCommon@@@Z 0000000180062438 f i RDFXMPDOMParserImpl.obj
 0001:00061444       ?Parse_I@RDFXMPDOMParserImpl@AdobeXMPCore_Int@@$4PPPPPPPM@A@EBA?AV?$shared_ptr@VIXMPMetadata_I@AdobeXMPCore_Int@@@std@@PEBD_K@Z 0000000180062444 f i RDFXMPDOMParserImpl.obj
 0001:00061450       ?ParseWithContext@IXMPDOMParser_I@AdobeXMPCore_Int@@$R2HA@BE@PPPPPPPM@DA@EBAXPEAVIXMPNode_v1@AdobeXMPCore@@KPEBD_KAEAPEBVIError_v1@AdobeXMPCommon@@@Z 0000000180062450 f i RDFXMPDOMParserImpl.obj
 0001:0006146c       ?GetDOMConfiguration_I@RDFXMPDOMParserImpl@AdobeXMPCore_Int@@$4PPPPPPPM@A@EAA?AV?$shared_ptr@VIXMPDOMConfiguration_I@AdobeXMPCore_Int@@@std@@XZ 000000018006246c f i RDFXMPDOMParserImpl.obj
 0001:0006146c       ?GetDOMConfiguration_I@RDFXMPDOMSerializerImpl@AdobeXMPCore_Int@@$4PPPPPPPM@A@EAA?AV?$shared_ptr@VIXMPDOMConfiguration_I@AdobeXMPCore_Int@@@std@@XZ 000000018006246c f i RDFXMPDOMSerializerImpl.obj
 0001:00061478       ?GetDOMConfiguration@IXMPDOMParser_I@AdobeXMPCore_Int@@$R2HA@BE@PPPPPPPM@DA@EAAPEAVIXMPDOMConfiguration_v1@AdobeXMPCore@@AEAPEBVIError_v1@AdobeXMPCommon@@@Z 0000000180062478 f i RDFXMPDOMParserImpl.obj
 0001:00061478       ?GetDOMConfiguration@IXMPDOMSerializer_I@AdobeXMPCore_Int@@$R2HA@BE@PPPPPPPM@DA@EAAPEAVIXMPDOMConfiguration_v1@AdobeXMPCore@@AEAPEBVIError_v1@AdobeXMPCommon@@@Z 0000000180062478 f i RDFXMPDOMSerializerImpl.obj
 0001:00061494       ??1IXMPDOMSerializer_v1@AdobeXMPCore@@MEAA@XZ 0000000180062494 f i RDFXMPDOMSerializerImpl.obj
 0001:000614b4       ??1IXMPDOMSerializer_I@AdobeXMPCore_Int@@MEAA@XZ 00000001800624b4 f i RDFXMPDOMSerializerImpl.obj
 0001:00061510       ?Serialize@IXMPDOMSerializer_I@AdobeXMPCore_Int@@MEBAPEAVIUTF8String_v1@AdobeXMPCommon@@PEAVIXMPNode_v1@AdobeXMPCore@@AEAPEBVIError_v1@4@@Z 0000000180062510 f i RDFXMPDOMSerializerImpl.obj
 0001:0006159c       ?Clone@IXMPDOMSerializer_I@AdobeXMPCore_Int@@MEBAPEAVIXMPDOMSerializer_v1@AdobeXMPCore@@KAEAPEBVIError_v1@AdobeXMPCommon@@@Z 000000018006259c f i RDFXMPDOMSerializerImpl.obj
 0001:000615e0       ??1RDFXMPDOMSerializerImpl@AdobeXMPCore_Int@@MEAA@XZ 00000001800625e0 f i RDFXMPDOMSerializerImpl.obj
 0001:00061708       ??_ERDFXMPDOMSerializerImpl@AdobeXMPCore_Int@@MEAAPEAXI@Z 0000000180062708 f i * CIL library *:* CIL module *
 0001:00061708       ??_GRDFXMPDOMSerializerImpl@AdobeXMPCore_Int@@MEAAPEAXI@Z 0000000180062708 f i RDFXMPDOMSerializerImpl.obj
 0001:00061f3c       ?HandleSimpleNode@AdobeXMPCore_Int@@YAPEAVXMP_Node@@AEBV?$shared_ptr@VIXMPSimpleNode_I@AdobeXMPCore_Int@@@std@@PEAV2@_N2@Z 0000000180062f3c f   RDFXMPDOMSerializerImpl.obj
 0001:000620c8       ?HandleStructureNode@AdobeXMPCore_Int@@YAPEAVXMP_Node@@AEBV?$shared_ptr@VIXMPStructureNode_I@AdobeXMPCore_Int@@@std@@PEAV2@_N2@Z 00000001800630c8 f   RDFXMPDOMSerializerImpl.obj
 0001:000623e8       ?HandleArrayNode@AdobeXMPCore_Int@@YAPEAVXMP_Node@@AEBV?$shared_ptr@VIXMPArrayNode_I@AdobeXMPCore_Int@@@std@@PEAV2@_N2@Z 00000001800633e8 f   RDFXMPDOMSerializerImpl.obj
 0001:00062630       ?HandleNode@AdobeXMPCore_Int@@YAXAEBV?$shared_ptr@VIXMPNode_I@AdobeXMPCore_Int@@@std@@PEAVXMP_Node@@_N2@Z 0000000180063630 f   RDFXMPDOMSerializerImpl.obj
 0001:000628e4       ?Serialize_I@RDFXMPDOMSerializerImpl@AdobeXMPCore_Int@@UEBA?AV?$shared_ptr@VIUTF8String_I@AdobeXMPCommon_Int@@@std@@AEBV?$shared_ptr@VIXMPNode_I@AdobeXMPCore_Int@@@4@@Z 00000001800638e4 f   RDFXMPDOMSerializerImpl.obj
 0001:00062bd0       ??0RDFXMPDOMSerializerImpl@AdobeXMPCore_Int@@QEAA@W4eMultiThreadingSupport@AdobeXMPCommon@@@Z 0000000180063bd0 f   RDFXMPDOMSerializerImpl.obj
 0001:00062e00       ?Clone_I@RDFXMPDOMSerializerImpl@AdobeXMPCore_Int@@UEBA?AV?$shared_ptr@VIXMPDOMSerializer_I@AdobeXMPCore_Int@@@std@@W4eMultiThreadingSupport@AdobeXMPCommon@@@Z 0000000180063e00 f   RDFXMPDOMSerializerImpl.obj
 0001:00062f20       ??$dynamic_pointer_cast@VIXMPMetadata_I@AdobeXMPCore_Int@@VIXMPStructureNode_I@2@@std@@YA?AV?$shared_ptr@VIXMPMetadata_I@AdobeXMPCore_Int@@@0@AEBV?$shared_ptr@VIXMPStructureNode_I@AdobeXMPCore_Int@@@0@@Z 0000000180063f20 f i RDFXMPDOMSerializerImpl.obj
 0001:00062ff0       ?Serialize@IXMPDOMSerializer_I@AdobeXMPCore_Int@@$R2HA@BE@PPPPPPPM@DA@EBAPEAVIUTF8String_v1@AdobeXMPCommon@@PEAVIXMPNode_v1@AdobeXMPCore@@AEAPEBVIError_v1@4@@Z 0000000180063ff0 f i RDFXMPDOMSerializerImpl.obj
 0001:0006300c       ?Clone@IXMPDOMSerializer_I@AdobeXMPCore_Int@@$R2HA@BE@PPPPPPPM@DA@EBAPEAVIXMPDOMSerializer_v1@AdobeXMPCore@@KAEAPEBVIError_v1@AdobeXMPCommon@@@Z 000000018006400c f i RDFXMPDOMSerializerImpl.obj
 0001:00063028       ?Serialize@IXMPDOMSerializer_I@AdobeXMPCore_Int@@$2PPPPPPPM@A@EBAPEAVIUTF8String_v1@AdobeXMPCommon@@PEAVIXMPNode_v1@AdobeXMPCore@@AEAPEBVIError_v1@4@@Z 0000000180064028 f i RDFXMPDOMSerializerImpl.obj
 0001:00063034       ?Clone@IXMPDOMSerializer_I@AdobeXMPCore_Int@@$2PPPPPPPM@A@EBAPEAVIXMPDOMSerializer_v1@AdobeXMPCore@@KAEAPEBVIError_v1@AdobeXMPCommon@@@Z 0000000180064034 f i RDFXMPDOMSerializerImpl.obj
 0001:00063040       ??_ERDFXMPDOMSerializerImpl@AdobeXMPCore_Int@@$2PPPPPPPM@A@EAAPEAXI@Z 0000000180064040 f i RDFXMPDOMSerializerImpl.obj
 0001:0006304c       ?Serialize_I@RDFXMPDOMSerializerImpl@AdobeXMPCore_Int@@$4PPPPPPPM@A@EBA?AV?$shared_ptr@VIUTF8String_I@AdobeXMPCommon_Int@@@std@@AEBV?$shared_ptr@VIXMPNode_I@AdobeXMPCore_Int@@@4@@Z 000000018006404c f i RDFXMPDOMSerializerImpl.obj
 0001:00063058       ??_ERDFXMPDOMSerializerImpl@AdobeXMPCore_Int@@OGI@EAAPEAXI@Z 0000000180064058 f i RDFXMPDOMSerializerImpl.obj
 0001:00063064       ?Clone_I@RDFXMPDOMSerializerImpl@AdobeXMPCore_Int@@$4PPPPPPPM@A@EBA?AV?$shared_ptr@VIXMPDOMSerializer_I@AdobeXMPCore_Int@@@std@@W4eMultiThreadingSupport@AdobeXMPCommon@@@Z 0000000180064064 f i RDFXMPDOMSerializerImpl.obj
 0001:00063070       ?MD5Update@@YAXPEAUMD5_CTX@@PEAEK@Z 0000000180064070 f   MD5.obj
 0001:00063130       ?MD5Final@@YAXQEAEPEAUMD5_CTX@@@Z 0000000180064130 f   MD5.obj
 0001:00063f1c       XML_ParserFree             0000000180064f1c f   xmlparse.obj
 0001:0006405c       XML_Parse                  000000018006505c f   xmlparse.obj
 0001:000641dc       XML_ParseBuffer            00000001800651dc f   xmlparse.obj
 0001:00064320       XML_GetBuffer              0000000180065320 f   xmlparse.obj
 0001:00073f6c       XmlUtf8Encode              0000000180074f6c f   xmltok.obj
 0001:00074294       XmlInitUnknownEncoding     0000000180075294 f   xmltok.obj
 0001:0007478c       XmlInitEncoding            000000018007578c f   xmltok.obj
 0001:000748b0       XmlParseXmlDecl            00000001800758b0 f   xmltok.obj
 0001:00074970       XmlInitEncodingNS          0000000180075970 f   xmltok.obj
 0001:00074a94       XmlParseXmlDeclNS          0000000180075a94 f   xmltok.obj
 0001:00074b00       XmlInitUnknownEncodingNS   0000000180075b00 f   xmltok.obj
 0001:00074b1c       ??0XML_Node@@QEAA@PEAV0@PEBDE@Z 0000000180075b1c f i ExpatAdapter.obj
 0001:00074bf4       ??1XML_Node@@UEAA@XZ       0000000180075bf4 f i ExpatAdapter.obj
 0001:00074cf8       ??_GXML_Node@@UEAAPEAXI@Z  0000000180075cf8 f i ExpatAdapter.obj
 0001:00074cf8       ??_EXML_Node@@UEAAPEAXI@Z  0000000180075cf8 f i * CIL library *:* CIL module *
 0001:00074d30       ??1XMLParserAdapter@@UEAA@XZ 0000000180075d30 f i ExpatAdapter.obj
 0001:00074d7c       ?SetErrorCallback@XMLParserAdapter@@UEAAXPEAVGenericErrorCallback@@@Z 0000000180075d7c f i ExpatAdapter.obj
 0001:00074d84       ?NotifyClient@XMLParserAdapter@@UEAAXEAEAVXMP_Error@@@Z 0000000180075d84 f i ExpatAdapter.obj
 0001:00074da0       ??_GXMLParserAdapter@@UEAAPEAXI@Z 0000000180075da0 f i ExpatAdapter.obj
 0001:00074da0       ??_EXMLParserAdapter@@UEAAPEAXI@Z 0000000180075da0 f i * CIL library *:* CIL module *
 0001:00074e18       ??_GExpatAdapter@@UEAAPEAXI@Z 0000000180075e18 f i ExpatAdapter.obj
 0001:00074e18       ??_EExpatAdapter@@UEAAPEAXI@Z 0000000180075e18 f i * CIL library *:* CIL module *
 0001:00074e50       XMP_NewExpatAdapter        0000000180075e50 f   ExpatAdapter.obj
 0001:00074e7c       ??0ExpatAdapter@@QEAA@_N@Z 0000000180075e7c f   ExpatAdapter.obj
 0001:000750d0       ??1ExpatAdapter@@UEAA@XZ   00000001800760d0 f   ExpatAdapter.obj
 0001:00075174       ?ParseBuffer@ExpatAdapter@@UEAAXPEBX_K_N@Z 0000000180076174 f   ExpatAdapter.obj
 0001:000759d0       ?_Reserve@?$vector@PEAVXML_Node@@V?$allocator@PEAVXML_Node@@@std@@@std@@IEAAX_K@Z 00000001800769d0 f i ExpatAdapter.obj
 0001:00075bc0       ?AddChildNode@RDF_Parser@@AEAAPEAVXMP_Node@@PEAV2@AEBVXML_Node@@QEBD_N@Z 0000000180076bc0 f   ParseRDF.obj
 0001:00075e78       ?AddQualifierNode@RDF_Parser@@AEAAPEAVXMP_Node@@PEAV2@AEBV?$basic_string@DU?$char_traits@D@std@@V?$allocator@D@2@@std@@1@Z 0000000180076e78 f   ParseRDF.obj
 0001:00075fa4       ?AddQualifierNode@RDF_Parser@@AEAAPEAVXMP_Node@@PEAV2@AEBVXML_Node@@@Z 0000000180076fa4 f   ParseRDF.obj
 0001:00075ff0       ?FixupQualifiedNode@RDF_Parser@@AEAAXPEAVXMP_Node@@@Z 0000000180076ff0 f   ParseRDF.obj
 0001:000764f4       ?NodeElement@RDF_Parser@@QEAAXPEAVXMP_Node@@AEBVXML_Node@@_N@Z 00000001800774f4 f   ParseRDF.obj
 0001:0007659c       ?NodeElementAttrs@RDF_Parser@@QEAAXPEAVXMP_Node@@AEBVXML_Node@@_N@Z 000000018007759c f   ParseRDF.obj
 0001:00076710       ?PropertyElementList@RDF_Parser@@QEAAXPEAVXMP_Node@@AEBVXML_Node@@_N@Z 0000000180077710 f   ParseRDF.obj
 0001:000767e0       ?PropertyElement@RDF_Parser@@QEAAXPEAVXMP_Node@@AEBVXML_Node@@_N@Z 00000001800777e0 f   ParseRDF.obj
 0001:00076a1c       ?ResourcePropertyElement@RDF_Parser@@QEAAXPEAVXMP_Node@@AEBVXML_Node@@_N@Z 0000000180077a1c f   ParseRDF.obj
 0001:00076e20       ?LiteralPropertyElement@RDF_Parser@@QEAAXPEAVXMP_Node@@AEBVXML_Node@@_N@Z 0000000180077e20 f   ParseRDF.obj
 0001:00077034       ?ParseTypeResourcePropertyElement@RDF_Parser@@QEAAXPEAVXMP_Node@@AEBVXML_Node@@_N@Z 0000000180078034 f   ParseRDF.obj
 0001:00077174       ?EmptyPropertyElement@RDF_Parser@@QEAAXPEAVXMP_Node@@AEBVXML_Node@@_N@Z 0000000180078174 f   ParseRDF.obj
 0001:00077438       ?ProcessRDF@XMPMeta@@AEAAXAEBVXML_Node@@K@Z 0000000180078438 f   ParseRDF.obj
 0001:000774fc       ??1bad_alloc@std@@UEAA@XZ  00000001800784fc f i XMPCore_Impl.obj
 0001:00077510       ??_Ebad_alloc@std@@UEAAPEAXI@Z 0000000180078510 f i * CIL library *:* CIL module *
 0001:00077510       ??_Gbad_alloc@std@@UEAAPEAXI@Z 0000000180078510 f i XMPCore_Impl.obj
 0001:0007754c       ??2@YAPEAX_K@Z             000000018007854c f   XMPCore_Impl.obj
 0001:000775ac       ??0bad_alloc@std@@QEAA@AEBV01@@Z 00000001800785ac f i XMPCore_Impl.obj
 0001:000775d0       ??3@YAXPEAX@Z              00000001800785d0 f   XMPCore_Impl.obj
 0001:00077cc0       ?SplitNameAndValue@@YAXAEBV?$basic_string@DU?$char_traits@D@std@@V?$allocator@D@2@@std@@PEAV12@1@Z 0000000180078cc0 f   XMPCore_Impl.obj
 0001:0007828c       ?DeleteSubtree@@YAXV?$_Vector_iterator@V?$_Vector_val@U?$_Simple_types@PEAVXMP_Node@@@std@@@std@@@std@@@Z 000000018007928c f   XMPCore_Impl.obj
 0001:00078338       ?VerifySetOptions@@YAKKPEBD@Z 0000000180079338 f   XMPCore_Impl.obj
 0001:00078488       ?ExpandXPath@@YAXPEBD0PEAV?$vector@VXPathStepInfo@@V?$allocator@VXPathStepInfo@@@std@@@std@@@Z 0000000180079488 f   XMPCore_Impl.obj
 0001:00078bcc       ?FindSchemaNode@@YAPEAVXMP_Node@@PEAV1@PEBD_NPEAV?$_Vector_iterator@V?$_Vector_val@U?$_Simple_types@PEAVXMP_Node@@@std@@@std@@@std@@@Z 0000000180079bcc f   XMPCore_Impl.obj
 0001:00078d10       ?FindChildNode@@YAPEAVXMP_Node@@PEAV1@PEBD_NPEAV?$_Vector_iterator@V?$_Vector_val@U?$_Simple_types@PEAVXMP_Node@@@std@@@std@@@std@@@Z 0000000180079d10 f   XMPCore_Impl.obj
 0001:00078ed4       ?FindQualifierNode@@YAPEAVXMP_Node@@PEAV1@PEBD_NPEAV?$_Vector_iterator@V?$_Vector_val@U?$_Simple_types@PEAVXMP_Node@@@std@@@std@@@std@@@Z 0000000180079ed4 f   XMPCore_Impl.obj
 0001:00079068       ?LookupFieldSelector@@YAJPEBVXMP_Node@@PEBD1@Z 000000018007a068 f   XMPCore_Impl.obj
 0001:000791a0       ?LookupLangItem@@YAJPEBVXMP_Node@@AEAV?$basic_string@DU?$char_traits@D@std@@V?$allocator@D@2@@std@@@Z 000000018007a1a0 f   XMPCore_Impl.obj
 0001:000792a0       ?FindNode@@YAPEAVXMP_Node@@PEAV1@AEBV?$vector@VXPathStepInfo@@V?$allocator@VXPathStepInfo@@@std@@@std@@_NKPEAV?$_Vector_iterator@V?$_Vector_val@U?$_Simple_types@PEAVXMP_Node@@@std@@@std@@@3@@Z 000000018007a2a0 f   XMPCore_Impl.obj
 0001:00079618       ?CloneOffspring@@YAXPEBVXMP_Node@@PEAV1@_N@Z 000000018007a618 f   XMPCore_Impl.obj
 0001:000798b8       ?CloneSubtree@@YAPEAVXMP_Node@@PEBV1@PEAV1@_N@Z 000000018007a8b8 f   XMPCore_Impl.obj
 0001:00079974       ?CompareSubtrees@@YA_NAEBVXMP_Node@@0@Z 000000018007a974 f   XMPCore_Impl.obj
 0001:00079b7c       ?DeleteEmptySchema@@YAXPEAVXMP_Node@@@Z 000000018007ab7c f   XMPCore_Impl.obj
 0001:00079c04       ?NormalizeLangValue@@YAXPEAV?$basic_string@DU?$char_traits@D@std@@V?$allocator@D@2@@std@@@Z 000000018007ac04 f   XMPCore_Impl.obj
 0001:00079cbc       ?NormalizeLangArray@@YAXPEAVXMP_Node@@@Z 000000018007acbc f   XMPCore_Impl.obj
 0001:00079ddc       ?InitializeUnicodeConversions@@YAXXZ 000000018007addc f   UnicodeConversions.obj
 0001:00079f1c       ?ToUTF16@@YAXPEBE_KPEAV?$basic_string@DU?$char_traits@D@std@@V?$allocator@D@2@@std@@_N@Z 000000018007af1c f   UnicodeConversions.obj
 0001:0007a074       ?ToUTF32@@YAXPEBE_KPEAV?$basic_string@DU?$char_traits@D@std@@V?$allocator@D@2@@std@@_N@Z 000000018007b074 f   UnicodeConversions.obj
 0001:0007ba58       ?IsWhitespaceNode@XML_Node@@QEBA_NXZ 000000018007ca58 f   XML_Node.obj
 0001:0007baa8       ?RemoveAttrs@XML_Node@@QEAAXXZ 000000018007caa8 f   XML_Node.obj
 0001:0007bb14       ?RemoveContent@XML_Node@@QEAAXXZ 000000018007cb14 f   XML_Node.obj
 0001:0007bb80       ??$_Insert_hint@AEAU?$pair@$$CBV?$basic_string@DU?$char_traits@D@std@@V?$allocator@D@2@@std@@V12@@std@@PEAU?$_Tree_node@U?$pair@$$CBV?$basic_string@DU?$char_traits@D@std@@V?$allocator@D@2@@std@@V12@@std@@PEAX@2@@?$_Tree@V?$_Tmap_traits@V?$basic_string@DU?$char_traits@D@std@@V?$allocator@D@2@@std@@V12@U?$less@V?$basic_string@DU?$char_traits@D@std@@V?$allocator@D@2@@std@@@2@V?$allocator@U?$pair@$$CBV?$basic_string@DU?$char_traits@D@std@@V?$allocator@D@2@@std@@V12@@std@@@2@$0A@@std@@@std@@IEAA?AV?$_Tree_iterator@V?$_Tree_val@U?$_Tree_simple_types@U?$pair@$$CBV?$basic_string@DU?$char_traits@D@std@@V?$allocator@D@2@@std@@V12@@std@@@std@@@std@@@1@V?$_Tree_const_iterator@V?$_Tree_val@U?$_Tree_simple_types@U?$pair@$$CBV?$basic_string@DU?$char_traits@D@std@@V?$allocator@D@2@@std@@V12@@std@@@std@@@std@@@1@AEAU?$pair@$$CBV?$basic_string@DU?$char_traits@D@std@@V?$allocator@D@2@@std@@V12@@1@PEAU?$_Tree_node@U?$pair@$$CBV?$basic_string@DU?$char_traits@D@std@@V?$allocator@D@2@@std@@V12@@std@@PEAX@1@@Z 000000018007cb80 f i XML_Node.obj
 0001:0007be14       ?_Buynode0@?$_Tree_buy@U?$pair@$$CBV?$basic_string@DU?$char_traits@D@std@@V?$allocator@D@2@@std@@V12@@std@@V?$allocator@U?$pair@$$CBV?$basic_string@DU?$char_traits@D@std@@V?$allocator@D@2@@std@@V12@@std@@@2@@std@@QEAAPEAU?$_Tree_node@U?$pair@$$CBV?$basic_string@DU?$char_traits@D@std@@V?$allocator@D@2@@std@@V12@@std@@PEAX@2@XZ 000000018007ce14 f i XML_Node.obj
 0001:0007be64       ??$_Insert_at@AEAU?$pair@$$CBV?$basic_string@DU?$char_traits@D@std@@V?$allocator@D@2@@std@@V12@@std@@PEAU?$_Tree_node@U?$pair@$$CBV?$basic_string@DU?$char_traits@D@std@@V?$allocator@D@2@@std@@V12@@std@@PEAX@2@@?$_Tree@V?$_Tmap_traits@V?$basic_string@DU?$char_traits@D@std@@V?$allocator@D@2@@std@@V12@U?$less@V?$basic_string@DU?$char_traits@D@std@@V?$allocator@D@2@@std@@@2@V?$allocator@U?$pair@$$CBV?$basic_string@DU?$char_traits@D@std@@V?$allocator@D@2@@std@@V12@@std@@@2@$0A@@std@@@std@@IEAA?AV?$_Tree_iterator@V?$_Tree_val@U?$_Tree_simple_types@U?$pair@$$CBV?$basic_string@DU?$char_traits@D@std@@V?$allocator@D@2@@std@@V12@@std@@@std@@@std@@@1@_NPEAU?$_Tree_node@U?$pair@$$CBV?$basic_string@DU?$char_traits@D@std@@V?$allocator@D@2@@std@@V12@@std@@PEAX@1@AEAU?$pair@$$CBV?$basic_string@DU?$char_traits@D@std@@V?$allocator@D@2@@std@@V12@@1@1@Z 000000018007ce64 f i XML_Node.obj
 0001:0007c128       ??$_Insert_nohint@AEAU?$pair@$$CBV?$basic_string@DU?$char_traits@D@std@@V?$allocator@D@2@@std@@V12@@std@@PEAU?$_Tree_node@U?$pair@$$CBV?$basic_string@DU?$char_traits@D@std@@V?$allocator@D@2@@std@@V12@@std@@PEAX@2@@?$_Tree@V?$_Tmap_traits@V?$basic_string@DU?$char_traits@D@std@@V?$allocator@D@2@@std@@V12@U?$less@V?$basic_string@DU?$char_traits@D@std@@V?$allocator@D@2@@std@@@2@V?$allocator@U?$pair@$$CBV?$basic_string@DU?$char_traits@D@std@@V?$allocator@D@2@@std@@V12@@std@@@2@$0A@@std@@@std@@IEAA?AU?$pair@V?$_Tree_iterator@V?$_Tree_val@U?$_Tree_simple_types@U?$pair@$$CBV?$basic_string@DU?$char_traits@D@std@@V?$allocator@D@2@@std@@V12@@std@@@std@@@std@@@std@@_N@1@_NAEAU?$pair@$$CBV?$basic_string@DU?$char_traits@D@std@@V?$allocator@D@2@@std@@V12@@1@PEAU?$_Tree_node@U?$pair@$$CBV?$basic_string@DU?$char_traits@D@std@@V?$allocator@D@2@@std@@V12@@std@@PEAX@1@@Z 000000018007d128 f i XML_Node.obj
 0001:0007c2d0       ??1XMP_AutoMutex@@QEAA@XZ  000000018007d2d0 f i XMP_LibUtils.obj
 0001:0007c2f4       ??0XMP_ReadWriteLock@@QEAA@XZ 000000018007d2f4 f   XMP_LibUtils.obj
 0001:0007c350       ??1XMP_ReadWriteLock@@QEAA@XZ 000000018007d350 f   XMP_LibUtils.obj
 0001:0007c37c       ??0XMP_WinXP_HGQueue@@QEAA@XZ 000000018007d37c f   XMP_LibUtils.obj
 0001:0007c414       ??1XMP_WinXP_HGQueue@@QEAA@XZ 000000018007d414 f   XMP_LibUtils.obj
 0001:0007c420       ?Wait@XMP_WinXP_HGQueue@@QEAAXAEAU_RTL_CRITICAL_SECTION@@@Z 000000018007d420 f   XMP_LibUtils.obj
 0001:0007c504       ?ReleaseOne@XMP_WinXP_HGQueue@@QEAAXXZ 000000018007d504 f   XMP_LibUtils.obj
 0001:0007c55c       ?ReleaseAll@XMP_WinXP_HGQueue@@QEAAXXZ 000000018007d55c f   XMP_LibUtils.obj
 0001:0007c5b8       ?DumpClearString@@YAXAEBV?$basic_string@DU?$char_traits@D@std@@V?$allocator@D@2@@std@@P6AJPEAXPEBDK@Z1@Z 000000018007d5b8 f   XMP_LibUtils.obj
 0001:0007c918       ??0XMP_NamespaceTable@@QEAA@AEBV0@@Z 000000018007d918 f   XMP_LibUtils.obj
 0001:0007ca20       ?Define@XMP_NamespaceTable@@QEAA_NPEBD0PEAPEBDPEAK@Z 000000018007da20 f   XMP_LibUtils.obj
 0001:0007d074       ??1?$pair@V?$basic_string@DU?$char_traits@D@std@@V?$allocator@D@2@@std@@V12@@std@@QEAA@XZ 000000018007e074 f i XMP_LibUtils.obj
 0001:0007d0d0       ?GetPrefix@XMP_NamespaceTable@@QEBA_NPEBDPEAPEBDPEAK@Z 000000018007e0d0 f   XMP_LibUtils.obj
 0001:0007d228       ?GetURI@XMP_NamespaceTable@@QEBA_NPEBDPEAPEBDPEAK@Z 000000018007e228 f   XMP_LibUtils.obj
 0001:0007d3ac       ?Dump@XMP_NamespaceTable@@QEBAXP6AJPEAXPEBDK@Z0@Z 000000018007e3ac f   XMP_LibUtils.obj
 0001:0007d7a4       ??4?$map@V?$basic_string@DU?$char_traits@D@std@@V?$allocator@D@2@@std@@V12@U?$less@V?$basic_string@DU?$char_traits@D@std@@V?$allocator@D@2@@std@@@2@V?$allocator@U?$pair@$$CBV?$basic_string@DU?$char_traits@D@std@@V?$allocator@D@2@@std@@V12@@std@@@2@@std@@QEAAAEAV01@AEBV01@@Z 000000018007e7a4 f i XMP_LibUtils.obj
 0001:0007d86c       ?find@?$_Tree@V?$_Tmap_traits@V?$basic_string@DU?$char_traits@D@std@@V?$allocator@D@2@@std@@V12@U?$less@V?$basic_string@DU?$char_traits@D@std@@V?$allocator@D@2@@std@@@2@V?$allocator@U?$pair@$$CBV?$basic_string@DU?$char_traits@D@std@@V?$allocator@D@2@@std@@V12@@std@@@2@$0A@@std@@@std@@QEBA?AV?$_Tree_const_iterator@V?$_Tree_val@U?$_Tree_simple_types@U?$pair@$$CBV?$basic_string@DU?$char_traits@D@std@@V?$allocator@D@2@@std@@V12@@std@@@std@@@std@@@2@AEBV?$basic_string@DU?$char_traits@D@std@@V?$allocator@D@2@@2@@Z 000000018007e86c f i XMP_LibUtils.obj
 0001:0007d8f8       ??$_Buynode@AEAU?$pair@$$CBV?$basic_string@DU?$char_traits@D@std@@V?$allocator@D@2@@std@@V12@@std@@@?$_Tree_buy@U?$pair@$$CBV?$basic_string@DU?$char_traits@D@std@@V?$allocator@D@2@@std@@V12@@std@@V?$allocator@U?$pair@$$CBV?$basic_string@DU?$char_traits@D@std@@V?$allocator@D@2@@std@@V12@@std@@@2@@std@@QEAAPEAU?$_Tree_node@U?$pair@$$CBV?$basic_string@DU?$char_traits@D@std@@V?$allocator@D@2@@std@@V12@@std@@PEAX@1@AEAU?$pair@$$CBV?$basic_string@DU?$char_traits@D@std@@V?$allocator@D@2@@std@@V12@@1@@Z 000000018007e8f8 f i XMP_LibUtils.obj
 0001:0007d8f8       ??$_Buynode@AEAU?$pair@V?$basic_string@DU?$char_traits@D@std@@V?$allocator@D@2@@std@@V12@@std@@@?$_Tree_buy@U?$pair@$$CBV?$basic_string@DU?$char_traits@D@std@@V?$allocator@D@2@@std@@V12@@std@@V?$allocator@U?$pair@$$CBV?$basic_string@DU?$char_traits@D@std@@V?$allocator@D@2@@std@@V12@@std@@@2@@std@@QEAAPEAU?$_Tree_node@U?$pair@$$CBV?$basic_string@DU?$char_traits@D@std@@V?$allocator@D@2@@std@@V12@@std@@PEAX@1@AEAU?$pair@V?$basic_string@DU?$char_traits@D@std@@V?$allocator@D@2@@std@@V12@@1@@Z 000000018007e8f8 f i XMP_LibUtils.obj
 0001:0007d998       ??$_Copy_nodes@U?$integral_constant@_N$0A@@std@@@?$_Tree@V?$_Tmap_traits@V?$basic_string@DU?$char_traits@D@std@@V?$allocator@D@2@@std@@V12@U?$less@V?$basic_string@DU?$char_traits@D@std@@V?$allocator@D@2@@std@@@2@V?$allocator@U?$pair@$$CBV?$basic_string@DU?$char_traits@D@std@@V?$allocator@D@2@@std@@V12@@std@@@2@$0A@@std@@@std@@IEAAPEAU?$_Tree_node@U?$pair@$$CBV?$basic_string@DU?$char_traits@D@std@@V?$allocator@D@2@@std@@V12@@std@@PEAX@1@PEAU21@0U?$integral_constant@_N$0A@@1@@Z 000000018007e998 f i XMP_LibUtils.obj
 0001:0007da34       ??1IError_v1@AdobeXMPCommon@@MEAA@XZ 000000018007ea34 f i XMPCommon:ErrorImpl.obj
 0001:0007da54       ??1IError_I@AdobeXMPCommon_Int@@MEAA@XZ 000000018007ea54 f i XMPCommon:ErrorImpl.obj
 0001:0007dab0       ?GetCode@IError_I@AdobeXMPCommon_Int@@MEBAKAEAPEBVIError_v1@AdobeXMPCommon@@@Z 000000018007eab0 f i XMPCommon:ErrorImpl.obj
 0001:0007daf0       ?GetSeverity@IError_I@AdobeXMPCommon_Int@@MEBAKAEAPEBVIError_v1@AdobeXMPCommon@@@Z 000000018007eaf0 f i XMPCommon:ErrorImpl.obj
 0001:0007db30       ??1ErrorImpl@AdobeXMPCommon_Int@@MEAA@XZ 000000018007eb30 f i XMPCommon:ErrorImpl.obj
 0001:0007dce0       ??_GErrorImpl@AdobeXMPCommon_Int@@MEAAPEAXI@Z 000000018007ece0 f i XMPCommon:ErrorImpl.obj
 0001:0007dce0       ??_EErrorImpl@AdobeXMPCommon_Int@@MEAAPEAXI@Z 000000018007ece0 f i * CIL library *:* CIL module *
 0001:0007de38       ?GetCode@ErrorImpl@AdobeXMPCommon_Int@@UEBAKXZ 000000018007ee38 f   XMPCommon:ErrorImpl.obj
 0001:0007de40       ?GetDomain@ErrorImpl@AdobeXMPCommon_Int@@UEBA?AW4eErrorDomain@IError_v1@AdobeXMPCommon@@XZ 000000018007ee40 f   XMPCommon:ErrorImpl.obj
 0001:0007de48       ?GetSeverity@ErrorImpl@AdobeXMPCommon_Int@@UEBA?AW4eErrorSeverity@IError_v1@AdobeXMPCommon@@XZ 000000018007ee48 f   XMPCommon:ErrorImpl.obj
 0001:0007de50       ?GetMessage_I@ErrorImpl@AdobeXMPCommon_Int@@UEBA?AV?$shared_ptr@$$CBVIUTF8String_I@AdobeXMPCommon_Int@@@std@@XZ 000000018007ee50 f   XMPCommon:ErrorImpl.obj
 0001:0007de74       ?GetMessage@ErrorImpl@AdobeXMPCommon_Int@@MEBA?AV?$shared_ptr@$$CBVIUTF8String_v1@AdobeXMPCommon@@@std@@XZ 000000018007ee74 f   XMPCommon:ErrorImpl.obj
 0001:0007de98       ?GetLocation_I@ErrorImpl@AdobeXMPCommon_Int@@UEBA?AV?$shared_ptr@$$CBVIUTF8String_I@AdobeXMPCommon_Int@@@std@@XZ 000000018007ee98 f   XMPCommon:ErrorImpl.obj
 0001:0007debc       ?GetLocation@ErrorImpl@AdobeXMPCommon_Int@@MEBA?AV?$shared_ptr@$$CBVIUTF8String_v1@AdobeXMPCommon@@@std@@XZ 000000018007eebc f   XMPCommon:ErrorImpl.obj
 0001:0007dee0       ?SetMessage@ErrorImpl@AdobeXMPCommon_Int@@UEAAXPEBD_K@Z 000000018007eee0 f   XMPCommon:ErrorImpl.obj
 0001:0007df5c       ??0ErrorImpl@AdobeXMPCommon_Int@@QEAA@W4eErrorDomain@IError_v1@AdobeXMPCommon@@KW4eErrorSeverity@34@@Z 000000018007ef5c f   XMPCommon:ErrorImpl.obj
 0001:0007e268       ?GetParametersCount@ErrorImpl@AdobeXMPCommon_Int@@UEBA_KXZ 000000018007f268 f   XMPCommon:ErrorImpl.obj
 0001:0007e278       ?GetParameter_I@ErrorImpl@AdobeXMPCommon_Int@@UEBA?AV?$shared_ptr@$$CBVIUTF8String_I@AdobeXMPCommon_Int@@@std@@_K@Z 000000018007f278 f   XMPCommon:ErrorImpl.obj
 0001:0007e374       ?GetParameter@ErrorImpl@AdobeXMPCommon_Int@@MEBA?AV?$shared_ptr@$$CBVIUTF8String_v1@AdobeXMPCommon@@@std@@_K@Z 000000018007f374 f   XMPCommon:ErrorImpl.obj
 0001:0007e410       ?SetLocation@ErrorImpl@AdobeXMPCommon_Int@@UEAAXPEBD_K@Z 000000018007f410 f   XMPCommon:ErrorImpl.obj
 0001:0007e5dc       ?AppendParameter@ErrorImpl@AdobeXMPCommon_Int@@UEAAXPEBD_K@Z 000000018007f5dc f   XMPCommon:ErrorImpl.obj
 0001:0007e7e4       ?AppendParameter@ErrorImpl@AdobeXMPCommon_Int@@UEAAXPEAX@Z 000000018007f7e4 f   XMPCommon:ErrorImpl.obj
 0001:0007e8c8       ?AppendParameter@ErrorImpl@AdobeXMPCommon_Int@@UEAAXN@Z 000000018007f8c8 f   XMPCommon:ErrorImpl.obj
 0001:0007e994       ?AppendParameter@ErrorImpl@AdobeXMPCommon_Int@@UEAAX_N@Z 000000018007f994 f   XMPCommon:ErrorImpl.obj
 0001:0007ea70       ?AppendParameter@ErrorImpl@AdobeXMPCommon_Int@@UEAAXK@Z 000000018007fa70 f   XMPCommon:ErrorImpl.obj
 0001:0007eb3c       ?AppendParameter@ErrorImpl@AdobeXMPCommon_Int@@UEAAX_K@Z 000000018007fb3c f   XMPCommon:ErrorImpl.obj
 0001:0007ec08       ?AppendParameter@ErrorImpl@AdobeXMPCommon_Int@@UEAAXJ@Z 000000018007fc08 f   XMPCommon:ErrorImpl.obj
 0001:0007ecd4       ?AppendParameter@ErrorImpl@AdobeXMPCommon_Int@@UEAAX_J@Z 000000018007fcd4 f   XMPCommon:ErrorImpl.obj
 0001:0007eda0       ?CreateError@IError_I@AdobeXMPCommon_Int@@SA?AV?$shared_ptr@VIError_I@AdobeXMPCommon_Int@@@std@@W4eErrorDomain@IError_v1@AdobeXMPCommon@@KW4eErrorSeverity@67@@Z 000000018007fda0 f   XMPCommon:ErrorImpl.obj
 0001:0007ee78       ?GetParameter@IError_I@AdobeXMPCommon_Int@@MEBAPEBVIUTF8String_v1@AdobeXMPCommon@@_KAEAPEBVIError_v1@4@@Z 000000018007fe78 f   XMPCommon:ErrorImpl.obj
 0001:0007eebc       ??0sentry@?$basic_ostream@DU?$char_traits@D@std@@@std@@QEAA@AEAV12@@Z 000000018007febc f i XMPCommon:ErrorImpl.obj
 0001:0007ef38       ??1sentry@?$basic_ostream@DU?$char_traits@D@std@@@std@@QEAA@XZ 000000018007ff38 f i XMPCommon:ErrorImpl.obj
 0001:0007ef74       ??1_Sentry_base@?$basic_ostream@DU?$char_traits@D@std@@@std@@QEAA@XZ 000000018007ff74 f i XMPCommon:ErrorImpl.obj
 0001:0007ef98       ??$?0VIUTF8String_I@AdobeXMPCommon_Int@@X@?$shared_ptr@$$CBVIUTF8String_v1@AdobeXMPCommon@@@std@@QEAA@AEBV?$shared_ptr@VIUTF8String_I@AdobeXMPCommon_Int@@@1@@Z 000000018007ff98 f i XMPCommon:ErrorImpl.obj
 0001:0007f028       ??$?6U?$char_traits@D@std@@@std@@YAAEAV?$basic_ostream@DU?$char_traits@D@std@@@0@AEAV10@PEBD@Z 0000000180080028 f i XMPCommon:ErrorImpl.obj
 0001:0007f1ac       ??$MakeUncheckedSharedPointer@VErrorImpl@AdobeXMPCommon_Int@@@AdobeXMPCommon_Int@@YA?AV?$shared_ptr@VErrorImpl@AdobeXMPCommon_Int@@@std@@PEAVErrorImpl@0@@Z 00000001800801ac f i XMPCommon:ErrorImpl.obj
 0001:0007f228       ??$_Resetp@VErrorImpl@AdobeXMPCommon_Int@@V?$_Mem_fn_wrap@XP8IntrusiveRefCountSharedOwnership@AdobeXMPCommon_Int@@EBAXXZ$$CBV12@$$$V@std@@V?$TAllocator@VErrorImpl@AdobeXMPCommon_Int@@@2@@?$shared_ptr@VErrorImpl@AdobeXMPCommon_Int@@@std@@AEAAXPEAVErrorImpl@AdobeXMPCommon_Int@@V?$_Mem_fn_wrap@XP8IntrusiveRefCountSharedOwnership@AdobeXMPCommon_Int@@EBAXXZ$$CBV12@$$$V@1@V?$TAllocator@VErrorImpl@AdobeXMPCommon_Int@@@3@@Z 0000000180080228 f i XMPCommon:ErrorImpl.obj
 0001:0007f2c4       ?GetCode@ErrorImpl@AdobeXMPCommon_Int@@$4PPPPPPPM@A@EBAKXZ 00000001800802c4 f i XMPCommon:ErrorImpl.obj
 0001:0007f2d0       ?GetSeverity@IError_I@AdobeXMPCommon_Int@@$R2JI@BE@PPPPPPPM@DA@EBAKAEAPEBVIError_v1@AdobeXMPCommon@@@Z 00000001800802d0 f i XMPCommon:ErrorImpl.obj
 0001:0007f2ec       ?GetLocation@IError_I@AdobeXMPCommon_Int@@$R2JI@BE@PPPPPPPM@DA@EBAPEBVIUTF8String_v1@AdobeXMPCommon@@AEAPEBVIError_v1@4@@Z 00000001800802ec f i XMPCommon:ErrorImpl.obj
 0001:0007f308       ?AcquireSharedOwnership@IntrusiveRefCountSharedOwnership@AdobeXMPCommon_Int@@$R4FI@M@PPPPPPPM@CA@EBAXXZ 0000000180080308 f i XMPCommon:ErrorImpl.obj
 0001:0007f324       ?GetSeverity@ErrorImpl@AdobeXMPCommon_Int@@$4PPPPPPPM@A@EBA?AW4eErrorSeverity@IError_v1@AdobeXMPCommon@@XZ 0000000180080324 f i XMPCommon:ErrorImpl.obj
 0001:0007f330       ?GetMessage@IError_I@AdobeXMPCommon_Int@@$R2JI@BE@PPPPPPPM@DA@EBAPEBVIUTF8String_v1@AdobeXMPCommon@@AEAPEBVIError_v1@4@@Z 0000000180080330 f i XMPCommon:ErrorImpl.obj
 0001:0007f34c       ?GetParameter@IError_I@AdobeXMPCommon_Int@@$2PPPPPPPM@A@EBAPEBVIUTF8String_v1@AdobeXMPCommon@@_KAEAPEBVIError_v1@4@@Z 000000018008034c f i XMPCommon:ErrorImpl.obj
 0001:0007f358       ?SetMessage@ErrorImpl@AdobeXMPCommon_Int@@$4PPPPPPPM@A@EAAXPEBD_K@Z 0000000180080358 f i XMPCommon:ErrorImpl.obj
 0001:0007f364       ?GetMessage_I@ErrorImpl@AdobeXMPCommon_Int@@$4PPPPPPPM@A@EBA?AV?$shared_ptr@$$CBVIUTF8String_I@AdobeXMPCommon_Int@@@std@@XZ 0000000180080364 f i XMPCommon:ErrorImpl.obj
 0001:0007f370       ?GetMessage@ErrorImpl@AdobeXMPCommon_Int@@$2PPPPPPPM@A@EBA?AV?$shared_ptr@$$CBVIUTF8String_v1@AdobeXMPCommon@@@std@@XZ 0000000180080370 f i XMPCommon:ErrorImpl.obj
 0001:0007f37c       ?GetParameter@IError_I@AdobeXMPCommon_Int@@$R2JI@BE@PPPPPPPM@DA@EBAPEBVIUTF8String_v1@AdobeXMPCommon@@_KAEAPEBVIError_v1@4@@Z 000000018008037c f i XMPCommon:ErrorImpl.obj
 0001:0007f398       ?GetLocation_I@ErrorImpl@AdobeXMPCommon_Int@@$4PPPPPPPM@A@EBA?AV?$shared_ptr@$$CBVIUTF8String_I@AdobeXMPCommon_Int@@@std@@XZ 0000000180080398 f i XMPCommon:ErrorImpl.obj
 0001:0007f3a4       ??_EErrorImpl@AdobeXMPCommon_Int@@$2PPPPPPPM@A@EAAPEAXI@Z 00000001800803a4 f i XMPCommon:ErrorImpl.obj
 0001:0007f3b0       ?GetLocation@ErrorImpl@AdobeXMPCommon_Int@@$2PPPPPPPM@A@EBA?AV?$shared_ptr@$$CBVIUTF8String_v1@AdobeXMPCommon@@@std@@XZ 00000001800803b0 f i XMPCommon:ErrorImpl.obj
 0001:0007f3bc       ?GetParameter_I@ErrorImpl@AdobeXMPCommon_Int@@$4PPPPPPPM@A@EBA?AV?$shared_ptr@$$CBVIUTF8String_I@AdobeXMPCommon_Int@@@std@@_K@Z 00000001800803bc f i XMPCommon:ErrorImpl.obj
 0001:0007f3c8       ?AcquireSharedOwnershipForRawPointer@IntrusiveRefCountSharedOwnership@AdobeXMPCommon_Int@@$R4GI@M@PPPPPPPM@DA@EBAXXZ 00000001800803c8 f i XMPCommon:ErrorImpl.obj
 0001:0007f3e4       ?GetParameter@ErrorImpl@AdobeXMPCommon_Int@@$2PPPPPPPM@A@EBA?AV?$shared_ptr@$$CBVIUTF8String_v1@AdobeXMPCommon@@@std@@_K@Z 00000001800803e4 f i XMPCommon:ErrorImpl.obj
 0001:0007f3f0       ?SetLocation@ErrorImpl@AdobeXMPCommon_Int@@$4PPPPPPPM@A@EAAXPEBD_K@Z 00000001800803f0 f i XMPCommon:ErrorImpl.obj
 0001:0007f3fc       ?GetCode@IError_I@AdobeXMPCommon_Int@@$2PPPPPPPM@A@EBAKAEAPEBVIError_v1@AdobeXMPCommon@@@Z 00000001800803fc f i XMPCommon:ErrorImpl.obj
 0001:0007f408       ?GetDomain@IError_I@AdobeXMPCommon_Int@@$R2JI@BE@PPPPPPPM@DA@EBAKAEAPEBVIError_v1@AdobeXMPCommon@@@Z 0000000180080408 f i XMPCommon:ErrorImpl.obj
 0001:0007f424       ?AppendParameter@ErrorImpl@AdobeXMPCommon_Int@@$4PPPPPPPM@A@EAAXPEBD_K@Z 0000000180080424 f i XMPCommon:ErrorImpl.obj
 0001:0007f430       ?AppendParameter@ErrorImpl@AdobeXMPCommon_Int@@$4PPPPPPPM@A@EAAXPEAX@Z 0000000180080430 f i XMPCommon:ErrorImpl.obj
 0001:0007f43c       ?AppendParameter@ErrorImpl@AdobeXMPCommon_Int@@$4PPPPPPPM@A@EAAXK@Z 000000018008043c f i XMPCommon:ErrorImpl.obj
 0001:0007f448       ?AppendParameter@ErrorImpl@AdobeXMPCommon_Int@@$4PPPPPPPM@A@EAAX_K@Z 0000000180080448 f i XMPCommon:ErrorImpl.obj
 0001:0007f454       ?AppendParameter@ErrorImpl@AdobeXMPCommon_Int@@$4PPPPPPPM@A@EAAXJ@Z 0000000180080454 f i XMPCommon:ErrorImpl.obj
 0001:0007f460       ?AppendParameter@ErrorImpl@AdobeXMPCommon_Int@@$4PPPPPPPM@A@EAAX_J@Z 0000000180080460 f i XMPCommon:ErrorImpl.obj
 0001:0007f46c       ?AppendParameter@ErrorImpl@AdobeXMPCommon_Int@@$4PPPPPPPM@A@EAAXN@Z 000000018008046c f i XMPCommon:ErrorImpl.obj
 0001:0007f478       ?AppendParameter@ErrorImpl@AdobeXMPCommon_Int@@$4PPPPPPPM@A@EAAX_N@Z 0000000180080478 f i XMPCommon:ErrorImpl.obj
 0001:0007f484       ?GetParametersCount@ErrorImpl@AdobeXMPCommon_Int@@$4PPPPPPPM@A@EBA_KXZ 0000000180080484 f i XMPCommon:ErrorImpl.obj
 0001:0007f490       ??_EErrorImpl@AdobeXMPCommon_Int@@OGI@EAAPEAXI@Z 0000000180080490 f i XMPCommon:ErrorImpl.obj
 0001:0007f49c       ?GetCode@IError_I@AdobeXMPCommon_Int@@$R2JI@BE@PPPPPPPM@DA@EBAKAEAPEBVIError_v1@AdobeXMPCommon@@@Z 000000018008049c f i XMPCommon:ErrorImpl.obj
 0001:0007f4b8       ?ReleaseSharedOwnership@IntrusiveRefCountSharedOwnership@AdobeXMPCommon_Int@@$R4FI@M@PPPPPPPM@CA@EBAXXZ 00000001800804b8 f i XMPCommon:ErrorImpl.obj
 0001:0007f4d4       ?GetDomain@ErrorImpl@AdobeXMPCommon_Int@@$4PPPPPPPM@A@EBA?AW4eErrorDomain@IError_v1@AdobeXMPCommon@@XZ 00000001800804d4 f i XMPCommon:ErrorImpl.obj
 0001:0007f4e0       ?GetSeverity@IError_I@AdobeXMPCommon_Int@@$2PPPPPPPM@A@EBAKAEAPEBVIError_v1@AdobeXMPCommon@@@Z 00000001800804e0 f i XMPCommon:ErrorImpl.obj
 0001:0007f4ec       ?AcquireSharedOwnership@IntrusiveRefCountSharedOwnership@AdobeXMPCommon_Int@@UEBAXXZ 00000001800804ec f   XMPCommon:IntrusiveRefCountSharedOwnership.obj
 0001:0007f50c       ?ReleaseSharedOwnership@IntrusiveRefCountSharedOwnership@AdobeXMPCommon_Int@@UEBAXXZ 000000018008050c f   XMPCommon:IntrusiveRefCountSharedOwnership.obj
 0001:0007f540       ??1IntrusiveRefCountSharedOwnership@AdobeXMPCommon_Int@@MEAA@XZ 0000000180080540 f   XMPCommon:IntrusiveRefCountSharedOwnership.obj
 0001:0007f590       ?AcquireSharedOwnershipForRawPointer@IntrusiveRefCountSharedOwnership@AdobeXMPCommon_Int@@UEBAXXZ 0000000180080590 f   XMPCommon:IntrusiveRefCountSharedOwnership.obj
 0001:0007f5a4       ??0AutoSharedLock@AdobeXMPCommon_Int@@QEAA@AEBV?$shared_ptr@VISharedMutex_I@AdobeXMPCommon_Int@@@std@@_N@Z 00000001800805a4 f   XMPCommon:AutoSharedLock.obj
 0001:0007f644       ??1AutoSharedLock@AdobeXMPCommon_Int@@QEAA@XZ 0000000180080644 f   XMPCommon:AutoSharedLock.obj
 0001:0007f6a0       ?AllocateUsingAllocateManager@AdobeXMPCommon_Int@@YAPEAX_K@Z 00000001800806a0 f   XMPCommon:TAllocator.obj
 0001:0007f6cc       ?DeallocateUsingAllocateManager@AdobeXMPCommon_Int@@YAXPEAX@Z 00000001800806cc f   XMPCommon:TAllocator.obj
 0001:0007f6cc       ??3Object@AdobeXMPCommon_Int@@SAXPEAX@Z 00000001800806cc f   XMPCommon:Object.obj
 0001:0007f6f8       ??2Object@AdobeXMPCommon_Int@@SAPEAX_K@Z 00000001800806f8 f   XMPCommon:Object.obj
 0001:0007f74c       ??2Object@AdobeXMPCommon_Int@@SAPEAX_KAEBUnothrow_t@std@@@Z 000000018008074c f   XMPCommon:Object.obj
 0001:0007f788       ??_GSharedMutexImpl@AdobeXMPCommon_Int@@UEAAPEAXI@Z 0000000180080788 f i XMPCommon:SharedMutexImpl.obj
 0001:0007f788       ??_ESharedMutexImpl@AdobeXMPCommon_Int@@UEAAPEAXI@Z 0000000180080788 f i * CIL library *:* CIL module *
 0001:0007f8c8       ?CreateSharedMutex_I@ISharedMutex_I@AdobeXMPCommon_Int@@SA?AV?$shared_ptr@VISharedMutex_I@AdobeXMPCommon_Int@@@std@@XZ 00000001800808c8 f   XMPCommon:SharedMutexImpl.obj
 0001:0007f960       ??0SharedMutexImpl@AdobeXMPCommon_Int@@QEAA@XZ 0000000180080960 f i XMPCommon:SharedMutexImpl.obj
 0001:0007fac4       ?CreateSharedMutexIfRequired_I@ISharedMutex_I@AdobeXMPCommon_Int@@SA?AV?$shared_ptr@VISharedMutex_I@AdobeXMPCommon_Int@@@std@@W4eMultiThreadingSupport@AdobeXMPCommon@@@Z 0000000180080ac4 f   XMPCommon:SharedMutexImpl.obj
 0001:0007fb1c       ??$MakeUncheckedSharedPointer@VSharedMutexImpl@AdobeXMPCommon_Int@@@AdobeXMPCommon_Int@@YA?AV?$shared_ptr@VSharedMutexImpl@AdobeXMPCommon_Int@@@std@@PEAVSharedMutexImpl@0@@Z 0000000180080b1c f i XMPCommon:SharedMutexImpl.obj
 0001:0007fb98       ??$_Resetp@VSharedMutexImpl@AdobeXMPCommon_Int@@V?$_Mem_fn_wrap@XP8IntrusiveRefCountSharedOwnership@AdobeXMPCommon_Int@@EBAXXZ$$CBV12@$$$V@std@@V?$TAllocator@VSharedMutexImpl@AdobeXMPCommon_Int@@@2@@?$shared_ptr@VSharedMutexImpl@AdobeXMPCommon_Int@@@std@@AEAAXPEAVSharedMutexImpl@AdobeXMPCommon_Int@@V?$_Mem_fn_wrap@XP8IntrusiveRefCountSharedOwnership@AdobeXMPCommon_Int@@EBAXXZ$$CBV12@$$$V@1@V?$TAllocator@VSharedMutexImpl@AdobeXMPCommon_Int@@@3@@Z 0000000180080b98 f i XMPCommon:SharedMutexImpl.obj
 0001:0007fc34       ?_Destroy@?$_Ref_count_del_alloc@VSharedMutexImpl@AdobeXMPCommon_Int@@V?$_Mem_fn_wrap@XP8IntrusiveRefCountSharedOwnership@AdobeXMPCommon_Int@@EBAXXZ$$CBV12@$$$V@std@@V?$TAllocator@VSharedMutexImpl@AdobeXMPCommon_Int@@@2@@std@@EEAAXXZ 0000000180080c34 f i XMPCommon:SharedMutexImpl.obj
 0001:0007fc34       ?_Destroy@?$_Ref_count_del_alloc@VUTF8StringImpl@AdobeXMPCommon_Int@@V?$_Mem_fn_wrap@XP8IntrusiveRefCountSharedOwnership@AdobeXMPCommon_Int@@EBAXXZ$$CBV12@$$$V@std@@V?$TAllocator@VUTF8StringImpl@AdobeXMPCommon_Int@@@2@@std@@EEAAXXZ 0000000180080c34 f i XMPCommon:UTF8StringImpl.obj
 0001:0007fc98       ??_ESharedMutexImpl@AdobeXMPCommon_Int@@WDI@EAAPEAXI@Z 0000000180080c98 f i XMPCommon:SharedMutexImpl.obj
 0001:0007fca4       ?AcquireSharedOwnership@IntrusiveRefCountSharedOwnership@AdobeXMPCommon_Int@@$R4BA@BE@PPPPPPPM@CA@EBAXXZ 0000000180080ca4 f i XMPCommon:SharedMutexImpl.obj
 0001:0007fcc0       ??_ESharedMutexImpl@AdobeXMPCommon_Int@@$4PPPPPPPM@A@EAAPEAXI@Z 0000000180080cc0 f i XMPCommon:SharedMutexImpl.obj
 0001:0007fccc       ?AcquireSharedOwnershipForRawPointer@IntrusiveRefCountSharedOwnership@AdobeXMPCommon_Int@@$R4CA@BE@PPPPPPPM@DA@EBAXXZ 0000000180080ccc f i XMPCommon:SharedMutexImpl.obj
 0001:0007fce8       ?ReleaseSharedOwnership@IntrusiveRefCountSharedOwnership@AdobeXMPCommon_Int@@$R4BA@BE@PPPPPPPM@CA@EBAXXZ 0000000180080ce8 f i XMPCommon:SharedMutexImpl.obj
 0001:0007fd04       ??1IClientErrorNotifier_v1@AdobeXMPCommon@@MEAA@XZ 0000000180080d04 f i XMPCommon:ErrorNotificationManagerImpl.obj
 0001:0007fd24       ??1IClientErrorNotifier_I@AdobeXMPCommon_Int@@MEAA@XZ 0000000180080d24 f i XMPCommon:ErrorNotificationManagerImpl.obj
 0001:0007fd80       ?NotifyError@IClientErrorNotifier_I@AdobeXMPCommon_Int@@MEAA_NAEBV?$shared_ptr@$$CBVIError_v1@AdobeXMPCommon@@@std@@@Z 0000000180080d80 f i XMPCommon:ErrorNotificationManagerImpl.obj
 0001:0007fdfc       ?NotifyError@IClientErrorNotifier_I@AdobeXMPCommon_Int@@MEAAKPEBVIError_v1@AdobeXMPCommon@@AEAPEBV34@@Z 0000000180080dfc f i XMPCommon:ErrorNotificationManagerImpl.obj
 0001:0007feb0       ??1DefaultClientErrorNotifierImpl@AdobeXMPCommon_Int@@MEAA@XZ 0000000180080eb0 f i XMPCommon:ErrorNotificationManagerImpl.obj
 0001:0007ff58       ??_GDefaultClientErrorNotifierImpl@AdobeXMPCommon_Int@@MEAAPEAXI@Z 0000000180080f58 f i XMPCommon:ErrorNotificationManagerImpl.obj
 0001:0007ff58       ??_EDefaultClientErrorNotifierImpl@AdobeXMPCommon_Int@@MEAAPEAXI@Z 0000000180080f58 f i * CIL library *:* CIL module *
 0001:00080088       ??1IErrorNotificationManager_I@AdobeXMPCommon_Int@@MEAA@XZ 0000000180081088 f i XMPCommon:ErrorNotificationManagerImpl.obj
 0001:000800f8       ??1ErrorNotificationManagerImpl@AdobeXMPCommon_Int@@UEAA@XZ 00000001800810f8 f i XMPCommon:ErrorNotificationManagerImpl.obj
