 AdobeXMP

 Timestamp is 565ece92 (Wed Dec 02 16:27:22 2015)

 Preferred load address is 0000000180000000

 Start         Length     Name                   Class
 0001:00000000 000005edH .text$di                CODE
 0001:000005f0 000c738eH .text$mn                CODE
 0001:000c7980 000184c0H .text$x                 CODE
 0001:000dfe40 000004e3H .text$yd                CODE
 0002:00000000 000003b8H .idata$5                DATA
 0002:000003b8 00000008H .CRT$XCA                DATA
 0002:000003c0 000000a8H .CRT$XCU                DATA
 0002:00000468 00000008H .CRT$XCZ                DATA
 0002:00000470 00000008H .CRT$XIA                DATA
 0002:00000478 00000008H .CRT$XIAA               DATA
 0002:00000480 00000010H .CRT$XIC                DATA
 0002:00000490 00000008H .CRT$XIZ                DATA
 0002:000004a0 00019bb0H .rdata                  DATA
 0002:0001a050 0000003cH .rdata$debug            DATA
 0002:0001a090 0000a6a4H .rdata$r                DATA
 0002:00024738 00000008H .rtc$IAA                DATA
 0002:00024740 00000008H .rtc$IZZ                DATA
 0002:00024748 00000008H .rtc$TAA                DATA
 0002:00024750 00000008H .rtc$TZZ                DATA
 0002:00024760 00026d88H .xdata                  DATA
 0002:0004b4e8 00000304H .xdata$x                DATA
 0002:0004b7f0 000012d4H .edata                  DATA
 0002:0004cac4 00000050H .idata$2                DATA
 0002:0004cb14 00000014H .idata$3                DATA
 0002:0004cb28 000003b8H .idata$4                DATA
 0002:0004cee0 00000fbcH .idata$6                DATA
 0003:00000000 000004b4H .data                   DATA
 0003:000004c0 000039eaH .data$r                 DATA
 0003:00003eb0 00000a60H .bss                    DATA
 0004:00000000 00008010H .pdata                  DATA
 0005:00000000 000000a0H .rsrc$01                DATA
 0005:000000a0 000006b8H .rsrc$02                DATA

  Address         Publics by Value              Rva+Base               Lib:Object

 0000:00000000       ___safe_se_handler_count   0000000000000000     <absolute>
 0000:00000000       __guard_fids_count         0000000000000000     <absolute>
 0000:00000000       ___safe_se_handler_table   0000000000000000     <absolute>
 0000:00000000       __guard_fids_table         0000000000000000     <absolute>
 0000:00000000       __guard_flags              0000000000000000     <absolute>
 0000:00000000       __ImageBase                0000000180000000     <linker-defined>
 0001:000005f0       ?Release@IErrorProxy@AdobeXMPCommon@@UEBAXXZ 00000001800015f0 f i IError.obj
 0001:000005f0       ?SetNameSpace@MetadataImpl@AdobeXMPCore_Int@@MEAAXPEBD_K@Z 00000001800015f0 f i MetadataImpl.obj
 0001:000005f0       ??3@YAXPEAX0@Z             00000001800015f0 f i WXMPDocOps.obj
 0001:000005f0       ?Acquire@IUTF8StringProxy@AdobeXMPCommon@@UEBAXXZ 00000001800015f0 f i IUTF8String.obj
 0001:000005f0       ?Sort@XMPMeta2@@UEAAXXZ    00000001800015f0 f i XMPMeta2-GetSet.obj
 0001:000005f0       ?Release@IUTF8StringProxy@AdobeXMPCommon@@UEBAXXZ 00000001800015f0 f i IUTF8String.obj
 0001:000005f0       ?resetChangesForChildren@SimpleNodeImpl@AdobeXMPCore_Int@@MEBAXXZ 00000001800015f0 f i SimpleNodeImpl.obj
 0001:000005f0       ?SetName@MetadataImpl@AdobeXMPCore_Int@@MEAAXPEBD_K@Z 00000001800015f0 f i MetadataImpl.obj
 0001:000005f0       ?Acquire@IErrorProxy@AdobeXMPCommon@@UEBAXXZ 00000001800015f0 f i IError.obj
 0001:000005f4       ??_E_Generic_error_category@std@@UEAAPEAXI@Z 00000001800015f4 f i * CIL library *:* CIL module *
 0001:000005f4       ??_Eerror_category@std@@UEAAPEAXI@Z 00000001800015f4 f i * CIL library *:* CIL module *
 0001:000005f4       ??_E_System_error_category@std@@UEAAPEAXI@Z 00000001800015f4 f i * CIL library *:* CIL module *
 0001:000005f4       ??_E_Iostream_error_category@std@@UEAAPEAXI@Z 00000001800015f4 f i * CIL library *:* CIL module *
 0001:000005f4       ??_Gerror_category@std@@UEAAPEAXI@Z 00000001800015f4 f i WXMPDocOps.obj
 0001:000005f4       ??_G_System_error_category@std@@UEAAPEAXI@Z 00000001800015f4 f i WXMPDocOps.obj
 0001:000005f4       ??_G_Generic_error_category@std@@UEAAPEAXI@Z 00000001800015f4 f i WXMPDocOps.obj
 0001:000005f4       ??_G_Iostream_error_category@std@@UEAAPEAXI@Z 00000001800015f4 f i WXMPDocOps.obj
 0001:0000061c       ?default_error_condition@error_category@std@@UEBA?AVerror_condition@2@H@Z 000000018000161c f i WXMPDocOps.obj
 0001:00000628       ?equivalent@error_category@std@@UEBA_NHAEBVerror_condition@2@@Z 0000000180001628 f i WXMPDocOps.obj
 0001:00000660       ?equivalent@error_category@std@@UEBA_NAEBVerror_code@2@H@Z 0000000180001660 f i WXMPDocOps.obj
 0001:00000674       ?name@_Generic_error_category@std@@UEBAPEBDXZ 0000000180001674 f i WXMPDocOps.obj
 0001:0000067c       ?message@_Generic_error_category@std@@UEBA?AV?$basic_string@DU?$char_traits@D@std@@V?$allocator@D@2@@2@H@Z 000000018000167c f i WXMPDocOps.obj
 0001:000006ec       ?name@_Iostream_error_category@std@@UEBAPEBDXZ 00000001800016ec f i WXMPDocOps.obj
 0001:000006f4       ?message@_Iostream_error_category@std@@UEBA?AV?$basic_string@DU?$char_traits@D@std@@V?$allocator@D@2@@2@H@Z 00000001800016f4 f i WXMPDocOps.obj
 0001:00000748       ?name@_System_error_category@std@@UEBAPEBDXZ 0000000180001748 f i WXMPDocOps.obj
 0001:00000750       ?message@_System_error_category@std@@UEBA?AV?$basic_string@DU?$char_traits@D@std@@V?$allocator@D@2@@2@H@Z 0000000180001750 f i WXMPDocOps.obj
 0001:000007c0       ?default_error_condition@_System_error_category@std@@UEBA?AVerror_condition@2@H@Z 00000001800017c0 f i WXMPDocOps.obj
 0001:00000800       ??1XMP_AutoLock@@QEAA@XZ   0000000180001800 f i WXMPDocOps.obj
 0001:00000810       ?Release@XMP_AutoLock@@QEAAXXZ 0000000180001810 f i WXMPDocOps.obj
 0001:000008bc       WXMPDocOps_CTor_1          00000001800018bc f   WXMPDocOps.obj
 0001:00000944       WXMPIterator_IncrementRefCount_1 0000000180001944 f   WXMPIterator.obj
 0001:00000944       WXMPDocOps_IncrementRefCount_1 0000000180001944 f   WXMPDocOps.obj
 0001:00000944       WXMPMeta_IncrementRefCount_1 0000000180001944 f   WXMPMeta.obj
 0001:000009e8       WXMPIterator_DecrementRefCount_1 00000001800019e8 f   WXMPIterator.obj
 0001:000009e8       WXMPMeta_DecrementRefCount_1 00000001800019e8 f   WXMPMeta.obj
 0001:000009e8       WXMPDocOps_DecrementRefCount_1 00000001800019e8 f   WXMPDocOps.obj
 0001:00000abc       WXMPDocOps_SetAppName_1    0000000180001abc f   WXMPDocOps.obj
 0001:00000b08       WXMPDocOps_CreateID_1      0000000180001b08 f   WXMPDocOps.obj
 0001:00000bb4       WXMPDocOps_NewXMP_1        0000000180001bb4 f   WXMPDocOps.obj
 0001:00000d64       WXMPDocOps_OpenXMP_1       0000000180001d64 f   WXMPDocOps.obj
 0001:00000f38       WXMPDocOps_BranchXMP_1     0000000180001f38 f   WXMPDocOps.obj
 0001:00001180       WXMPDocOps_PrepareForSave_1 0000000180002180 f   WXMPDocOps.obj
 0001:00001310       WXMPDocOps_NoteChange_1    0000000180002310 f   WXMPDocOps.obj
 0001:000014c8       WXMPDocOps_HasPartChanged_1 00000001800024c8 f   WXMPDocOps.obj
 0001:000016b8       WXMPDocOps_GetPartChangeID_1 00000001800026b8 f   WXMPDocOps.obj
 0001:000018cc       WXMPDocOps_EnsureIDsExist_1 00000001800028cc f   WXMPDocOps.obj
 0001:00001990       WXMPDocOps_IsDirty_1       0000000180002990 f   WXMPDocOps.obj
 0001:00001a50       WXMPDocOps_Clone_1         0000000180002a50 f   WXMPDocOps.obj
 0001:00001c14       WXMPDocOps_GetMetaRef_1    0000000180002c14 f   WXMPDocOps.obj
 0001:00001cb8       ??0?$basic_string@DU?$char_traits@D@std@@V?$allocator@D@2@@std@@QEAA@PEBD@Z 0000000180002cb8 f i WXMPDocOps.obj
 0001:00001d04       ??1?$basic_string@DU?$char_traits@D@std@@V?$allocator@D@2@@std@@QEAA@XZ 0000000180002d04 f i WXMPDocOps.obj
 0001:00001d04       ??1?$pair@$$CBV?$basic_string@DU?$char_traits@D@std@@V?$allocator@D@2@@std@@_N@std@@QEAA@XZ 0000000180002d04 f i XMPIterator2.obj
 0001:00001d04       ??1XPathStepInfo@@QEAA@XZ  0000000180002d04 f i XMPDocOps-Utils.obj
 0001:00001d38       ?assign@?$basic_string@DU?$char_traits@D@std@@V?$allocator@D@2@@std@@QEAAAEAV12@AEBV12@_K1@Z 0000000180002d38 f i WXMPDocOps.obj
 0001:00001e58       ?_Tidy@?$basic_string@DU?$char_traits@D@std@@V?$allocator@D@2@@std@@QEAAX_N_K@Z 0000000180002e58 f i WXMPDocOps.obj
 0001:00001eb8       ?assign@?$basic_string@DU?$char_traits@D@std@@V?$allocator@D@2@@std@@QEAAAEAV12@PEBD_K@Z 0000000180002eb8 f i WXMPDocOps.obj
 0001:00001fbc       ?erase@?$basic_string@DU?$char_traits@D@std@@V?$TAllocator@D@AdobeXMPCore_Int@@@std@@QEAAAEAV12@_K0@Z 0000000180002fbc f i MetadataImpl.obj
 0001:00001fbc       ?erase@?$basic_string@DU?$char_traits@D@std@@V?$allocator@D@2@@std@@QEAAAEAV12@_K0@Z 0000000180002fbc f i WXMPDocOps.obj
 0001:0000205c       ?_Grow@?$basic_string@DU?$char_traits@D@std@@V?$allocator@D@2@@std@@QEAA_N_K_N@Z 000000018000305c f i WXMPDocOps.obj
 0001:0000212c       ?_Copy@?$basic_string@DU?$char_traits@D@std@@V?$allocator@D@2@@std@@QEAAX_K0@Z 000000018000312c f i WXMPDocOps.obj
 0001:00002238       WXMPIterator_PropCTor_1    0000000180003238 f   WXMPIterator.obj
 0001:000023b8       WXMPIterator_TableCTor_1   00000001800033b8 f   WXMPIterator.obj
 0001:00002440       WXMPIterator_Next_1        0000000180003440 f   WXMPIterator.obj
 0001:00002670       WXMPIterator_Skip_1        0000000180003670 f   WXMPIterator.obj
 0001:000027e0       WXMPMeta_GetVersionInfo_1  00000001800037e0 f   WXMPMeta.obj
 0001:00002820       WXMPMeta_Initialize_1      0000000180003820 f   WXMPMeta.obj
 0001:0000289c       WXMPMeta_Terminate_1       000000018000389c f   WXMPMeta.obj
 0001:000028b4       WXMPMeta_CTor_1            00000001800038b4 f   WXMPMeta.obj
 0001:00002930       WXMPMeta_GetGlobalOptions_1 0000000180003930 f   WXMPMeta.obj
 0001:0000293c       WXMPMeta_SetGlobalOptions_1 000000018000393c f   WXMPMeta.obj
 0001:00002998       WXMPMeta_GetMemProcs_1     0000000180003998 f   WXMPMeta.obj
 0001:00002a14       WXMPMeta_RegisterAssertNotify_1 0000000180003a14 f   WXMPMeta.obj
 0001:00002a8c       WXMPMeta_UnregisterAssertNotify_1 0000000180003a8c f   WXMPMeta.obj
 0001:00002ab0       WXMPMeta_DumpNamespaces_1  0000000180003ab0 f   WXMPMeta.obj
 0001:00002b24       WXMPMeta_DumpPropertyTraits_1 0000000180003b24 f   WXMPMeta.obj
 0001:00002bb8       WXMPMeta_RegisterNamespace_1 0000000180003bb8 f   WXMPMeta.obj
 0001:00002cd4       WXMPMeta_GetNamespacePrefix_1 0000000180003cd4 f   WXMPMeta.obj
 0001:00002da0       WXMPMeta_GetNamespaceURI_1 0000000180003da0 f   WXMPMeta.obj
 0001:00002e64       WXMPMeta_DeleteNamespace_1 0000000180003e64 f   WXMPMeta.obj
 0001:00002f10       WXMPMeta_RegisterPropertyTraits_1 0000000180003f10 f   WXMPMeta.obj
 0001:00003014       WXMPMeta_GetProperty_1     0000000180004014 f   WXMPMeta.obj
 0001:0000320c       WXMPMeta_GetArrayItem_1    000000018000420c f   WXMPMeta.obj
 0001:0000341c       WXMPMeta_GetStructField_1  000000018000441c f   WXMPMeta.obj
 0001:000036fc       WXMPMeta_GetQualifier_1    00000001800046fc f   WXMPMeta.obj
 0001:000039dc       WXMPMeta_SetProperty_1     00000001800049dc f   WXMPMeta.obj
 0001:00003b78       WXMPMeta_SetArrayItem_1    0000000180004b78 f   WXMPMeta.obj
 0001:00003d24       WXMPMeta_AppendArrayItem_1 0000000180004d24 f   WXMPMeta.obj
 0001:00003ed0       WXMPMeta_SetStructField_1  0000000180004ed0 f   WXMPMeta.obj
 0001:00004144       WXMPMeta_SetQualifier_1    0000000180005144 f   WXMPMeta.obj
 0001:000043bc       WXMPMeta_DeleteProperty_1  00000001800053bc f   WXMPMeta.obj
 0001:00004534       WXMPMeta_DeleteArrayItem_1 0000000180005534 f   WXMPMeta.obj
 0001:000046c4       WXMPMeta_DeleteStructField_1 00000001800056c4 f   WXMPMeta.obj
 0001:00004918       WXMPMeta_DeleteQualifier_1 0000000180005918 f   WXMPMeta.obj
 0001:00004b6c       WXMPMeta_DoesPropertyExist_1 0000000180005b6c f   WXMPMeta.obj
 0001:00004cf8       WXMPMeta_DoesArrayItemExist_1 0000000180005cf8 f   WXMPMeta.obj
 0001:00004f2c       WXMPMeta_DoesStructFieldExist_1 0000000180005f2c f   WXMPMeta.obj
 0001:00005250       WXMPMeta_DoesQualifierExist_1 0000000180006250 f   WXMPMeta.obj
 0001:00005574       WXMPMeta_GetLocalizedText_1 0000000180006574 f   WXMPMeta.obj
 0001:00005840       WXMPMeta_SetLocalizedText_1 0000000180006840 f   WXMPMeta.obj
 0001:00005a74       WXMPMeta_DeleteLocalizedText_1 0000000180006a74 f   WXMPMeta.obj
 0001:00005c80       WXMPMeta_GetProperty_Bool_1 0000000180006c80 f   WXMPMeta.obj
 0001:00005ed8       WXMPMeta_GetProperty_Int_1 0000000180006ed8 f   WXMPMeta.obj
 0001:0000609c       WXMPMeta_GetProperty_Int64_1 000000018000709c f   WXMPMeta.obj
 0001:00006260       WXMPMeta_GetProperty_Float_1 0000000180007260 f   WXMPMeta.obj
 0001:00006424       WXMPMeta_GetProperty_Date_1 0000000180007424 f   WXMPMeta.obj
 0001:00006678       WXMPMeta_SetProperty_Bool_1 0000000180007678 f   WXMPMeta.obj
 0001:00006818       WXMPMeta_SetProperty_Int_1 0000000180007818 f   WXMPMeta.obj
 0001:000069b4       WXMPMeta_SetProperty_Int64_1 00000001800079b4 f   WXMPMeta.obj
 0001:00006bfc       WXMPMeta_SetProperty_Float_1 0000000180007bfc f   WXMPMeta.obj
 0001:00006e48       WXMPMeta_SetProperty_Date_1 0000000180007e48 f   WXMPMeta.obj
 0001:00006fe4       WXMPMeta_DumpObject_1      0000000180007fe4 f   WXMPMeta.obj
 0001:00007114       WXMPMeta_Sort_1            0000000180008114 f   WXMPMeta.obj
 0001:000071c4       WXMPMeta_Erase_1           00000001800081c4 f   WXMPMeta.obj
 0001:00007274       WXMPMeta_Clone_1           0000000180008274 f   WXMPMeta.obj
 0001:000073e4       WXMPMeta_GetIXMPMetadata_1 00000001800083e4 f   WXMPMeta.obj
 0001:000074d4       WXMPMeta_CountArrayItems_1 00000001800084d4 f   WXMPMeta.obj
 0001:00007660       WXMPMeta_MarkStaleProperties_1 0000000180008660 f   WXMPMeta.obj
 0001:00007758       WXMPMeta_GetObjectName_1   0000000180008758 f   WXMPMeta.obj
 0001:00007850       WXMPMeta_SetObjectName_1   0000000180008850 f   WXMPMeta.obj
 0001:00007920       WXMPMeta_GetObjectOptions_1 0000000180008920 f   WXMPMeta.obj
 0001:000079c4       WXMPMeta_SetObjectOptions_1 00000001800089c4 f   WXMPMeta.obj
 0001:00007abc       WXMPMeta_ParseFromBuffer_1 0000000180008abc f   WXMPMeta.obj
 0001:00007b94       WXMPMeta_SerializeToBuffer_1 0000000180008b94 f   WXMPMeta.obj
 0001:00007d5c       WXMPMeta_SetDefaultErrorCallback_1 0000000180008d5c f   WXMPMeta.obj
 0001:00007d84       WXMPMeta_SetErrorCallback_1 0000000180008d84 f   WXMPMeta.obj
 0001:00007e78       WXMPMeta_ResetErrorCallbackLimit_1 0000000180008e78 f   WXMPMeta.obj
 0001:00007f3c       WXMPMeta_Use_CPP_DOM_APIs_1 0000000180008f3c f   WXMPMeta.obj
 0001:00007f48       WXMPUtils_ComposeArrayItemPath_1 0000000180008f48 f   WXMPUtils.obj
 0001:000080b0       WXMPUtils_ComposeStructFieldPath_1 00000001800090b0 f   WXMPUtils.obj
 0001:00008310       WXMPUtils_ComposeQualifierPath_1 0000000180009310 f   WXMPUtils.obj
 0001:00008570       WXMPUtils_ComposeLangSelector_1 0000000180009570 f   WXMPUtils.obj
 0001:00008758       WXMPUtils_ComposeFieldSelector_1 0000000180009758 f   WXMPUtils.obj
 0001:000089d8       WXMPUtils_ConvertFromBool_1 00000001800099d8 f   WXMPUtils.obj
 0001:00008abc       WXMPUtils_ConvertFromInt_1 0000000180009abc f   WXMPUtils.obj
 0001:00008b70       WXMPUtils_ConvertFromInt64_1 0000000180009b70 f   WXMPUtils.obj
 0001:00008c24       WXMPUtils_ConvertFromFloat_1 0000000180009c24 f   WXMPUtils.obj
 0001:00008cd8       WXMPUtils_ConvertFromDate_1 0000000180009cd8 f   WXMPUtils.obj
 0001:00008d70       WXMPUtils_ConvertToBool_1  0000000180009d70 f   WXMPUtils.obj
 0001:00008de8       WXMPUtils_ConvertToInt_1   0000000180009de8 f   WXMPUtils.obj
 0001:00008e5c       WXMPUtils_ConvertToInt64_1 0000000180009e5c f   WXMPUtils.obj
 0001:00008ed4       WXMPUtils_ConvertToFloat_1 0000000180009ed4 f   WXMPUtils.obj
 0001:00008f4c       WXMPUtils_ConvertToDate_1  0000000180009f4c f   WXMPUtils.obj
 0001:00008fb0       WXMPUtils_CurrentDateTime_1 0000000180009fb0 f   WXMPUtils.obj
 0001:00009014       WXMPUtils_SetTimeZone_1    000000018000a014 f   WXMPUtils.obj
 0001:00009078       WXMPUtils_ConvertToUTCTime_1 000000018000a078 f   WXMPUtils.obj
 0001:000090dc       WXMPUtils_ConvertToLocalTime_1 000000018000a0dc f   WXMPUtils.obj
 0001:00009140       WXMPUtils_CompareDateTime_1 000000018000a140 f   WXMPUtils.obj
 0001:0000915c       WXMPUtils_EncodeToBase64_1 000000018000a15c f   WXMPUtils.obj
 0001:000091fc       WXMPUtils_DecodeFromBase64_1 000000018000a1fc f   WXMPUtils.obj
 0001:0000929c       WXMPUtils_PackageForJPEG_1 000000018000a29c f   WXMPUtils.obj
 0001:000094c4       WXMPUtils_MergeFromJPEG_1  000000018000a4c4 f   WXMPUtils.obj
 0001:0000968c       WXMPUtils_CatenateArrayItems_1 000000018000a68c f   WXMPUtils.obj
 0001:00009904       WXMPUtils_SeparateArrayItems_1 000000018000a904 f   WXMPUtils.obj
 0001:00009af4       WXMPUtils_ApplyTemplate_1  000000018000aaf4 f   WXMPUtils.obj
 0001:00009c0c       WXMPUtils_RemoveProperties_1 000000018000ac0c f   WXMPUtils.obj
 0001:00009d2c       WXMPUtils_AppendProperties_1 000000018000ad2c f   WXMPUtils.obj
 0001:00009ef4       WXMPUtils_DuplicateSubtree_1 000000018000aef4 f   WXMPUtils.obj
 0001:0000a178       WXMPUtils_CollectMultiFileXMP_1 000000018000b178 f   WXMPUtils.obj
 0001:0000a338       WXMPUtils_DistributeMultiFileXMP_1 000000018000b338 f   WXMPUtils.obj
 0001:0000a4f8       WXMPUtils_IsPropertyMultiValued_1 000000018000b4f8 f   WXMPUtils.obj
 0001:0000a674       WXMPUtils_GetDateRange_1   000000018000b674 f   WXMPUtils.obj
 0001:0000a814       WXMPUtils_GetMergedListPath_1 000000018000b814 f   WXMPUtils.obj
 0001:0000aa40       WXMPUtils_RemoveMultiValueInfo_1 000000018000ba40 f   WXMPUtils.obj
 0001:0000ab4c       WXMPUtils_GetBulkMarkers_1 000000018000bb4c f   WXMPUtils.obj
 0001:0000ac9c       WXMPUtils_SetBulkMarkers_1 000000018000bc9c f   WXMPUtils.obj
 0001:0000ae20       ?ConjureUURI@XMPDocOpsUtils@@SAXPEBDPEAV?$basic_string@DU?$char_traits@D@std@@V?$allocator@D@2@@std@@PEAVXMP_ReadWriteLock@@@Z 000000018000be20 f   XMPDocOps-Utils.obj
 0001:0000b0f0       ?GetLastModTime@XMPDocOpsUtils@@SA_NAEBVXMPMeta@@PEAUXMP_DateTime@@@Z 000000018000c0f0 f   XMPDocOps-Utils.obj
 0001:0000b27c       ?EnsureHistoryForm@XMPDocOpsUtils@@SAXPEAVXMPMeta@@@Z 000000018000c27c f   XMPDocOps-Utils.obj
 0001:0000b2e0       ?FillResourceRef@XMPDocOpsUtils@@SAXAEBVXMPMeta@@PEAV2@PEBD2@Z 000000018000c2e0 f   XMPDocOps-Utils.obj
 0001:0000b6b0       ?NormalizePartPath@XMPDocOpsUtils@@SAXAEAV?$basic_string@DU?$char_traits@D@std@@V?$allocator@D@2@@std@@@Z 000000018000c6b0 f   XMPDocOps-Utils.obj
 0001:0000b7e4       ?NormalizePartsList@XMPDocOpsUtils@@SAXPEAVXMP_Node@@@Z 000000018000c7e4 f   XMPDocOps-Utils.obj
 0001:0000b9ec       ?PruneOneRedundantRun@XMPDocOpsUtils@@SAJPEAVXMP_Node@@J@Z 000000018000c9ec f   XMPDocOps-Utils.obj
 0001:0000bba8       ?IsPartInList@XMPDocOpsUtils@@SA_NPEAPEBDJAEBVXMP_Node@@@Z 000000018000cba8 f   XMPDocOps-Utils.obj
 0001:0000bdcc       ??4?$basic_string@DU?$char_traits@D@std@@V?$allocator@D@2@@std@@QEAAAEAV01@PEBD@Z 000000018000cdcc f i XMPDocOps-Utils.obj
 0001:0000be04       ?insert@?$basic_string@DU?$char_traits@D@std@@V?$allocator@D@2@@std@@QEAAAEAV12@_K0D@Z 000000018000ce04 f i XMPDocOps-Utils.obj
 0001:0000bf18       ?compare@?$basic_string@DU?$char_traits@D@std@@V?$allocator@D@2@@std@@QEBAH_K0AEBV12@@Z 000000018000cf18 f i XMPDocOps-Utils.obj
 0001:0000bfb8       ??1?$vector@VXPathStepInfo@@V?$allocator@VXPathStepInfo@@@std@@@std@@QEAA@XZ 000000018000cfb8 f i XMPDocOps-Utils.obj
 0001:0000bfc0       ?append@?$basic_string@DU?$char_traits@D@std@@V?$allocator@D@2@@std@@QEAAAEAV12@AEBV12@_K1@Z 000000018000cfc0 f i XMPDocOps-Utils.obj
 0001:0000c0dc       ?append@?$basic_string@DU?$char_traits@D@std@@V?$allocator@D@2@@std@@QEAAAEAV12@PEBD_K@Z 000000018000d0dc f i XMPDocOps-Utils.obj
 0001:0000c214       ?append@?$basic_string@DU?$char_traits@D@std@@V?$allocator@D@2@@std@@QEAAAEAV12@_KD@Z 000000018000d214 f i XMPDocOps-Utils.obj
 0001:0000c310       ?find@?$basic_string@DU?$char_traits@D@std@@V?$allocator@D@2@@std@@QEBA_KPEBD_K1@Z 000000018000d310 f i XMPDocOps-Utils.obj
 0001:0000c310       ?find@?$basic_string@DU?$char_traits@D@std@@V?$TAllocator@D@AdobeXMPCore_Int@@@std@@QEBA_KPEBD_K1@Z 000000018000d310 f i UTF8StringImpl.obj
 0001:0000c3e8       ?_Tidy@?$vector@VXPathStepInfo@@V?$allocator@VXPathStepInfo@@@std@@@std@@IEAAXXZ 000000018000d3e8 f i XMPDocOps-Utils.obj
 0001:0000c464       ??$?8DU?$char_traits@D@std@@V?$allocator@D@1@@std@@YA_NAEBV?$basic_string@DU?$char_traits@D@std@@V?$allocator@D@2@@0@PEBD@Z 000000018000d464 f i XMPDocOps-Utils.obj
 0001:0000c500       ??$?8DU?$char_traits@D@std@@V?$allocator@D@1@@std@@YA_NAEBV?$basic_string@DU?$char_traits@D@std@@V?$allocator@D@2@@0@0@Z 000000018000d500 f i XMPDocOps-Utils.obj
 0001:0000c578       ?_Decwref@_Ref_count_base@std@@QEAAXXZ 000000018000d578 f i XMPDocOps-Utils2.obj
 0001:0000c590       ?PruneOneRedundantRun_v2@XMPDocOpsUtils@@SAJAEBV?$shared_ptr@VIArrayNode_v1@AdobeXMPCore@@@std@@J@Z 000000018000d590 f   XMPDocOps-Utils2.obj
 0001:0000ce6c       ?IsPartInList_v2@XMPDocOpsUtils@@SA_NPEAPEBDJAEBV?$shared_ptr@VINode_v1@AdobeXMPCore@@@std@@@Z 000000018000de6c f   XMPDocOps-Utils2.obj
 0001:0000d12c       ?NormalizePartsList_v2@XMPDocOpsUtils@@SAXAEBV?$shared_ptr@VINode_v1@AdobeXMPCore@@@std@@@Z 000000018000e12c f   XMPDocOps-Utils2.obj
 0001:0000d39c       ?GetLastModTime_v2@XMPDocOpsUtils@@SA_NAEBVXMPMeta@@PEAUXMP_DateTime@@@Z 000000018000e39c f   XMPDocOps-Utils2.obj
 0001:0000daa8       ??1?$shared_ptr@$$CBVISimpleNode_v1@AdobeXMPCore@@@std@@QEAA@XZ 000000018000eaa8 f i XMPIterator2.obj
 0001:0000daa8       ??1?$shared_ptr@VIUTF8String_v1@AdobeXMPCommon@@@std@@QEAA@XZ 000000018000eaa8 f i XMPMeta2-GetSet.obj
 0001:0000daa8       ??1?$shared_ptr@VINameSpacePrefixMap_I@AdobeXMPCore_Int@@@std@@QEAA@XZ 000000018000eaa8 f i RDFDOMSerializerImpl.obj
 0001:0000daa8       ??1?$shared_ptr@VIArrayNode_v1@AdobeXMPCore@@@std@@QEAA@XZ 000000018000eaa8 f i XMPDocOps-Utils2.obj
 0001:0000daa8       ??1?$shared_ptr@VIDOMSerializer_v1@AdobeXMPCore@@@std@@QEAA@XZ 000000018000eaa8 f i XMPMeta2-GetSet.obj
 0001:0000daa8       ??1?$shared_ptr@VINode_v1@AdobeXMPCore@@@std@@QEAA@XZ 000000018000eaa8 f i XMPDocOps-Utils2.obj
 0001:0000daa8       ??1?$shared_ptr@VRDFDOMSerializerImpl@AdobeXMPCore_Int@@@std@@QEAA@XZ 000000018000eaa8 f i DOMImplementationRegistryImpl.obj
 0001:0000daa8       ??1?$shared_ptr@VIPath_v1@AdobeXMPCore@@@std@@QEAA@XZ 000000018000eaa8 f i ICompositeNode_I.obj
 0001:0000daa8       ??1?$shared_ptr@VMetadataImpl@AdobeXMPCore_Int@@@std@@QEAA@XZ 000000018000eaa8 f i MetadataImpl.obj
 0001:0000daa8       ??1?$shared_ptr@$$CBVINameSpacePrefixMap_I@AdobeXMPCore_Int@@@std@@QEAA@XZ 000000018000eaa8 f i RDFDOMSerializerImpl.obj
 0001:0000daa8       ??1?$shared_ptr@VISharedMutex@AdobeXMPCore_Int@@@std@@QEAA@XZ 000000018000eaa8 f i ArrayNodeImpl.obj
 0001:0000daa8       ??1?$shared_ptr@VINameSpacePrefixMap_v1@AdobeXMPCore@@@std@@QEAA@XZ 000000018000eaa8 f i IDOMSerializer_I.obj
 0001:0000daa8       ??1?$shared_ptr@$$CBVINodeIterator_v1@AdobeXMPCore@@@std@@QEAA@XZ 000000018000eaa8 f i XMPIterator2.obj
 0001:0000daa8       ??1?$shared_ptr@VXMPMeta@@@std@@QEAA@XZ 000000018000eaa8 f i RDFDOMParserImpl.obj
 0001:0000daa8       ??1?$shared_ptr@VRDFDOMParserImpl@AdobeXMPCore_Int@@@std@@QEAA@XZ 000000018000eaa8 f i DOMImplementationRegistryImpl.obj
 0001:0000daa8       ??1?$shared_ptr@$$CBVIUTF8String_v1@AdobeXMPCommon@@@std@@QEAA@XZ 000000018000eaa8 f i XMPDocOps-Utils2.obj
 0001:0000daa8       ??1?$shared_ptr@VIDOMImplementationRegistry_v1@AdobeXMPCore@@@std@@QEAA@XZ 000000018000eaa8 f i XMPMeta2-GetSet.obj
 0001:0000daa8       ??1?$shared_ptr@$$CBVIDOMSerializer_v1@AdobeXMPCore@@@std@@QEAA@XZ 000000018000eaa8 f i IDOMImplementationRegistry_I.obj
 0001:0000daa8       ??1?$shared_ptr@$$CBVIArrayNode_v1@AdobeXMPCore@@@std@@QEAA@XZ 000000018000eaa8 f i XMPMeta-GetSet.obj
 0001:0000daa8       ??1?$shared_ptr@VIDOMParser_v1@AdobeXMPCore@@@std@@QEAA@XZ 000000018000eaa8 f i XMPMeta2-GetSet.obj
 0001:0000daa8       ??1?$shared_ptr@VISimpleNode_v1@AdobeXMPCore@@@std@@QEAA@XZ 000000018000eaa8 f i XMPDocOps-Utils2.obj
 0001:0000daa8       ??1?$shared_ptr@$$CBVINameSpacePrefixMap_v1@AdobeXMPCore@@@std@@QEAA@XZ 000000018000eaa8 f i XMPIterator2.obj
 0001:0000daa8       ??1?$shared_ptr@VUTF8StringImpl@AdobeXMPCore_Int@@@std@@QEAA@XZ 000000018000eaa8 f i UTF8StringImpl.obj
 0001:0000daa8       ??1?$shared_ptr@VIStructureNode_v1@AdobeXMPCore@@@std@@QEAA@XZ 000000018000eaa8 f i XMPMeta-GetSet.obj
 0001:0000daa8       ??1?$shared_ptr@VIMetadata_v1@AdobeXMPCore@@@std@@QEAA@XZ 000000018000eaa8 f i XMPIterator2.obj
 0001:0000daa8       ??1?$shared_ptr@VIError_v1@AdobeXMPCommon@@@std@@QEAA@XZ 000000018000eaa8 f i ClientDOMParserWrapperImpl.obj
 0001:0000daa8       ??1?$shared_ptr@VINodeIterator_v1@AdobeXMPCore@@@std@@QEAA@XZ 000000018000eaa8 f i XMPIterator2.obj
 0001:0000daa8       ??1?$shared_ptr@$$CBVIError_v1@AdobeXMPCommon@@@std@@QEAA@XZ 000000018000eaa8 f i IArrayNode_I.obj
 0001:0000daa8       ??1?$shared_ptr@VICoreConfigurationManager_v1@AdobeXMPCore@@@std@@QEAA@XZ 000000018000eaa8 f i XMPMeta.obj
 0001:0000daa8       ??1?$shared_ptr@$$CBVIPathSegment_v1@AdobeXMPCore@@@std@@QEAA@XZ 000000018000eaa8 f i IPath_I.obj
 0001:0000daa8       ??1?$shared_ptr@$$CBVIDOMParser_v1@AdobeXMPCore@@@std@@QEAA@XZ 000000018000eaa8 f i IDOMImplementationRegistry_I.obj
 0001:0000daa8       ??1?$shared_ptr@$$CBVIStructureNode_v1@AdobeXMPCore@@@std@@QEAA@XZ 000000018000eaa8 f i XMPMeta-GetSet.obj
 0001:0000daa8       ??1?$shared_ptr@$$CBVINode_v1@AdobeXMPCore@@@std@@QEAA@XZ 000000018000eaa8 f i XMPDocOps-Utils2.obj
 0001:0000daa8       ??1?$shared_ptr@VIError_I@AdobeXMPCore_Int@@@std@@QEAA@XZ 000000018000eaa8 f i IArrayNode_I.obj
 0001:0000dadc       ??4?$shared_ptr@VIStructureNode_v1@AdobeXMPCore@@@std@@QEAAAEAV01@$$QEAV01@@Z 000000018000eadc f i XMPMeta-GetSet.obj
 0001:0000dadc       ??4?$shared_ptr@VINodeIterator_v1@AdobeXMPCore@@@std@@QEAAAEAV01@$$QEAV01@@Z 000000018000eadc f i XMPIterator2.obj
 0001:0000dadc       ??4?$shared_ptr@VIUTF8String_v1@AdobeXMPCommon@@@std@@QEAAAEAV01@$$QEAV01@@Z 000000018000eadc f i XMPMeta2-GetSet.obj
 0001:0000dadc       ??4?$shared_ptr@$$CBVINodeIterator_v1@AdobeXMPCore@@@std@@QEAAAEAV01@$$QEAV01@@Z 000000018000eadc f i XMPIterator2.obj
 0001:0000dadc       ??4?$shared_ptr@VISimpleNode_v1@AdobeXMPCore@@@std@@QEAAAEAV01@$$QEAV01@@Z 000000018000eadc f i XMPMeta-GetSet.obj
 0001:0000dadc       ??4?$shared_ptr@VINode_v1@AdobeXMPCore@@@std@@QEAAAEAV01@$$QEAV01@@Z 000000018000eadc f i XMPDocOps-Utils2.obj
 0001:0000dadc       ??4?$shared_ptr@$$CBVIUTF8String_v1@AdobeXMPCommon@@@std@@QEAAAEAV01@$$QEAV01@@Z 000000018000eadc f i XMPDocOps-Utils2.obj
 0001:0000dadc       ??4?$shared_ptr@VIArrayNode_v1@AdobeXMPCore@@@std@@QEAAAEAV01@$$QEAV01@@Z 000000018000eadc f i XMPDocOps-Utils2.obj
 0001:0000dadc       ??4?$shared_ptr@VIMetadata_v1@AdobeXMPCore@@@std@@QEAAAEAV01@$$QEAV01@@Z 000000018000eadc f i XMPMeta2-GetSet.obj
 0001:0000db64       ??0?$shared_ptr@VINode_v1@AdobeXMPCore@@@std@@QEAA@AEBV01@@Z 000000018000eb64 f i XMPDocOps2.obj
 0001:0000db64       ??0?$shared_ptr@$$CBVIUTF8String_v1@AdobeXMPCommon@@@std@@QEAA@AEBV01@@Z 000000018000eb64 f i DOMImplementationRegistryImpl.obj
 0001:0000db64       ??$?0VIUTF8String_v1@AdobeXMPCommon@@X@?$shared_ptr@$$CBVIUTF8String_v1@AdobeXMPCommon@@@std@@QEAA@AEBV?$shared_ptr@VIUTF8String_v1@AdobeXMPCommon@@@1@@Z 000000018000eb64 f i ArrayNodeImpl.obj
 0001:0000db64       ??0?$shared_ptr@VISharedMutex@AdobeXMPCore_Int@@@std@@QEAA@AEBV01@@Z 000000018000eb64 f i DOMParserImpl.obj
 0001:0000db64       ??0?$shared_ptr@$$CBVINode_v1@AdobeXMPCore@@@std@@QEAA@AEBV01@@Z 000000018000eb64 f i XMPMeta-GetSet.obj
 0001:0000db64       ??$?0VINode_v1@AdobeXMPCore@@X@?$shared_ptr@$$CBVINode_v1@AdobeXMPCore@@@std@@QEAA@AEBV?$shared_ptr@VINode_v1@AdobeXMPCore@@@1@@Z 000000018000eb64 f i XMPDocOps-Utils2.obj
 0001:0000db64       ??0?$shared_ptr@VIError_I@AdobeXMPCore_Int@@@std@@QEAA@AEBV01@@Z 000000018000eb64 f i IArrayNode_I.obj
 0001:0000db64       ??0?$shared_ptr@$$CBVIError_v1@AdobeXMPCommon@@@std@@QEAA@AEBV01@@Z 000000018000eb64 f i ArrayNodeImpl.obj
 0001:0000dbdc       ??0XMPDocOps@@QEAA@XZ      000000018000ebdc f   XMPDocOps.obj
 0001:0000dc78       ??_GXMPDocOps@@UEAAPEAXI@Z 000000018000ec78 f i XMPDocOps.obj
 0001:0000dc78       ??_EXMPDocOps@@UEAAPEAXI@Z 000000018000ec78 f i * CIL library *:* CIL module *
 0001:0000dcb0       ??1XMPDocOps@@UEAA@XZ      000000018000ecb0 f   XMPDocOps.obj
 0001:0000dd90       ?ResetDoc@XMPDocOps@@IEAAXPEAVXMPMeta@@@Z 000000018000ed90 f   XMPDocOps.obj
 0001:0000de1c       ?AppendHistory@XMPDocOps@@IEAAXPEBD0@Z 000000018000ee1c f   XMPDocOps.obj
 0001:0000deec       ?AppendHistory@XMPDocOps@@IEAAXPEBD000@Z 000000018000eeec f   XMPDocOps.obj
 0001:0000e1b8       ?PruneRedundantHistory@XMPDocOps@@MEAAXXZ 000000018000f1b8 f   XMPDocOps.obj
 0001:0000e300       ?NewXMP@XMPDocOps@@QEAAXPEAVXMPMeta@@PEBDK@Z 000000018000f300 f   XMPDocOps.obj
 0001:0000e428       ?OpenXMP@XMPDocOps@@QEAAXPEAVXMPMeta@@PEBD1PEAUXMP_DateTime@@K@Z 000000018000f428 f   XMPDocOps.obj
 0001:0000e660       ?BranchXMP@XMPDocOps@@QEAAXPEAV1@PEAVXMPMeta@@PEBDK@Z 000000018000f660 f   XMPDocOps.obj
 0001:0000e980       ?PrepareForSave@XMPDocOps@@QEAAXPEBD0PEAUXMP_DateTime@@K@Z 000000018000f980 f   XMPDocOps.obj
 0001:0000f170       ?NoteChange@XMPDocOps@@QEAAXPEAPEBDJ@Z 0000000180010170 f   XMPDocOps.obj
 0001:0000f6c4       ?InternalNoteChangeAll@XMPDocOps@@IEAAXXZ 00000001800106c4 f   XMPDocOps.obj
 0001:0000f820       ?HasPartChanged@XMPDocOps@@UEBACPEBDPEAPEBDJ@Z 0000000180010820 f   XMPDocOps.obj
 0001:0000fa7c       ?GetPartChangeID@XMPDocOps@@UEBA_NPEAPEBDJ0PEAK@Z 0000000180010a7c f   XMPDocOps.obj
 0001:0000fcc8       ?EnsureIDsExist@XMPDocOps@@QEAA_NK@Z 0000000180010cc8 f   XMPDocOps.obj
 0001:0000ff2c       ?Clone@XMPDocOps@@QEBAXPEAV1@K@Z 0000000180010f2c f   XMPDocOps.obj
 0001:000100fc       ??0?$basic_string@DU?$char_traits@D@std@@V?$allocator@D@2@@std@@QEAA@$$QEAV01@@Z 00000001800110fc f i XMPDocOps.obj
 0001:0001016c       ??1?$vector@V?$basic_string@DU?$char_traits@D@std@@V?$allocator@D@2@@std@@V?$allocator@V?$basic_string@DU?$char_traits@D@std@@V?$allocator@D@2@@std@@@2@@std@@QEAA@XZ 000000018001116c f i XMPDocOps.obj
 0001:00010174       ??4?$vector@V?$basic_string@DU?$char_traits@D@std@@V?$allocator@D@2@@std@@V?$allocator@V?$basic_string@DU?$char_traits@D@std@@V?$allocator@D@2@@std@@@2@@std@@QEAAAEAV01@AEBV01@@Z 0000000180011174 f i XMPDocOps.obj
 0001:000103b0       ?_Reserve@?$vector@V?$basic_string@DU?$char_traits@D@std@@V?$allocator@D@2@@std@@V?$allocator@V?$basic_string@DU?$char_traits@D@std@@V?$allocator@D@2@@std@@@2@@std@@IEAAX_K@Z 00000001800113b0 f i XMPDocOps.obj
 0001:00010428       ?_Tidy@?$vector@V?$basic_string@DU?$char_traits@D@std@@V?$allocator@D@2@@std@@V?$allocator@V?$basic_string@DU?$char_traits@D@std@@V?$allocator@D@2@@std@@@2@@std@@IEAAXXZ 0000000180011428 f i XMPDocOps.obj
 0001:000104a4       ?_Reallocate@?$vector@V?$basic_string@DU?$char_traits@D@std@@V?$allocator@D@2@@std@@V?$allocator@V?$basic_string@DU?$char_traits@D@std@@V?$allocator@D@2@@std@@@2@@std@@IEAAX_K@Z 00000001800114a4 f i XMPDocOps.obj
 0001:00010588       ??4?$basic_string@DU?$char_traits@D@std@@V?$allocator@D@2@@std@@QEAAAEAV01@$$QEAV01@@Z 0000000180011588 f i XMPDocOps.obj
 0001:00010618       ?replace@?$basic_string@DU?$char_traits@D@std@@V?$allocator@D@2@@std@@QEAAAEAV12@_K0AEBV12@00@Z 0000000180011618 f i XMPDocOps.obj
 0001:000109b4       ??$_Uninit_copy@PEAV?$basic_string@DU?$char_traits@D@std@@V?$allocator@D@2@@std@@PEAV12@V?$allocator@V?$basic_string@DU?$char_traits@D@std@@V?$allocator@D@2@@std@@@2@@std@@YAPEAV?$basic_string@DU?$char_traits@D@std@@V?$allocator@D@2@@0@PEAV10@00AEAU?$_Wrap_alloc@V?$allocator@V?$basic_string@DU?$char_traits@D@std@@V?$allocator@D@2@@std@@@std@@@0@U_Nonscalar_ptr_iterator_tag@0@@Z 00000001800119b4 f i XMPDocOps.obj
 0001:00010a28       ??$_Uninit_move@PEAV?$basic_string@DU?$char_traits@D@std@@V?$allocator@D@2@@std@@PEAV12@V?$allocator@V?$basic_string@DU?$char_traits@D@std@@V?$allocator@D@2@@std@@@2@V12@@std@@YAPEAV?$basic_string@DU?$char_traits@D@std@@V?$allocator@D@2@@0@PEAV10@00AEAU?$_Wrap_alloc@V?$allocator@V?$basic_string@DU?$char_traits@D@std@@V?$allocator@D@2@@std@@@std@@@0@0U_Nonscalar_ptr_iterator_tag@0@@Z 0000000180011a28 f i XMPDocOps.obj
 0001:00010a78       ??_EXMPDocOps2@@UEAAPEAXI@Z 0000000180011a78 f i * CIL library *:* CIL module *
 0001:00010a78       ??_GXMPDocOps2@@UEAAPEAXI@Z 0000000180011a78 f i XMPDocOps2.obj
 0001:00010ab4       ?GetPartChangeID@XMPDocOps2@@UEBA_NPEAPEBDJ0PEAK@Z 0000000180011ab4 f   XMPDocOps2.obj
 0001:00011adc       ?HasPartChanged@XMPDocOps2@@UEBACPEBDPEAPEBDJ@Z 0000000180012adc f   XMPDocOps2.obj
 0001:00012aa8       ?PruneRedundantHistory@XMPDocOps2@@EEAAXXZ 0000000180013aa8 f   XMPDocOps2.obj
 0001:00012f60       ??4?$shared_ptr@VINode_v1@AdobeXMPCore@@@std@@QEAAAEAV01@AEBV01@@Z 0000000180013f60 f i XMPDocOps2.obj
 0001:00012fc8       ??$?0VIStructureNode_v1@AdobeXMPCore@@X@?$shared_ptr@VINode_v1@AdobeXMPCore@@@std@@QEAA@AEBV?$shared_ptr@VIStructureNode_v1@AdobeXMPCore@@@1@@Z 0000000180013fc8 f i XMPMeta-GetSet.obj
 0001:00012fc8       ??$?0VIMetadata_v1@AdobeXMPCore@@X@?$shared_ptr@$$CBVINode_v1@AdobeXMPCore@@@std@@QEAA@AEBV?$shared_ptr@VIMetadata_v1@AdobeXMPCore@@@1@@Z 0000000180013fc8 f i XMPMeta2-GetSet.obj
 0001:00012fc8       ??$?0VIArrayNode_v1@AdobeXMPCore@@X@?$shared_ptr@VINode_v1@AdobeXMPCore@@@std@@QEAA@AEBV?$shared_ptr@VIArrayNode_v1@AdobeXMPCore@@@1@@Z 0000000180013fc8 f i XMPDocOps2.obj
 0001:00012fc8       ??$?0VIArrayNode_v1@AdobeXMPCore@@X@?$shared_ptr@$$CBVINode_v1@AdobeXMPCore@@@std@@QEAA@AEBV?$shared_ptr@VIArrayNode_v1@AdobeXMPCore@@@1@@Z 0000000180013fc8 f i XMPDocOps2.obj
 0001:00012fc8       ??$?0VISimpleNode_v1@AdobeXMPCore@@X@?$shared_ptr@VINode_v1@AdobeXMPCore@@@std@@QEAA@AEBV?$shared_ptr@VISimpleNode_v1@AdobeXMPCore@@@1@@Z 0000000180013fc8 f i XMPMeta-GetSet.obj
 0001:00012fc8       ??$?0VIMetadata_v1@AdobeXMPCore@@X@?$shared_ptr@VINode_v1@AdobeXMPCore@@@std@@QEAA@AEBV?$shared_ptr@VIMetadata_v1@AdobeXMPCore@@@1@@Z 0000000180013fc8 f i XMPMeta2-GetSet.obj
 0001:00013058       ??$?4VIArrayNode_v1@AdobeXMPCore@@@?$shared_ptr@VINode_v1@AdobeXMPCore@@@std@@QEAAAEAV01@AEBV?$shared_ptr@VIArrayNode_v1@AdobeXMPCore@@@1@@Z 0000000180014058 f i XMPDocOps2.obj
 0001:00013058       ??$?4VIStructureNode_v1@AdobeXMPCore@@@?$shared_ptr@VINode_v1@AdobeXMPCore@@@std@@QEAAAEAV01@AEBV?$shared_ptr@VIStructureNode_v1@AdobeXMPCore@@@1@@Z 0000000180014058 f i XMPUtils.obj
 0001:00013058       ??$?4VISimpleNode_v1@AdobeXMPCore@@@?$shared_ptr@VINode_v1@AdobeXMPCore@@@std@@QEAAAEAV01@AEBV?$shared_ptr@VISimpleNode_v1@AdobeXMPCore@@@1@@Z 0000000180014058 f i XMPUtils.obj
 0001:000130c0       ??0XMP_Node@@QEAA@PEAV0@PEBDK@Z 00000001800140c0 f i XMPIterator.obj
 0001:0001316c       ??1XMP_Node@@UEAA@XZ       000000018001416c f i XMPIterator.obj
 0001:000132a4       ??_EXMP_Node@@UEAAPEAXI@Z  00000001800142a4 f i * CIL library *:* CIL module *
 0001:000132a4       ??_GXMP_Node@@UEAAPEAXI@Z  00000001800142a4 f i XMPIterator.obj
 0001:000132dc       ??1IterNode@@QEAA@XZ       00000001800142dc f i XMPIterator.obj
 0001:000133a4       ??_EXMPIterator@@UEAAPEAXI@Z 00000001800143a4 f i * CIL library *:* CIL module *
 0001:000133a4       ??_GXMPIterator@@UEAAPEAXI@Z 00000001800143a4 f i XMPIterator.obj
 0001:000133dc       ??1IterInfo@@QEAA@XZ       00000001800143dc f i XMPIterator.obj
 0001:00013ba8       ??0XMPIterator@@QEAA@AEBVXMPMeta@@PEBD1K@Z 0000000180014ba8 f   XMPIterator.obj
 0001:00014174       ??0XMPIterator@@QEAA@PEBD0K@Z 0000000180015174 f   XMPIterator.obj
 0001:00014284       ??1XMPIterator@@UEAA@XZ    0000000180015284 f   XMPIterator.obj
 0001:00014314       ?Next@XMPIterator@@UEAA_NPEAPEBDPEAK01011@Z 0000000180015314 f   XMPIterator.obj
 0001:000144b0       ?Skip@XMPIterator@@UEAAXK@Z 00000001800154b0 f   XMPIterator.obj
 0001:0001456c       ??1?$vector@PEAVXMP_Node@@V?$allocator@PEAVXMP_Node@@@std@@@std@@QEAA@XZ 000000018001556c f i XMPIterator.obj
 0001:0001456c       ??1?$vector@JV?$allocator@J@std@@@std@@QEAA@XZ 000000018001556c f i XMPMeta-GetSet.obj
 0001:0001456c       ??1?$_Vb_val@V?$allocator@_N@std@@@std@@QEAA@XZ 000000018001556c f i XMPUtils-FileInfo.obj
 0001:0001456c       ??1?$vector@_KV?$allocator@_K@std@@@std@@QEAA@XZ 000000018001556c f i XMPMeta-GetSet.obj
 0001:0001456c       ??1?$vector@PEAVXML_Node@@V?$allocator@PEAVXML_Node@@@std@@@std@@QEAA@XZ 000000018001556c f i ExpatAdapter.obj
 0001:00014598       ?push_back@?$vector@UIterNode@@V?$allocator@UIterNode@@@std@@@std@@QEAAX$$QEAUIterNode@@@Z 0000000180015598 f i XMPIterator.obj
 0001:00014618       ??1?$vector@UIterNode@@V?$allocator@UIterNode@@@std@@@std@@QEAA@XZ 0000000180015618 f i XMPIterator.obj
 0001:00014678       ?push_back@?$vector@U?$pair@V?$_Vector_iterator@V?$_Vector_val@U?$_Simple_types@UIteratorNode@@@std@@@std@@@std@@V12@@std@@V?$allocator@U?$pair@V?$_Vector_iterator@V?$_Vector_val@U?$_Simple_types@UIteratorNode@@@std@@@std@@@std@@V12@@std@@@2@@std@@QEAAX$$QEAU?$pair@V?$_Vector_iterator@V?$_Vector_val@U?$_Simple_types@UIteratorNode@@@std@@@std@@@std@@V12@@2@@Z 0000000180015678 f i XMPIterator2.obj
 0001:00014678       ?push_back@?$vector@U?$pair@V?$_Vector_iterator@V?$_Vector_val@U?$_Simple_types@UIterNode@@@std@@@std@@@std@@V12@@std@@V?$allocator@U?$pair@V?$_Vector_iterator@V?$_Vector_val@U?$_Simple_types@UIterNode@@@std@@@std@@@std@@V12@@std@@@2@@std@@QEAAX$$QEAU?$pair@V?$_Vector_iterator@V?$_Vector_val@U?$_Simple_types@UIterNode@@@std@@@std@@@std@@V12@@2@@Z 0000000180015678 f i XMPIterator.obj
 0001:000147b4       ?_Reserve@?$vector@UIterNode@@V?$allocator@UIterNode@@@std@@@std@@IEAAX_K@Z 00000001800157b4 f i XMPIterator.obj
 0001:00014868       ?_Reallocate@?$vector@UIterNode@@V?$allocator@UIterNode@@@std@@@std@@IEAAX_K@Z 0000000180015868 f i XMPIterator.obj
 0001:0001495c       ?_Reallocate@?$vector@U?$pair@V?$_Vector_iterator@V?$_Vector_val@U?$_Simple_types@UIteratorNode@@@std@@@std@@@std@@V12@@std@@V?$allocator@U?$pair@V?$_Vector_iterator@V?$_Vector_val@U?$_Simple_types@UIteratorNode@@@std@@@std@@@std@@V12@@std@@@2@@std@@IEAAX_K@Z 000000018001595c f i XMPIterator2.obj
 0001:0001495c       ?_Reallocate@?$vector@U?$pair@V?$_Vector_iterator@V?$_Vector_val@U?$_Simple_types@UIterNode@@@std@@@std@@@std@@V12@@std@@V?$allocator@U?$pair@V?$_Vector_iterator@V?$_Vector_val@U?$_Simple_types@UIterNode@@@std@@@std@@@std@@V12@@std@@@2@@std@@IEAAX_K@Z 000000018001595c f i XMPIterator.obj
 0001:000149fc       ??$construct@UIterNode@@U1@@?$_Wrap_alloc@V?$allocator@UIterNode@@@std@@@std@@QEAAXPEAUIterNode@@$$QEAU2@@Z 00000001800159fc f i XMPIterator.obj
 0001:00014a88       ??0IterNode@@QEAA@AEBU0@@Z 0000000180015a88 f i XMPIterator.obj
 0001:00014b08       ??0?$vector@UIterNode@@V?$allocator@UIterNode@@@std@@@std@@QEAA@AEBV01@@Z 0000000180015b08 f i XMPIterator.obj
 0001:00014be0       ??$_Uninit_move@PEAUIterNode@@PEAU1@V?$allocator@UIterNode@@@std@@U1@@std@@YAPEAUIterNode@@PEAU1@00AEAU?$_Wrap_alloc@V?$allocator@UIterNode@@@std@@@0@0U_Nonscalar_ptr_iterator_tag@0@@Z 0000000180015be0 f i XMPIterator.obj
 0001:00014c40       ??$_Uninit_move@PEAU?$pair@V?$_Vector_iterator@V?$_Vector_val@U?$_Simple_types@UIterNode@@@std@@@std@@@std@@V12@@std@@PEAU12@V?$allocator@U?$pair@V?$_Vector_iterator@V?$_Vector_val@U?$_Simple_types@UIterNode@@@std@@@std@@@std@@V12@@std@@@2@U12@@std@@YAPEAU?$pair@V?$_Vector_iterator@V?$_Vector_val@U?$_Simple_types@UIterNode@@@std@@@std@@@std@@V12@@0@PEAU10@00AEAU?$_Wrap_alloc@V?$allocator@U?$pair@V?$_Vector_iterator@V?$_Vector_val@U?$_Simple_types@UIterNode@@@std@@@std@@@std@@V12@@std@@@std@@@0@0U_Nonscalar_ptr_iterator_tag@0@@Z 0000000180015c40 f i XMPIterator.obj
 0001:00014c40       ??$_Uninit_move@PEAU?$pair@V?$_Vector_iterator@V?$_Vector_val@U?$_Simple_types@UIteratorNode@@@std@@@std@@@std@@V12@@std@@PEAU12@V?$allocator@U?$pair@V?$_Vector_iterator@V?$_Vector_val@U?$_Simple_types@UIteratorNode@@@std@@@std@@@std@@V12@@std@@@2@U12@@std@@YAPEAU?$pair@V?$_Vector_iterator@V?$_Vector_val@U?$_Simple_types@UIteratorNode@@@std@@@std@@@std@@V12@@0@PEAU10@00AEAU?$_Wrap_alloc@V?$allocator@U?$pair@V?$_Vector_iterator@V?$_Vector_val@U?$_Simple_types@UIteratorNode@@@std@@@std@@@std@@V12@@std@@@std@@@0@0U_Nonscalar_ptr_iterator_tag@0@@Z 0000000180015c40 f i XMPIterator2.obj
 0001:00014c68       ??$_Uninit_copy@PEBUIterNode@@PEAU1@V?$allocator@UIterNode@@@std@@@std@@YAPEAUIterNode@@PEBU1@0PEAU1@AEAU?$_Wrap_alloc@V?$allocator@UIterNode@@@std@@@0@U_Nonscalar_ptr_iterator_tag@0@@Z 0000000180015c68 f i XMPIterator.obj
 0001:00014cc8       ?ConvertToSimpleNode@INode_v1@AdobeXMPCore@@QEBA?AV?$shared_ptr@$$CBVISimpleNode_v1@AdobeXMPCore@@@std@@XZ 0000000180015cc8 f i XMPIterator2.obj
 0001:00014d34       ?GetQualifier@INode_I@AdobeXMPCore_Int@@QEBA?AV?$shared_ptr@$$CBVINode_v1@AdobeXMPCore@@@std@@AEBV?$shared_ptr@$$CBVIUTF8String_v1@AdobeXMPCommon@@@4@0@Z 0000000180015d34 f i XMPUtils2.obj
 0001:00014d34       ?GetNode@INodeIterator_v1@AdobeXMPCore@@QEBA?AV?$shared_ptr@$$CBVINode_v1@AdobeXMPCore@@@std@@XZ 0000000180015d34 f i XMPIterator2.obj
 0001:00014da0       ?Next@INodeIterator_v1@AdobeXMPCore@@QEBA?AV?$shared_ptr@$$CBVINodeIterator_v1@AdobeXMPCore@@@std@@XZ 0000000180015da0 f i XMPIterator2.obj
 0001:00014da0       ?GetNodeAtIndex@IArrayNode_v1@AdobeXMPCore@@QEBA?AV?$shared_ptr@$$CBVINode_v1@AdobeXMPCore@@@std@@_K@Z 0000000180015da0 f i XMPUtils.obj
 0001:00014da0       ?GetParent@INode_v1@AdobeXMPCore@@QEBA?AV?$shared_ptr@$$CBVINode_v1@AdobeXMPCore@@@std@@XZ 0000000180015da0 f i XMPMeta2-GetSet.obj
 0001:00014e0c       ??0IteratorNode@@QEAA@KAEBV?$basic_string@DU?$char_traits@D@std@@V?$allocator@D@2@@std@@_K@Z 0000000180015e0c f i XMPIterator2.obj
 0001:00014e94       ??1IteratorNode@@QEAA@XZ   0000000180015e94 f i XMPIterator2.obj
 0001:00014f8c       ?GetNameSpace@@YA?AV?$basic_string@DU?$char_traits@D@std@@V?$allocator@D@2@@std@@AEBV?$shared_ptr@$$CBVIUTF8String_v1@AdobeXMPCommon@@@2@@Z 0000000180015f8c f   XMPIterator2.obj
 0001:000150b0       ?NodeFullName@@YA?AV?$basic_string@DU?$char_traits@D@std@@V?$allocator@D@2@@std@@AEBV?$shared_ptr@$$CBVINode_v1@AdobeXMPCore@@@2@@Z 00000001800160b0 f   XMPIterator2.obj
 0001:00015214       ?AddSchemaProperties@XMPIterator2@@AEAAXAEAUIteratorNode@@PEBD@Z 0000000180016214 f   XMPIterator2.obj
 0001:000154e0       ?AdvanceIteratorPosition@XMPIterator2@@AEAAXXZ 00000001800164e0 f   XMPIterator2.obj
 0001:00015698       ?GetNextNode@XMPIterator2@@AEAA?AV?$shared_ptr@VINode_v1@AdobeXMPCore@@@std@@AEA_N@Z 0000000180016698 f   XMPIterator2.obj
 0001:000158fc       ?AddNodeOffSpring@XMPIterator2@@AEAAXAEAUIteratorNode@@AEBV?$shared_ptr@VINode_v1@AdobeXMPCore@@@std@@@Z 00000001800168fc f   XMPIterator2.obj
 0001:00015f0c       ??0XMPIterator2@@QEAA@AEBVXMPMeta@@PEBD1K@Z 0000000180016f0c f   XMPIterator2.obj
 0001:00016ad8       ??_GXMPIterator2@@UEAAPEAXI@Z 0000000180017ad8 f i XMPIterator2.obj
 0001:00016ad8       ??_EXMPIterator2@@UEAAPEAXI@Z 0000000180017ad8 f i * CIL library *:* CIL module *
 0001:00016b10       ??1IteratorState@@QEAA@XZ  0000000180017b10 f i XMPIterator2.obj
 0001:00016b94       ??1?$map@V?$basic_string@DU?$char_traits@D@std@@V?$allocator@D@2@@std@@_NU?$less@V?$basic_string@DU?$char_traits@D@std@@V?$allocator@D@2@@std@@@2@V?$allocator@U?$pair@$$CBV?$basic_string@DU?$char_traits@D@std@@V?$allocator@D@2@@std@@_N@std@@@2@@std@@QEAA@XZ 0000000180017b94 f i XMPIterator2.obj
 0001:00016b9c       ??1XMPIterator2@@UEAA@XZ   0000000180017b9c f   XMPIterator2.obj
 0001:00016c7c       ?Next@XMPIterator2@@UEAA_NPEAPEBDPEAK01011@Z 0000000180017c7c f   XMPIterator2.obj
 0001:000170d0       ?Skip@XMPIterator2@@UEAAXK@Z 00000001800180d0 f   XMPIterator2.obj
 0001:0001718c       ?push_back@?$vector@UIteratorNode@@V?$allocator@UIteratorNode@@@std@@@std@@QEAAX$$QEAUIteratorNode@@@Z 000000018001818c f i XMPIterator2.obj
 0001:00017218       ??1?$vector@UIteratorNode@@V?$allocator@UIteratorNode@@@std@@@std@@QEAA@XZ 0000000180018218 f i XMPIterator2.obj
 0001:00017278       ??A?$map@V?$basic_string@DU?$char_traits@D@std@@V?$allocator@D@2@@std@@_NU?$less@V?$basic_string@DU?$char_traits@D@std@@V?$allocator@D@2@@std@@@2@V?$allocator@U?$pair@$$CBV?$basic_string@DU?$char_traits@D@std@@V?$allocator@D@2@@std@@_N@std@@@2@@std@@QEAAAEA_N$$QEAV?$basic_string@DU?$char_traits@D@std@@V?$allocator@D@2@@1@@Z 0000000180018278 f i XMPIterator2.obj
 0001:0001731c       ??1?$_Tree@V?$_Tmap_traits@V?$basic_string@DU?$char_traits@D@std@@V?$allocator@D@2@@std@@_NU?$less@V?$basic_string@DU?$char_traits@D@std@@V?$allocator@D@2@@std@@@2@V?$allocator@U?$pair@$$CBV?$basic_string@DU?$char_traits@D@std@@V?$allocator@D@2@@std@@_N@std@@@2@$0A@@std@@@std@@QEAA@XZ 000000018001831c f i XMPIterator2.obj
 0001:000173c4       ?_Reserve@?$vector@UIteratorNode@@V?$allocator@UIteratorNode@@@std@@@std@@IEAAX_K@Z 00000001800183c4 f i XMPIterator2.obj
 0001:00017480       ?_Reallocate@?$vector@UIteratorNode@@V?$allocator@UIteratorNode@@@std@@@std@@IEAAX_K@Z 0000000180018480 f i XMPIterator2.obj
 0001:00017574       ?_Erase@?$_Tree@V?$_Tmap_traits@V?$basic_string@DU?$char_traits@D@std@@V?$allocator@D@2@@std@@_KU?$less@V?$basic_string@DU?$char_traits@D@std@@V?$allocator@D@2@@std@@@2@V?$allocator@U?$pair@$$CBV?$basic_string@DU?$char_traits@D@std@@V?$allocator@D@2@@std@@_K@std@@@2@$0A@@std@@@std@@IEAAXPEAU?$_Tree_node@U?$pair@$$CBV?$basic_string@DU?$char_traits@D@std@@V?$allocator@D@2@@std@@_K@std@@PEAX@2@@Z 0000000180018574 f i XMPMeta-GetSet.obj
 0001:00017574       ?_Erase@?$_Tree@V?$_Tmap_traits@V?$basic_string@DU?$char_traits@D@std@@V?$allocator@D@2@@std@@_NU?$less@V?$basic_string@DU?$char_traits@D@std@@V?$allocator@D@2@@std@@@2@V?$allocator@U?$pair@$$CBV?$basic_string@DU?$char_traits@D@std@@V?$allocator@D@2@@std@@_N@std@@@2@$0A@@std@@@std@@IEAAXPEAU?$_Tree_node@U?$pair@$$CBV?$basic_string@DU?$char_traits@D@std@@V?$allocator@D@2@@std@@_N@std@@PEAX@2@@Z 0000000180018574 f i XMPIterator2.obj
 0001:000175f0       ?_Buyheadnode@?$_Tree_alloc@$0A@U?$_Tree_base_types@U?$pair@$$CBV?$basic_string@DU?$char_traits@D@std@@V?$allocator@D@2@@std@@_K@std@@V?$allocator@U?$pair@$$CBV?$basic_string@DU?$char_traits@D@std@@V?$allocator@D@2@@std@@_K@std@@@2@@std@@@std@@QEAAPEAU?$_Tree_node@U?$pair@$$CBV?$basic_string@DU?$char_traits@D@std@@V?$allocator@D@2@@std@@_K@std@@PEAX@2@XZ 00000001800185f0 f i XMPMeta-GetSet.obj
 0001:000175f0       ?_Buyheadnode@?$_Tree_alloc@$0A@U?$_Tree_base_types@U?$pair@$$CBV?$basic_string@DU?$char_traits@D@std@@V?$allocator@D@2@@std@@_N@std@@V?$allocator@U?$pair@$$CBV?$basic_string@DU?$char_traits@D@std@@V?$allocator@D@2@@std@@_N@std@@@2@@std@@@std@@QEAAPEAU?$_Tree_node@U?$pair@$$CBV?$basic_string@DU?$char_traits@D@std@@V?$allocator@D@2@@std@@_N@std@@PEAX@2@XZ 00000001800185f0 f i XMPIterator2.obj
 0001:00017630       ??$?HDU?$char_traits@D@std@@V?$allocator@D@1@@std@@YA?AV?$basic_string@DU?$char_traits@D@std@@V?$allocator@D@2@@0@$$QEAV10@PEBD@Z 0000000180018630 f i XMPIterator2.obj
 0001:00017688       ??$construct@UIteratorNode@@U1@@?$_Wrap_alloc@V?$allocator@UIteratorNode@@@std@@@std@@QEAAXPEAUIteratorNode@@$$QEAU2@@Z 0000000180018688 f i XMPIterator2.obj
 0001:00017720       ??$?MDU?$char_traits@D@std@@V?$allocator@D@1@@std@@YA_NAEBV?$basic_string@DU?$char_traits@D@std@@V?$allocator@D@2@@0@0@Z 0000000180018720 f i XMPIterator2.obj
 0001:00017798       ??$_Buynode@AEBUpiecewise_construct_t@std@@V?$tuple@$$QEAV?$basic_string@DU?$char_traits@D@std@@V?$allocator@D@2@@std@@@2@V?$tuple@$$$V@2@@?$_Tree_buy@U?$pair@$$CBV?$basic_string@DU?$char_traits@D@std@@V?$allocator@D@2@@std@@_N@std@@V?$allocator@U?$pair@$$CBV?$basic_string@DU?$char_traits@D@std@@V?$allocator@D@2@@std@@_N@std@@@2@@std@@QEAAPEAU?$_Tree_node@U?$pair@$$CBV?$basic_string@DU?$char_traits@D@std@@V?$allocator@D@2@@std@@_N@std@@PEAX@1@AEBUpiecewise_construct_t@1@$$QEAV?$tuple@$$QEAV?$basic_string@DU?$char_traits@D@std@@V?$allocator@D@2@@std@@@1@$$QEAV?$tuple@$$$V@1@@Z 0000000180018798 f i XMPIterator2.obj
 0001:000177e4       ??$_Insert_hint@AEAU?$pair@$$CBV?$basic_string@DU?$char_traits@D@std@@V?$allocator@D@2@@std@@_K@std@@PEAU?$_Tree_node@U?$pair@$$CBV?$basic_string@DU?$char_traits@D@std@@V?$allocator@D@2@@std@@_K@std@@PEAX@2@@?$_Tree@V?$_Tmap_traits@V?$basic_string@DU?$char_traits@D@std@@V?$allocator@D@2@@std@@_KU?$less@V?$basic_string@DU?$char_traits@D@std@@V?$allocator@D@2@@std@@@2@V?$allocator@U?$pair@$$CBV?$basic_string@DU?$char_traits@D@std@@V?$allocator@D@2@@std@@_K@std@@@2@$0A@@std@@@std@@IEAA?AV?$_Tree_iterator@V?$_Tree_val@U?$_Tree_simple_types@U?$pair@$$CBV?$basic_string@DU?$char_traits@D@std@@V?$allocator@D@2@@std@@_K@std@@@std@@@std@@@1@V?$_Tree_const_iterator@V?$_Tree_val@U?$_Tree_simple_types@U?$pair@$$CBV?$basic_string@DU?$char_traits@D@std@@V?$allocator@D@2@@std@@_K@std@@@std@@@std@@@1@AEAU?$pair@$$CBV?$basic_string@DU?$char_traits@D@std@@V?$allocator@D@2@@std@@_K@1@PEAU?$_Tree_node@U?$pair@$$CBV?$basic_string@DU?$char_traits@D@std@@V?$allocator@D@2@@std@@_K@std@@PEAX@1@@Z 00000001800187e4 f i XMPMeta-GetSet.obj
 0001:000177e4       ??$_Insert_hint@AEAU?$pair@$$CBV?$basic_string@DU?$char_traits@D@std@@V?$allocator@D@2@@std@@_N@std@@PEAU?$_Tree_node@U?$pair@$$CBV?$basic_string@DU?$char_traits@D@std@@V?$allocator@D@2@@std@@_N@std@@PEAX@2@@?$_Tree@V?$_Tmap_traits@V?$basic_string@DU?$char_traits@D@std@@V?$allocator@D@2@@std@@_NU?$less@V?$basic_string@DU?$char_traits@D@std@@V?$allocator@D@2@@std@@@2@V?$allocator@U?$pair@$$CBV?$basic_string@DU?$char_traits@D@std@@V?$allocator@D@2@@std@@_N@std@@@2@$0A@@std@@@std@@IEAA?AV?$_Tree_iterator@V?$_Tree_val@U?$_Tree_simple_types@U?$pair@$$CBV?$basic_string@DU?$char_traits@D@std@@V?$allocator@D@2@@std@@_N@std@@@std@@@std@@@1@V?$_Tree_const_iterator@V?$_Tree_val@U?$_Tree_simple_types@U?$pair@$$CBV?$basic_string@DU?$char_traits@D@std@@V?$allocator@D@2@@std@@_N@std@@@std@@@std@@@1@AEAU?$pair@$$CBV?$basic_string@DU?$char_traits@D@std@@V?$allocator@D@2@@std@@_N@1@PEAU?$_Tree_node@U?$pair@$$CBV?$basic_string@DU?$char_traits@D@std@@V?$allocator@D@2@@std@@_N@std@@PEAX@1@@Z 00000001800187e4 f i XMPIterator2.obj
 0001:00017a78       ?_Buynode0@?$_Tree_buy@U?$pair@$$CBV?$basic_string@DU?$char_traits@D@std@@V?$allocator@D@2@@std@@_N@std@@V?$allocator@U?$pair@$$CBV?$basic_string@DU?$char_traits@D@std@@V?$allocator@D@2@@std@@_N@std@@@2@@std@@QEAAPEAU?$_Tree_node@U?$pair@$$CBV?$basic_string@DU?$char_traits@D@std@@V?$allocator@D@2@@std@@_N@std@@PEAX@2@XZ 0000000180018a78 f i XMPIterator2.obj
 0001:00017a78       ?_Buynode0@?$_Tree_buy@U?$pair@$$CBV?$basic_string@DU?$char_traits@D@std@@V?$allocator@D@2@@std@@_K@std@@V?$allocator@U?$pair@$$CBV?$basic_string@DU?$char_traits@D@std@@V?$allocator@D@2@@std@@_K@std@@@2@@std@@QEAAPEAU?$_Tree_node@U?$pair@$$CBV?$basic_string@DU?$char_traits@D@std@@V?$allocator@D@2@@std@@_K@std@@PEAX@2@XZ 0000000180018a78 f i XMPMeta-GetSet.obj
 0001:00017ac8       ??$_Insert_at@AEAU?$pair@$$CBV?$basic_string@DU?$char_traits@D@std@@V?$allocator@D@2@@std@@_N@std@@PEAU?$_Tree_node@U?$pair@$$CBV?$basic_string@DU?$char_traits@D@std@@V?$allocator@D@2@@std@@_N@std@@PEAX@2@@?$_Tree@V?$_Tmap_traits@V?$basic_string@DU?$char_traits@D@std@@V?$allocator@D@2@@std@@_NU?$less@V?$basic_string@DU?$char_traits@D@std@@V?$allocator@D@2@@std@@@2@V?$allocator@U?$pair@$$CBV?$basic_string@DU?$char_traits@D@std@@V?$allocator@D@2@@std@@_N@std@@@2@$0A@@std@@@std@@IEAA?AV?$_Tree_iterator@V?$_Tree_val@U?$_Tree_simple_types@U?$pair@$$CBV?$basic_string@DU?$char_traits@D@std@@V?$allocator@D@2@@std@@_N@std@@@std@@@std@@@1@_NPEAU?$_Tree_node@U?$pair@$$CBV?$basic_string@DU?$char_traits@D@std@@V?$allocator@D@2@@std@@_N@std@@PEAX@1@AEAU?$pair@$$CBV?$basic_string@DU?$char_traits@D@std@@V?$allocator@D@2@@std@@_N@1@1@Z 0000000180018ac8 f i XMPIterator2.obj
 0001:00017ac8       ??$_Insert_at@AEAU?$pair@$$CBV?$basic_string@DU?$char_traits@D@std@@V?$allocator@D@2@@std@@_K@std@@PEAU?$_Tree_node@U?$pair@$$CBV?$basic_string@DU?$char_traits@D@std@@V?$allocator@D@2@@std@@_K@std@@PEAX@2@@?$_Tree@V?$_Tmap_traits@V?$basic_string@DU?$char_traits@D@std@@V?$allocator@D@2@@std@@_KU?$less@V?$basic_string@DU?$char_traits@D@std@@V?$allocator@D@2@@std@@@2@V?$allocator@U?$pair@$$CBV?$basic_string@DU?$char_traits@D@std@@V?$allocator@D@2@@std@@_K@std@@@2@$0A@@std@@@std@@IEAA?AV?$_Tree_iterator@V?$_Tree_val@U?$_Tree_simple_types@U?$pair@$$CBV?$basic_string@DU?$char_traits@D@std@@V?$allocator@D@2@@std@@_K@std@@@std@@@std@@@1@_NPEAU?$_Tree_node@U?$pair@$$CBV?$basic_string@DU?$char_traits@D@std@@V?$allocator@D@2@@std@@_K@std@@PEAX@1@AEAU?$pair@$$CBV?$basic_string@DU?$char_traits@D@std@@V?$allocator@D@2@@std@@_K@1@1@Z 0000000180018ac8 f i XMPMeta-GetSet.obj
 0001:00017d68       ??$_Insert_nohint@AEAU?$pair@$$CBV?$basic_string@DU?$char_traits@D@std@@V?$allocator@D@2@@std@@_K@std@@PEAU?$_Tree_node@U?$pair@$$CBV?$basic_string@DU?$char_traits@D@std@@V?$allocator@D@2@@std@@_K@std@@PEAX@2@@?$_Tree@V?$_Tmap_traits@V?$basic_string@DU?$char_traits@D@std@@V?$allocator@D@2@@std@@_KU?$less@V?$basic_string@DU?$char_traits@D@std@@V?$allocator@D@2@@std@@@2@V?$allocator@U?$pair@$$CBV?$basic_string@DU?$char_traits@D@std@@V?$allocator@D@2@@std@@_K@std@@@2@$0A@@std@@@std@@IEAA?AU?$pair@V?$_Tree_iterator@V?$_Tree_val@U?$_Tree_simple_types@U?$pair@$$CBV?$basic_string@DU?$char_traits@D@std@@V?$allocator@D@2@@std@@_K@std@@@std@@@std@@@std@@_N@1@_NAEAU?$pair@$$CBV?$basic_string@DU?$char_traits@D@std@@V?$allocator@D@2@@std@@_K@1@PEAU?$_Tree_node@U?$pair@$$CBV?$basic_string@DU?$char_traits@D@std@@V?$allocator@D@2@@std@@_K@std@@PEAX@1@@Z 0000000180018d68 f i XMPMeta-GetSet.obj
 0001:00017d68       ??$_Insert_nohint@AEAU?$pair@$$CBV?$basic_string@DU?$char_traits@D@std@@V?$allocator@D@2@@std@@_N@std@@PEAU?$_Tree_node@U?$pair@$$CBV?$basic_string@DU?$char_traits@D@std@@V?$allocator@D@2@@std@@_N@std@@PEAX@2@@?$_Tree@V?$_Tmap_traits@V?$basic_string@DU?$char_traits@D@std@@V?$allocator@D@2@@std@@_NU?$less@V?$basic_string@DU?$char_traits@D@std@@V?$allocator@D@2@@std@@@2@V?$allocator@U?$pair@$$CBV?$basic_string@DU?$char_traits@D@std@@V?$allocator@D@2@@std@@_N@std@@@2@$0A@@std@@@std@@IEAA?AU?$pair@V?$_Tree_iterator@V?$_Tree_val@U?$_Tree_simple_types@U?$pair@$$CBV?$basic_string@DU?$char_traits@D@std@@V?$allocator@D@2@@std@@_N@std@@@std@@@std@@@std@@_N@1@_NAEAU?$pair@$$CBV?$basic_string@DU?$char_traits@D@std@@V?$allocator@D@2@@std@@_N@1@PEAU?$_Tree_node@U?$pair@$$CBV?$basic_string@DU?$char_traits@D@std@@V?$allocator@D@2@@std@@_N@std@@PEAX@1@@Z 0000000180018d68 f i XMPIterator2.obj
 0001:00017eec       ??0IteratorNode@@QEAA@AEBU0@@Z 0000000180018eec f i XMPIterator2.obj
 0001:00017f74       ??0?$vector@UIteratorNode@@V?$allocator@UIteratorNode@@@std@@@std@@QEAA@AEBV01@@Z 0000000180018f74 f i XMPIterator2.obj
 0001:00018050       ??$_Uninit_move@PEAUIteratorNode@@PEAU1@V?$allocator@UIteratorNode@@@std@@U1@@std@@YAPEAUIteratorNode@@PEAU1@00AEAU?$_Wrap_alloc@V?$allocator@UIteratorNode@@@std@@@0@0U_Nonscalar_ptr_iterator_tag@0@@Z 0000000180019050 f i XMPIterator2.obj
 0001:000180b0       ??$_Uninit_copy@PEBUIteratorNode@@PEAU1@V?$allocator@UIteratorNode@@@std@@@std@@YAPEAUIteratorNode@@PEBU1@0PEAU1@AEAU?$_Wrap_alloc@V?$allocator@UIteratorNode@@@std@@@0@U_Nonscalar_ptr_iterator_tag@0@@Z 00000001800190b0 f i XMPIterator2.obj
 0001:00018110       ??0XMP_Node@@QEAA@PEAV0@AEBV?$basic_string@DU?$char_traits@D@std@@V?$allocator@D@2@@std@@1K@Z 0000000180019110 f i XMPMeta-GetSet.obj
 0001:000181c8       ?ClearNode@XMP_Node@@QEAAXXZ 00000001800191c8 f i XMPMeta-GetSet.obj
 0001:00018290       ?ConvertToStructureNode@INode_v1@AdobeXMPCore@@QEBA?AV?$shared_ptr@$$CBVIStructureNode_v1@AdobeXMPCore@@@std@@XZ 0000000180019290 f i XMPMeta-GetSet.obj
 0001:000182fc       ?ConvertToArrayNode@INode_v1@AdobeXMPCore@@QEBA?AV?$shared_ptr@$$CBVIArrayNode_v1@AdobeXMPCore@@@std@@XZ 00000001800192fc f i XMPMeta-GetSet.obj
 0001:00018368       ?Iterator@ICompositeNode_v1@AdobeXMPCore@@QEBA?AV?$shared_ptr@$$CBVINodeIterator_v1@AdobeXMPCore@@@std@@XZ 0000000180019368 f i XMPMeta-GetSet.obj
 0001:000183d4       ReleaseXMP_Node            00000001800193d4 f   XMPMeta-GetSet.obj
 0001:000183ec       ReleaseIStructureNode      00000001800193ec f   XMPMeta-GetSet.obj
 0001:00018410       ?SetValue@XMP_Node@@QEAAXPEBD@Z 0000000180019410 f   XMPMeta-GetSet.obj
 0001:00018dd4       ?GetProperty@XMPMeta@@UEBA_NPEBD0PEAPEBDPEAK2@Z 0000000180019dd4 f   XMPMeta-GetSet.obj
 0001:00018e84       ?GetArrayItem@XMPMeta@@UEBA_NPEBD0JPEAPEBDPEAK2@Z 0000000180019e84 f   XMPMeta-GetSet.obj
 0001:00018f8c       ?GetStructField@XMPMeta@@UEBA_NPEBD000PEAPEBDPEAK2@Z 0000000180019f8c f   XMPMeta-GetSet.obj
 0001:00019064       ?GetQualifier@XMPMeta@@UEBA_NPEBD000PEAPEBDPEAK2@Z 000000018001a064 f   XMPMeta-GetSet.obj
 0001:0001913c       ?SetProperty@XMPMeta@@UEAAXPEBD00K@Z 000000018001a13c f   XMPMeta-GetSet.obj
 0001:00019224       ?SetArrayItem@XMPMeta@@UEAAXPEBD0J0K@Z 000000018001a224 f   XMPMeta-GetSet.obj
 0001:000192f4       ?AppendArrayItem@XMPMeta@@UEAAXPEBD0K0K@Z 000000018001a2f4 f   XMPMeta-GetSet.obj
 0001:000194c4       ?SetStructField@XMPMeta@@QEAAXPEBD0000K@Z 000000018001a4c4 f   XMPMeta-GetSet.obj
 0001:00019584       ?SetQualifier@XMPMeta@@UEAAXPEBD0000K@Z 000000018001a584 f   XMPMeta-GetSet.obj
 0001:000196d8       ?DeleteProperty@XMPMeta@@UEAAXPEBD0@Z 000000018001a6d8 f   XMPMeta-GetSet.obj
 0001:00019804       ?DeleteArrayItem@XMPMeta@@UEAAXPEBD0J@Z 000000018001a804 f   XMPMeta-GetSet.obj
 0001:000198a0       ?DeleteStructField@XMPMeta@@UEAAXPEBD000@Z 000000018001a8a0 f   XMPMeta-GetSet.obj
 0001:00019948       ?DeleteQualifier@XMPMeta@@UEAAXPEBD000@Z 000000018001a948 f   XMPMeta-GetSet.obj
 0001:000199f0       ?DoesPropertyExist@XMPMeta@@UEBA_NPEBD0@Z 000000018001a9f0 f   XMPMeta-GetSet.obj
 0001:00019a5c       ?GetLocalizedText@XMPMeta@@UEBA_NPEBD000PEAPEBDPEAK122@Z 000000018001aa5c f   XMPMeta-GetSet.obj
 0001:00019c5c       ?SetLocalizedText@XMPMeta@@UEAAXPEBD0000K@Z 000000018001ac5c f   XMPMeta-GetSet.obj
 0001:0001a10c       ?DeleteLocalizedText@XMPMeta@@UEAAXPEBD000@Z 000000018001b10c f   XMPMeta-GetSet.obj
 0001:0001a4c4       ?GetProperty_Int@XMPMeta@@QEBA_NPEBD0PEAJPEAK@Z 000000018001b4c4 f   XMPMeta-GetSet.obj
 0001:0001a554       ?GetProperty_Int64@XMPMeta@@QEBA_NPEBD0PEA_JPEAK@Z 000000018001b554 f   XMPMeta-GetSet.obj
 0001:0001a658       ?GetProperty_Float@XMPMeta@@QEBA_NPEBD0PEANPEAK@Z 000000018001b658 f   XMPMeta-GetSet.obj
 0001:0001a75c       ?SetProperty_Bool@XMPMeta@@QEAAXPEBD0_NK@Z 000000018001b75c f   XMPMeta-GetSet.obj
 0001:0001a830       ?SetProperty_Int@XMPMeta@@QEAAXPEBD0JK@Z 000000018001b830 f   XMPMeta-GetSet.obj
 0001:0001a8dc       ?SetProperty_Date@XMPMeta@@QEAAXPEBD0AEBUXMP_DateTime@@K@Z 000000018001b8dc f   XMPMeta-GetSet.obj
 0001:0001a980       ?GetStringInfo@@YAXAEBV?$shared_ptr@$$CBVINode_v1@AdobeXMPCore@@@std@@PEAUXMPDMO_StringInfo@@@Z 000000018001b980 f i XMPMeta-GetSet.obj
 0001:0001bb48       ?IsSuitableForJSONSerialization@XMPUtils@@SA_NPEBVXMP_Node@@@Z 000000018001cb48 f   XMPMeta-GetSet.obj
 0001:0001bbcc       ?IsKeyValidExtension@@YA_NV?$basic_string@DU?$char_traits@D@std@@V?$allocator@D@2@@std@@@Z 000000018001cbcc f   XMPMeta-GetSet.obj
 0001:0001bc48       ?GetSerializedJSONForExtensionNode@XMPUtils@@SA_NPEBVXMP_Node@@AEAV?$basic_string@DU?$char_traits@D@std@@V?$allocator@D@2@@std@@1@Z 000000018001cc48 f   XMPMeta-GetSet.obj
 0001:0001bf00       ?SplitNameSpaceAndName@@YA_NAEBV?$basic_string@DU?$char_traits@D@std@@V?$allocator@D@2@@std@@AEAV12@1_N@Z 000000018001cf00 f   XMPMeta-GetSet.obj
 0001:0001c038       ?GetExtensionNameFromCPPKey@@YA_NAEBV?$basic_string@DU?$char_traits@D@std@@V?$allocator@D@2@@std@@AEAV12@@Z 000000018001d038 f   XMPMeta-GetSet.obj
 0001:0001c178       ?CreateExtensionNode@XMPUtils@@SA_NPEAPEAVXMP_Node@@AEBV?$basic_string@DU?$char_traits@D@std@@V?$allocator@D@2@@std@@1@Z 000000018001d178 f   XMPMeta-GetSet.obj
 0001:0001c600       ?CreateExtensionNode@XMPUtils@@SA_NAEBV?$shared_ptr@VIStructureNode_v1@AdobeXMPCore@@@std@@AEBV?$basic_string@DU?$char_traits@D@std@@V?$allocator@D@2@@3@1@Z 000000018001d600 f   XMPMeta-GetSet.obj
 0001:0001cb58       ?CloneSubtreeNode@@YAPEAVXMP_Node@@PEBV1@PEAV1@_N@Z 000000018001db58 f   XMPMeta-GetSet.obj
 0001:0001cb58       ?CloneSubtree@@YAPEAVXMP_Node@@PEBV1@PEAV1@_N@Z 000000018001db58 f   XMPCore_Impl.obj
 0001:0001cc14       ?mergeNodes@@YAXPEAPEAVXMP_Node@@PEAV1@AEAV?$map@V?$basic_string@DU?$char_traits@D@std@@V?$allocator@D@2@@std@@_KU?$less@V?$basic_string@DU?$char_traits@D@std@@V?$allocator@D@2@@std@@@2@V?$allocator@U?$pair@$$CBV?$basic_string@DU?$char_traits@D@std@@V?$allocator@D@2@@std@@_K@std@@@2@@std@@@Z 000000018001dc14 f   XMPMeta-GetSet.obj
 0001:0001cdd0       ??1?$map@V?$basic_string@DU?$char_traits@D@std@@V?$allocator@D@2@@std@@_KU?$less@V?$basic_string@DU?$char_traits@D@std@@V?$allocator@D@2@@std@@@2@V?$allocator@U?$pair@$$CBV?$basic_string@DU?$char_traits@D@std@@V?$allocator@D@2@@std@@_K@std@@@2@@std@@QEAA@XZ 000000018001ddd0 f i XMPMeta-GetSet.obj
 0001:0001cdf4       ?mergeNodes@@YAXAEBV?$shared_ptr@VIStructureNode_v1@AdobeXMPCore@@@std@@0@Z 000000018001ddf4 f   XMPMeta-GetSet.obj
 0001:0001d358       ?IsExtensionValidForBackwardCompatibility@XMPUtils@@SA_NAEBV?$shared_ptr@VINode_v1@AdobeXMPCore@@@std@@@Z 000000018001e358 f   XMPMeta-GetSet.obj
 0001:0001d7b4       ?SerializeExtensionAsJSON@XMPUtils@@SA_NAEBV?$shared_ptr@VINode_v1@AdobeXMPCore@@@std@@AEAV?$basic_string@DU?$char_traits@D@std@@V?$allocator@D@2@@3@1@Z 000000018001e7b4 f   XMPMeta-GetSet.obj
 0001:0001dd88       ?IsValidCuePointParam@@YA_NPEBVXMP_Node@@AEAPEAV1@1@Z 000000018001ed88 f   XMPMeta-GetSet.obj
 0001:0001dfbc       ?GetBulkMarkers@XMPUtils@@SA_NAEBVXMPMeta@@PEBD1PEAXKP6APEAX2J@ZP6APEAXPEAUXMPDMO_MarkerInfo@@J@Z@Z 000000018001efbc f   XMPMeta-GetSet.obj
 0001:0001f1cc       ?GetBulkMarkers@XMPUtils@@SA_NAEBVXMPMeta2@@PEBD1PEAXKP6APEAX2J@ZP6APEAXPEAUXMPDMO_MarkerInfo@@J@Z@Z 00000001800201cc f   XMPMeta-GetSet.obj
 0001:000224bc       ?SetBulkMarkers@XMPUtils@@SAXPEAVXMPMeta2@@PEBD1JPEBXKP6AXPEBUXMPDMO_MarkerInfo@@PEAPEBUXMPDMO_CuePointInfo@@PEAJ@Z@Z 00000001800234bc f   XMPMeta-GetSet.obj
 0001:0002526c       ??1?$map@V?$basic_string@DU?$char_traits@D@std@@V?$allocator@D@2@@std@@V?$vector@_KV?$allocator@_K@std@@@2@U?$less@V?$basic_string@DU?$char_traits@D@std@@V?$allocator@D@2@@std@@@2@V?$allocator@U?$pair@$$CBV?$basic_string@DU?$char_traits@D@std@@V?$allocator@D@2@@std@@V?$vector@_KV?$allocator@_K@std@@@2@@std@@@2@@std@@QEAA@XZ 000000018002626c f i XMPMeta-GetSet.obj
 0001:000252b0       ?SetBulkMarkers@XMPUtils@@SAXPEAVXMPMeta@@PEBD1JPEBXKP6AXPEBUXMPDMO_MarkerInfo@@PEAPEBUXMPDMO_CuePointInfo@@PEAJ@Z@Z 00000001800262b0 f   XMPMeta-GetSet.obj
 0001:000265c8       ?find_last_of@?$basic_string@DU?$char_traits@D@std@@V?$allocator@D@2@@std@@QEBA_KPEBD_K@Z 00000001800275c8 f i XMPMeta-GetSet.obj
 0001:00026678       ?find_last_of@?$basic_string@DU?$char_traits@D@std@@V?$allocator@D@2@@std@@QEBA_KD_K@Z 0000000180027678 f i XMPMeta-GetSet.obj
 0001:00026714       ?substr@?$basic_string@DU?$char_traits@D@std@@V?$allocator@D@2@@std@@QEBA?AV12@_K0@Z 0000000180027714 f i XMPMeta-GetSet.obj
 0001:00026748       ?push_back@?$vector@PEAVXMP_Node@@V?$allocator@PEAVXMP_Node@@@std@@@std@@QEAAXAEBQEAVXMP_Node@@@Z 0000000180027748 f i XMPMeta-GetSet.obj
 0001:00026894       ??4?$shared_ptr@VISimpleNode_v1@AdobeXMPCore@@@std@@QEAAAEAV01@AEBV01@@Z 0000000180027894 f i XMPMeta-GetSet.obj
 0001:000268f8       ??A?$map@V?$basic_string@DU?$char_traits@D@std@@V?$allocator@D@2@@std@@_KU?$less@V?$basic_string@DU?$char_traits@D@std@@V?$allocator@D@2@@std@@@2@V?$allocator@U?$pair@$$CBV?$basic_string@DU?$char_traits@D@std@@V?$allocator@D@2@@std@@_K@std@@@2@@std@@QEAAAEA_KAEBV?$basic_string@DU?$char_traits@D@std@@V?$allocator@D@2@@1@@Z 00000001800278f8 f i XMPMeta-GetSet.obj
 0001:0002699c       ?clear@?$_Tree@V?$_Tmap_traits@V?$basic_string@DU?$char_traits@D@std@@V?$allocator@D@2@@std@@_KU?$less@V?$basic_string@DU?$char_traits@D@std@@V?$allocator@D@2@@std@@@2@V?$allocator@U?$pair@$$CBV?$basic_string@DU?$char_traits@D@std@@V?$allocator@D@2@@std@@_K@std@@@2@$0A@@std@@@std@@QEAAXXZ 000000018002799c f i XMPMeta-GetSet.obj
 0001:00026a34       ?count@?$_Tree@V?$_Tmap_traits@V?$basic_string@DU?$char_traits@D@std@@V?$allocator@D@2@@std@@_NU?$less@V?$basic_string@DU?$char_traits@D@std@@V?$allocator@D@2@@std@@@2@V?$allocator@U?$pair@$$CBV?$basic_string@DU?$char_traits@D@std@@V?$allocator@D@2@@std@@_N@std@@@2@$0A@@std@@@std@@QEBA_KAEBV?$basic_string@DU?$char_traits@D@std@@V?$allocator@D@2@@2@@Z 0000000180027a34 f i XMPMeta2-GetSet.obj
 0001:00026a34       ?count@?$_Tree@V?$_Tmap_traits@V?$basic_string@DU?$char_traits@D@std@@V?$allocator@D@2@@std@@_KU?$less@V?$basic_string@DU?$char_traits@D@std@@V?$allocator@D@2@@std@@@2@V?$allocator@U?$pair@$$CBV?$basic_string@DU?$char_traits@D@std@@V?$allocator@D@2@@std@@_K@std@@@2@$0A@@std@@@std@@QEBA_KAEBV?$basic_string@DU?$char_traits@D@std@@V?$allocator@D@2@@2@@Z 0000000180027a34 f i XMPMeta-GetSet.obj
 0001:00026b40       ??A?$map@V?$basic_string@DU?$char_traits@D@std@@V?$allocator@D@2@@std@@V?$vector@_KV?$allocator@_K@std@@@2@U?$less@V?$basic_string@DU?$char_traits@D@std@@V?$allocator@D@2@@std@@@2@V?$allocator@U?$pair@$$CBV?$basic_string@DU?$char_traits@D@std@@V?$allocator@D@2@@std@@V?$vector@_KV?$allocator@_K@std@@@2@@std@@@2@@std@@QEAAAEAV?$vector@_KV?$allocator@_K@std@@@1@$$QEAV?$basic_string@DU?$char_traits@D@std@@V?$allocator@D@2@@1@@Z 0000000180027b40 f i XMPMeta-GetSet.obj
 0001:00026be4       ??A?$map@V?$basic_string@DU?$char_traits@D@std@@V?$allocator@D@2@@std@@V?$vector@_KV?$allocator@_K@std@@@2@U?$less@V?$basic_string@DU?$char_traits@D@std@@V?$allocator@D@2@@std@@@2@V?$allocator@U?$pair@$$CBV?$basic_string@DU?$char_traits@D@std@@V?$allocator@D@2@@std@@V?$vector@_KV?$allocator@_K@std@@@2@@std@@@2@@std@@QEAAAEAV?$vector@_KV?$allocator@_K@std@@@1@AEBV?$basic_string@DU?$char_traits@D@std@@V?$allocator@D@2@@1@@Z 0000000180027be4 f i XMPMeta-GetSet.obj
 0001:00026c88       ?push_back@?$vector@JV?$allocator@J@std@@@std@@QEAAXAEBJ@Z 0000000180027c88 f i XMPMeta-GetSet.obj
 0001:00026dd0       ?_Swap_bx@?$basic_string@DU?$char_traits@D@std@@V?$allocator@D@2@@std@@QEAAXAEAV12@@Z 0000000180027dd0 f i XMPMeta-GetSet.obj
 0001:00026e88       ?find_first_of@?$basic_string@DU?$char_traits@D@std@@V?$allocator@D@2@@std@@QEBA_KPEBD_K1@Z 0000000180027e88 f i XMPMeta-GetSet.obj
 0001:00026f2c       ?_Reallocate@?$vector@PEAVXML_Node@@V?$allocator@PEAVXML_Node@@@std@@@std@@IEAAX_K@Z 0000000180027f2c f i ExpatAdapter.obj
 0001:00026f2c       ?_Reallocate@?$vector@_KV?$allocator@_K@std@@@std@@IEAAX_K@Z 0000000180027f2c f i XMPMeta-GetSet.obj
 0001:00026f2c       ?_Reallocate@?$vector@PEAVXMP_Node@@V?$allocator@PEAVXMP_Node@@@std@@@std@@IEAAX_K@Z 0000000180027f2c f i XMPMeta-GetSet.obj
 0001:00026fd0       ?_Insert_n@?$vector@PEAVXMP_Node@@V?$allocator@PEAVXMP_Node@@@std@@@std@@IEAA?AV?$_Vector_iterator@V?$_Vector_val@U?$_Simple_types@PEAVXMP_Node@@@std@@@std@@@2@V?$_Vector_const_iterator@V?$_Vector_val@U?$_Simple_types@PEAVXMP_Node@@@std@@@std@@@2@_KAEBQEAVXMP_Node@@@Z 0000000180027fd0 f i XMPMeta-GetSet.obj
 0001:00027244       ?_Erase@?$_Tree@V?$_Tmap_traits@V?$basic_string@DU?$char_traits@D@std@@V?$allocator@D@2@@std@@V?$vector@_KV?$allocator@_K@std@@@2@U?$less@V?$basic_string@DU?$char_traits@D@std@@V?$allocator@D@2@@std@@@2@V?$allocator@U?$pair@$$CBV?$basic_string@DU?$char_traits@D@std@@V?$allocator@D@2@@std@@V?$vector@_KV?$allocator@_K@std@@@2@@std@@@2@$0A@@std@@@std@@IEAAXPEAU?$_Tree_node@U?$pair@$$CBV?$basic_string@DU?$char_traits@D@std@@V?$allocator@D@2@@std@@V?$vector@_KV?$allocator@_K@std@@@2@@std@@PEAX@2@@Z 0000000180028244 f i XMPMeta-GetSet.obj
 0001:000272e0       ?_Reserve@?$vector@PEAVXML_Node@@V?$allocator@PEAVXML_Node@@@std@@@std@@IEAAX_K@Z 00000001800282e0 f i ExpatAdapter.obj
 0001:000272e0       ?_Reserve@?$vector@_KV?$allocator@_K@std@@@std@@IEAAX_K@Z 00000001800282e0 f i XMPMeta-GetSet.obj
 0001:00027358       ?_Reallocate@?$vector@JV?$allocator@J@std@@@std@@IEAAX_K@Z 0000000180028358 f i XMPMeta-GetSet.obj
 0001:000273fc       ?erase@?$_Tree@V?$_Tmap_traits@V?$basic_string@DU?$char_traits@D@std@@V?$allocator@D@2@@std@@_KU?$less@V?$basic_string@DU?$char_traits@D@std@@V?$allocator@D@2@@std@@@2@V?$allocator@U?$pair@$$CBV?$basic_string@DU?$char_traits@D@std@@V?$allocator@D@2@@std@@_K@std@@@2@$0A@@std@@@std@@QEAA?AV?$_Tree_iterator@V?$_Tree_val@U?$_Tree_simple_types@U?$pair@$$CBV?$basic_string@DU?$char_traits@D@std@@V?$allocator@D@2@@std@@_K@std@@@std@@@std@@@2@V?$_Tree_const_iterator@V?$_Tree_val@U?$_Tree_simple_types@U?$pair@$$CBV?$basic_string@DU?$char_traits@D@std@@V?$allocator@D@2@@std@@_K@std@@@std@@@std@@@2@@Z 00000001800283fc f i XMPMeta-GetSet.obj
 0001:000278ac       ?erase@?$_Tree@V?$_Tmap_traits@V?$basic_string@DU?$char_traits@D@std@@V?$allocator@D@2@@std@@V?$vector@_KV?$allocator@_K@std@@@2@U?$less@V?$basic_string@DU?$char_traits@D@std@@V?$allocator@D@2@@std@@@2@V?$allocator@U?$pair@$$CBV?$basic_string@DU?$char_traits@D@std@@V?$allocator@D@2@@std@@V?$vector@_KV?$allocator@_K@std@@@2@@std@@@2@$0A@@std@@@std@@QEAA?AV?$_Tree_iterator@V?$_Tree_val@U?$_Tree_simple_types@U?$pair@$$CBV?$basic_string@DU?$char_traits@D@std@@V?$allocator@D@2@@std@@V?$vector@_KV?$allocator@_K@std@@@2@@std@@@std@@@std@@@2@V?$_Tree_const_iterator@V?$_Tree_val@U?$_Tree_simple_types@U?$pair@$$CBV?$basic_string@DU?$char_traits@D@std@@V?$allocator@D@2@@std@@V?$vector@_KV?$allocator@_K@std@@@2@@std@@@std@@@std@@@2@@Z 00000001800288ac f i XMPMeta-GetSet.obj
 0001:00027d78       ??E?$_Tree_const_iterator@V?$_Tree_val@U?$_Tree_simple_types@U?$pair@$$CBV?$basic_string@DU?$char_traits@D@std@@V?$allocator@D@2@@std@@V?$vector@_KV?$allocator@_K@std@@@2@@std@@@std@@@std@@@std@@QEAAAEAV01@XZ 0000000180028d78 f i XMPMeta-GetSet.obj
 0001:00027dc4       ?_Buyheadnode@?$_Tree_alloc@$0A@U?$_Tree_base_types@U?$pair@$$CBV?$basic_string@DU?$char_traits@D@std@@V?$allocator@D@2@@std@@V?$vector@_KV?$allocator@_K@std@@@2@@std@@V?$allocator@U?$pair@$$CBV?$basic_string@DU?$char_traits@D@std@@V?$allocator@D@2@@std@@V?$vector@_KV?$allocator@_K@std@@@2@@std@@@2@@std@@@std@@QEAAPEAU?$_Tree_node@U?$pair@$$CBV?$basic_string@DU?$char_traits@D@std@@V?$allocator@D@2@@std@@V?$vector@_KV?$allocator@_K@std@@@2@@std@@PEAX@2@XZ 0000000180028dc4 f i XMPMeta-GetSet.obj
 0001:00027dc4       ?_Buyheadnode@?$_Tree_alloc@$0A@U?$_Tree_base_types@U?$pair@$$CBV?$basic_string@DU?$char_traits@D@std@@V?$allocator@D@2@@std@@V?$vector@VXPathStepInfo@@V?$allocator@VXPathStepInfo@@@std@@@2@@std@@V?$allocator@U?$pair@$$CBV?$basic_string@DU?$char_traits@D@std@@V?$allocator@D@2@@std@@V?$vector@VXPathStepInfo@@V?$allocator@VXPathStepInfo@@@std@@@2@@std@@@2@@std@@@std@@QEAAPEAU?$_Tree_node@U?$pair@$$CBV?$basic_string@DU?$char_traits@D@std@@V?$allocator@D@2@@std@@V?$vector@VXPathStepInfo@@V?$allocator@VXPathStepInfo@@@std@@@2@@std@@PEAX@2@XZ 0000000180028dc4 f i XMPMeta.obj
 0001:00027e04       ??$const_pointer_cast@VINameSpacePrefixMap_v1@AdobeXMPCore@@$$CBV12@@std@@YA?AV?$shared_ptr@VINameSpacePrefixMap_v1@AdobeXMPCore@@@0@AEBV?$shared_ptr@$$CBVINameSpacePrefixMap_v1@AdobeXMPCore@@@0@@Z 0000000180028e04 f i RDFDOMSerializerImpl.obj
 0001:00027e04       ??$const_pointer_cast@VINode_v1@AdobeXMPCore@@$$CBV12@@std@@YA?AV?$shared_ptr@VINode_v1@AdobeXMPCore@@@0@AEBV?$shared_ptr@$$CBVINode_v1@AdobeXMPCore@@@0@@Z 0000000180028e04 f i XMPMeta-GetSet.obj
 0001:00027e7c       ??$?HDU?$char_traits@D@std@@V?$allocator@D@1@@std@@YA?AV?$basic_string@DU?$char_traits@D@std@@V?$allocator@D@2@@0@AEBV10@0@Z 0000000180028e7c f i XMPMeta-GetSet.obj
 0001:00027f3c       ??$?HDU?$char_traits@D@std@@V?$allocator@D@1@@std@@YA?AV?$basic_string@DU?$char_traits@D@std@@V?$allocator@D@2@@0@PEBDAEBV10@@Z 0000000180028f3c f i XMPMeta-GetSet.obj
 0001:00028008       ??$_Buynode@AEBUpiecewise_construct_t@std@@V?$tuple@AEBV?$basic_string@DU?$char_traits@D@std@@V?$allocator@D@2@@std@@@2@V?$tuple@$$$V@2@@?$_Tree_buy@U?$pair@$$CBV?$basic_string@DU?$char_traits@D@std@@V?$allocator@D@2@@std@@_K@std@@V?$allocator@U?$pair@$$CBV?$basic_string@DU?$char_traits@D@std@@V?$allocator@D@2@@std@@_K@std@@@2@@std@@QEAAPEAU?$_Tree_node@U?$pair@$$CBV?$basic_string@DU?$char_traits@D@std@@V?$allocator@D@2@@std@@_K@std@@PEAX@1@AEBUpiecewise_construct_t@1@$$QEAV?$tuple@AEBV?$basic_string@DU?$char_traits@D@std@@V?$allocator@D@2@@std@@@1@$$QEAV?$tuple@$$$V@1@@Z 0000000180029008 f i XMPMeta-GetSet.obj
 0001:0002808c       ??$_Buynode@AEBUpiecewise_construct_t@std@@V?$tuple@$$QEAV?$basic_string@DU?$char_traits@D@std@@V?$allocator@D@2@@std@@@2@V?$tuple@$$$V@2@@?$_Tree_buy@U?$pair@$$CBV?$basic_string@DU?$char_traits@D@std@@V?$allocator@D@2@@std@@V?$vector@VXPathStepInfo@@V?$allocator@VXPathStepInfo@@@std@@@2@@std@@V?$allocator@U?$pair@$$CBV?$basic_string@DU?$char_traits@D@std@@V?$allocator@D@2@@std@@V?$vector@VXPathStepInfo@@V?$allocator@VXPathStepInfo@@@std@@@2@@std@@@2@@std@@QEAAPEAU?$_Tree_node@U?$pair@$$CBV?$basic_string@DU?$char_traits@D@std@@V?$allocator@D@2@@std@@V?$vector@VXPathStepInfo@@V?$allocator@VXPathStepInfo@@@std@@@2@@std@@PEAX@1@AEBUpiecewise_construct_t@1@$$QEAV?$tuple@$$QEAV?$basic_string@DU?$char_traits@D@std@@V?$allocator@D@2@@std@@@1@$$QEAV?$tuple@$$$V@1@@Z 000000018002908c f i MetadataImpl.obj
 0001:0002808c       ??$_Buynode@AEBUpiecewise_construct_t@std@@V?$tuple@$$QEAV?$basic_string@DU?$char_traits@D@std@@V?$allocator@D@2@@std@@@2@V?$tuple@$$$V@2@@?$_Tree_buy@U?$pair@$$CBV?$basic_string@DU?$char_traits@D@std@@V?$allocator@D@2@@std@@V?$vector@_KV?$allocator@_K@std@@@2@@std@@V?$allocator@U?$pair@$$CBV?$basic_string@DU?$char_traits@D@std@@V?$allocator@D@2@@std@@V?$vector@_KV?$allocator@_K@std@@@2@@std@@@2@@std@@QEAAPEAU?$_Tree_node@U?$pair@$$CBV?$basic_string@DU?$char_traits@D@std@@V?$allocator@D@2@@std@@V?$vector@_KV?$allocator@_K@std@@@2@@std@@PEAX@1@AEBUpiecewise_construct_t@1@$$QEAV?$tuple@$$QEAV?$basic_string@DU?$char_traits@D@std@@V?$allocator@D@2@@std@@@1@$$QEAV?$tuple@$$$V@1@@Z 000000018002908c f i XMPMeta-GetSet.obj
 0001:000280e4       ??$_Insert_hint@AEAU?$pair@$$CBV?$basic_string@DU?$char_traits@D@std@@V?$allocator@D@2@@std@@V?$vector@_KV?$allocator@_K@std@@@2@@std@@PEAU?$_Tree_node@U?$pair@$$CBV?$basic_string@DU?$char_traits@D@std@@V?$allocator@D@2@@std@@V?$vector@_KV?$allocator@_K@std@@@2@@std@@PEAX@2@@?$_Tree@V?$_Tmap_traits@V?$basic_string@DU?$char_traits@D@std@@V?$allocator@D@2@@std@@V?$vector@_KV?$allocator@_K@std@@@2@U?$less@V?$basic_string@DU?$char_traits@D@std@@V?$allocator@D@2@@std@@@2@V?$allocator@U?$pair@$$CBV?$basic_string@DU?$char_traits@D@std@@V?$allocator@D@2@@std@@V?$vector@_KV?$allocator@_K@std@@@2@@std@@@2@$0A@@std@@@std@@IEAA?AV?$_Tree_iterator@V?$_Tree_val@U?$_Tree_simple_types@U?$pair@$$CBV?$basic_string@DU?$char_traits@D@std@@V?$allocator@D@2@@std@@V?$vector@_KV?$allocator@_K@std@@@2@@std@@@std@@@std@@@1@V?$_Tree_const_iterator@V?$_Tree_val@U?$_Tree_simple_types@U?$pair@$$CBV?$basic_string@DU?$char_traits@D@std@@V?$allocator@D@2@@std@@V?$vector@_KV?$allocator@_K@std@@@2@@std@@@std@@@std@@@1@AEAU?$pair@$$CBV?$basic_string@DU?$char_traits@D@std@@V?$allocator@D@2@@std@@V?$vector@_KV?$allocator@_K@std@@@2@@1@PEAU?$_Tree_node@U?$pair@$$CBV?$basic_string@DU?$char_traits@D@std@@V?$allocator@D@2@@std@@V?$vector@_KV?$allocator@_K@std@@@2@@std@@PEAX@1@@Z 00000001800290e4 f i XMPMeta-GetSet.obj
 0001:00028378       ??$_Buynode@AEBUpiecewise_construct_t@std@@V?$tuple@AEBV?$basic_string@DU?$char_traits@D@std@@V?$allocator@D@2@@std@@@2@V?$tuple@$$$V@2@@?$_Tree_buy@U?$pair@$$CBV?$basic_string@DU?$char_traits@D@std@@V?$allocator@D@2@@std@@V?$vector@_KV?$allocator@_K@std@@@2@@std@@V?$allocator@U?$pair@$$CBV?$basic_string@DU?$char_traits@D@std@@V?$allocator@D@2@@std@@V?$vector@_KV?$allocator@_K@std@@@2@@std@@@2@@std@@QEAAPEAU?$_Tree_node@U?$pair@$$CBV?$basic_string@DU?$char_traits@D@std@@V?$allocator@D@2@@std@@V?$vector@_KV?$allocator@_K@std@@@2@@std@@PEAX@1@AEBUpiecewise_construct_t@1@$$QEAV?$tuple@AEBV?$basic_string@DU?$char_traits@D@std@@V?$allocator@D@2@@std@@@1@$$QEAV?$tuple@$$$V@1@@Z 0000000180029378 f i XMPMeta-GetSet.obj
 0001:00028408       ?_Buynode0@?$_Tree_buy@U?$pair@$$CBV?$basic_string@DU?$char_traits@D@std@@V?$allocator@D@2@@std@@V?$vector@_KV?$allocator@_K@std@@@2@@std@@V?$allocator@U?$pair@$$CBV?$basic_string@DU?$char_traits@D@std@@V?$allocator@D@2@@std@@V?$vector@_KV?$allocator@_K@std@@@2@@std@@@2@@std@@QEAAPEAU?$_Tree_node@U?$pair@$$CBV?$basic_string@DU?$char_traits@D@std@@V?$allocator@D@2@@std@@V?$vector@_KV?$allocator@_K@std@@@2@@std@@PEAX@2@XZ 0000000180029408 f i XMPMeta-GetSet.obj
 0001:00028408       ?_Buynode0@?$_Tree_buy@U?$pair@$$CBV?$basic_string@DU?$char_traits@D@std@@V?$allocator@D@2@@std@@V?$vector@VXPathStepInfo@@V?$allocator@VXPathStepInfo@@@std@@@2@@std@@V?$allocator@U?$pair@$$CBV?$basic_string@DU?$char_traits@D@std@@V?$allocator@D@2@@std@@V?$vector@VXPathStepInfo@@V?$allocator@VXPathStepInfo@@@std@@@2@@std@@@2@@std@@QEAAPEAU?$_Tree_node@U?$pair@$$CBV?$basic_string@DU?$char_traits@D@std@@V?$allocator@D@2@@std@@V?$vector@VXPathStepInfo@@V?$allocator@VXPathStepInfo@@@std@@@2@@std@@PEAX@2@XZ 0000000180029408 f i XMPMeta.obj
 0001:00028458       ??$_Insert_at@AEAU?$pair@$$CBV?$basic_string@DU?$char_traits@D@std@@V?$allocator@D@2@@std@@V?$vector@_KV?$allocator@_K@std@@@2@@std@@PEAU?$_Tree_node@U?$pair@$$CBV?$basic_string@DU?$char_traits@D@std@@V?$allocator@D@2@@std@@V?$vector@_KV?$allocator@_K@std@@@2@@std@@PEAX@2@@?$_Tree@V?$_Tmap_traits@V?$basic_string@DU?$char_traits@D@std@@V?$allocator@D@2@@std@@V?$vector@_KV?$allocator@_K@std@@@2@U?$less@V?$basic_string@DU?$char_traits@D@std@@V?$allocator@D@2@@std@@@2@V?$allocator@U?$pair@$$CBV?$basic_string@DU?$char_traits@D@std@@V?$allocator@D@2@@std@@V?$vector@_KV?$allocator@_K@std@@@2@@std@@@2@$0A@@std@@@std@@IEAA?AV?$_Tree_iterator@V?$_Tree_val@U?$_Tree_simple_types@U?$pair@$$CBV?$basic_string@DU?$char_traits@D@std@@V?$allocator@D@2@@std@@V?$vector@_KV?$allocator@_K@std@@@2@@std@@@std@@@std@@@1@_NPEAU?$_Tree_node@U?$pair@$$CBV?$basic_string@DU?$char_traits@D@std@@V?$allocator@D@2@@std@@V?$vector@_KV?$allocator@_K@std@@@2@@std@@PEAX@1@AEAU?$pair@$$CBV?$basic_string@DU?$char_traits@D@std@@V?$allocator@D@2@@std@@V?$vector@_KV?$allocator@_K@std@@@2@@1@1@Z 0000000180029458 f i XMPMeta-GetSet.obj
 0001:00028714       ??$_Insert_nohint@AEAU?$pair@$$CBV?$basic_string@DU?$char_traits@D@std@@V?$allocator@D@2@@std@@V?$vector@_KV?$allocator@_K@std@@@2@@std@@PEAU?$_Tree_node@U?$pair@$$CBV?$basic_string@DU?$char_traits@D@std@@V?$allocator@D@2@@std@@V?$vector@_KV?$allocator@_K@std@@@2@@std@@PEAX@2@@?$_Tree@V?$_Tmap_traits@V?$basic_string@DU?$char_traits@D@std@@V?$allocator@D@2@@std@@V?$vector@_KV?$allocator@_K@std@@@2@U?$less@V?$basic_string@DU?$char_traits@D@std@@V?$allocator@D@2@@std@@@2@V?$allocator@U?$pair@$$CBV?$basic_string@DU?$char_traits@D@std@@V?$allocator@D@2@@std@@V?$vector@_KV?$allocator@_K@std@@@2@@std@@@2@$0A@@std@@@std@@IEAA?AU?$pair@V?$_Tree_iterator@V?$_Tree_val@U?$_Tree_simple_types@U?$pair@$$CBV?$basic_string@DU?$char_traits@D@std@@V?$allocator@D@2@@std@@V?$vector@_KV?$allocator@_K@std@@@2@@std@@@std@@@std@@@std@@_N@1@_NAEAU?$pair@$$CBV?$basic_string@DU?$char_traits@D@std@@V?$allocator@D@2@@std@@V?$vector@_KV?$allocator@_K@std@@@2@@1@PEAU?$_Tree_node@U?$pair@$$CBV?$basic_string@DU?$char_traits@D@std@@V?$allocator@D@2@@std@@V?$vector@_KV?$allocator@_K@std@@@2@@std@@PEAX@1@@Z 0000000180029714 f i XMPMeta-GetSet.obj
 0001:000288b4       ?NotifyClient@GenericErrorCallback@@QEBAXEAEAVXMP_Error@@PEBD@Z 00000001800298b4 f i XMPMeta-Parse.obj
 0001:00028978       ??0XMP_Node@@QEAA@PEAV0@PEBD1K@Z 0000000180029978 f i XMPMeta-Parse.obj
 0001:00028b84       ?NormalizeDCArrays@@YAXPEAVXMP_Node@@@Z 0000000180029b84 f   XMPMeta-Parse.obj
 0001:000290e0       ?MoveExplicitAliases@@YAXPEAVXMP_Node@@KAEAVErrorCallbackInfo@XMPMeta@@@Z 000000018002a0e0 f   XMPMeta-Parse.obj
 0001:0002994c       ?TouchUpDataModel@@YAXPEAVXMPMeta@@AEAVErrorCallbackInfo@1@@Z 000000018002a94c f   XMPMeta-Parse.obj
 0001:0002a1d4       ?ProcessXMLBuffer@XMPMeta@@AEAA_NPEBDK_N@Z 000000018002b1d4 f   XMPMeta-Parse.obj
 0001:0002a438       ?ProcessXMLTree@XMPMeta@@AEAAXK@Z 000000018002b438 f   XMPMeta-Parse.obj
 0001:0002a590       ?ParseFromBuffer@XMPMeta@@UEAAXPEBDKK@Z 000000018002b590 f   XMPMeta-Parse.obj
 0001:0002a6c4       ?insert@?$basic_string@DU?$char_traits@D@std@@V?$allocator@D@2@@std@@QEAAAEAV12@_KPEBD@Z 000000018002b6c4 f i XMPMeta-Parse.obj
 0001:0002a848       ?find@?$_Tree@V?$_Tmap_traits@V?$basic_string@DU?$char_traits@D@std@@V?$allocator@D@2@@std@@V?$vector@VXPathStepInfo@@V?$allocator@VXPathStepInfo@@@std@@@2@U?$less@V?$basic_string@DU?$char_traits@D@std@@V?$allocator@D@2@@std@@@2@V?$allocator@U?$pair@$$CBV?$basic_string@DU?$char_traits@D@std@@V?$allocator@D@2@@std@@V?$vector@VXPathStepInfo@@V?$allocator@VXPathStepInfo@@@std@@@2@@std@@@2@$0A@@std@@@std@@QEAA?AV?$_Tree_iterator@V?$_Tree_val@U?$_Tree_simple_types@U?$pair@$$CBV?$basic_string@DU?$char_traits@D@std@@V?$allocator@D@2@@std@@V?$vector@VXPathStepInfo@@V?$allocator@VXPathStepInfo@@@std@@@2@@std@@@std@@@std@@@2@AEBV?$basic_string@DU?$char_traits@D@std@@V?$allocator@D@2@@2@@Z 000000018002b848 f i XMPMeta-Parse.obj
 0001:0002a8dc       ?insert@?$basic_string@DU?$char_traits@D@std@@V?$allocator@D@2@@std@@QEAAAEAV12@_KAEBV12@00@Z 000000018002b8dc f i XMPMeta-Parse.obj
 0001:0002d66c       ?SerializeToBuffer@XMPMeta@@UEBAXPEAV?$basic_string@DU?$char_traits@D@std@@V?$allocator@D@2@@std@@KKPEBD1J@Z 000000018002e66c f   XMPMeta-Serialize.obj
 0001:0002e100       ??$?HDU?$char_traits@D@std@@V?$allocator@D@1@@std@@YA?AV?$basic_string@DU?$char_traits@D@std@@V?$allocator@D@2@@0@AEBV10@PEBD@Z 000000018002f100 f i XMPMeta-Serialize.obj
 0001:0002e1dc       ??_GGenericErrorCallback@@UEAAPEAXI@Z 000000018002f1dc f i XMPMeta.obj
 0001:0002e1dc       ??_EGenericErrorCallback@@UEAAPEAXI@Z 000000018002f1dc f i * CIL library *:* CIL module *
 0001:0002e1dc       ??_GErrorCallbackInfo@XMPMeta@@UEAAPEAXI@Z 000000018002f1dc f i XMPMeta.obj
 0001:0002e1dc       ??_EErrorCallbackInfo@XMPMeta@@UEAAPEAXI@Z 000000018002f1dc f i * CIL library *:* CIL module *
 0001:0002e204       ??1XMP_NamespaceTable@@UEAA@XZ 000000018002f204 f i XMPMeta.obj
 0001:0002e2a4       ??_GXMP_NamespaceTable@@UEAAPEAXI@Z 000000018002f2a4 f i XMPMeta.obj
 0001:0002e2a4       ??_EXMP_NamespaceTable@@UEAAPEAXI@Z 000000018002f2a4 f i * CIL library *:* CIL module *
 0001:0002e2dc       ??1?$map@V?$basic_string@DU?$char_traits@D@std@@V?$allocator@D@2@@std@@V12@U?$less@V?$basic_string@DU?$char_traits@D@std@@V?$allocator@D@2@@std@@@2@V?$allocator@U?$pair@$$CBV?$basic_string@DU?$char_traits@D@std@@V?$allocator@D@2@@std@@V12@@std@@@2@@std@@QEAA@XZ 000000018002f2dc f i XMPMeta.obj
 0001:0002e320       ??_GXMPMeta@@UEAAPEAXI@Z   000000018002f320 f i XMPMeta.obj
 0001:0002e320       ??_EXMPMeta@@UEAAPEAXI@Z   000000018002f320 f i * CIL library *:* CIL module *
 0001:0002e358       ?allocate@InternalClientAllocator@@UEAAPEAX_K@Z 000000018002f358 f i XMPMeta.obj
 0001:0002e364       ?deallocate@InternalClientAllocator@@UEAAXPEAX@Z 000000018002f364 f i XMPMeta.obj
 0001:0002e370       ?UnlockShared@SharedMutexImpl@AdobeXMPCore_Int@@UEAA?AW4eMultiThreadingErrorCode@AdobeXMPCommon_Int@@XZ 000000018002f370 f i SharedMutexImpl.obj
 0001:0002e370       ?TryLock@SharedMutexImpl@AdobeXMPCore_Int@@UEAA?AW4eMultiThreadingErrorCode@AdobeXMPCommon_Int@@XZ 000000018002f370 f i SharedMutexImpl.obj
 0001:0002e370       ?ValidateKey@IConfigurable_I@AdobeXMPCore_Int@@UEBA?AW4eConfigurableErrorCode@AdobeXMPCommon@@AEB_K@Z 000000018002f370 f i ClientDOMParserWrapperImpl.obj
 0001:0002e370       ?ValidateValue@RDFDOMParserImpl@AdobeXMPCore_Int@@UEBA?AW4eConfigurableErrorCode@AdobeXMPCommon@@AEB_KW4eDataType@IConfigurable@4@AEBTCombinedDataValue@64@@Z 000000018002f370 f i RDFDOMParserImpl.obj
 0001:0002e370       ?ValidateValue@ConfigurableImpl@AdobeXMPCore_Int@@UEBA?AW4eConfigurableErrorCode@AdobeXMPCommon@@AEB_KW4eDataType@IConfigurable@4@TCombinedDataValue@64@@Z 000000018002f370 f i ConfigurableImpl.obj
 0001:0002e370       ?GetParentNodeType@MetadataImpl@AdobeXMPCore_Int@@MEBA?AW4eNodeType@INode_v1@AdobeXMPCore@@XZ 000000018002f370 f i MetadataImpl.obj
 0001:0002e370       ?Unlock@SharedMutexImpl@AdobeXMPCore_Int@@UEAA?AW4eMultiThreadingErrorCode@AdobeXMPCommon_Int@@XZ 000000018002f370 f i SharedMutexImpl.obj
 0001:0002e370       ?LockShared@SharedMutexImpl@AdobeXMPCore_Int@@UEAA?AW4eMultiThreadingErrorCode@AdobeXMPCommon_Int@@XZ 000000018002f370 f i SharedMutexImpl.obj
 0001:0002e370       ?reallocate@InternalClientAllocator@@UEAAPEAXPEAX_K@Z 000000018002f370 f i XMPMeta.obj
 0001:0002e370       ?Lock@SharedMutexImpl@AdobeXMPCore_Int@@UEAA?AW4eMultiThreadingErrorCode@AdobeXMPCommon_Int@@XZ 000000018002f370 f i SharedMutexImpl.obj
 0001:0002e370       ?_Get_deleter@_Ref_count_base@std@@UEBAPEAXAEBVtype_info@@@Z 000000018002f370 f i INodeIterator_I.obj
 0001:0002e370       ?TryLockShared@SharedMutexImpl@AdobeXMPCore_Int@@UEAA?AW4eMultiThreadingErrorCode@AdobeXMPCommon_Int@@XZ 000000018002f370 f i SharedMutexImpl.obj
 0001:0002e374       ??_EInternalClientAllocator@@UEAAPEAXI@Z 000000018002f374 f i * CIL library *:* CIL module *
 0001:0002e374       ??_GInternalClientAllocator@@UEAAPEAXI@Z 000000018002f374 f i XMPMeta.obj
 0001:0002e39c       ?DumpNodeOptions@@YAXKP6AJPEAXPEBDK@Z0@Z 000000018002f39c f   XMPMeta.obj
 0001:0002f37c       ??1?$pair@$$CBV?$basic_string@DU?$char_traits@D@std@@V?$allocator@D@2@@std@@V?$vector@VXPathStepInfo@@V?$allocator@VXPathStepInfo@@@std@@@2@@std@@QEAA@XZ 000000018003037c f i XMPMeta.obj
 0001:0002f888       ??0XMPMeta@@QEAA@XZ        0000000180030888 f   XMPMeta.obj
 0001:0002f95c       ??1XMPMeta@@UEAA@XZ        000000018003095c f   XMPMeta.obj
 0001:0002f9b4       ?Initialize@XMPMeta@@SA_NP6APEAX_K@ZP6AXPEAX@Z@Z 00000001800309b4 f   XMPMeta.obj
 0001:00030548       ?Terminate@XMPMeta@@SAXXZ  0000000180031548 f   XMPMeta.obj
 0001:00030830       XMP_GetAssertNotify        0000000180031830 f   XMPMeta.obj
 0001:00030848       ?RegisterNamespace@XMPMeta@@SA_NPEBD0PEAPEBDPEAK@Z 0000000180031848 f   XMPMeta.obj
 0001:000309e8       ?DumpObject@XMPMeta@@UEBAXP6AJPEAXPEBDK@Z0@Z 00000001800319e8 f   XMPMeta.obj
 0001:00030d94       ?CountArrayItems@XMPMeta@@UEBAJPEBD0@Z 0000000180031d94 f   XMPMeta.obj
 0001:00030e68       ?GetObjectName@XMPMeta@@UEBAXPEAPEBDPEAK@Z 0000000180031e68 f   XMPMeta.obj
 0001:00030e88       ?SetObjectName@XMPMeta@@UEAAXPEBD@Z 0000000180031e88 f   XMPMeta.obj
 0001:00030f0c       ?Sort@XMPMeta@@UEAAXXZ     0000000180031f0c f   XMPMeta.obj
 0001:00030f94       ?Erase@XMPMeta@@UEAAXXZ    0000000180031f94 f   XMPMeta.obj
 0001:00030fcc       ?Clone@XMPMeta@@UEBAXPEAV1@K@Z 0000000180031fcc f   XMPMeta.obj
 0001:0003112c       ?GetLocalURI@XMP_Node@@QEBAXPEAPEBDPEAK@Z 000000018003212c f   XMPMeta.obj
 0001:00031240       ?GetFullQualifiedName@XMP_Node@@QEBAXPEAPEBDPEAK01@Z 0000000180032240 f   XMPMeta.obj
 0001:000313b4       ?SetErrorCallback@XMPMeta@@UEAAXP6AEP6A_NPEAXEJPEBD@Z0EJ1@Z20K@Z 00000001800323b4 f   XMPMeta.obj
 0001:000313e8       ?ResetErrorCallbackLimit@XMPMeta@@UEAAXK@Z 00000001800323e8 f   XMPMeta.obj
 0001:00031400       ?CanNotify@ErrorCallbackInfo@XMPMeta@@UEBA_NXZ 0000000180032400 f   XMPMeta.obj
 0001:0003140c       ?ClientCallbackWrapper@ErrorCallbackInfo@XMPMeta@@UEBA_NPEBDEJ0@Z 000000018003240c f   XMPMeta.obj
 0001:00031434       ?push_back@?$vector@VXPathStepInfo@@V?$allocator@VXPathStepInfo@@@std@@@std@@QEAAX$$QEAVXPathStepInfo@@@Z 0000000180032434 f i XMPMeta.obj
 0001:00031538       ??4?$vector@VXPathStepInfo@@V?$allocator@VXPathStepInfo@@@std@@@std@@QEAAAEAV01@AEBV01@@Z 0000000180032538 f i XMPMeta.obj
 0001:000317f4       ??1?$_Tree@V?$_Tmap_traits@V?$basic_string@DU?$char_traits@D@std@@V?$allocator@D@2@@std@@V?$vector@VXPathStepInfo@@V?$allocator@VXPathStepInfo@@@std@@@2@U?$less@V?$basic_string@DU?$char_traits@D@std@@V?$allocator@D@2@@std@@@2@V?$allocator@U?$pair@$$CBV?$basic_string@DU?$char_traits@D@std@@V?$allocator@D@2@@std@@V?$vector@VXPathStepInfo@@V?$allocator@VXPathStepInfo@@@std@@@2@@std@@@2@$0A@@std@@@std@@QEAA@XZ 00000001800327f4 f i XMPMeta.obj
 0001:000318a4       ?_Reserve@?$vector@VXPathStepInfo@@V?$allocator@VXPathStepInfo@@@std@@@std@@IEAAX_K@Z 00000001800328a4 f i XMPMeta.obj
 0001:00031958       ?_Reallocate@?$vector@VXPathStepInfo@@V?$allocator@VXPathStepInfo@@@std@@@std@@IEAAX_K@Z 0000000180032958 f i XMPMeta.obj
 0001:00031a70       ?_Erase@?$_Tree@V?$_Tmap_traits@V?$basic_string@DU?$char_traits@D@std@@V?$allocator@D@2@@std@@V12@U?$less@V?$basic_string@DU?$char_traits@D@std@@V?$allocator@D@2@@std@@@2@V?$allocator@U?$pair@$$CBV?$basic_string@DU?$char_traits@D@std@@V?$allocator@D@2@@std@@V12@@std@@@2@$0A@@std@@@std@@IEAAXPEAU?$_Tree_node@U?$pair@$$CBV?$basic_string@DU?$char_traits@D@std@@V?$allocator@D@2@@std@@V12@@std@@PEAX@2@@Z 0000000180032a70 f i XMPMeta.obj
 0001:00031b14       ?_Erase@?$_Tree@V?$_Tmap_traits@V?$basic_string@DU?$char_traits@D@std@@V?$allocator@D@2@@std@@V?$vector@VXPathStepInfo@@V?$allocator@VXPathStepInfo@@@std@@@2@U?$less@V?$basic_string@DU?$char_traits@D@std@@V?$allocator@D@2@@std@@@2@V?$allocator@U?$pair@$$CBV?$basic_string@DU?$char_traits@D@std@@V?$allocator@D@2@@std@@V?$vector@VXPathStepInfo@@V?$allocator@VXPathStepInfo@@@std@@@2@@std@@@2@$0A@@std@@@std@@IEAAXPEAU?$_Tree_node@U?$pair@$$CBV?$basic_string@DU?$char_traits@D@std@@V?$allocator@D@2@@std@@V?$vector@VXPathStepInfo@@V?$allocator@VXPathStepInfo@@@std@@@2@@std@@PEAX@2@@Z 0000000180032b14 f i XMPMeta.obj
 0001:00031b98       ?_Buyheadnode@?$_Tree_alloc@$0A@U?$_Tree_base_types@U?$pair@$$CBV?$basic_string@DU?$char_traits@D@std@@V?$allocator@D@2@@std@@V12@@std@@V?$allocator@U?$pair@$$CBV?$basic_string@DU?$char_traits@D@std@@V?$allocator@D@2@@std@@V12@@std@@@2@@std@@@std@@QEAAPEAU?$_Tree_node@U?$pair@$$CBV?$basic_string@DU?$char_traits@D@std@@V?$allocator@D@2@@std@@V12@@std@@PEAX@2@XZ 0000000180032b98 f i XMPMeta.obj
 0001:00031bd8       ??$_Insert_nohint@U?$pair@$$CBV?$basic_string@DU?$char_traits@D@std@@V?$allocator@D@2@@std@@V?$vector@VXPathStepInfo@@V?$allocator@VXPathStepInfo@@@std@@@2@@std@@U_Nil@2@@?$_Tree@V?$_Tmap_traits@V?$basic_string@DU?$char_traits@D@std@@V?$allocator@D@2@@std@@V?$vector@VXPathStepInfo@@V?$allocator@VXPathStepInfo@@@std@@@2@U?$less@V?$basic_string@DU?$char_traits@D@std@@V?$allocator@D@2@@std@@@2@V?$allocator@U?$pair@$$CBV?$basic_string@DU?$char_traits@D@std@@V?$allocator@D@2@@std@@V?$vector@VXPathStepInfo@@V?$allocator@VXPathStepInfo@@@std@@@2@@std@@@2@$0A@@std@@@std@@IEAA?AU?$pair@V?$_Tree_iterator@V?$_Tree_val@U?$_Tree_simple_types@U?$pair@$$CBV?$basic_string@DU?$char_traits@D@std@@V?$allocator@D@2@@std@@V?$vector@VXPathStepInfo@@V?$allocator@VXPathStepInfo@@@std@@@2@@std@@@std@@@std@@@std@@_N@1@_N$$QEAU?$pair@$$CBV?$basic_string@DU?$char_traits@D@std@@V?$allocator@D@2@@std@@V?$vector@VXPathStepInfo@@V?$allocator@VXPathStepInfo@@@std@@@2@@1@U_Nil@1@@Z 0000000180032bd8 f i XMPMeta.obj
 0001:00031d28       ??0?$vector@VXPathStepInfo@@V?$allocator@VXPathStepInfo@@@std@@@std@@QEAA@AEBV01@@Z 0000000180032d28 f i XMPMeta.obj
 0001:00031e04       ??$_Sort@PEAPEAVXMP_Node@@_JP6A_NPEAV1@0@Z@std@@YAXPEAPEAVXMP_Node@@0_JP6A_NPEAV1@2@Z@Z 0000000180032e04 f i XMPMeta.obj
 0001:00031fbc       ??$_Insert_at@U?$pair@$$CBV?$basic_string@DU?$char_traits@D@std@@V?$allocator@D@2@@std@@V?$vector@VXPathStepInfo@@V?$allocator@VXPathStepInfo@@@std@@@2@@std@@U_Nil@2@@?$_Tree@V?$_Tmap_traits@V?$basic_string@DU?$char_traits@D@std@@V?$allocator@D@2@@std@@V?$vector@VXPathStepInfo@@V?$allocator@VXPathStepInfo@@@std@@@2@U?$less@V?$basic_string@DU?$char_traits@D@std@@V?$allocator@D@2@@std@@@2@V?$allocator@U?$pair@$$CBV?$basic_string@DU?$char_traits@D@std@@V?$allocator@D@2@@std@@V?$vector@VXPathStepInfo@@V?$allocator@VXPathStepInfo@@@std@@@2@@std@@@2@$0A@@std@@@std@@IEAA?AV?$_Tree_iterator@V?$_Tree_val@U?$_Tree_simple_types@U?$pair@$$CBV?$basic_string@DU?$char_traits@D@std@@V?$allocator@D@2@@std@@V?$vector@VXPathStepInfo@@V?$allocator@VXPathStepInfo@@@std@@@2@@std@@@std@@@std@@@1@_NPEAU?$_Tree_node@U?$pair@$$CBV?$basic_string@DU?$char_traits@D@std@@V?$allocator@D@2@@std@@V?$vector@VXPathStepInfo@@V?$allocator@VXPathStepInfo@@@std@@@2@@std@@PEAX@1@$$QEAU?$pair@$$CBV?$basic_string@DU?$char_traits@D@std@@V?$allocator@D@2@@std@@V?$vector@VXPathStepInfo@@V?$allocator@VXPathStepInfo@@@std@@@2@@1@U_Nil@1@@Z 0000000180032fbc f i XMPMeta.obj
 0001:0003224c       ??1?$_Temp_iterator@PEAVXMP_Node@@@std@@QEAA@XZ 000000018003324c f i XMPMeta.obj
 0001:00032264       ??$_Unguarded_partition@PEAPEAVXMP_Node@@P6A_NPEAV1@0@Z@std@@YA?AU?$pair@PEAPEAVXMP_Node@@PEAPEAV1@@0@PEAPEAVXMP_Node@@0P6A_NPEAV2@1@Z@Z 0000000180033264 f i XMPMeta.obj
 0001:000324b0       ??$_Insertion_sort@PEAPEAVXMP_Node@@P6A_NPEAV1@0@Z@std@@YAXPEAPEAVXMP_Node@@0P6A_NPEAV1@1@Z@Z 00000001800334b0 f i XMPMeta.obj
 0001:0003256c       ??$_Stable_sort@PEAPEAVXMP_Node@@_JPEAV1@P6A_NPEAV1@0@Z@std@@YAXPEAPEAVXMP_Node@@0_JAEAV?$_Temp_iterator@PEAVXMP_Node@@@0@P6A_NPEAV1@3@Z@Z 000000018003356c f i XMPMeta.obj
 0001:00032660       ?_Maxlen@?$_Temp_iterator@PEAVXMP_Node@@@std@@QEAA_JXZ 0000000180033660 f i XMPMeta.obj
 0001:000326f8       ??$_Buffered_merge_sort@PEAPEAVXMP_Node@@_JPEAV1@P6A_NPEAV1@0@Z@std@@YAXPEAPEAVXMP_Node@@0_JAEAV?$_Temp_iterator@PEAVXMP_Node@@@0@P6A_NPEAV1@3@Z@Z 00000001800336f8 f i XMPMeta.obj
 0001:00032940       ??$_Buffered_merge@PEAPEAVXMP_Node@@_JPEAV1@P6A_NPEAV1@0@Z@std@@YAXPEAPEAVXMP_Node@@00_J1AEAV?$_Temp_iterator@PEAVXMP_Node@@@0@P6A_NPEAV1@3@Z@Z 0000000180033940 f i XMPMeta.obj
 0001:00032d2c       ??$_Uninit_copy@PEAVXPathStepInfo@@PEAV1@V?$allocator@VXPathStepInfo@@@std@@@std@@YAPEAVXPathStepInfo@@PEAV1@00AEAU?$_Wrap_alloc@V?$allocator@VXPathStepInfo@@@std@@@0@U_Nonscalar_ptr_iterator_tag@0@@Z 0000000180033d2c f i XMPMeta.obj
 0001:00032d2c       ??$_Uninit_copy@PEBVXPathStepInfo@@PEAV1@V?$allocator@VXPathStepInfo@@@std@@@std@@YAPEAVXPathStepInfo@@PEBV1@0PEAV1@AEAU?$_Wrap_alloc@V?$allocator@VXPathStepInfo@@@std@@@0@U_Nonscalar_ptr_iterator_tag@0@@Z 0000000180033d2c f i XMPMeta.obj
 0001:00032d2c       ??$_Uninit_move@PEAVXPathStepInfo@@PEAV1@V?$allocator@VXPathStepInfo@@@std@@V1@@std@@YAPEAVXPathStepInfo@@PEAV1@00AEAU?$_Wrap_alloc@V?$allocator@VXPathStepInfo@@@std@@@0@0U_Nonscalar_ptr_iterator_tag@0@@Z 0000000180033d2c f i XMPMeta.obj
 0001:00032da8       ??$_Buynode@U?$pair@$$CBV?$basic_string@DU?$char_traits@D@std@@V?$allocator@D@2@@std@@V?$vector@VXPathStepInfo@@V?$allocator@VXPathStepInfo@@@std@@@2@@std@@@?$_Tree_buy@U?$pair@$$CBV?$basic_string@DU?$char_traits@D@std@@V?$allocator@D@2@@std@@V?$vector@VXPathStepInfo@@V?$allocator@VXPathStepInfo@@@std@@@2@@std@@V?$allocator@U?$pair@$$CBV?$basic_string@DU?$char_traits@D@std@@V?$allocator@D@2@@std@@V?$vector@VXPathStepInfo@@V?$allocator@VXPathStepInfo@@@std@@@2@@std@@@2@@std@@QEAAPEAU?$_Tree_node@U?$pair@$$CBV?$basic_string@DU?$char_traits@D@std@@V?$allocator@D@2@@std@@V?$vector@VXPathStepInfo@@V?$allocator@VXPathStepInfo@@@std@@@2@@std@@PEAX@1@$$QEAU?$pair@$$CBV?$basic_string@DU?$char_traits@D@std@@V?$allocator@D@2@@std@@V?$vector@VXPathStepInfo@@V?$allocator@VXPathStepInfo@@@std@@@2@@1@@Z 0000000180033da8 f i XMPMeta.obj
 0001:00032e58       ??$_Med3@PEAPEAVXMP_Node@@P6A_NPEAV1@0@Z@std@@YAXPEAPEAVXMP_Node@@00P6A_NPEAV1@1@Z@Z 0000000180033e58 f i XMPMeta.obj
 0001:00032ed4       ??$_Adjust_heap@PEAPEAVXMP_Node@@_JPEAV1@P6A_NPEAV1@0@Z@std@@YAXPEAPEAVXMP_Node@@_J1$$QEAPEAV1@P6A_NPEAV1@3@Z@Z 0000000180033ed4 f i XMPMeta.obj
 0001:00032f9c       ??$_Move@PEAPEAVXMP_Node@@V?$_Temp_iterator@PEAVXMP_Node@@@std@@@std@@YA?AV?$_Temp_iterator@PEAVXMP_Node@@@0@PEAPEAVXMP_Node@@0V10@@Z 0000000180033f9c f i XMPMeta.obj
 0001:00032ff0       ??$_Merge@PEAPEAVXMP_Node@@PEAPEAV1@PEAPEAV1@P6A_NPEAV1@0@Z@std@@YAPEAPEAVXMP_Node@@PEAPEAV1@0000P6A_NPEAV1@1@Z@Z 0000000180033ff0 f i XMPMeta.obj
 0001:000330b8       ??$_Buffered_rotate@PEAPEAVXMP_Node@@_JPEAV1@@std@@YAPEAPEAVXMP_Node@@PEAPEAV1@00_J1AEAV?$_Temp_iterator@PEAVXMP_Node@@@0@@Z 00000001800340b8 f i XMPMeta.obj
 0001:00033300       ??$_Merge@PEAPEAVXMP_Node@@PEAPEAV1@V?$_Temp_iterator@PEAVXMP_Node@@@std@@P6A_NPEAV1@0@Z@std@@YA?AV?$_Temp_iterator@PEAVXMP_Node@@@0@PEAPEAVXMP_Node@@000V10@P6A_NPEAV2@2@Z@Z 0000000180034300 f i XMPMeta.obj
 0001:000334a0       ??$_Move@PEAPEAVXMP_Node@@V?$_Temp_iterator@PEAVXMP_Node@@@std@@@std@@YA?AV?$_Temp_iterator@PEAVXMP_Node@@@0@PEAPEAVXMP_Node@@0V10@U_Nonscalar_ptr_iterator_tag@0@@Z 00000001800344a0 f i XMPMeta.obj
 0001:0003354c       ??_EXMPMeta2@@UEAAPEAXI@Z  000000018003454c f i * CIL library *:* CIL module *
 0001:0003354c       ??_GXMPMeta2@@UEAAPEAXI@Z  000000018003454c f i XMPMeta2-GetSet.obj
 0001:00033584       ?QualifiersIterator@INode_v1@AdobeXMPCore@@QEBA?AV?$shared_ptr@$$CBVINodeIterator_v1@AdobeXMPCore@@@std@@XZ 0000000180034584 f i XMPMeta2-GetSet.obj
 0001:00033b24       ??0XMPMeta2@@QEAA@XZ       0000000180034b24 f   XMPMeta2-GetSet.obj
 0001:00033da0       ??1XMPMeta2@@UEAA@XZ       0000000180034da0 f   XMPMeta2-GetSet.obj
 0001:00033ea4       ?GetProperty@XMPMeta2@@UEBA_NPEBD0PEAPEBDPEAK2@Z 0000000180034ea4 f   XMPMeta2-GetSet.obj
 0001:000359f4       ?CountArrayItems@XMPMeta2@@UEBAJPEBD0@Z 00000001800369f4 f   XMPMeta2-GetSet.obj
 0001:00035ba4       ?ParseFromBuffer@XMPMeta2@@UEAAXPEBDKK@Z 0000000180036ba4 f   XMPMeta2-GetSet.obj
 0001:00035d5c       ?SerializeToBuffer@XMPMeta2@@UEBAXPEAV?$basic_string@DU?$char_traits@D@std@@V?$allocator@D@2@@std@@KKPEBD1J@Z 0000000180036d5c f   XMPMeta2-GetSet.obj
 0001:00035f78       ?Erase@XMPMeta2@@UEAAXXZ   0000000180036f78 f   XMPMeta2-GetSet.obj
 0001:00035fcc       ?DoesPropertyExist@XMPMeta2@@UEBA_NPEBD0@Z 0000000180036fcc f   XMPMeta2-GetSet.obj
 0001:0003607c       ?SetProperty@XMPMeta2@@UEAAXPEBD00K@Z 000000018003707c f   XMPMeta2-GetSet.obj
 0001:000361b8       ?SetArrayItem@XMPMeta2@@UEAAXPEBD0J0K@Z 00000001800371b8 f   XMPMeta2-GetSet.obj
 0001:00036370       ?AppendArrayItem@XMPMeta2@@UEAAXPEBD0K0K@Z 0000000180037370 f   XMPMeta2-GetSet.obj
 0001:00036708       ?SetQualifier@XMPMeta2@@UEAAXPEBD0000K@Z 0000000180037708 f   XMPMeta2-GetSet.obj
 0001:000368a4       ?Clone@XMPMeta2@@UEBAXPEAVXMPMeta@@K@Z 00000001800378a4 f   XMPMeta2-GetSet.obj
 0001:00036a4c       ?DeleteProperty@XMPMeta2@@UEAAXPEBD0@Z 0000000180037a4c f   XMPMeta2-GetSet.obj
 0001:00036f9c       ?GetObjectName@XMPMeta2@@UEBAXPEAPEBDPEAK@Z 0000000180037f9c f   XMPMeta2-GetSet.obj
 0001:0003707c       ?SetObjectName@XMPMeta2@@UEAAXPEBD@Z 000000018003807c f   XMPMeta2-GetSet.obj
 0001:000382b8       ?GetLocalizedText@XMPMeta2@@UEBA_NPEBD000PEAPEBDPEAK122@Z 00000001800392b8 f   XMPMeta2-GetSet.obj
 0001:000387b0       ?DeleteLocalizedText@XMPMeta2@@UEAAXPEBD000@Z 00000001800397b0 f   XMPMeta2-GetSet.obj
 0001:0003963c       ?SetLocalizedText@XMPMeta2@@UEAAXPEBD0000K@Z 000000018003a63c f   XMPMeta2-GetSet.obj
 0001:0003bcdc       ?DumpObject@XMPMeta2@@UEBAXP6AJPEAXPEBDK@Z0@Z 000000018003ccdc f   XMPMeta2-GetSet.obj
 0001:0003c7ec       ?SetErrorCallback@XMPMeta2@@UEAAXP6AEP6A_NPEAXEJPEBD@Z0EJ1@Z20K@Z 000000018003d7ec f   XMPMeta2-GetSet.obj
 0001:0003c850       ?ResetErrorCallbackLimit@XMPMeta2@@UEAAXK@Z 000000018003d850 f   XMPMeta2-GetSet.obj
 0001:0003ce78       ?IsInternalProperty@@YA_NAEBV?$basic_string@DU?$char_traits@D@std@@V?$allocator@D@2@@std@@0@Z 000000018003de78 f   XMPUtils-FileInfo.obj
 0001:0003df14       ?CheckSpecialProperty@@YA_NV?$basic_string@DU?$char_traits@D@std@@V?$allocator@D@2@@std@@QEAPEBD@Z 000000018003ef14 f   XMPUtils-FileInfo.obj
 0001:0003e158       ?CatenateArrayItems_v2@XMPUtils@@SAXAEBVXMPMeta@@PEBD111KPEAV?$basic_string@DU?$char_traits@D@std@@V?$allocator@D@2@@std@@@Z 000000018003f158 f   XMPUtils-FileInfo.obj
 0001:0003ec44       ?CatenateArrayItems@XMPUtils@@SAXAEBVXMPMeta@@PEBD111KPEAV?$basic_string@DU?$char_traits@D@std@@V?$allocator@D@2@@std@@@Z 000000018003fc44 f   XMPUtils-FileInfo.obj
 0001:0003f308       ?SeparateArrayItems_v2@XMPUtils@@SAXPEAVXMPMeta@@PEBD1K1@Z 0000000180040308 f   XMPUtils-FileInfo.obj
 0001:00040d9c       ?SeparateArrayItems@XMPUtils@@SAXPEAVXMPMeta@@PEBD1K1@Z 0000000180041d9c f   XMPUtils-FileInfo.obj
 0001:000414a8       ?ApplyTemplate@XMPUtils@@SAXPEAVXMPMeta@@AEBV2@K@Z 00000001800424a8 f   XMPUtils-FileInfo.obj
 0001:00041944       ?RemoveProperties@XMPUtils@@SAXPEAVXMPMeta@@PEBD1K@Z 0000000180042944 f   XMPUtils-FileInfo.obj
 0001:00041c78       ?AppendProperties@XMPUtils@@SAXAEBVXMPMeta@@PEAV2@K@Z 0000000180042c78 f   XMPUtils-FileInfo.obj
 0001:00041eb8       ?DuplicateSubtree@XMPUtils@@SAXAEBVXMPMeta@@PEAV2@PEBD222K@Z 0000000180042eb8 f   XMPUtils-FileInfo.obj
 0001:000428ac       ?CollectMultiFileXMP@XMPUtils@@SAXAEBVXMPMeta@@PEAV2@K@Z 00000001800438ac f   XMPUtils-FileInfo.obj
 0001:00042d68       ?DistributeMultiFileXMP@XMPUtils@@SAXAEBVXMPMeta@@PEAV2@K@Z 0000000180043d68 f   XMPUtils-FileInfo.obj
 0001:00042ffc       ?IsPropertyMultiValued@XMPUtils@@SA_NAEBVXMPMeta@@PEBD1@Z 0000000180043ffc f   XMPUtils-FileInfo.obj
 0001:00043134       ?GetDateRange@XMPUtils@@SA_NAEBVXMPMeta@@PEBD1PEAUXMP_DateTime@@2@Z 0000000180044134 f   XMPUtils-FileInfo.obj
 0001:00043388       ?GetMergedListPath@XMPUtils@@SA_NAEBVXMPMeta@@PEBD1PEAV?$basic_string@DU?$char_traits@D@std@@V?$allocator@D@2@@std@@@Z 0000000180044388 f   XMPUtils-FileInfo.obj
 0001:00043594       ?RemoveMultiValueInfo@XMPUtils@@SAXPEAVXMPMeta@@PEBD1@Z 0000000180044594 f   XMPUtils-FileInfo.obj
 0001:000439cc       ??0?$vector@PEAVXMP_Node@@V?$allocator@PEAVXMP_Node@@@std@@@std@@QEAA@AEBV01@@Z 00000001800449cc f i XMPUtils-FileInfo.obj
 0001:00043a8c       ??1?$vector@V?$shared_ptr@$$CBVINode_v1@AdobeXMPCore@@@std@@V?$allocator@V?$shared_ptr@$$CBVINode_v1@AdobeXMPCore@@@std@@@2@@std@@QEAA@XZ 0000000180044a8c f i XMPUtils.obj
 0001:00043a8c       ??1?$vector@V?$shared_ptr@VINode_v1@AdobeXMPCore@@@std@@V?$allocator@V?$shared_ptr@VINode_v1@AdobeXMPCore@@@std@@@2@@std@@QEAA@XZ 0000000180044a8c f i XMPUtils-FileInfo.obj
 0001:00043b14       ??1?$vector@_NV?$allocator@_N@std@@@std@@QEAA@XZ 0000000180044b14 f i XMPUtils-FileInfo.obj
 0001:00043b44       ?_Reserve@?$vector@V?$shared_ptr@VINode_v1@AdobeXMPCore@@@std@@V?$allocator@V?$shared_ptr@VINode_v1@AdobeXMPCore@@@std@@@2@@std@@IEAAX_K@Z 0000000180044b44 f i XMPUtils-FileInfo.obj
 0001:00043b44       ?_Reserve@?$vector@V?$shared_ptr@$$CBVINode_v1@AdobeXMPCore@@@std@@V?$allocator@V?$shared_ptr@$$CBVINode_v1@AdobeXMPCore@@@std@@@2@@std@@IEAAX_K@Z 0000000180044b44 f i XMPUtils.obj
 0001:00043bbc       ?_Reallocate@?$vector@V?$shared_ptr@$$CBVINode_v1@AdobeXMPCore@@@std@@V?$allocator@V?$shared_ptr@$$CBVINode_v1@AdobeXMPCore@@@std@@@2@@std@@IEAAX_K@Z 0000000180044bbc f i XMPUtils.obj
 0001:00043bbc       ?_Reallocate@?$vector@V?$shared_ptr@VINode_v1@AdobeXMPCore@@@std@@V?$allocator@V?$shared_ptr@VINode_v1@AdobeXMPCore@@@std@@@2@@std@@IEAAX_K@Z 0000000180044bbc f i XMPUtils-FileInfo.obj
 0001:00043cac       ?_Construct_n@?$vector@IV?$allocator@_N@std@@@std@@QEAAX_KPEBI@Z 0000000180044cac f i XMPUtils-FileInfo.obj
 0001:00043d54       ??$?4VIArrayNode_v1@AdobeXMPCore@@@?$shared_ptr@VINode_v1@AdobeXMPCore@@@std@@QEAAAEAV01@$$QEAV?$shared_ptr@VIArrayNode_v1@AdobeXMPCore@@@1@@Z 0000000180044d54 f i XMPUtils-FileInfo.obj
 0001:00043d54       ??$?4VISimpleNode_v1@AdobeXMPCore@@@?$shared_ptr@VINode_v1@AdobeXMPCore@@@std@@QEAAAEAV01@$$QEAV?$shared_ptr@VISimpleNode_v1@AdobeXMPCore@@@1@@Z 0000000180044d54 f i XMPUtils.obj
 0001:00043dd4       ??$_Uninit_move@PEAV?$shared_ptr@VINode_v1@AdobeXMPCore@@@std@@PEAV12@V?$allocator@V?$shared_ptr@VINode_v1@AdobeXMPCore@@@std@@@2@V12@@std@@YAPEAV?$shared_ptr@VINode_v1@AdobeXMPCore@@@0@PEAV10@00AEAU?$_Wrap_alloc@V?$allocator@V?$shared_ptr@VINode_v1@AdobeXMPCore@@@std@@@std@@@0@0U_Nonscalar_ptr_iterator_tag@0@@Z 0000000180044dd4 f i XMPUtils-FileInfo.obj
 0001:00043dd4       ??$_Uninit_move@PEAV?$shared_ptr@$$CBVINode_v1@AdobeXMPCore@@@std@@PEAV12@V?$allocator@V?$shared_ptr@$$CBVINode_v1@AdobeXMPCore@@@std@@@2@V12@@std@@YAPEAV?$shared_ptr@$$CBVINode_v1@AdobeXMPCore@@@0@PEAV10@00AEAU?$_Wrap_alloc@V?$allocator@V?$shared_ptr@$$CBVINode_v1@AdobeXMPCore@@@std@@@std@@@0@0U_Nonscalar_ptr_iterator_tag@0@@Z 0000000180044dd4 f i XMPUtils.obj
 0001:00043e1c       ?GetQualifier@INode_v1@AdobeXMPCore@@QEBA?AV?$shared_ptr@$$CBVINode_v1@AdobeXMPCore@@@std@@PEBD_K01@Z 0000000180044e1c f i XMPUtils.obj
 0001:00043e98       ?SetNode@XMPUtils@@SAXAEBV?$shared_ptr@VINode_v1@AdobeXMPCore@@@std@@PEBDK@Z 0000000180044e98 f   XMPUtils.obj
 0001:00044298       ?CreateArrayChildNode@XMPUtils@@SA?AV?$shared_ptr@VINode_v1@AdobeXMPCore@@@std@@AEBV?$shared_ptr@VIArrayNode_v1@AdobeXMPCore@@@3@K@Z 0000000180045298 f   XMPUtils.obj
 0001:00044a4c       ?DoSetArrayItem@XMPUtils@@SAXAEBV?$shared_ptr@VIArrayNode_v1@AdobeXMPCore@@@std@@JPEBDK@Z 0000000180045a4c f   XMPUtils.obj
 0001:00044ebc       ?SetImplicitNodeInformation@XMPUtils@@SAXAEA_NAEAV?$shared_ptr@VINode_v1@AdobeXMPCore@@@std@@1AEAJJ@Z 0000000180045ebc f   XMPUtils.obj
 0001:00044f44       ?GetNameSpaceAndNameFromStepValue@XMPUtils@@SAXAEBV?$basic_string@DU?$char_traits@D@std@@V?$allocator@D@2@@std@@AEBV?$shared_ptr@$$CBVINameSpacePrefixMap_v1@AdobeXMPCore@@@3@AEAV23@2@Z 0000000180045f44 f   XMPUtils.obj
 0001:000450a4       ?CreateTerminalNode@XMPUtils@@SA?AV?$shared_ptr@VINode_v1@AdobeXMPCore@@@std@@PEBD0K@Z 00000001800460a4 f   XMPUtils.obj
 0001:0004532c       ?HandleConstAliasStep@XMPUtils@@SA_NAEBV?$shared_ptr@VIMetadata_v1@AdobeXMPCore@@@std@@AEAV?$shared_ptr@VINode_v1@AdobeXMPCore@@@3@AEBV?$vector@VXPathStepInfo@@V?$allocator@VXPathStepInfo@@@std@@@3@PEAJ@Z 000000018004632c f   XMPUtils.obj
 0001:00045a70       ?HandleAliasStep@XMPUtils@@SA_NAEBV?$shared_ptr@VIMetadata_v1@AdobeXMPCore@@@std@@AEAV?$vector@VXPathStepInfo@@V?$allocator@VXPathStepInfo@@@std@@@3@_NKAEAV?$shared_ptr@VINode_v1@AdobeXMPCore@@@3@PEAJ2@Z 0000000180046a70 f   XMPUtils.obj
 0001:00046fd4       ?FindNode@XMPUtils@@SA_NAEBV?$shared_ptr@VIMetadata_v1@AdobeXMPCore@@@std@@AEAV?$vector@VXPathStepInfo@@V?$allocator@VXPathStepInfo@@@std@@@3@_NKAEAV?$shared_ptr@VINode_v1@AdobeXMPCore@@@3@PEAJ2@Z 0000000180047fd4 f   XMPUtils.obj
 0001:0004ab18       ?FindCnstNode@XMPUtils@@SA_NAEBV?$shared_ptr@VIMetadata_v1@AdobeXMPCore@@@std@@AEAV?$vector@VXPathStepInfo@@V?$allocator@VXPathStepInfo@@@std@@@3@AEAV?$shared_ptr@VINode_v1@AdobeXMPCore@@@3@PEAKPEAJ@Z 000000018004bb18 f   XMPUtils.obj
 0001:0004c70c       ?GetNodeChildCount@XMPUtils@@SA_KAEBV?$shared_ptr@$$CBVINode_v1@AdobeXMPCore@@@std@@@Z 000000018004d70c f   XMPUtils.obj
 0001:0004c7fc       ?GetNodeChildIterator@XMPUtils@@SA?AV?$shared_ptr@$$CBVINodeIterator_v1@AdobeXMPCore@@@std@@AEBV?$shared_ptr@$$CBVINode_v1@AdobeXMPCore@@@3@@Z 000000018004d7fc f   XMPUtils.obj
 0001:0004c970       ?GetIXMPOptions@XMPUtils@@SAKAEBV?$shared_ptr@$$CBVINode_v1@AdobeXMPCore@@@std@@@Z 000000018004d970 f   XMPUtils.obj
 0001:0004cfe8       ?FindChildNode@XMPUtils@@SA?AV?$shared_ptr@VINode_v1@AdobeXMPCore@@@std@@AEBV23@PEBD1_NPEA_K@Z 000000018004dfe8 f   XMPUtils.obj
 0001:0004d3c4       ?GetNodeValue@XMPUtils@@SA?AV?$shared_ptr@$$CBVIUTF8String_v1@AdobeXMPCommon@@@std@@AEBV?$shared_ptr@VINode_v1@AdobeXMPCore@@@3@@Z 000000018004e3c4 f   XMPUtils.obj
 0001:0004d454       ?LookupFieldSelector_v2@XMPUtils@@SAJAEBV?$shared_ptr@VIArrayNode_v1@AdobeXMPCore@@@std@@V?$basic_string@DU?$char_traits@D@std@@V?$allocator@D@2@@3@1@Z 000000018004e454 f   XMPUtils.obj
 0001:0004f0c8       ?ComposeArrayItemPath@XMPUtils@@SAXPEBD0JPEAV?$basic_string@DU?$char_traits@D@std@@V?$allocator@D@2@@std@@@Z 00000001800500c8 f   XMPUtils.obj
 0001:0004f278       ?ComposeStructFieldPath@XMPUtils@@SAXPEBD000PEAV?$basic_string@DU?$char_traits@D@std@@V?$allocator@D@2@@std@@@Z 0000000180050278 f   XMPUtils.obj
 0001:0004f44c       ?ComposeQualifierPath@XMPUtils@@SAXPEBD000PEAV?$basic_string@DU?$char_traits@D@std@@V?$allocator@D@2@@std@@@Z 000000018005044c f   XMPUtils.obj
 0001:0004f630       ?ComposeLangSelector@XMPUtils@@SAXPEBD00PEAV?$basic_string@DU?$char_traits@D@std@@V?$allocator@D@2@@std@@@Z 0000000180050630 f   XMPUtils.obj
 0001:0004f800       ?ComposeFieldSelector@XMPUtils@@SAXPEBD0000PEAV?$basic_string@DU?$char_traits@D@std@@V?$allocator@D@2@@std@@@Z 0000000180050800 f   XMPUtils.obj
 0001:0004fa50       ?ConvertFromInt@XMPUtils@@SAXJPEBDPEAV?$basic_string@DU?$char_traits@D@std@@V?$allocator@D@2@@std@@@Z 0000000180050a50 f   XMPUtils.obj
 0001:0004fae4       ?ConvertFromInt64@XMPUtils@@SAX_JPEBDPEAV?$basic_string@DU?$char_traits@D@std@@V?$allocator@D@2@@std@@@Z 0000000180050ae4 f   XMPUtils.obj
 0001:0004fb78       ?ConvertFromFloat@XMPUtils@@SAXNPEBDPEAV?$basic_string@DU?$char_traits@D@std@@V?$allocator@D@2@@std@@@Z 0000000180050b78 f   XMPUtils.obj
 0001:0004fc14       ?ConvertFromDate@XMPUtils@@SAXAEBUXMP_DateTime@@PEAV?$basic_string@DU?$char_traits@D@std@@V?$allocator@D@2@@std@@@Z 0000000180050c14 f   XMPUtils.obj
 0001:0004ffc8       ?ConvertToBool@XMPUtils@@SA_NPEBD@Z 0000000180050fc8 f   XMPUtils.obj
 0001:000501a4       ?ConvertToInt@XMPUtils@@SAJPEBD@Z 00000001800511a4 f   XMPUtils.obj
 0001:00050284       ?ConvertToInt64@XMPUtils@@SA_JPEBD@Z 0000000180051284 f   XMPUtils.obj
 0001:00050364       ?ConvertToFloat@XMPUtils@@SANPEBD@Z 0000000180051364 f   XMPUtils.obj
 0001:000504fc       ?ConvertToDate@XMPUtils@@SAXPEBDPEAUXMP_DateTime@@@Z 00000001800514fc f   XMPUtils.obj
 0001:00050c40       ?EncodeToBase64@XMPUtils@@SAXPEBDKPEAV?$basic_string@DU?$char_traits@D@std@@V?$allocator@D@2@@std@@@Z 0000000180051c40 f   XMPUtils.obj
 0001:00050ea4       ?DecodeFromBase64@XMPUtils@@SAXPEBDKPEAV?$basic_string@DU?$char_traits@D@std@@V?$allocator@D@2@@std@@@Z 0000000180051ea4 f   XMPUtils.obj
 0001:00051118       ?PackageForJPEG@XMPUtils@@SAXAEBVXMPMeta@@PEAV?$basic_string@DU?$char_traits@D@std@@V?$allocator@D@2@@std@@11@Z 0000000180052118 f   XMPUtils.obj
 0001:000519e0       ??1?$multimap@_KU?$pair@PEBDPEBD@std@@U?$less@_K@2@V?$allocator@U?$pair@$$CB_KU?$pair@PEBDPEBD@std@@@std@@@2@@std@@QEAA@XZ 00000001800529e0 f i XMPUtils.obj
 0001:000519e0       ??1?$multimap@_KU?$pair@PEAV?$basic_string@DU?$char_traits@D@std@@V?$allocator@D@2@@std@@PEAV12@@std@@U?$less@_K@2@V?$allocator@U?$pair@$$CB_KU?$pair@PEAV?$basic_string@DU?$char_traits@D@std@@V?$allocator@D@2@@std@@PEAV12@@std@@@std@@@2@@std@@QEAA@XZ 00000001800529e0 f i XMPUtils.obj
 0001:00051a60       ?PackageForJPEG@XMPUtils@@SAXAEBVXMPMeta2@@PEAV?$basic_string@DU?$char_traits@D@std@@V?$allocator@D@2@@std@@11@Z 0000000180052a60 f   XMPUtils.obj
 0001:000526ec       ?CurrentDateTime@XMPUtils@@SAXPEAUXMP_DateTime@@@Z 00000001800536ec f   XMPUtils.obj
 0001:000527c8       ?SetTimeZone@XMPUtils@@SAXPEAUXMP_DateTime@@@Z 00000001800537c8 f   XMPUtils.obj
 0001:00052b5c       ?ConvertToUTCTime@XMPUtils@@SAXPEAUXMP_DateTime@@@Z 0000000180053b5c f   XMPUtils.obj
 0001:00052bac       ?ConvertToLocalTime@XMPUtils@@SAXPEAUXMP_DateTime@@@Z 0000000180053bac f   XMPUtils.obj
 0001:00052c04       ?CompareDateTime@XMPUtils@@SAHAEBUXMP_DateTime@@0@Z 0000000180053c04 f   XMPUtils.obj
 0001:00052cf0       ?Trim@XMPUtils@@SAAEAV?$basic_string@DU?$char_traits@D@std@@V?$allocator@D@2@@std@@AEAV23@@Z 0000000180053cf0 f   XMPUtils.obj
 0001:00052ed8       ?MapXMPErrorToIError@XMPUtils@@SAXJAEAW4eErrorDomain@IError_v1@AdobeXMPCommon@@AEAK@Z 0000000180053ed8 f   XMPUtils.obj
 0001:00053050       ?erase@?$_Tree@V?$_Tmap_traits@_KU?$pair@PEAV?$basic_string@DU?$char_traits@D@std@@V?$allocator@D@2@@std@@PEAV12@@std@@U?$less@_K@2@V?$allocator@U?$pair@$$CB_KU?$pair@PEAV?$basic_string@DU?$char_traits@D@std@@V?$allocator@D@2@@std@@PEAV12@@std@@@std@@@2@$00@std@@@std@@QEAA?AV?$_Tree_iterator@V?$_Tree_val@U?$_Tree_simple_types@U?$pair@$$CB_KU?$pair@PEAV?$basic_string@DU?$char_traits@D@std@@V?$allocator@D@2@@std@@PEAV12@@std@@@std@@@std@@@std@@@2@V?$_Tree_const_iterator@V?$_Tree_val@U?$_Tree_simple_types@U?$pair@$$CB_KU?$pair@PEAV?$basic_string@DU?$char_traits@D@std@@V?$allocator@D@2@@std@@PEAV12@@std@@@std@@@std@@@std@@@2@@Z 0000000180054050 f i XMPUtils.obj
 0001:00053050       ?erase@?$_Tree@V?$_Tmap_traits@_KU?$pair@PEBDPEBD@std@@U?$less@_K@2@V?$allocator@U?$pair@$$CB_KU?$pair@PEBDPEBD@std@@@std@@@2@$00@std@@@std@@QEAA?AV?$_Tree_iterator@V?$_Tree_val@U?$_Tree_simple_types@U?$pair@$$CB_KU?$pair@PEBDPEBD@std@@@std@@@std@@@std@@@2@V?$_Tree_const_iterator@V?$_Tree_val@U?$_Tree_simple_types@U?$pair@$$CB_KU?$pair@PEBDPEBD@std@@@std@@@std@@@std@@@2@@Z 0000000180054050 f i XMPUtils.obj
 0001:000534d4       ?_Erase@?$_Tree@V?$_Tmap_traits@_KU?$pair@PEBDPEBD@std@@U?$less@_K@2@V?$allocator@U?$pair@$$CB_KU?$pair@PEBDPEBD@std@@@std@@@2@$00@std@@@std@@IEAAXPEAU?$_Tree_node@U?$pair@$$CB_KU?$pair@PEBDPEBD@std@@@std@@PEAX@2@@Z 00000001800544d4 f i XMPUtils.obj
 0001:000534d4       ?_Erase@?$_Tree@V?$_Tmap_traits@_KU?$pair@PEAV?$basic_string@DU?$char_traits@D@std@@V?$allocator@D@2@@std@@PEAV12@@std@@U?$less@_K@2@V?$allocator@U?$pair@$$CB_KU?$pair@PEAV?$basic_string@DU?$char_traits@D@std@@V?$allocator@D@2@@std@@PEAV12@@std@@@std@@@2@$00@std@@@std@@IEAAXPEAU?$_Tree_node@U?$pair@$$CB_KU?$pair@PEAV?$basic_string@DU?$char_traits@D@std@@V?$allocator@D@2@@std@@PEAV12@@std@@@std@@PEAX@2@@Z 00000001800544d4 f i XMPUtils.obj
 0001:00053528       ?_Buyheadnode@?$_Tree_alloc@$0A@U?$_Tree_base_types@U?$pair@$$CB_KU?$pair@PEAV?$basic_string@DU?$char_traits@D@std@@V?$allocator@D@2@@std@@PEAV12@@std@@@std@@V?$allocator@U?$pair@$$CB_KU?$pair@PEAV?$basic_string@DU?$char_traits@D@std@@V?$allocator@D@2@@std@@PEAV12@@std@@@std@@@2@@std@@@std@@QEAAPEAU?$_Tree_node@U?$pair@$$CB_KU?$pair@PEAV?$basic_string@DU?$char_traits@D@std@@V?$allocator@D@2@@std@@PEAV12@@std@@@std@@PEAX@2@XZ 0000000180054528 f i XMPUtils.obj
 0001:00053528       ?_Buyheadnode@?$_Tree_alloc@$0A@U?$_Tree_base_types@U?$pair@$$CB_KU?$pair@PEBDPEBD@std@@@std@@V?$allocator@U?$pair@$$CB_KU?$pair@PEBDPEBD@std@@@std@@@2@@std@@@std@@QEAAPEAU?$_Tree_node@U?$pair@$$CB_KU?$pair@PEBDPEBD@std@@@std@@PEAX@2@XZ 0000000180054528 f i XMPUtils.obj
 0001:00053568       ??$?0VIMetadata_v1@AdobeXMPCore@@X@?$shared_ptr@VIStructureNode_v1@AdobeXMPCore@@@std@@QEAA@AEBV?$shared_ptr@VIMetadata_v1@AdobeXMPCore@@@1@@Z 0000000180054568 f i XMPUtils.obj
 0001:000535f8       ??$_Buynode@AEAU?$pair@$$CB_KU?$pair@PEAV?$basic_string@DU?$char_traits@D@std@@V?$allocator@D@2@@std@@PEAV12@@std@@@std@@@?$_Tree_buy@U?$pair@$$CB_KU?$pair@PEAV?$basic_string@DU?$char_traits@D@std@@V?$allocator@D@2@@std@@PEAV12@@std@@@std@@V?$allocator@U?$pair@$$CB_KU?$pair@PEAV?$basic_string@DU?$char_traits@D@std@@V?$allocator@D@2@@std@@PEAV12@@std@@@std@@@2@@std@@QEAAPEAU?$_Tree_node@U?$pair@$$CB_KU?$pair@PEAV?$basic_string@DU?$char_traits@D@std@@V?$allocator@D@2@@std@@PEAV12@@std@@@std@@PEAX@1@AEAU?$pair@$$CB_KU?$pair@PEAV?$basic_string@DU?$char_traits@D@std@@V?$allocator@D@2@@std@@PEAV12@@std@@@1@@Z 00000001800545f8 f i XMPUtils.obj
 0001:000535f8       ??$_Buynode@AEAU?$pair@$$CB_KU?$pair@PEBDPEBD@std@@@std@@@?$_Tree_buy@U?$pair@$$CB_KU?$pair@PEBDPEBD@std@@@std@@V?$allocator@U?$pair@$$CB_KU?$pair@PEBDPEBD@std@@@std@@@2@@std@@QEAAPEAU?$_Tree_node@U?$pair@$$CB_KU?$pair@PEBDPEBD@std@@@std@@PEAX@1@AEAU?$pair@$$CB_KU?$pair@PEBDPEBD@std@@@1@@Z 00000001800545f8 f i XMPUtils.obj
 0001:0005362c       ??$_Insert_hint@AEAU?$pair@$$CB_KU?$pair@PEBDPEBD@std@@@std@@PEAU?$_Tree_node@U?$pair@$$CB_KU?$pair@PEBDPEBD@std@@@std@@PEAX@2@@?$_Tree@V?$_Tmap_traits@_KU?$pair@PEBDPEBD@std@@U?$less@_K@2@V?$allocator@U?$pair@$$CB_KU?$pair@PEBDPEBD@std@@@std@@@2@$00@std@@@std@@IEAA?AV?$_Tree_iterator@V?$_Tree_val@U?$_Tree_simple_types@U?$pair@$$CB_KU?$pair@PEBDPEBD@std@@@std@@@std@@@std@@@1@V?$_Tree_const_iterator@V?$_Tree_val@U?$_Tree_simple_types@U?$pair@$$CB_KU?$pair@PEBDPEBD@std@@@std@@@std@@@std@@@1@AEAU?$pair@$$CB_KU?$pair@PEBDPEBD@std@@@1@PEAU?$_Tree_node@U?$pair@$$CB_KU?$pair@PEBDPEBD@std@@@std@@PEAX@1@@Z 000000018005462c f i XMPUtils.obj
 0001:0005362c       ??$_Insert_hint@AEAU?$pair@$$CB_KU?$pair@PEAV?$basic_string@DU?$char_traits@D@std@@V?$allocator@D@2@@std@@PEAV12@@std@@@std@@PEAU?$_Tree_node@U?$pair@$$CB_KU?$pair@PEAV?$basic_string@DU?$char_traits@D@std@@V?$allocator@D@2@@std@@PEAV12@@std@@@std@@PEAX@2@@?$_Tree@V?$_Tmap_traits@_KU?$pair@PEAV?$basic_string@DU?$char_traits@D@std@@V?$allocator@D@2@@std@@PEAV12@@std@@U?$less@_K@2@V?$allocator@U?$pair@$$CB_KU?$pair@PEAV?$basic_string@DU?$char_traits@D@std@@V?$allocator@D@2@@std@@PEAV12@@std@@@std@@@2@$00@std@@@std@@IEAA?AV?$_Tree_iterator@V?$_Tree_val@U?$_Tree_simple_types@U?$pair@$$CB_KU?$pair@PEAV?$basic_string@DU?$char_traits@D@std@@V?$allocator@D@2@@std@@PEAV12@@std@@@std@@@std@@@std@@@1@V?$_Tree_const_iterator@V?$_Tree_val@U?$_Tree_simple_types@U?$pair@$$CB_KU?$pair@PEAV?$basic_string@DU?$char_traits@D@std@@V?$allocator@D@2@@std@@PEAV12@@std@@@std@@@std@@@std@@@1@AEAU?$pair@$$CB_KU?$pair@PEAV?$basic_string@DU?$char_traits@D@std@@V?$allocator@D@2@@std@@PEAV12@@std@@@1@PEAU?$_Tree_node@U?$pair@$$CB_KU?$pair@PEAV?$basic_string@DU?$char_traits@D@std@@V?$allocator@D@2@@std@@PEAV12@@std@@@std@@PEAX@1@@Z 000000018005462c f i XMPUtils.obj
 0001:0005384c       ?_Buynode0@?$_Tree_buy@U?$pair@$$CB_KU?$pair@PEAV?$basic_string@DU?$char_traits@D@std@@V?$allocator@D@2@@std@@PEAV12@@std@@@std@@V?$allocator@U?$pair@$$CB_KU?$pair@PEAV?$basic_string@DU?$char_traits@D@std@@V?$allocator@D@2@@std@@PEAV12@@std@@@std@@@2@@std@@QEAAPEAU?$_Tree_node@U?$pair@$$CB_KU?$pair@PEAV?$basic_string@DU?$char_traits@D@std@@V?$allocator@D@2@@std@@PEAV12@@std@@@std@@PEAX@2@XZ 000000018005484c f i XMPUtils.obj
 0001:0005384c       ?_Buynode0@?$_Tree_buy@U?$pair@$$CB_KU?$pair@PEBDPEBD@std@@@std@@V?$allocator@U?$pair@$$CB_KU?$pair@PEBDPEBD@std@@@std@@@2@@std@@QEAAPEAU?$_Tree_node@U?$pair@$$CB_KU?$pair@PEBDPEBD@std@@@std@@PEAX@2@XZ 000000018005484c f i XMPUtils.obj
 0001:0005389c       ??$_Insert_at@AEAU?$pair@$$CB_KU?$pair@PEAV?$basic_string@DU?$char_traits@D@std@@V?$allocator@D@2@@std@@PEAV12@@std@@@std@@PEAU?$_Tree_node@U?$pair@$$CB_KU?$pair@PEAV?$basic_string@DU?$char_traits@D@std@@V?$allocator@D@2@@std@@PEAV12@@std@@@std@@PEAX@2@@?$_Tree@V?$_Tmap_traits@_KU?$pair@PEAV?$basic_string@DU?$char_traits@D@std@@V?$allocator@D@2@@std@@PEAV12@@std@@U?$less@_K@2@V?$allocator@U?$pair@$$CB_KU?$pair@PEAV?$basic_string@DU?$char_traits@D@std@@V?$allocator@D@2@@std@@PEAV12@@std@@@std@@@2@$00@std@@@std@@IEAA?AV?$_Tree_iterator@V?$_Tree_val@U?$_Tree_simple_types@U?$pair@$$CB_KU?$pair@PEAV?$basic_string@DU?$char_traits@D@std@@V?$allocator@D@2@@std@@PEAV12@@std@@@std@@@std@@@std@@@1@_NPEAU?$_Tree_node@U?$pair@$$CB_KU?$pair@PEAV?$basic_string@DU?$char_traits@D@std@@V?$allocator@D@2@@std@@PEAV12@@std@@@std@@PEAX@1@AEAU?$pair@$$CB_KU?$pair@PEAV?$basic_string@DU?$char_traits@D@std@@V?$allocator@D@2@@std@@PEAV12@@std@@@1@1@Z 000000018005489c f i XMPUtils.obj
 0001:0005389c       ??$_Insert_at@AEAU?$pair@$$CB_KU?$pair@PEBDPEBD@std@@@std@@PEAU?$_Tree_node@U?$pair@$$CB_KU?$pair@PEBDPEBD@std@@@std@@PEAX@2@@?$_Tree@V?$_Tmap_traits@_KU?$pair@PEBDPEBD@std@@U?$less@_K@2@V?$allocator@U?$pair@$$CB_KU?$pair@PEBDPEBD@std@@@std@@@2@$00@std@@@std@@IEAA?AV?$_Tree_iterator@V?$_Tree_val@U?$_Tree_simple_types@U?$pair@$$CB_KU?$pair@PEBDPEBD@std@@@std@@@std@@@std@@@1@_NPEAU?$_Tree_node@U?$pair@$$CB_KU?$pair@PEBDPEBD@std@@@std@@PEAX@1@AEAU?$pair@$$CB_KU?$pair@PEBDPEBD@std@@@1@1@Z 000000018005489c f i XMPUtils.obj
 0001:00053b20       ??$_Insert_nohint@AEAU?$pair@$$CB_KU?$pair@PEAV?$basic_string@DU?$char_traits@D@std@@V?$allocator@D@2@@std@@PEAV12@@std@@@std@@PEAU?$_Tree_node@U?$pair@$$CB_KU?$pair@PEAV?$basic_string@DU?$char_traits@D@std@@V?$allocator@D@2@@std@@PEAV12@@std@@@std@@PEAX@2@@?$_Tree@V?$_Tmap_traits@_KU?$pair@PEAV?$basic_string@DU?$char_traits@D@std@@V?$allocator@D@2@@std@@PEAV12@@std@@U?$less@_K@2@V?$allocator@U?$pair@$$CB_KU?$pair@PEAV?$basic_string@DU?$char_traits@D@std@@V?$allocator@D@2@@std@@PEAV12@@std@@@std@@@2@$00@std@@@std@@IEAA?AU?$pair@V?$_Tree_iterator@V?$_Tree_val@U?$_Tree_simple_types@U?$pair@$$CB_KU?$pair@PEAV?$basic_string@DU?$char_traits@D@std@@V?$allocator@D@2@@std@@PEAV12@@std@@@std@@@std@@@std@@@std@@_N@1@_NAEAU?$pair@$$CB_KU?$pair@PEAV?$basic_string@DU?$char_traits@D@std@@V?$allocator@D@2@@std@@PEAV12@@std@@@1@PEAU?$_Tree_node@U?$pair@$$CB_KU?$pair@PEAV?$basic_string@DU?$char_traits@D@std@@V?$allocator@D@2@@std@@PEAV12@@std@@@std@@PEAX@1@@Z 0000000180054b20 f i XMPUtils.obj
 0001:00053b20       ??$_Insert_nohint@AEAU?$pair@$$CB_KU?$pair@PEBDPEBD@std@@@std@@PEAU?$_Tree_node@U?$pair@$$CB_KU?$pair@PEBDPEBD@std@@@std@@PEAX@2@@?$_Tree@V?$_Tmap_traits@_KU?$pair@PEBDPEBD@std@@U?$less@_K@2@V?$allocator@U?$pair@$$CB_KU?$pair@PEBDPEBD@std@@@std@@@2@$00@std@@@std@@IEAA?AU?$pair@V?$_Tree_iterator@V?$_Tree_val@U?$_Tree_simple_types@U?$pair@$$CB_KU?$pair@PEBDPEBD@std@@@std@@@std@@@std@@@std@@_N@1@_NAEAU?$pair@$$CB_KU?$pair@PEBDPEBD@std@@@1@PEAU?$_Tree_node@U?$pair@$$CB_KU?$pair@PEBDPEBD@std@@@std@@PEAX@1@@Z 0000000180054b20 f i XMPUtils.obj
 0001:00053ba4       ?GetSimpleQualifier@INode_v1@AdobeXMPCore@@QEBA?AV?$shared_ptr@$$CBVISimpleNode_v1@AdobeXMPCore@@@std@@PEBD_K01@Z 0000000180054ba4 f i XMPUtils2.obj
 0001:00053c30       ?GetNode@IStructureNode_v1@AdobeXMPCore@@QEBA?AV?$shared_ptr@$$CBVINode_v1@AdobeXMPCore@@@std@@PEBD_K01@Z 0000000180054c30 f i XMPUtils2.obj
 0001:00053cb4       ?CloneIXMPSubtree@@YAXAEBV?$shared_ptr@$$CBVINode_v1@AdobeXMPCore@@@std@@AEBV?$shared_ptr@VINode_v1@AdobeXMPCore@@@2@_N@Z 0000000180054cb4 f   XMPUtils2.obj
 0001:00053dc8       ?LookupIXMPLangItem@@YAJAEBV?$shared_ptr@$$CBVIArrayNode_v1@AdobeXMPCore@@@std@@AEAV?$basic_string@DU?$char_traits@D@std@@V?$allocator@D@2@@2@@Z 0000000180054dc8 f   XMPUtils2.obj
 0001:000541ac       ?CompareSubtrees@@YA_NV?$shared_ptr@$$CBVINode_v1@AdobeXMPCore@@@std@@0@Z 00000001800551ac f   XMPUtils2.obj
 0001:0005a600       ?AppendProperties_v2@XMPUtils@@SAXAEBVXMPMeta@@PEAV2@K@Z 000000018005b600 f   XMPUtils2.obj
 0001:0005ac10       ?ApplyTemplate_v2@XMPUtils@@SAXPEAVXMPMeta@@AEBV2@K@Z 000000018005bc10 f   XMPUtils2.obj
 0001:0005ba44       ?CloneContents@@YAXV?$shared_ptr@VINode_v1@AdobeXMPCore@@@std@@AEAV12@@Z 000000018005ca44 f   XMPUtils2.obj
 0001:0005c30c       ?DuplicateSubtree_v2@XMPUtils@@SAXAEBVXMPMeta@@PEAV2@PEBD222K@Z 000000018005d30c f   XMPUtils2.obj
 0001:0005d8c8       ?CollectMultiFileXMP_v2@XMPUtils@@SAXAEBVXMPMeta@@PEAV2@K@Z 000000018005e8c8 f   XMPUtils2.obj
 0001:0005e744       ?DistributeMultiFileXMP_v2@XMPUtils@@SAXAEBVXMPMeta@@PEAV2@K@Z 000000018005f744 f   XMPUtils2.obj
 0001:0005ee9c       ?IsPropertyMultiValued_v2@XMPUtils@@SA_NAEBVXMPMeta@@PEBD1@Z 000000018005fe9c f   XMPUtils2.obj
 0001:0005f13c       ?GetDateRange_v2@XMPUtils@@SA_NAEBVXMPMeta@@PEBD1PEAUXMP_DateTime@@2@Z 000000018006013c f   XMPUtils2.obj
 0001:0005f874       ?GetMergedListPath_v2@XMPUtils@@SA_NAEBVXMPMeta@@PEBD1PEAV?$basic_string@DU?$char_traits@D@std@@V?$allocator@D@2@@std@@@Z 0000000180060874 f   XMPUtils2.obj
 0001:0005fdf0       ?RemoveMultiValueInfo_v2@XMPUtils@@SAXPEAVXMPMeta@@PEBD1@Z 0000000180060df0 f   XMPUtils2.obj
 0001:00060c5c       ?RemoveProperties_v2@XMPUtils@@SAXPEAVXMPMeta@@PEBD1K@Z 0000000180061c5c f   XMPUtils2.obj
 0001:000614f8       ?MD5Update@@YAXPEAUMD5_CTX@@PEAEK@Z 00000001800624f8 f   MD5.obj
 0001:000615b8       ?MD5Final@@YAXQEAEPEAUMD5_CTX@@@Z 00000001800625b8 f   MD5.obj
 0001:000623a4       XML_ParserFree             00000001800633a4 f   xmlparse.obj
 0001:000624e4       XML_Parse                  00000001800634e4 f   xmlparse.obj
 0001:00062664       XML_ParseBuffer            0000000180063664 f   xmlparse.obj
 0001:000627a8       XML_GetBuffer              00000001800637a8 f   xmlparse.obj
 0001:000723f4       XmlUtf8Encode              00000001800733f4 f   xmltok.obj
 0001:0007271c       XmlInitUnknownEncoding     000000018007371c f   xmltok.obj
 0001:00072c14       XmlInitEncoding            0000000180073c14 f   xmltok.obj
 0001:00072d38       XmlParseXmlDecl            0000000180073d38 f   xmltok.obj
 0001:00072df8       XmlInitEncodingNS          0000000180073df8 f   xmltok.obj
 0001:00072f1c       XmlParseXmlDeclNS          0000000180073f1c f   xmltok.obj
 0001:00072f88       XmlInitUnknownEncodingNS   0000000180073f88 f   xmltok.obj
 0001:00072fa4       ??0XML_Node@@QEAA@PEAV0@PEBDE@Z 0000000180073fa4 f i ExpatAdapter.obj
 0001:0007307c       ??1XML_Node@@UEAA@XZ       000000018007407c f i ExpatAdapter.obj
 0001:00073180       ??_GXML_Node@@UEAAPEAXI@Z  0000000180074180 f i ExpatAdapter.obj
 0001:00073180       ??_EXML_Node@@UEAAPEAXI@Z  0000000180074180 f i * CIL library *:* CIL module *
 0001:000731b8       ??1XMLParserAdapter@@UEAA@XZ 00000001800741b8 f i ExpatAdapter.obj
 0001:00073204       ?SetErrorCallback@XMLParserAdapter@@UEAAXPEAVGenericErrorCallback@@@Z 0000000180074204 f i ExpatAdapter.obj
 0001:0007320c       ?NotifyClient@XMLParserAdapter@@UEAAXEAEAVXMP_Error@@@Z 000000018007420c f i ExpatAdapter.obj
 0001:00073228       ??_GXMLParserAdapter@@UEAAPEAXI@Z 0000000180074228 f i ExpatAdapter.obj
 0001:00073228       ??_EXMLParserAdapter@@UEAAPEAXI@Z 0000000180074228 f i * CIL library *:* CIL module *
 0001:000732a0       ??_EExpatAdapter@@UEAAPEAXI@Z 00000001800742a0 f i * CIL library *:* CIL module *
 0001:000732a0       ??_GExpatAdapter@@UEAAPEAXI@Z 00000001800742a0 f i ExpatAdapter.obj
 0001:000732d8       XMP_NewExpatAdapter        00000001800742d8 f   ExpatAdapter.obj
 0001:00073304       ??0ExpatAdapter@@QEAA@_N@Z 0000000180074304 f   ExpatAdapter.obj
 0001:00073558       ??1ExpatAdapter@@UEAA@XZ   0000000180074558 f   ExpatAdapter.obj
 0001:000735fc       ?ParseBuffer@ExpatAdapter@@UEAAXPEBX_K_N@Z 00000001800745fc f   ExpatAdapter.obj
 0001:00073fd0       ?AddChildNode@RDF_Parser@@AEAAPEAVXMP_Node@@PEAV2@AEBVXML_Node@@QEBD_N@Z 0000000180074fd0 f   ParseRDF.obj
 0001:00074294       ?AddQualifierNode@RDF_Parser@@AEAAPEAVXMP_Node@@PEAV2@AEBV?$basic_string@DU?$char_traits@D@std@@V?$allocator@D@2@@std@@1@Z 0000000180075294 f   ParseRDF.obj
 0001:000743c0       ?AddQualifierNode@RDF_Parser@@AEAAPEAVXMP_Node@@PEAV2@AEBVXML_Node@@@Z 00000001800753c0 f   ParseRDF.obj
 0001:0007440c       ?FixupQualifiedNode@RDF_Parser@@AEAAXPEAVXMP_Node@@@Z 000000018007540c f   ParseRDF.obj
 0001:00074910       ?NodeElement@RDF_Parser@@QEAAXPEAVXMP_Node@@AEBVXML_Node@@_N@Z 0000000180075910 f   ParseRDF.obj
 0001:000749b8       ?NodeElementAttrs@RDF_Parser@@QEAAXPEAVXMP_Node@@AEBVXML_Node@@_N@Z 00000001800759b8 f   ParseRDF.obj
 0001:00074b2c       ?PropertyElementList@RDF_Parser@@QEAAXPEAVXMP_Node@@AEBVXML_Node@@_N@Z 0000000180075b2c f   ParseRDF.obj
 0001:00074bfc       ?PropertyElement@RDF_Parser@@QEAAXPEAVXMP_Node@@AEBVXML_Node@@_N@Z 0000000180075bfc f   ParseRDF.obj
 0001:00074e38       ?ResourcePropertyElement@RDF_Parser@@QEAAXPEAVXMP_Node@@AEBVXML_Node@@_N@Z 0000000180075e38 f   ParseRDF.obj
 0001:0007523c       ?LiteralPropertyElement@RDF_Parser@@QEAAXPEAVXMP_Node@@AEBVXML_Node@@_N@Z 000000018007623c f   ParseRDF.obj
 0001:00075450       ?ParseTypeResourcePropertyElement@RDF_Parser@@QEAAXPEAVXMP_Node@@AEBVXML_Node@@_N@Z 0000000180076450 f   ParseRDF.obj
 0001:00075590       ?EmptyPropertyElement@RDF_Parser@@QEAAXPEAVXMP_Node@@AEBVXML_Node@@_N@Z 0000000180076590 f   ParseRDF.obj
 0001:00075854       ?ProcessRDF@XMPMeta@@AEAAXAEBVXML_Node@@K@Z 0000000180076854 f   ParseRDF.obj
 0001:00075918       ??1bad_alloc@std@@UEAA@XZ  0000000180076918 f i XMPCore_Impl.obj
 0001:0007592c       ??_Gbad_alloc@std@@UEAAPEAXI@Z 000000018007692c f i XMPCore_Impl.obj
 0001:0007592c       ??_Ebad_alloc@std@@UEAAPEAXI@Z 000000018007692c f i * CIL library *:* CIL module *
 0001:00075bb0       ??2@YAPEAX_K@Z             0000000180076bb0 f   XMPCore_Impl.obj
 0001:00075c10       ??0bad_alloc@std@@QEAA@AEBV01@@Z 0000000180076c10 f i XMPCore_Impl.obj
 0001:00075c34       ??3@YAXPEAX@Z              0000000180076c34 f   XMPCore_Impl.obj
 0001:00076324       ?SplitNameAndValue@@YAXAEBV?$basic_string@DU?$char_traits@D@std@@V?$allocator@D@2@@std@@PEAV12@1@Z 0000000180077324 f   XMPCore_Impl.obj
 0001:000768d4       ?DeleteSubtree@@YAXV?$_Vector_iterator@V?$_Vector_val@U?$_Simple_types@PEAVXMP_Node@@@std@@@std@@@std@@@Z 00000001800778d4 f   XMPCore_Impl.obj
 0001:00076980       ?VerifySetOptions@@YAKKPEBD@Z 0000000180077980 f   XMPCore_Impl.obj
 0001:00076ad0       ?ExpandXPath@@YAXPEBD0PEAV?$vector@VXPathStepInfo@@V?$allocator@VXPathStepInfo@@@std@@@std@@@Z 0000000180077ad0 f   XMPCore_Impl.obj
 0001:00077214       ?FindSchemaNode@@YAPEAVXMP_Node@@PEAV1@PEBD_NPEAV?$_Vector_iterator@V?$_Vector_val@U?$_Simple_types@PEAVXMP_Node@@@std@@@std@@@std@@P6A_NPEAX1PEAPEBDPEAK@Z4@Z 0000000180078214 f   XMPCore_Impl.obj
 0001:00077380       ?FindChildNode@@YAPEAVXMP_Node@@PEAV1@PEBD_NPEAV?$_Vector_iterator@V?$_Vector_val@U?$_Simple_types@PEAVXMP_Node@@@std@@@std@@@std@@@Z 0000000180078380 f   XMPCore_Impl.obj
 0001:00077544       ?FindQualifierNode@@YAPEAVXMP_Node@@PEAV1@PEBD_NPEAV?$_Vector_iterator@V?$_Vector_val@U?$_Simple_types@PEAVXMP_Node@@@std@@@std@@@std@@@Z 0000000180078544 f   XMPCore_Impl.obj
 0001:000776d8       ?LookupFieldSelector@@YAJPEBVXMP_Node@@PEBD1@Z 00000001800786d8 f   XMPCore_Impl.obj
 0001:000777ec       ?LookupLangItem@@YAJPEBVXMP_Node@@AEAV?$basic_string@DU?$char_traits@D@std@@V?$allocator@D@2@@std@@@Z 00000001800787ec f   XMPCore_Impl.obj
 0001:000778e0       ?FindNode@@YAPEAVXMP_Node@@PEAV1@AEBV?$vector@VXPathStepInfo@@V?$allocator@VXPathStepInfo@@@std@@@std@@_NKPEAV?$_Vector_iterator@V?$_Vector_val@U?$_Simple_types@PEAVXMP_Node@@@std@@@std@@@3@@Z 00000001800788e0 f   XMPCore_Impl.obj
 0001:00077c70       ?CloneOffspring@@YAXPEBVXMP_Node@@PEAV1@_N@Z 0000000180078c70 f   XMPCore_Impl.obj
 0001:00077f10       ?CompareSubtrees@@YA_NAEBVXMP_Node@@0@Z 0000000180078f10 f   XMPCore_Impl.obj
 0001:00078118       ?DeleteEmptySchema@@YAXPEAVXMP_Node@@@Z 0000000180079118 f   XMPCore_Impl.obj
 0001:000781a0       ?NormalizeLangValue@@YAXPEAV?$basic_string@DU?$char_traits@D@std@@V?$allocator@D@2@@std@@@Z 00000001800791a0 f   XMPCore_Impl.obj
 0001:00078258       ?NormalizeLangArray@@YAXPEAVXMP_Node@@@Z 0000000180079258 f   XMPCore_Impl.obj
 0001:00078378       ?InitializeUnicodeConversions@@YAXXZ 0000000180079378 f   UnicodeConversions.obj
 0001:000784b8       ?ToUTF16@@YAXPEBE_KPEAV?$basic_string@DU?$char_traits@D@std@@V?$allocator@D@2@@std@@_N@Z 00000001800794b8 f   UnicodeConversions.obj
 0001:00078610       ?ToUTF32@@YAXPEBE_KPEAV?$basic_string@DU?$char_traits@D@std@@V?$allocator@D@2@@std@@_N@Z 0000000180079610 f   UnicodeConversions.obj
 0001:00079ff4       ?IsWhitespaceNode@XML_Node@@QEBA_NXZ 000000018007aff4 f   XML_Node.obj
 0001:0007a044       ?RemoveAttrs@XML_Node@@QEAAXXZ 000000018007b044 f   XML_Node.obj
 0001:0007a0b0       ?RemoveContent@XML_Node@@QEAAXXZ 000000018007b0b0 f   XML_Node.obj
 0001:0007a11c       ??$_Insert_hint@AEAU?$pair@$$CBV?$basic_string@DU?$char_traits@D@std@@V?$allocator@D@2@@std@@V12@@std@@PEAU?$_Tree_node@U?$pair@$$CBV?$basic_string@DU?$char_traits@D@std@@V?$allocator@D@2@@std@@V12@@std@@PEAX@2@@?$_Tree@V?$_Tmap_traits@V?$basic_string@DU?$char_traits@D@std@@V?$allocator@D@2@@std@@V12@U?$less@V?$basic_string@DU?$char_traits@D@std@@V?$allocator@D@2@@std@@@2@V?$allocator@U?$pair@$$CBV?$basic_string@DU?$char_traits@D@std@@V?$allocator@D@2@@std@@V12@@std@@@2@$0A@@std@@@std@@IEAA?AV?$_Tree_iterator@V?$_Tree_val@U?$_Tree_simple_types@U?$pair@$$CBV?$basic_string@DU?$char_traits@D@std@@V?$allocator@D@2@@std@@V12@@std@@@std@@@std@@@1@V?$_Tree_const_iterator@V?$_Tree_val@U?$_Tree_simple_types@U?$pair@$$CBV?$basic_string@DU?$char_traits@D@std@@V?$allocator@D@2@@std@@V12@@std@@@std@@@std@@@1@AEAU?$pair@$$CBV?$basic_string@DU?$char_traits@D@std@@V?$allocator@D@2@@std@@V12@@1@PEAU?$_Tree_node@U?$pair@$$CBV?$basic_string@DU?$char_traits@D@std@@V?$allocator@D@2@@std@@V12@@std@@PEAX@1@@Z 000000018007b11c f i XML_Node.obj
 0001:0007a3b0       ?_Buynode0@?$_Tree_buy@U?$pair@$$CBV?$basic_string@DU?$char_traits@D@std@@V?$allocator@D@2@@std@@V12@@std@@V?$allocator@U?$pair@$$CBV?$basic_string@DU?$char_traits@D@std@@V?$allocator@D@2@@std@@V12@@std@@@2@@std@@QEAAPEAU?$_Tree_node@U?$pair@$$CBV?$basic_string@DU?$char_traits@D@std@@V?$allocator@D@2@@std@@V12@@std@@PEAX@2@XZ 000000018007b3b0 f i XML_Node.obj
 0001:0007a400       ??$_Insert_at@AEAU?$pair@$$CBV?$basic_string@DU?$char_traits@D@std@@V?$allocator@D@2@@std@@V12@@std@@PEAU?$_Tree_node@U?$pair@$$CBV?$basic_string@DU?$char_traits@D@std@@V?$allocator@D@2@@std@@V12@@std@@PEAX@2@@?$_Tree@V?$_Tmap_traits@V?$basic_string@DU?$char_traits@D@std@@V?$allocator@D@2@@std@@V12@U?$less@V?$basic_string@DU?$char_traits@D@std@@V?$allocator@D@2@@std@@@2@V?$allocator@U?$pair@$$CBV?$basic_string@DU?$char_traits@D@std@@V?$allocator@D@2@@std@@V12@@std@@@2@$0A@@std@@@std@@IEAA?AV?$_Tree_iterator@V?$_Tree_val@U?$_Tree_simple_types@U?$pair@$$CBV?$basic_string@DU?$char_traits@D@std@@V?$allocator@D@2@@std@@V12@@std@@@std@@@std@@@1@_NPEAU?$_Tree_node@U?$pair@$$CBV?$basic_string@DU?$char_traits@D@std@@V?$allocator@D@2@@std@@V12@@std@@PEAX@1@AEAU?$pair@$$CBV?$basic_string@DU?$char_traits@D@std@@V?$allocator@D@2@@std@@V12@@1@1@Z 000000018007b400 f i XML_Node.obj
 0001:0007a6c4       ??$_Insert_nohint@AEAU?$pair@$$CBV?$basic_string@DU?$char_traits@D@std@@V?$allocator@D@2@@std@@V12@@std@@PEAU?$_Tree_node@U?$pair@$$CBV?$basic_string@DU?$char_traits@D@std@@V?$allocator@D@2@@std@@V12@@std@@PEAX@2@@?$_Tree@V?$_Tmap_traits@V?$basic_string@DU?$char_traits@D@std@@V?$allocator@D@2@@std@@V12@U?$less@V?$basic_string@DU?$char_traits@D@std@@V?$allocator@D@2@@std@@@2@V?$allocator@U?$pair@$$CBV?$basic_string@DU?$char_traits@D@std@@V?$allocator@D@2@@std@@V12@@std@@@2@$0A@@std@@@std@@IEAA?AU?$pair@V?$_Tree_iterator@V?$_Tree_val@U?$_Tree_simple_types@U?$pair@$$CBV?$basic_string@DU?$char_traits@D@std@@V?$allocator@D@2@@std@@V12@@std@@@std@@@std@@@std@@_N@1@_NAEAU?$pair@$$CBV?$basic_string@DU?$char_traits@D@std@@V?$allocator@D@2@@std@@V12@@1@PEAU?$_Tree_node@U?$pair@$$CBV?$basic_string@DU?$char_traits@D@std@@V?$allocator@D@2@@std@@V12@@std@@PEAX@1@@Z 000000018007b6c4 f i XML_Node.obj
 0001:0007a86c       ??1XMP_AutoMutex@@QEAA@XZ  000000018007b86c f i XMP_LibUtils.obj
 0001:0007a890       ??0XMP_ReadWriteLock@@QEAA@XZ 000000018007b890 f   XMP_LibUtils.obj
 0001:0007a8ec       ??1XMP_ReadWriteLock@@QEAA@XZ 000000018007b8ec f   XMP_LibUtils.obj
 0001:0007a918       ??0XMP_WinXP_HGQueue@@QEAA@XZ 000000018007b918 f   XMP_LibUtils.obj
 0001:0007a9b0       ??1XMP_WinXP_HGQueue@@QEAA@XZ 000000018007b9b0 f   XMP_LibUtils.obj
 0001:0007a9bc       ?Wait@XMP_WinXP_HGQueue@@QEAAXAEAU_RTL_CRITICAL_SECTION@@@Z 000000018007b9bc f   XMP_LibUtils.obj
 0001:0007aaa0       ?ReleaseOne@XMP_WinXP_HGQueue@@QEAAXXZ 000000018007baa0 f   XMP_LibUtils.obj
 0001:0007aaf8       ?ReleaseAll@XMP_WinXP_HGQueue@@QEAAXXZ 000000018007baf8 f   XMP_LibUtils.obj
 0001:0007ab54       ?DumpClearString@@YAXAEBV?$basic_string@DU?$char_traits@D@std@@V?$allocator@D@2@@std@@P6AJPEAXPEBDK@Z1@Z 000000018007bb54 f   XMP_LibUtils.obj
 0001:0007aeb4       ??0XMP_NamespaceTable@@QEAA@AEBV0@@Z 000000018007beb4 f   XMP_LibUtils.obj
 0001:0007afbc       ?Define@XMP_NamespaceTable@@QEAA_NPEBD0PEAPEBDPEAK@Z 000000018007bfbc f   XMP_LibUtils.obj
 0001:0007b610       ??1?$pair@V?$basic_string@DU?$char_traits@D@std@@V?$allocator@D@2@@std@@V12@@std@@QEAA@XZ 000000018007c610 f i XMP_LibUtils.obj
 0001:0007b66c       ?GetPrefix@XMP_NamespaceTable@@QEBA_NPEBDPEAPEBDPEAK@Z 000000018007c66c f   XMP_LibUtils.obj
 0001:0007b7c4       ?GetURI@XMP_NamespaceTable@@QEBA_NPEBDPEAPEBDPEAK@Z 000000018007c7c4 f   XMP_LibUtils.obj
 0001:0007b948       ?Dump@XMP_NamespaceTable@@QEBAXP6AJPEAXPEBDK@Z0@Z 000000018007c948 f   XMP_LibUtils.obj
 0001:0007bd40       ??4?$map@V?$basic_string@DU?$char_traits@D@std@@V?$allocator@D@2@@std@@V12@U?$less@V?$basic_string@DU?$char_traits@D@std@@V?$allocator@D@2@@std@@@2@V?$allocator@U?$pair@$$CBV?$basic_string@DU?$char_traits@D@std@@V?$allocator@D@2@@std@@V12@@std@@@2@@std@@QEAAAEAV01@AEBV01@@Z 000000018007cd40 f i XMP_LibUtils.obj
 0001:0007be08       ?find@?$_Tree@V?$_Tmap_traits@V?$basic_string@DU?$char_traits@D@std@@V?$allocator@D@2@@std@@V12@U?$less@V?$basic_string@DU?$char_traits@D@std@@V?$allocator@D@2@@std@@@2@V?$allocator@U?$pair@$$CBV?$basic_string@DU?$char_traits@D@std@@V?$allocator@D@2@@std@@V12@@std@@@2@$0A@@std@@@std@@QEBA?AV?$_Tree_const_iterator@V?$_Tree_val@U?$_Tree_simple_types@U?$pair@$$CBV?$basic_string@DU?$char_traits@D@std@@V?$allocator@D@2@@std@@V12@@std@@@std@@@std@@@2@AEBV?$basic_string@DU?$char_traits@D@std@@V?$allocator@D@2@@2@@Z 000000018007ce08 f i XMP_LibUtils.obj
 0001:0007be94       ??$_Buynode@AEAU?$pair@$$CBV?$basic_string@DU?$char_traits@D@std@@V?$allocator@D@2@@std@@V12@@std@@@?$_Tree_buy@U?$pair@$$CBV?$basic_string@DU?$char_traits@D@std@@V?$allocator@D@2@@std@@V12@@std@@V?$allocator@U?$pair@$$CBV?$basic_string@DU?$char_traits@D@std@@V?$allocator@D@2@@std@@V12@@std@@@2@@std@@QEAAPEAU?$_Tree_node@U?$pair@$$CBV?$basic_string@DU?$char_traits@D@std@@V?$allocator@D@2@@std@@V12@@std@@PEAX@1@AEAU?$pair@$$CBV?$basic_string@DU?$char_traits@D@std@@V?$allocator@D@2@@std@@V12@@1@@Z 000000018007ce94 f i XMP_LibUtils.obj
 0001:0007be94       ??$_Buynode@AEAU?$pair@V?$basic_string@DU?$char_traits@D@std@@V?$allocator@D@2@@std@@V12@@std@@@?$_Tree_buy@U?$pair@$$CBV?$basic_string@DU?$char_traits@D@std@@V?$allocator@D@2@@std@@V12@@std@@V?$allocator@U?$pair@$$CBV?$basic_string@DU?$char_traits@D@std@@V?$allocator@D@2@@std@@V12@@std@@@2@@std@@QEAAPEAU?$_Tree_node@U?$pair@$$CBV?$basic_string@DU?$char_traits@D@std@@V?$allocator@D@2@@std@@V12@@std@@PEAX@1@AEAU?$pair@V?$basic_string@DU?$char_traits@D@std@@V?$allocator@D@2@@std@@V12@@1@@Z 000000018007ce94 f i XMP_LibUtils.obj
 0001:0007bf34       ??$_Copy_nodes@U?$integral_constant@_N$0A@@std@@@?$_Tree@V?$_Tmap_traits@V?$basic_string@DU?$char_traits@D@std@@V?$allocator@D@2@@std@@V12@U?$less@V?$basic_string@DU?$char_traits@D@std@@V?$allocator@D@2@@std@@@2@V?$allocator@U?$pair@$$CBV?$basic_string@DU?$char_traits@D@std@@V?$allocator@D@2@@std@@V12@@std@@@2@$0A@@std@@@std@@IEAAPEAU?$_Tree_node@U?$pair@$$CBV?$basic_string@DU?$char_traits@D@std@@V?$allocator@D@2@@std@@V12@@std@@PEAX@1@PEAU21@0U?$integral_constant@_N$0A@@1@@Z 000000018007cf34 f i XMP_LibUtils.obj
 0001:0007bfd0       ?GetInterfacePointer@IArrayNode_I@AdobeXMPCore_Int@@UEAAPEAX_KK@Z 000000018007cfd0 f   IArrayNode_I.obj
 0001:0007c0a4       ?getInterfacePointer@IArrayNode_I@AdobeXMPCore_Int@@MEAAPEAX_KKAEAPEBVIError_v1@AdobeXMPCommon@@@Z 000000018007d0a4 f   IArrayNode_I.obj
 0001:0007c0f4       ?getArrayForm@IArrayNode_I@AdobeXMPCore_Int@@MEBAKAEAPEBVIError_v1@AdobeXMPCommon@@@Z 000000018007d0f4 f   IArrayNode_I.obj
 0001:0007c148       ?getChildNodeType@IArrayNode_I@AdobeXMPCore_Int@@MEBAKAEAPEBVIError_v1@AdobeXMPCommon@@@Z 000000018007d148 f   IArrayNode_I.obj
 0001:0007c19c       ?getNodeAtIndex@IArrayNode_I@AdobeXMPCore_Int@@MEAAPEAVINode_v1@AdobeXMPCore@@_KAEAPEBVIError_v1@AdobeXMPCommon@@@Z 000000018007d19c f   IArrayNode_I.obj
 0001:0007c200       ?insertNodeAtIndex@IArrayNode_I@AdobeXMPCore_Int@@MEAAXPEAVINode_v1@AdobeXMPCore@@_KAEAPEBVIError_v1@AdobeXMPCommon@@@Z 000000018007d200 f   IArrayNode_I.obj
 0001:0007c2bc       ?removeNodeAtIndex@IArrayNode_I@AdobeXMPCore_Int@@MEAAPEAVINode_v1@AdobeXMPCore@@_KAEAPEBVIError_v1@AdobeXMPCommon@@@Z 000000018007d2bc f   IArrayNode_I.obj
 0001:0007c320       ?replaceNodeAtIndex@IArrayNode_I@AdobeXMPCore_Int@@MEAAPEAVINode_v1@AdobeXMPCore@@PEAV34@_KAEAPEBVIError_v1@AdobeXMPCommon@@@Z 000000018007d320 f   IArrayNode_I.obj
 0001:0007c3e4       ??$CallUnSafeFunction@VIArrayNode_I@AdobeXMPCore_Int@@PEAXPEAX_KK@AdobeXMPCore_Int@@YAPEAXAEAPEBVIError_v1@AdobeXMPCommon@@PEAVIArrayNode_I@0@PEAXP830@EAAPEAX_KK@ZPEBDK3K@Z 000000018007d3e4 f i IArrayNode_I.obj
 0001:0007c42c       ??$CallConstUnSafeFunction@VIArrayNode_v1@AdobeXMPCore@@KW4eArrayForm@12@@AdobeXMPCore_Int@@YAKAEAPEBVIError_v1@AdobeXMPCommon@@PEBVIArrayNode_v1@AdobeXMPCore@@KP834@EBA?AW4eArrayForm@34@XZPEBDK@Z 000000018007d42c f i IArrayNode_I.obj
 0001:0007c46c       ??$CallConstUnSafeFunction@VIArrayNode_v1@AdobeXMPCore@@KW4eNodeType@INode_v1@2@@AdobeXMPCore_Int@@YAKAEAPEBVIError_v1@AdobeXMPCommon@@PEBVIArrayNode_v1@AdobeXMPCore@@KP834@EBA?AW4eNodeType@INode_v1@4@XZPEBDK@Z 000000018007d46c f i IArrayNode_I.obj
 0001:0007c4ac       ??$CallUnSafeFunctionReturningSharedPointer@VIArrayNode_v1@AdobeXMPCore@@PEAVINode_v1@2@V32@_K@AdobeXMPCore_Int@@YAPEAVINode_v1@AdobeXMPCore@@AEAPEBVIError_v1@AdobeXMPCommon@@PEAVIArrayNode_v1@2@P852@EAA?AV?$shared_ptr@VINode_v1@AdobeXMPCore@@@std@@_K@ZPEBDK2@Z 000000018007d4ac f i IArrayNode_I.obj
 0001:0007c648       ??$CallUnSafeFunctionReturningVoid@VIArrayNode_v1@AdobeXMPCore@@AEBV?$shared_ptr@VINode_v1@AdobeXMPCore@@@std@@_K@AdobeXMPCore_Int@@YAXAEAPEBVIError_v1@AdobeXMPCommon@@PEAVIArrayNode_v1@AdobeXMPCore@@P834@EAAXAEBV?$shared_ptr@VINode_v1@AdobeXMPCore@@@std@@_K@ZPEBDK23@Z 000000018007d648 f i IArrayNode_I.obj
 0001:0007c694       ??$CallUnSafeFunctionReturningSharedPointer@VIArrayNode_v1@AdobeXMPCore@@PEAVINode_v1@2@V32@AEBV?$shared_ptr@VINode_v1@AdobeXMPCore@@@std@@_K@AdobeXMPCore_Int@@YAPEAVINode_v1@AdobeXMPCore@@AEAPEBVIError_v1@AdobeXMPCommon@@PEAVIArrayNode_v1@2@P852@EAA?AV?$shared_ptr@VINode_v1@AdobeXMPCore@@@std@@AEBV67@_K@ZPEBDK23@Z 000000018007d694 f i IArrayNode_I.obj
 0001:0007c838       ??_9ICoreConfigurationManager_I@AdobeXMPCore_Int@@$BA@AA 000000018007d838 f i ICoreConfigurationManager_I.obj
 0001:0007c838       ??_9IConfigurationManager_v1@AdobeXMPCommon@@$BA@AA 000000018007d838 f i IConfigurationManager_I.obj
 0001:0007c838       ??_9IStructureNode_I@AdobeXMPCore_Int@@$BA@AA 000000018007d838 f i IStructureNode_I.obj
 0001:0007c838       ??_9IPathSegment_I@AdobeXMPCore_Int@@$BA@AA 000000018007d838 f i IPathSegment_I.obj
 0001:0007c838       ??_9IError_v1@AdobeXMPCommon@@$BA@AA 000000018007d838 f i IError_I.obj
 0001:0007c838       ??_9IDOMSerializer_I@AdobeXMPCore_Int@@$BA@AA 000000018007d838 f i IDOMSerializer_I.obj
 0001:0007c838       ??_9IUTF8String_v1@AdobeXMPCommon@@$BA@AA 000000018007d838 f i IUTF8String.obj
 0001:0007c838       ??_9INameSpacePrefixMap_I@AdobeXMPCore_Int@@$BA@AA 000000018007d838 f i INameSpacePrefixMap_I.obj
 0001:0007c838       ??_9INode_I@AdobeXMPCore_Int@@$BA@AA 000000018007d838 f i INode_I.obj
 0001:0007c838       ??_9IUTF8String_I@AdobeXMPCore_Int@@$BA@AA 000000018007d838 f i IUTF8String_I.obj
 0001:0007c838       ??_9ICoreObjectFactory_I@AdobeXMPCore_Int@@$BA@AA 000000018007d838 f i ICoreObjectFactory_I.obj
 0001:0007c838       ??_9ISimpleNode_I@AdobeXMPCore_Int@@$BA@AA 000000018007d838 f i ISimpleNode_I.obj
 0001:0007c838       ??_9INodeIterator_I@AdobeXMPCore_Int@@$BA@AA 000000018007d838 f i INodeIterator_I.obj
 0001:0007c838       ??_9IPath_I@AdobeXMPCore_Int@@$BA@AA 000000018007d838 f i IPath_I.obj
 0001:0007c838       ??_9IDOMParser_I@AdobeXMPCore_Int@@$BA@AA 000000018007d838 f i IDOMParser_I.obj
 0001:0007c838       ??_9IMetadata_I@AdobeXMPCore_Int@@$BA@AA 000000018007d838 f i IMetadata_I.obj
 0001:0007c838       ??_9ICompositeNode_I@AdobeXMPCore_Int@@$BA@AA 000000018007d838 f i ICompositeNode_I.obj
 0001:0007c838       ??_9IArrayNode_I@AdobeXMPCore_Int@@$BA@AA 000000018007d838 f i IArrayNode_I.obj
 0001:0007c838       ??_9IDOMImplementationRegistry_I@AdobeXMPCore_Int@@$BA@AA 000000018007d838 f i IDOMImplementationRegistry_I.obj
 0001:0007c840       ??_9IConfigurationManager_v1@AdobeXMPCommon@@$BBA@AA 000000018007d840 f i IConfigurationManager_I.obj
 0001:0007c840       ??_9INameSpacePrefixMap_v1@AdobeXMPCore@@$BBA@AA 000000018007d840 f i INameSpacePrefixMap_I.obj
 0001:0007c840       ??_9IError_v1@AdobeXMPCommon@@$BBA@AA 000000018007d840 f i IError_I.obj
 0001:0007c840       ??_9IDOMParser_v1@AdobeXMPCore@@$BBA@AA 000000018007d840 f i IDOMParser_I.obj
 0001:0007c840       ??_9IPathSegment_v1@AdobeXMPCore@@$BBA@AA 000000018007d840 f i IPathSegment_I.obj
 0001:0007c840       ??_9IPath_v1@AdobeXMPCore@@$BBA@AA 000000018007d840 f i IPath_I.obj
 0001:0007c840       ??_9IVersionable@AdobeXMPCommon@@$BBA@AA 000000018007d840 f i IConfigurationManager.obj
 0001:0007c840       ??_9IUTF8String_v1@AdobeXMPCommon@@$BBA@AA 000000018007d840 f i IUTF8String_I.obj
 0001:0007c840       ??_9IArrayNode_v1@AdobeXMPCore@@$BBA@AA 000000018007d840 f i IArrayNode_I.obj
 0001:0007c840       ??_9INodeIterator_v1@AdobeXMPCore@@$BBA@AA 000000018007d840 f i INodeIterator_I.obj
 0001:0007c840       ??_9IStructureNode_v1@AdobeXMPCore@@$BBA@AA 000000018007d840 f i IStructureNode_I.obj
 0001:0007c840       ??_9ISimpleNode_v1@AdobeXMPCore@@$BBA@AA 000000018007d840 f i ISimpleNode_I.obj
 0001:0007c840       ??_9ICompositeNode_v1@AdobeXMPCore@@$BBA@AA 000000018007d840 f i ICompositeNode_I.obj
 0001:0007c840       ??_9INode_v1@AdobeXMPCore@@$BBA@AA 000000018007d840 f i INode_I.obj
 0001:0007c848       ??_9IPath_v1@AdobeXMPCore@@$BCA@AA 000000018007d848 f i IPath_I.obj
 0001:0007c848       ??_9IPathSegment_v1@AdobeXMPCore@@$BCA@AA 000000018007d848 f i IPathSegment_I.obj
 0001:0007c848       ??_9IArrayNode_v1@AdobeXMPCore@@$BCA@AA 000000018007d848 f i IArrayNode_I.obj
 0001:0007c848       ??_9INameSpacePrefixMap_v1@AdobeXMPCore@@$BCA@AA 000000018007d848 f i INameSpacePrefixMap_I.obj
 0001:0007c848       ??_9INode_v1@AdobeXMPCore@@$BCA@AA 000000018007d848 f i INode_I.obj
 0001:0007c848       ??_9IError_v1@AdobeXMPCommon@@$BCA@AA 000000018007d848 f i IError_I.obj
 0001:0007c848       ??_9ICompositeNode_v1@AdobeXMPCore@@$BCA@AA 000000018007d848 f i ICompositeNode_I.obj
 0001:0007c848       ??_9IUTF8String_v1@AdobeXMPCommon@@$BCA@AA 000000018007d848 f i IUTF8String.obj
 0001:0007c848       ??_9IStructureNode_v1@AdobeXMPCore@@$BCA@AA 000000018007d848 f i IStructureNode_I.obj
 0001:0007c850       ??_9IDOMSerializer_v1@AdobeXMPCore@@$B7AA 000000018007d850 f i IDOMSerializer_I.obj
 0001:0007c850       ??_9IStructureNode_v1@AdobeXMPCore@@$B7AA 000000018007d850 f i IStructureNode_I.obj
 0001:0007c850       ??_9IDOMParser_v1@AdobeXMPCore@@$B7AA 000000018007d850 f i IDOMParser_I.obj
 0001:0007c850       ??_9IError_v1@AdobeXMPCommon@@$B7AA 000000018007d850 f i IError_I.obj
 0001:0007c850       ??_9ISimpleNode_v1@AdobeXMPCore@@$B7AA 000000018007d850 f i ISimpleNode_I.obj
 0001:0007c850       ??_9INode_v1@AdobeXMPCore@@$B7AA 000000018007d850 f i INode_I.obj
 0001:0007c850       ??_9IPath_v1@AdobeXMPCore@@$B7AA 000000018007d850 f i IPath_I.obj
 0001:0007c850       ??_9IPathSegment_v1@AdobeXMPCore@@$B7AA 000000018007d850 f i IPathSegment_I.obj
 0001:0007c850       ??_9IArrayNode_v1@AdobeXMPCore@@$B7AA 000000018007d850 f i IArrayNode_I.obj
 0001:0007c850       ??_9IUTF8String_v1@AdobeXMPCommon@@$B7AA 000000018007d850 f i IUTF8String.obj
 0001:0007c850       ??_9SharedObjectImpl@AdobeXMPCore_Int@@$B7AA 000000018007d850 f i CoreConfigurationManagerImpl.obj
 0001:0007c850       ??_9IConfigurationManager_v1@AdobeXMPCommon@@$B7AA 000000018007d850 f i IConfigurationManager_I.obj
 0001:0007c850       ??_9INameSpacePrefixMap_v1@AdobeXMPCore@@$B7AA 000000018007d850 f i INameSpacePrefixMap_I.obj
 0001:0007c850       ??_9ISharedObject@AdobeXMPCommon@@$B7AA 000000018007d850 f i ArrayNodeImpl.obj
 0001:0007c850       ??_9NodeImpl@AdobeXMPCore_Int@@$B7AA 000000018007d850 f i CompositeNodeImpl.obj
 0001:0007c850       ??_9ICompositeNode_v1@AdobeXMPCore@@$B7AA 000000018007d850 f i ICompositeNode_I.obj
 0001:0007c850       ??_9IDOMImplementationRegistry_v1@AdobeXMPCore@@$B7AA 000000018007d850 f i IDOMImplementationRegistry_I.obj
 0001:0007c850       ??_9INodeIterator_v1@AdobeXMPCore@@$B7AA 000000018007d850 f i INodeIterator_I.obj
 0001:0007c858       ??_9IStructureNode_v1@AdobeXMPCore@@$BBI@AA 000000018007d858 f i IStructureNode_I.obj
 0001:0007c858       ??_9INode_v1@AdobeXMPCore@@$BBI@AA 000000018007d858 f i INode_I.obj
 0001:0007c858       ??_9IError_v1@AdobeXMPCommon@@$BBI@AA 000000018007d858 f i IError_I.obj
 0001:0007c858       ??_9IPath_v1@AdobeXMPCore@@$BBI@AA 000000018007d858 f i IPath_I.obj
 0001:0007c858       ??_9ICompositeNode_v1@AdobeXMPCore@@$BBI@AA 000000018007d858 f i ICompositeNode_I.obj
 0001:0007c858       ??_9INameSpacePrefixMap_v1@AdobeXMPCore@@$BBI@AA 000000018007d858 f i INameSpacePrefixMap_I.obj
 0001:0007c858       ??_9ISimpleNode_v1@AdobeXMPCore@@$BBI@AA 000000018007d858 f i ISimpleNode_I.obj
 0001:0007c858       ??_9IArrayNode_v1@AdobeXMPCore@@$BBI@AA 000000018007d858 f i IArrayNode_I.obj
 0001:0007c858       ??_9IUTF8String_v1@AdobeXMPCommon@@$BBI@AA 000000018007d858 f i IUTF8String_I.obj
 0001:0007c858       ??_9IConfigurationManager_v1@AdobeXMPCommon@@$BBI@AA 000000018007d858 f i IConfigurationManager_I.obj
 0001:0007c860       ??_9IError_v1@AdobeXMPCommon@@$BCI@AA 000000018007d860 f i IError_I.obj
 0001:0007c860       ??_9IArrayNode_v1@AdobeXMPCore@@$BCI@AA 000000018007d860 f i IArrayNode_I.obj
 0001:0007c860       ??_9INode_v1@AdobeXMPCore@@$BCI@AA 000000018007d860 f i INode_I.obj
 0001:0007c860       ??_9IUTF8String_v1@AdobeXMPCommon@@$BCI@AA 000000018007d860 f i IUTF8String.obj
 0001:0007c860       ??_9INameSpacePrefixMap_v1@AdobeXMPCore@@$BCI@AA 000000018007d860 f i INameSpacePrefixMap_I.obj
 0001:0007c860       ??_9ICompositeNode_v1@AdobeXMPCore@@$BCI@AA 000000018007d860 f i ICompositeNode_I.obj
 0001:0007c868       ?MakeShared@IPath_v1@AdobeXMPCore@@SA?AV?$shared_ptr@$$CBVIPath_v1@AdobeXMPCore@@@std@@PEBV12@@Z 000000018007d868 f i ICompositeNode_I.obj
 0001:0007c8d0       ?GetInterfacePointer@ICompositeNode_I@AdobeXMPCore_Int@@UEAAPEAX_KK@Z 000000018007d8d0 f   ICompositeNode_I.obj
 0001:0007c8dc       ?getInterfacePointer@ICompositeNode_I@AdobeXMPCore_Int@@MEAAPEAX_KKAEAPEBVIError_v1@AdobeXMPCommon@@@Z 000000018007d8dc f   ICompositeNode_I.obj
 0001:0007c92c       ?GetInterfacePointerInternal@ICompositeNode_I@AdobeXMPCore_Int@@IEAAPEAX_KK_N@Z 000000018007d92c f   ICompositeNode_I.obj
 0001:0007ca14       ?getNodeTypeAtPath@ICompositeNode_I@AdobeXMPCore_Int@@MEBAKPEBVIPath_v1@AdobeXMPCore@@AEAPEBVIError_v1@AdobeXMPCommon@@@Z 000000018007da14 f   ICompositeNode_I.obj
 0001:0007cab8       ?getNodeAtPath@ICompositeNode_I@AdobeXMPCore_Int@@MEAAPEAVINode_v1@AdobeXMPCore@@PEBVIPath_v1@4@AEAPEBVIError_v1@AdobeXMPCommon@@@Z 000000018007dab8 f   ICompositeNode_I.obj
 0001:0007cb64       ?appendNode@ICompositeNode_I@AdobeXMPCore_Int@@MEAAXPEAVINode_v1@AdobeXMPCore@@AEAPEBVIError_v1@AdobeXMPCommon@@@Z 000000018007db64 f   ICompositeNode_I.obj
 0001:0007cc10       ?insertNodeAtPath@ICompositeNode_I@AdobeXMPCore_Int@@MEAAXPEAVINode_v1@AdobeXMPCore@@PEBVIPath_v1@4@AEAPEBVIError_v1@AdobeXMPCommon@@@Z 000000018007dc10 f   ICompositeNode_I.obj
 0001:0007cd1c       ?replaceNodeAtPath@ICompositeNode_I@AdobeXMPCore_Int@@MEAAPEAVINode_v1@AdobeXMPCore@@PEAV34@PEBVIPath_v1@4@AEAPEBVIError_v1@AdobeXMPCommon@@@Z 000000018007dd1c f   ICompositeNode_I.obj
 0001:0007ce2c       ?removeNodeAtPath@ICompositeNode_I@AdobeXMPCore_Int@@MEAAPEAVINode_v1@AdobeXMPCore@@PEBVIPath_v1@4@AEAPEBVIError_v1@AdobeXMPCommon@@@Z 000000018007de2c f   ICompositeNode_I.obj
 0001:0007ced8       ?iterator@ICompositeNode_I@AdobeXMPCore_Int@@MEAAPEAVINodeIterator_v1@AdobeXMPCore@@AEAPEBVIError_v1@AdobeXMPCommon@@@Z 000000018007ded8 f   ICompositeNode_I.obj
 0001:0007cf2c       ??$CallUnSafeFunction@VICompositeNode_I@AdobeXMPCore_Int@@PEAXPEAX_KK@AdobeXMPCore_Int@@YAPEAXAEAPEBVIError_v1@AdobeXMPCommon@@PEAVICompositeNode_I@0@PEAXP830@EAAPEAX_KK@ZPEBDK3K@Z 000000018007df2c f i ICompositeNode_I.obj
 0001:0007cf74       ??$CallConstUnSafeFunction@VICompositeNode_v1@AdobeXMPCore@@KW4eNodeType@INode_v1@2@AEBV?$shared_ptr@$$CBVIPath_v1@AdobeXMPCore@@@std@@@AdobeXMPCore_Int@@YAKAEAPEBVIError_v1@AdobeXMPCommon@@PEBVICompositeNode_v1@AdobeXMPCore@@KP834@EBA?AW4eNodeType@INode_v1@4@AEBV?$shared_ptr@$$CBVIPath_v1@AdobeXMPCore@@@std@@@ZPEBDK2@Z 000000018007df74 f i ICompositeNode_I.obj
 0001:0007cfbc       ??$CallUnSafeFunctionReturningSharedPointer@VICompositeNode_v1@AdobeXMPCore@@PEAVINode_v1@2@V32@AEBV?$shared_ptr@$$CBVIPath_v1@AdobeXMPCore@@@std@@@AdobeXMPCore_Int@@YAPEAVINode_v1@AdobeXMPCore@@AEAPEBVIError_v1@AdobeXMPCommon@@PEAVICompositeNode_v1@2@P852@EAA?AV?$shared_ptr@VINode_v1@AdobeXMPCore@@@std@@AEBV?$shared_ptr@$$CBVIPath_v1@AdobeXMPCore@@@7@@ZPEBDK2@Z 000000018007dfbc f i ICompositeNode_I.obj
 0001:0007d158       ??$CallUnSafeFunctionReturningVoid@VICompositeNode_v1@AdobeXMPCore@@AEBV?$shared_ptr@VINode_v1@AdobeXMPCore@@@std@@@AdobeXMPCore_Int@@YAXAEAPEBVIError_v1@AdobeXMPCommon@@PEAVICompositeNode_v1@AdobeXMPCore@@P834@EAAXAEBV?$shared_ptr@VINode_v1@AdobeXMPCore@@@std@@@ZPEBDK2@Z 000000018007e158 f i ICompositeNode_I.obj
 0001:0007d19c       ??$CallUnSafeFunctionReturningVoid@VICompositeNode_v1@AdobeXMPCore@@AEBV?$shared_ptr@VINode_v1@AdobeXMPCore@@@std@@AEBV?$shared_ptr@$$CBVIPath_v1@AdobeXMPCore@@@4@@AdobeXMPCore_Int@@YAXAEAPEBVIError_v1@AdobeXMPCommon@@PEAVICompositeNode_v1@AdobeXMPCore@@P834@EAAXAEBV?$shared_ptr@VINode_v1@AdobeXMPCore@@@std@@AEBV?$shared_ptr@$$CBVIPath_v1@AdobeXMPCore@@@6@@ZPEBDK23@Z 000000018007e19c f i ICompositeNode_I.obj
 0001:0007d1e8       ??$CallUnSafeFunctionReturningSharedPointer@VICompositeNode_v1@AdobeXMPCore@@PEAVINode_v1@2@V32@AEBV?$shared_ptr@VINode_v1@AdobeXMPCore@@@std@@AEBV?$shared_ptr@$$CBVIPath_v1@AdobeXMPCore@@@5@@AdobeXMPCore_Int@@YAPEAVINode_v1@AdobeXMPCore@@AEAPEBVIError_v1@AdobeXMPCommon@@PEAVICompositeNode_v1@2@P852@EAA?AV?$shared_ptr@VINode_v1@AdobeXMPCore@@@std@@AEBV67@AEBV?$shared_ptr@$$CBVIPath_v1@AdobeXMPCore@@@7@@ZPEBDK23@Z 000000018007e1e8 f i ICompositeNode_I.obj
 0001:0007d38c       ??$CallUnSafeFunctionReturningSharedPointer@VICompositeNode_v1@AdobeXMPCore@@PEAVINodeIterator_v1@2@V32@@AdobeXMPCore_Int@@YAPEAVINodeIterator_v1@AdobeXMPCore@@AEAPEBVIError_v1@AdobeXMPCommon@@PEAVICompositeNode_v1@2@P852@EAA?AV?$shared_ptr@VINodeIterator_v1@AdobeXMPCore@@@std@@XZPEBDK@Z 000000018007e38c f i ICompositeNode_I.obj
 0001:0007d51c       ??_9INode_v1@AdobeXMPCore@@$BDA@AA 000000018007e51c f i INode_I.obj
 0001:0007d51c       ??_9IUTF8String_v1@AdobeXMPCommon@@$BDA@AA 000000018007e51c f i IUTF8String_I.obj
 0001:0007d51c       ??_9INameSpacePrefixMap_v1@AdobeXMPCore@@$BDA@AA 000000018007e51c f i INameSpacePrefixMap_I.obj
 0001:0007d51c       ??_9ICompositeNode_v1@AdobeXMPCore@@$BDA@AA 000000018007e51c f i ICompositeNode_I.obj
 0001:0007d524       ?GetInterfacePointer@ICoreConfigurationManager_I@AdobeXMPCore_Int@@UEAAPEAX_KK@Z 000000018007e524 f   ICoreConfigurationManager_I.obj
 0001:0007d5f8       ?getInterfacePointer@ICoreConfigurationManager_I@AdobeXMPCore_Int@@MEAAPEAX_KKAEAPEBVIError_v1@AdobeXMPCommon@@@Z 000000018007e5f8 f   ICoreConfigurationManager_I.obj
 0001:0007d648       ??$CallUnSafeFunction@VICoreConfigurationManager_I@AdobeXMPCore_Int@@PEAXPEAX_KK@AdobeXMPCore_Int@@YAPEAXAEAPEBVIError_v1@AdobeXMPCommon@@PEAVICoreConfigurationManager_I@0@PEAXP830@EAAPEAX_KK@ZPEBDK3K@Z 000000018007e648 f i ICoreConfigurationManager_I.obj
 0001:0007d690       ?GetInterfacePointer@ICoreObjectFactory_I@AdobeXMPCore_Int@@UEAAPEAX_KK@Z 000000018007e690 f   ICoreObjectFactory_I.obj
 0001:0007d7a0       ?getInterfacePointer@ICoreObjectFactory_I@AdobeXMPCore_Int@@MEAAPEAX_KKAEAPEBVIError_v1@AdobeXMPCommon@@@Z 000000018007e7a0 f   ICoreObjectFactory_I.obj
 0001:0007d7f0       ??$CallUnSafeFunction@VICoreObjectFactory_I@AdobeXMPCore_Int@@PEAXPEAX_KK@AdobeXMPCore_Int@@YAPEAXAEAPEBVIError_v1@AdobeXMPCommon@@PEAVICoreObjectFactory_I@0@PEAXP830@EAAPEAX_KK@ZPEBDK3K@Z 000000018007e7f0 f i ICoreObjectFactory_I.obj
 0001:0007d838       ??_Elogic_error@std@@UEAAPEAXI@Z 000000018007e838 f i * CIL library *:* CIL module *
 0001:0007d838       ??_Glogic_error@std@@UEAAPEAXI@Z 000000018007e838 f i IDOMImplementationRegistry_I.obj
 0001:0007d838       ??_Ebad_weak_ptr@std@@UEAAPEAXI@Z 000000018007e838 f i * CIL library *:* CIL module *
 0001:0007d838       ??_Gbad_weak_ptr@std@@UEAAPEAXI@Z 000000018007e838 f i UTF8StringImpl.obj
 0001:0007d870       ??1logic_error@std@@UEAA@XZ 000000018007e870 f i IDOMImplementationRegistry_I.obj
 0001:0007d870       ??1bad_weak_ptr@std@@UEAA@XZ 000000018007e870 f i UTF8StringImpl.obj
 0001:0007d878       ?RegisterSerializer@IDOMImplementationRegistry_I@AdobeXMPCore_Int@@UEAA_NPEBDPEAVIClientDOMSerializer_v1@AdobeXMPCore@@@Z 000000018007e878 f   IDOMImplementationRegistry_I.obj
 0001:0007d878       ?RegisterParser@IDOMImplementationRegistry_I@AdobeXMPCore_Int@@UEAA_NPEBDPEAVIClientDOMParser_v1@AdobeXMPCore@@@Z 000000018007e878 f   IDOMImplementationRegistry_I.obj
 0001:0007d8b8       ??0logic_error@std@@QEAA@AEBV01@@Z 000000018007e8b8 f i IDOMImplementationRegistry_I.obj
 0001:0007d8dc       ?GetInterfacePointer@IDOMImplementationRegistry_I@AdobeXMPCore_Int@@UEAAPEAX_KK@Z 000000018007e8dc f   IDOMImplementationRegistry_I.obj
 0001:0007d988       ?getInterfacePointer@IDOMImplementationRegistry_I@AdobeXMPCore_Int@@MEAAPEAX_KKAEAPEBVIError_v1@AdobeXMPCommon@@@Z 000000018007e988 f   IDOMImplementationRegistry_I.obj
 0001:0007d9d8       ?getParser@IDOMImplementationRegistry_I@AdobeXMPCore_Int@@MEBAPEAVIDOMParser_v1@AdobeXMPCore@@PEBDAEAPEBVIError_v1@AdobeXMPCommon@@@Z 000000018007e9d8 f   IDOMImplementationRegistry_I.obj
 0001:0007da34       ?getSerializer@IDOMImplementationRegistry_I@AdobeXMPCore_Int@@MEBAPEAVIDOMSerializer_v1@AdobeXMPCore@@PEBDAEAPEBVIError_v1@AdobeXMPCommon@@@Z 000000018007ea34 f   IDOMImplementationRegistry_I.obj
 0001:0007da90       ?registerParser@IDOMImplementationRegistry_I@AdobeXMPCore_Int@@MEAAKPEBDPEAVIClientDOMParser_v1@AdobeXMPCore@@AEAPEBVIError_v1@AdobeXMPCommon@@@Z 000000018007ea90 f   IDOMImplementationRegistry_I.obj
 0001:0007db8c       ?registerSerializer@IDOMImplementationRegistry_I@AdobeXMPCore_Int@@MEAAKPEBDPEAVIClientDOMSerializer_v1@AdobeXMPCore@@AEAPEBVIError_v1@AdobeXMPCommon@@@Z 000000018007eb8c f   IDOMImplementationRegistry_I.obj
 0001:0007dc88       ??$CallUnSafeFunction@VIDOMImplementationRegistry_I@AdobeXMPCore_Int@@PEAXPEAX_KK@AdobeXMPCore_Int@@YAPEAXAEAPEBVIError_v1@AdobeXMPCommon@@PEAVIDOMImplementationRegistry_I@0@PEAXP830@EAAPEAX_KK@ZPEBDK3K@Z 000000018007ec88 f i IDOMImplementationRegistry_I.obj
 0001:0007dcd8       ??$CallConstUnSafeFunctionReturningSharedPointer@VIDOMImplementationRegistry_v1@AdobeXMPCore@@PEAVIDOMParser_v1@2@V32@PEBD@AdobeXMPCore_Int@@YAPEAVIDOMParser_v1@AdobeXMPCore@@AEAPEBVIError_v1@AdobeXMPCommon@@PEBVIDOMImplementationRegistry_v1@2@P852@EBA?AV?$shared_ptr@VIDOMParser_v1@AdobeXMPCore@@@std@@PEBD@Z2K2@Z 000000018007ecd8 f i IDOMImplementationRegistry_I.obj
 0001:0007de74       ??$CallConstUnSafeFunctionReturningSharedPointer@VIDOMImplementationRegistry_v1@AdobeXMPCore@@PEAVIDOMSerializer_v1@2@V32@PEBD@AdobeXMPCore_Int@@YAPEAVIDOMSerializer_v1@AdobeXMPCore@@AEAPEBVIError_v1@AdobeXMPCommon@@PEBVIDOMImplementationRegistry_v1@2@P852@EBA?AV?$shared_ptr@VIDOMSerializer_v1@AdobeXMPCore@@@std@@PEBD@Z2K2@Z 000000018007ee74 f i IDOMImplementationRegistry_I.obj
 0001:0007e010       ??$CallUnSafeFunction@VIDOMImplementationRegistry_I@AdobeXMPCore_Int@@K_NPEBDAEBV?$shared_ptr@$$CBVIDOMParser_v1@AdobeXMPCore@@@std@@@AdobeXMPCore_Int@@YAKAEAPEBVIError_v1@AdobeXMPCommon@@PEAVIDOMImplementationRegistry_I@0@KP830@EAA_NPEBDAEBV?$shared_ptr@$$CBVIDOMParser_v1@AdobeXMPCore@@@std@@@Z2K23@Z 000000018007f010 f i IDOMImplementationRegistry_I.obj
 0001:0007e060       ??$CallUnSafeFunction@VIDOMImplementationRegistry_I@AdobeXMPCore_Int@@K_NPEBDAEBV?$shared_ptr@$$CBVIDOMSerializer_v1@AdobeXMPCore@@@std@@@AdobeXMPCore_Int@@YAKAEAPEBVIError_v1@AdobeXMPCommon@@PEAVIDOMImplementationRegistry_I@0@KP830@EAA_NPEBDAEBV?$shared_ptr@$$CBVIDOMSerializer_v1@AdobeXMPCore@@@std@@@Z2K23@Z 000000018007f060 f i IDOMImplementationRegistry_I.obj
 0001:0007e0b0       ?GetInterfacePointer@IDOMParser_I@AdobeXMPCore_Int@@UEAAPEAX_KK@Z 000000018007f0b0 f   IDOMParser_I.obj
 0001:0007e15c       ?getInterfacePointer@IDOMParser_I@AdobeXMPCore_Int@@MEAAPEAX_KKAEAPEBVIError_v1@AdobeXMPCommon@@@Z 000000018007f15c f   IDOMParser_I.obj
 0001:0007e1ac       ?clone@IDOMParser_I@AdobeXMPCore_Int@@MEBAPEAVIDOMParser_v1@AdobeXMPCore@@AEAPEBVIError_v1@AdobeXMPCommon@@@Z 000000018007f1ac f   IDOMParser_I.obj
 0001:0007e200       ?parse@IDOMParser_I@AdobeXMPCore_Int@@MEAAPEAVIMetadata_v1@AdobeXMPCore@@PEBD_KAEAPEBVIError_v1@AdobeXMPCommon@@@Z 000000018007f200 f   IDOMParser_I.obj
 0001:0007e25c       ?parseWithSpecificAction@IDOMParser_I@AdobeXMPCore_Int@@MEAAXPEBD_KKPEAVINode_v1@AdobeXMPCore@@AEAPEBVIError_v1@AdobeXMPCommon@@@Z 000000018007f25c f   IDOMParser_I.obj
 0001:0007e340       ??$CallUnSafeFunction@VIDOMParser_I@AdobeXMPCore_Int@@PEAXPEAX_KK@AdobeXMPCore_Int@@YAPEAXAEAPEBVIError_v1@AdobeXMPCommon@@PEAVIDOMParser_I@0@PEAXP830@EAAPEAX_KK@ZPEBDK3K@Z 000000018007f340 f i IDOMParser_I.obj
 0001:0007e390       ??$CallConstUnSafeFunctionReturningSharedPointer@VIDOMParser_v1@AdobeXMPCore@@PEAV12@V12@@AdobeXMPCore_Int@@YAPEAVIDOMParser_v1@AdobeXMPCore@@AEAPEBVIError_v1@AdobeXMPCommon@@PEBV12@P812@EBA?AV?$shared_ptr@VIDOMParser_v1@AdobeXMPCore@@@std@@XZPEBDK@Z 000000018007f390 f i IDOMParser_I.obj
 0001:0007e520       ??$CallUnSafeFunctionReturningSharedPointer@VIDOMParser_v1@AdobeXMPCore@@PEAVIMetadata_v1@2@V32@PEBD_K@AdobeXMPCore_Int@@YAPEAVIMetadata_v1@AdobeXMPCore@@AEAPEBVIError_v1@AdobeXMPCommon@@PEAVIDOMParser_v1@2@P852@EAA?AV?$shared_ptr@VIMetadata_v1@AdobeXMPCore@@@std@@PEBD_K@Z2K23@Z 000000018007f520 f i IDOMParser_I.obj
 0001:0007e6c4       ??$CallUnSafeFunctionReturningVoid@VIDOMParser_v1@AdobeXMPCore@@PEBD_KW4eActionType@12@AEAV?$shared_ptr@VINode_v1@AdobeXMPCore@@@std@@@AdobeXMPCore_Int@@YAXAEAPEBVIError_v1@AdobeXMPCommon@@PEAVIDOMParser_v1@AdobeXMPCore@@P834@EAAXPEBD_KW4eActionType@34@AEAV?$shared_ptr@VINode_v1@AdobeXMPCore@@@std@@@Z2K2345@Z 000000018007f6c4 f i IDOMParser_I.obj
 0001:0007e728       ?MakeShared@INameSpacePrefixMap_v1@AdobeXMPCore@@SA?AV?$shared_ptr@$$CBVINameSpacePrefixMap_v1@AdobeXMPCore@@@std@@PEBV12@@Z 000000018007f728 f i IDOMSerializer_I.obj
 0001:0007e790       ?GetInterfacePointer@IDOMSerializer_I@AdobeXMPCore_Int@@UEAAPEAX_KK@Z 000000018007f790 f   IDOMSerializer_I.obj
 0001:0007e83c       ?getInterfacePointer@IDOMSerializer_I@AdobeXMPCore_Int@@MEAAPEAX_KKAEAPEBVIError_v1@AdobeXMPCommon@@@Z 000000018007f83c f   IDOMSerializer_I.obj
 0001:0007e88c       ?clone@IDOMSerializer_I@AdobeXMPCore_Int@@MEBAPEAVIDOMSerializer_v1@AdobeXMPCore@@AEAPEBVIError_v1@AdobeXMPCommon@@@Z 000000018007f88c f   IDOMSerializer_I.obj
 0001:0007e8e0       ?serialize@IDOMSerializer_I@AdobeXMPCore_Int@@MEAAPEAVIUTF8String_v1@AdobeXMPCommon@@PEAVINode_v1@AdobeXMPCore@@PEBVINameSpacePrefixMap_v1@6@AEAPEBVIError_v1@4@@Z 000000018007f8e0 f   IDOMSerializer_I.obj
 0001:0007e9f4       ??$CallUnSafeFunction@VIDOMSerializer_I@AdobeXMPCore_Int@@PEAXPEAX_KK@AdobeXMPCore_Int@@YAPEAXAEAPEBVIError_v1@AdobeXMPCommon@@PEAVIDOMSerializer_I@0@PEAXP830@EAAPEAX_KK@ZPEBDK3K@Z 000000018007f9f4 f i IDOMSerializer_I.obj
 0001:0007ea44       ??$CallConstUnSafeFunctionReturningSharedPointer@VIDOMSerializer_v1@AdobeXMPCore@@PEAV12@V12@@AdobeXMPCore_Int@@YAPEAVIDOMSerializer_v1@AdobeXMPCore@@AEAPEBVIError_v1@AdobeXMPCommon@@PEBV12@P812@EBA?AV?$shared_ptr@VIDOMSerializer_v1@AdobeXMPCore@@@std@@XZPEBDK@Z 000000018007fa44 f i IDOMSerializer_I.obj
 0001:0007ebd4       ??$CallUnSafeFunctionReturningSharedPointer@VIDOMSerializer_v1@AdobeXMPCore@@PEAVIUTF8String_v1@AdobeXMPCommon@@V34@AEBV?$shared_ptr@VINode_v1@AdobeXMPCore@@@std@@AEBV?$shared_ptr@$$CBVINameSpacePrefixMap_v1@AdobeXMPCore@@@6@@AdobeXMPCore_Int@@YAPEAVIUTF8String_v1@AdobeXMPCommon@@AEAPEBVIError_v1@2@PEAVIDOMSerializer_v1@AdobeXMPCore@@P845@EAA?AV?$shared_ptr@VIUTF8String_v1@AdobeXMPCommon@@@std@@AEBV?$shared_ptr@VINode_v1@AdobeXMPCore@@@7@AEBV?$shared_ptr@$$CBVINameSpacePrefixMap_v1@AdobeXMPCore@@@7@@ZPEBDK23@Z 000000018007fbd4 f i IDOMSerializer_I.obj
 0001:0007ed78       ?GetInterfacePointer@IMetadata_I@AdobeXMPCore_Int@@UEAAPEAX_KK@Z 000000018007fd78 f   IMetadata_I.obj
 0001:0007ee4c       ?getInterfacePointer@IMetadata_I@AdobeXMPCore_Int@@MEAAPEAX_KKAEAPEBVIError_v1@AdobeXMPCommon@@@Z 000000018007fe4c f   IMetadata_I.obj
 0001:0007ee9c       ?getAboutURI@IMetadata_I@AdobeXMPCore_Int@@MEBAPEBVIUTF8String_v1@AdobeXMPCommon@@AEAPEBVIError_v1@4@@Z 000000018007fe9c f   IMetadata_I.obj
 0001:0007eef0       ??$CallUnSafeFunction@VIMetadata_I@AdobeXMPCore_Int@@PEAXPEAX_KK@AdobeXMPCore_Int@@YAPEAXAEAPEBVIError_v1@AdobeXMPCommon@@PEAVIMetadata_I@0@PEAXP830@EAAPEAX_KK@ZPEBDK3K@Z 000000018007fef0 f i IMetadata_I.obj
 0001:0007ef38       ??$CallConstUnSafeFunctionReturningSharedPointer@VIMetadata_v1@AdobeXMPCore@@PEBVIUTF8String_v1@AdobeXMPCommon@@$$CBV34@@AdobeXMPCore_Int@@YAPEBVIUTF8String_v1@AdobeXMPCommon@@AEAPEBVIError_v1@2@PEBVIMetadata_v1@AdobeXMPCore@@P845@EBA?AV?$shared_ptr@$$CBVIUTF8String_v1@AdobeXMPCommon@@@std@@XZPEBDK@Z 000000018007ff38 f i IMetadata_I.obj
 0001:0007f0c8       ?GetInterfacePointer@INameSpacePrefixMap_I@AdobeXMPCore_Int@@UEAAPEAX_KK@Z 00000001800800c8 f   INameSpacePrefixMap_I.obj
 0001:0007f174       ?getInterfacePointer@INameSpacePrefixMap_I@AdobeXMPCore_Int@@MEAAPEAX_KKAEAPEBVIError_v1@AdobeXMPCommon@@@Z 0000000180080174 f   INameSpacePrefixMap_I.obj
 0001:0007f1c4       ?insert@INameSpacePrefixMap_I@AdobeXMPCore_Int@@MEAAKPEBD_K01AEAPEBVIError_v1@AdobeXMPCommon@@@Z 00000001800801c4 f   INameSpacePrefixMap_I.obj
 0001:0007f238       ?remove@INameSpacePrefixMap_I@AdobeXMPCore_Int@@MEAAKKPEBD_KAEAPEBVIError_v1@AdobeXMPCommon@@@Z 0000000180080238 f   INameSpacePrefixMap_I.obj
 0001:0007f2b4       ?isPresent@INameSpacePrefixMap_I@AdobeXMPCore_Int@@MEBAKKPEBD_KAEAPEBVIError_v1@AdobeXMPCommon@@@Z 00000001800802b4 f   INameSpacePrefixMap_I.obj
 0001:0007f330       ?get@INameSpacePrefixMap_I@AdobeXMPCore_Int@@MEBAPEBVIUTF8String_v1@AdobeXMPCommon@@KPEBD_KAEAPEBVIError_v1@4@@Z 0000000180080330 f   INameSpacePrefixMap_I.obj
 0001:0007f3ac       ?clone@INameSpacePrefixMap_I@AdobeXMPCore_Int@@MEBAPEAVINameSpacePrefixMap_v1@AdobeXMPCore@@AEAPEBVIError_v1@AdobeXMPCommon@@@Z 00000001800803ac f   INameSpacePrefixMap_I.obj
 0001:0007f400       ??$CallUnSafeFunction@VINameSpacePrefixMap_I@AdobeXMPCore_Int@@PEAXPEAX_KK@AdobeXMPCore_Int@@YAPEAXAEAPEBVIError_v1@AdobeXMPCommon@@PEAVINameSpacePrefixMap_I@0@PEAXP830@EAAPEAX_KK@ZPEBDK3K@Z 0000000180080400 f i INameSpacePrefixMap_I.obj
 0001:0007f450       ??$CallUnSafeFunction@VINameSpacePrefixMap_v1@AdobeXMPCore@@K_NPEBD_KPEBD_K@AdobeXMPCore_Int@@YAKAEAPEBVIError_v1@AdobeXMPCommon@@PEAVINameSpacePrefixMap_v1@AdobeXMPCore@@KP834@EAA_NPEBD_K23@Z2K2323@Z 0000000180080450 f i INameSpacePrefixMap_I.obj
 0001:0007f4b8       ??$CallUnSafeFunction@VINameSpacePrefixMap_v1@AdobeXMPCore@@K_NPEBD_K@AdobeXMPCore_Int@@YAKAEAPEBVIError_v1@AdobeXMPCommon@@PEAVINameSpacePrefixMap_v1@AdobeXMPCore@@KP834@EAA_NPEBD_K@Z2K23@Z 00000001800804b8 f i INameSpacePrefixMap_I.obj
 0001:0007f508       ??$CallConstUnSafeFunction@VINameSpacePrefixMap_v1@AdobeXMPCore@@K_NPEBD_K@AdobeXMPCore_Int@@YAKAEAPEBVIError_v1@AdobeXMPCommon@@PEBVINameSpacePrefixMap_v1@AdobeXMPCore@@KP834@EBA_NPEBD_K@Z2K23@Z 0000000180080508 f i INameSpacePrefixMap_I.obj
 0001:0007f558       ??$CallConstUnSafeFunctionReturningSharedPointer@VINameSpacePrefixMap_v1@AdobeXMPCore@@PEBVIUTF8String_v1@AdobeXMPCommon@@$$CBV34@PEBD_K@AdobeXMPCore_Int@@YAPEBVIUTF8String_v1@AdobeXMPCommon@@AEAPEBVIError_v1@2@PEBVINameSpacePrefixMap_v1@AdobeXMPCore@@P845@EBA?AV?$shared_ptr@$$CBVIUTF8String_v1@AdobeXMPCommon@@@std@@PEBD_K@Z2K23@Z 0000000180080558 f i INameSpacePrefixMap_I.obj
 0001:0007f6fc       ??$CallConstUnSafeFunctionReturningSharedPointer@VINameSpacePrefixMap_v1@AdobeXMPCore@@PEAV12@V12@@AdobeXMPCore_Int@@YAPEAVINameSpacePrefixMap_v1@AdobeXMPCore@@AEAPEBVIError_v1@AdobeXMPCommon@@PEBV12@P812@EBA?AV?$shared_ptr@VINameSpacePrefixMap_v1@AdobeXMPCore@@@std@@XZPEBDK@Z 00000001800806fc f i INameSpacePrefixMap_I.obj
 0001:0007f88c       ??_9INode_v1@AdobeXMPCore@@$BEI@AA 000000018008088c f i INode_I.obj
 0001:0007f88c       ??_9INameSpacePrefixMap_v1@AdobeXMPCore@@$BEI@AA 000000018008088c f i INameSpacePrefixMap_I.obj
 0001:0007f88c       ??_9IUTF8String_v1@AdobeXMPCommon@@$BEI@AA 000000018008088c f i IUTF8String.obj
 0001:0007f88c       ??_9IConfigurable_I@AdobeXMPCore_Int@@$BEI@AA 000000018008088c f i IConfigurable_I.obj
 0001:0007f894       ??_E?$_Ref_count_del_alloc@VINode_v1@AdobeXMPCore@@V?$_Mem_fn_wrap@XP8ISharedObject@AdobeXMPCommon@@EBAXXZ$$CBV12@$$$V@std@@V?$TAllocator@VINode_v1@AdobeXMPCore@@@AdobeXMPCore_Int@@@std@@UEAAPEAXI@Z 0000000180080894 f i * CIL library *:* CIL module *
 0001:0007f894       ??_G?$_Ref_count_del_alloc@VMetadataImpl@AdobeXMPCore_Int@@V?$_Mem_fn_wrap@XP8NodeImpl@AdobeXMPCore_Int@@EBAXXZ$$CBV12@$$$V@std@@V?$TAllocator@VMetadataImpl@AdobeXMPCore_Int@@@2@@std@@UEAAPEAXI@Z 0000000180080894 f i MetadataImpl.obj
 0001:0007f894       ??_E?$_Ref_count_del_alloc@VINameSpacePrefixMap_v1@AdobeXMPCore@@V?$_Mem_fn_wrap@XP8ISharedObject@AdobeXMPCommon@@EBAXXZ$$CBV12@$$$V@std@@V?$TAllocator@VINameSpacePrefixMap_v1@AdobeXMPCore@@@AdobeXMPCore_Int@@@std@@UEAAPEAXI@Z 0000000180080894 f i * CIL library *:* CIL module *
 0001:0007f894       ??_G?$_Ref_count_del_alloc@VClientDOMSerializerWrapperImpl@AdobeXMPCore_Int@@V?$_Mem_fn_wrap@XP8SharedObjectImpl@AdobeXMPCore_Int@@EBAXXZ$$CBV12@$$$V@std@@V?$TAllocator@VClientDOMSerializerWrapperImpl@AdobeXMPCore_Int@@@2@@std@@UEAAPEAXI@Z 0000000180080894 f i DOMSerializerImpl.obj
 0001:0007f894       ??_G?$_Ref_count_del_alloc@VNameSpacePrefixMapImpl@AdobeXMPCore_Int@@V?$_Mem_fn_wrap@XP8SharedObjectImpl@AdobeXMPCore_Int@@EBAXXZ$$CBV12@$$$V@std@@V?$TAllocator@VNameSpacePrefixMapImpl@AdobeXMPCore_Int@@@2@@std@@UEAAPEAXI@Z 0000000180080894 f i NameSpacePrefixMapImpl.obj
 0001:0007f894       ??_E?$_Ref_count_del_alloc@VClientDOMParserWrapperImpl@AdobeXMPCore_Int@@V?$_Mem_fn_wrap@XP8SharedObjectImpl@AdobeXMPCore_Int@@EBAXXZ$$CBV12@$$$V@std@@V?$TAllocator@VClientDOMParserWrapperImpl@AdobeXMPCore_Int@@@2@@std@@UEAAPEAXI@Z 0000000180080894 f i * CIL library *:* CIL module *
 0001:0007f894       ??_E?$_Ref_count_del_alloc@VRDFDOMSerializerImpl@AdobeXMPCore_Int@@V?$_Mem_fn_wrap@XP8SharedObjectImpl@AdobeXMPCore_Int@@EBAXXZ$$CBV12@$$$V@std@@V?$TAllocator@VRDFDOMSerializerImpl@AdobeXMPCore_Int@@@2@@std@@UEAAPEAXI@Z 0000000180080894 f i * CIL library *:* CIL module *
 0001:0007f894       ??_G?$_Ref_count_del_alloc@VStructureNodeImpl@AdobeXMPCore_Int@@V?$_Mem_fn_wrap@XP8NodeImpl@AdobeXMPCore_Int@@EBAXXZ$$CBV12@$$$V@std@@V?$TAllocator@VStructureNodeImpl@AdobeXMPCore_Int@@@2@@std@@UEAAPEAXI@Z 0000000180080894 f i StructureNodeImpl.obj
 0001:0007f894       ??_E_Ref_count_base@std@@UEAAPEAXI@Z 0000000180080894 f i * CIL library *:* CIL module *
 0001:0007f894       ??_G?$_Ref_count_del_alloc@VCoreConfigurationManagerImpl@AdobeXMPCore_Int@@V?$_Mem_fn_wrap@XP8SharedObjectImpl@AdobeXMPCore_Int@@EBAXXZ$$CBV12@$$$V@std@@V?$TAllocator@VCoreConfigurationManagerImpl@AdobeXMPCore_Int@@@2@@std@@UEAAPEAXI@Z 0000000180080894 f i CoreConfigurationManagerImpl.obj
 0001:0007f894       ??_E?$_Ref_count_del_alloc@VMetadataImpl@AdobeXMPCore_Int@@V?$_Mem_fn_wrap@XP8NodeImpl@AdobeXMPCore_Int@@EBAXXZ$$CBV12@$$$V@std@@V?$TAllocator@VMetadataImpl@AdobeXMPCore_Int@@@2@@std@@UEAAPEAXI@Z 0000000180080894 f i * CIL library *:* CIL module *
 0001:0007f894       ??_E?$_Ref_count_del_alloc@VErrorImpl@AdobeXMPCore_Int@@V?$_Mem_fn_wrap@XP8SharedObjectImpl@AdobeXMPCore_Int@@EBAXXZ$$CBV12@$$$V@std@@V?$TAllocator@VErrorImpl@AdobeXMPCore_Int@@@2@@std@@UEAAPEAXI@Z 0000000180080894 f i * CIL library *:* CIL module *
 0001:0007f894       ??_E?$_Ref_count_del_alloc@V?$TNodeIteratorImpl@V?$_Vector_iterator@V?$_Vector_val@U?$_Simple_types@V?$shared_ptr@VINode_v1@AdobeXMPCore@@@std@@@std@@@std@@@std@@@AdobeXMPCore_Int@@V?$_Mem_fn_wrap@XP8SharedObjectImpl@AdobeXMPCore_Int@@EBAXXZ$$CBV12@$$$V@std@@V?$TAllocator@V?$TNodeIteratorImpl@V?$_Vector_iterator@V?$_Vector_val@U?$_Simple_types@V?$shared_ptr@VINode_v1@AdobeXMPCore@@@std@@@std@@@std@@@std@@@AdobeXMPCore_Int@@@2@@std@@UEAAPEAXI@Z 0000000180080894 f i * CIL library *:* CIL module *
 0001:0007f894       ??_E?$_Ref_count_del_alloc@VArrayNodeImpl@AdobeXMPCore_Int@@V?$_Mem_fn_wrap@XP8NodeImpl@AdobeXMPCore_Int@@EBAXXZ$$CBV12@$$$V@std@@V?$TAllocator@VArrayNodeImpl@AdobeXMPCore_Int@@@2@@std@@UEAAPEAXI@Z 0000000180080894 f i * CIL library *:* CIL module *
 0001:0007f894       ??_E?$_Ref_count_del_alloc@VCompositeNodeImpl@AdobeXMPCore_Int@@V?$_Mem_fn_wrap@XP8NodeImpl@AdobeXMPCore_Int@@EBAXXZ$$CBV12@$$$V@std@@V?$TAllocator@VCompositeNodeImpl@AdobeXMPCore_Int@@@2@@std@@UEAAPEAXI@Z 0000000180080894 f i * CIL library *:* CIL module *
 0001:0007f894       ??_E?$_Ref_count_del_alloc@VRDFDOMParserImpl@AdobeXMPCore_Int@@V?$_Mem_fn_wrap@XP8SharedObjectImpl@AdobeXMPCore_Int@@EBAXXZ$$CBV12@$$$V@std@@V?$TAllocator@VRDFDOMParserImpl@AdobeXMPCore_Int@@@2@@std@@UEAAPEAXI@Z 0000000180080894 f i * CIL library *:* CIL module *
 0001:0007f894       ??_G?$_Ref_count_del_alloc@VPathImpl@AdobeXMPCore_Int@@V?$_Mem_fn_wrap@XP8SharedObjectImpl@AdobeXMPCore_Int@@EBAXXZ$$CBV12@$$$V@std@@V?$TAllocator@VPathImpl@AdobeXMPCore_Int@@@2@@std@@UEAAPEAXI@Z 0000000180080894 f i PathImpl.obj
 0001:0007f894       ??_G?$_Ref_count@VXMPMeta@@@std@@UEAAPEAXI@Z 0000000180080894 f i RDFDOMParserImpl.obj
 0001:0007f894       ??_G?$_Ref_count@VIUTF8StringProxy@AdobeXMPCommon@@@std@@UEAAPEAXI@Z 0000000180080894 f i IUTF8String.obj
 0001:0007f894       ??_G?$_Ref_count_del_alloc@VIPathSegment_v1@AdobeXMPCore@@V?$_Mem_fn_wrap@XP8ISharedObject@AdobeXMPCommon@@EBAXXZ$$CBV12@$$$V@std@@V?$TAllocator@VIPathSegment_v1@AdobeXMPCore@@@AdobeXMPCore_Int@@@std@@UEAAPEAXI@Z 0000000180080894 f i PathSegmentImpl.obj
 0001:0007f894       ??_G?$_Ref_count@VIErrorProxy@AdobeXMPCommon@@@std@@UEAAPEAXI@Z 0000000180080894 f i IError.obj
 0001:0007f894       ??_G?$_Ref_count_del_alloc@VDOMParserImpl@AdobeXMPCore_Int@@V?$_Mem_fn_wrap@XP8SharedObjectImpl@AdobeXMPCore_Int@@EBAXXZ$$CBV12@$$$V@std@@V?$TAllocator@VDOMParserImpl@AdobeXMPCore_Int@@@2@@std@@UEAAPEAXI@Z 0000000180080894 f i DOMParserImpl.obj
 0001:0007f894       ??_G?$_Ref_count_del_alloc@VSimpleNodeImpl@AdobeXMPCore_Int@@V?$_Mem_fn_wrap@XP8NodeImpl@AdobeXMPCore_Int@@EBAXXZ$$CBV12@$$$V@std@@V?$TAllocator@VSimpleNodeImpl@AdobeXMPCore_Int@@@2@@std@@UEAAPEAXI@Z 0000000180080894 f i SimpleNodeImpl.obj
 0001:0007f894       ??_E?$_Ref_count_del_alloc@VStructureNodeImpl@AdobeXMPCore_Int@@V?$_Mem_fn_wrap@XP8NodeImpl@AdobeXMPCore_Int@@EBAXXZ$$CBV12@$$$V@std@@V?$TAllocator@VStructureNodeImpl@AdobeXMPCore_Int@@@2@@std@@UEAAPEAXI@Z 0000000180080894 f i * CIL library *:* CIL module *
 0001:0007f894       ??_G?$_Ref_count_del_alloc@VCompositeNodeImpl@AdobeXMPCore_Int@@V?$_Mem_fn_wrap@XP8NodeImpl@AdobeXMPCore_Int@@EBAXXZ$$CBV12@$$$V@std@@V?$TAllocator@VCompositeNodeImpl@AdobeXMPCore_Int@@@2@@std@@UEAAPEAXI@Z 0000000180080894 f i CompositeNodeImpl.obj
 0001:0007f894       ??_E?$_Ref_count_del_alloc@VIMetadata_v1@AdobeXMPCore@@V?$_Mem_fn_wrap@XP8ISharedObject@AdobeXMPCommon@@EBAXXZ$$CBV12@$$$V@std@@V?$TAllocator@VIMetadata_v1@AdobeXMPCore@@@AdobeXMPCore_Int@@@std@@UEAAPEAXI@Z 0000000180080894 f i * CIL library *:* CIL module *
 0001:0007f894       ??_E?$_Ref_count@VIUTF8StringProxy@AdobeXMPCommon@@@std@@UEAAPEAXI@Z 0000000180080894 f i * CIL library *:* CIL module *
 0001:0007f894       ??_G?$_Ref_count_del_alloc@VDOMImplementationRegistryImpl@AdobeXMPCore_Int@@V?$_Mem_fn_wrap@XP8SharedObjectImpl@AdobeXMPCore_Int@@EBAXXZ$$CBV12@$$$V@std@@V?$TAllocator@VDOMImplementationRegistryImpl@AdobeXMPCore_Int@@@2@@std@@UEAAPEAXI@Z 0000000180080894 f i DOMImplementationRegistryImpl.obj
 0001:0007f894       ??_E?$_Ref_count_del_alloc@V?$TNodeIteratorImpl@V?$_Tree_iterator@V?$_Tree_val@U?$_Tree_simple_types@U?$pair@$$CBUQualifiedName@StructureNodeImpl@AdobeXMPCore_Int@@V?$shared_ptr@VINode_v1@AdobeXMPCore@@@std@@@std@@@std@@@std@@@std@@@AdobeXMPCore_Int@@V?$_Mem_fn_wrap@XP8SharedObjectImpl@AdobeXMPCore_Int@@EBAXXZ$$CBV12@$$$V@std@@V?$TAllocator@V?$TNodeIteratorImpl@V?$_Tree_iterator@V?$_Tree_val@U?$_Tree_simple_types@U?$pair@$$CBUQualifiedName@StructureNodeImpl@AdobeXMPCore_Int@@V?$shared_ptr@VINode_v1@AdobeXMPCore@@@std@@@std@@@std@@@std@@@std@@@AdobeXMPCore_Int@@@2@@std@@UEAAPEAXI@Z 0000000180080894 f i * CIL library *:* CIL module *
 0001:0007f894       ??_E?$_Ref_count_del_alloc@VUTF8StringImpl@AdobeXMPCore_Int@@V?$_Mem_fn_wrap@XP8SharedObjectImpl@AdobeXMPCore_Int@@EBAXXZ$$CBV12@$$$V@std@@V?$TAllocator@VUTF8StringImpl@AdobeXMPCore_Int@@@2@@std@@UEAAPEAXI@Z 0000000180080894 f i * CIL library *:* CIL module *
 0001:0007f894       ??_E?$_Ref_count_del_alloc@VINameSpacePrefixMap_I@AdobeXMPCore_Int@@V?$_Mem_fn_wrap@XP8ISharedObject@AdobeXMPCommon@@EBAXXZ$$CBV12@$$$V@std@@V?$TAllocator@VINameSpacePrefixMap_I@AdobeXMPCore_Int@@@2@@std@@UEAAPEAXI@Z 0000000180080894 f i * CIL library *:* CIL module *
 0001:0007f894       ??_G?$_Ref_count_del_alloc@V?$TNodeIteratorImpl@V?$_Vector_iterator@V?$_Vector_val@U?$_Simple_types@V?$shared_ptr@VINode_v1@AdobeXMPCore@@@std@@@std@@@std@@@std@@@AdobeXMPCore_Int@@V?$_Mem_fn_wrap@XP8SharedObjectImpl@AdobeXMPCore_Int@@EBAXXZ$$CBV12@$$$V@std@@V?$TAllocator@V?$TNodeIteratorImpl@V?$_Vector_iterator@V?$_Vector_val@U?$_Simple_types@V?$shared_ptr@VINode_v1@AdobeXMPCore@@@std@@@std@@@std@@@std@@@AdobeXMPCore_Int@@@2@@std@@UEAAPEAXI@Z 0000000180080894 f i ArrayNodeImpl.obj
 0001:0007f894       ??_G_Ref_count_base@std@@UEAAPEAXI@Z 0000000180080894 f i INodeIterator_I.obj
 0001:0007f894       ??_E?$_Ref_count@VIErrorProxy@AdobeXMPCommon@@@std@@UEAAPEAXI@Z 0000000180080894 f i * CIL library *:* CIL module *
 0001:0007f894       ??_G?$_Ref_count_del_alloc@VDOMSerializerImpl@AdobeXMPCore_Int@@V?$_Mem_fn_wrap@XP8SharedObjectImpl@AdobeXMPCore_Int@@EBAXXZ$$CBV12@$$$V@std@@V?$TAllocator@VDOMSerializerImpl@AdobeXMPCore_Int@@@2@@std@@UEAAPEAXI@Z 0000000180080894 f i DOMSerializerImpl.obj
 0001:0007f894       ??_G?$_Ref_count_del_alloc@VIPath_v1@AdobeXMPCore@@V?$_Mem_fn_wrap@XP8ISharedObject@AdobeXMPCommon@@EBAXXZ$$CBV12@$$$V@std@@V?$TAllocator@VIPath_v1@AdobeXMPCore@@@AdobeXMPCore_Int@@@std@@UEAAPEAXI@Z 0000000180080894 f i PathImpl.obj
 0001:0007f894       ??_E?$_Ref_count_del_alloc@VDOMSerializerImpl@AdobeXMPCore_Int@@V?$_Mem_fn_wrap@XP8SharedObjectImpl@AdobeXMPCore_Int@@EBAXXZ$$CBV12@$$$V@std@@V?$TAllocator@VDOMSerializerImpl@AdobeXMPCore_Int@@@2@@std@@UEAAPEAXI@Z 0000000180080894 f i * CIL library *:* CIL module *
 0001:0007f894       ??_E?$_Ref_count_del_alloc@VIPath_v1@AdobeXMPCore@@V?$_Mem_fn_wrap@XP8ISharedObject@AdobeXMPCommon@@EBAXXZ$$CBV12@$$$V@std@@V?$TAllocator@VIPath_v1@AdobeXMPCore@@@AdobeXMPCore_Int@@@std@@UEAAPEAXI@Z 0000000180080894 f i * CIL library *:* CIL module *
 0001:0007f894       ??_E?$_Ref_count_del_alloc@VIPathSegment_v1@AdobeXMPCore@@V?$_Mem_fn_wrap@XP8ISharedObject@AdobeXMPCommon@@EBAXXZ$$CBV12@$$$V@std@@V?$TAllocator@VIPathSegment_v1@AdobeXMPCore@@@AdobeXMPCore_Int@@@std@@UEAAPEAXI@Z 0000000180080894 f i * CIL library *:* CIL module *
 0001:0007f894       ??_G?$_Ref_count_del_alloc@VINode_v1@AdobeXMPCore@@V?$_Mem_fn_wrap@XP8ISharedObject@AdobeXMPCommon@@EBAXXZ$$CBV12@$$$V@std@@V?$TAllocator@VINode_v1@AdobeXMPCore@@@AdobeXMPCore_Int@@@std@@UEAAPEAXI@Z 0000000180080894 f i ArrayNodeImpl.obj
 0001:0007f894       ??_E?$_Ref_count_del_alloc@VNameSpacePrefixMapImpl@AdobeXMPCore_Int@@V?$_Mem_fn_wrap@XP8SharedObjectImpl@AdobeXMPCore_Int@@EBAXXZ$$CBV12@$$$V@std@@V?$TAllocator@VNameSpacePrefixMapImpl@AdobeXMPCore_Int@@@2@@std@@UEAAPEAXI@Z 0000000180080894 f i * CIL library *:* CIL module *
 0001:0007f894       ??_E?$_Ref_count_del_alloc@VDOMParserImpl@AdobeXMPCore_Int@@V?$_Mem_fn_wrap@XP8SharedObjectImpl@AdobeXMPCore_Int@@EBAXXZ$$CBV12@$$$V@std@@V?$TAllocator@VDOMParserImpl@AdobeXMPCore_Int@@@2@@std@@UEAAPEAXI@Z 0000000180080894 f i * CIL library *:* CIL module *
 0001:0007f894       ??_E?$_Ref_count_del_alloc@VPathImpl@AdobeXMPCore_Int@@V?$_Mem_fn_wrap@XP8SharedObjectImpl@AdobeXMPCore_Int@@EBAXXZ$$CBV12@$$$V@std@@V?$TAllocator@VPathImpl@AdobeXMPCore_Int@@@2@@std@@UEAAPEAXI@Z 0000000180080894 f i * CIL library *:* CIL module *
 0001:0007f894       ??_G?$_Ref_count_del_alloc@VSharedMutexImpl@AdobeXMPCore_Int@@V?$_Mem_fn_wrap@XP8SharedObjectImpl@AdobeXMPCore_Int@@EBAXXZ$$CBV12@$$$V@std@@V?$TAllocator@VSharedMutexImpl@AdobeXMPCore_Int@@@2@@std@@UEAAPEAXI@Z 0000000180080894 f i SharedMutexImpl.obj
 0001:0007f894       ??_G?$_Ref_count_del_alloc@VPathSegmentImpl@AdobeXMPCore_Int@@V?$_Mem_fn_wrap@XP8SharedObjectImpl@AdobeXMPCore_Int@@EBAXXZ$$CBV12@$$$V@std@@V?$TAllocator@VPathSegmentImpl@AdobeXMPCore_Int@@@2@@std@@UEAAPEAXI@Z 0000000180080894 f i PathSegmentImpl.obj
 0001:0007f894       ??_E?$_Ref_count_del_alloc@VSharedMutexImpl@AdobeXMPCore_Int@@V?$_Mem_fn_wrap@XP8SharedObjectImpl@AdobeXMPCore_Int@@EBAXXZ$$CBV12@$$$V@std@@V?$TAllocator@VSharedMutexImpl@AdobeXMPCore_Int@@@2@@std@@UEAAPEAXI@Z 0000000180080894 f i * CIL library *:* CIL module *
 0001:0007f894       ??_E?$_Ref_count_del_alloc@VCoreConfigurationManagerImpl@AdobeXMPCore_Int@@V?$_Mem_fn_wrap@XP8SharedObjectImpl@AdobeXMPCore_Int@@EBAXXZ$$CBV12@$$$V@std@@V?$TAllocator@VCoreConfigurationManagerImpl@AdobeXMPCore_Int@@@2@@std@@UEAAPEAXI@Z 0000000180080894 f i * CIL library *:* CIL module *
 0001:0007f894       ??_G?$_Ref_count_del_alloc@VUTF8StringImpl@AdobeXMPCore_Int@@V?$_Mem_fn_wrap@XP8SharedObjectImpl@AdobeXMPCore_Int@@EBAXXZ$$CBV12@$$$V@std@@V?$TAllocator@VUTF8StringImpl@AdobeXMPCore_Int@@@2@@std@@UEAAPEAXI@Z 0000000180080894 f i UTF8StringImpl.obj
 0001:0007f894       ??_E?$_Ref_count_del_alloc@VPathSegmentImpl@AdobeXMPCore_Int@@V?$_Mem_fn_wrap@XP8SharedObjectImpl@AdobeXMPCore_Int@@EBAXXZ$$CBV12@$$$V@std@@V?$TAllocator@VPathSegmentImpl@AdobeXMPCore_Int@@@2@@std@@UEAAPEAXI@Z 0000000180080894 f i * CIL library *:* CIL module *
 0001:0007f894       ??_G?$_Ref_count_del_alloc@VIMetadata_v1@AdobeXMPCore@@V?$_Mem_fn_wrap@XP8ISharedObject@AdobeXMPCommon@@EBAXXZ$$CBV12@$$$V@std@@V?$TAllocator@VIMetadata_v1@AdobeXMPCore@@@AdobeXMPCore_Int@@@std@@UEAAPEAXI@Z 0000000180080894 f i DOMParserImpl.obj
 0001:0007f894       ??_G?$_Ref_count_del_alloc@VINameSpacePrefixMap_I@AdobeXMPCore_Int@@V?$_Mem_fn_wrap@XP8ISharedObject@AdobeXMPCommon@@EBAXXZ$$CBV12@$$$V@std@@V?$TAllocator@VINameSpacePrefixMap_I@AdobeXMPCore_Int@@@2@@std@@UEAAPEAXI@Z 0000000180080894 f i RDFDOMSerializerImpl.obj
 0001:0007f894       ??_E?$_Ref_count_del_alloc@VClientDOMSerializerWrapperImpl@AdobeXMPCore_Int@@V?$_Mem_fn_wrap@XP8SharedObjectImpl@AdobeXMPCore_Int@@EBAXXZ$$CBV12@$$$V@std@@V?$TAllocator@VClientDOMSerializerWrapperImpl@AdobeXMPCore_Int@@@2@@std@@UEAAPEAXI@Z 0000000180080894 f i * CIL library *:* CIL module *
 0001:0007f894       ??_G?$_Ref_count_del_alloc@VRDFDOMSerializerImpl@AdobeXMPCore_Int@@V?$_Mem_fn_wrap@XP8SharedObjectImpl@AdobeXMPCore_Int@@EBAXXZ$$CBV12@$$$V@std@@V?$TAllocator@VRDFDOMSerializerImpl@AdobeXMPCore_Int@@@2@@std@@UEAAPEAXI@Z 0000000180080894 f i DOMImplementationRegistryImpl.obj
 0001:0007f894       ??_G?$_Ref_count_del_alloc@VArrayNodeImpl@AdobeXMPCore_Int@@V?$_Mem_fn_wrap@XP8NodeImpl@AdobeXMPCore_Int@@EBAXXZ$$CBV12@$$$V@std@@V?$TAllocator@VArrayNodeImpl@AdobeXMPCore_Int@@@2@@std@@UEAAPEAXI@Z 0000000180080894 f i ArrayNodeImpl.obj
 0001:0007f894       ??_G?$_Ref_count_del_alloc@VErrorImpl@AdobeXMPCore_Int@@V?$_Mem_fn_wrap@XP8SharedObjectImpl@AdobeXMPCore_Int@@EBAXXZ$$CBV12@$$$V@std@@V?$TAllocator@VErrorImpl@AdobeXMPCore_Int@@@2@@std@@UEAAPEAXI@Z 0000000180080894 f i ErrorImpl.obj
 0001:0007f894       ??_G?$_Ref_count_del_alloc@VINameSpacePrefixMap_v1@AdobeXMPCore@@V?$_Mem_fn_wrap@XP8ISharedObject@AdobeXMPCommon@@EBAXXZ$$CBV12@$$$V@std@@V?$TAllocator@VINameSpacePrefixMap_v1@AdobeXMPCore@@@AdobeXMPCore_Int@@@std@@UEAAPEAXI@Z 0000000180080894 f i NameSpacePrefixMapImpl.obj
 0001:0007f894       ??_G?$_Ref_count_del_alloc@VRDFDOMParserImpl@AdobeXMPCore_Int@@V?$_Mem_fn_wrap@XP8SharedObjectImpl@AdobeXMPCore_Int@@EBAXXZ$$CBV12@$$$V@std@@V?$TAllocator@VRDFDOMParserImpl@AdobeXMPCore_Int@@@2@@std@@UEAAPEAXI@Z 0000000180080894 f i DOMImplementationRegistryImpl.obj
 0001:0007f894       ??_E?$_Ref_count_del_alloc@VSimpleNodeImpl@AdobeXMPCore_Int@@V?$_Mem_fn_wrap@XP8NodeImpl@AdobeXMPCore_Int@@EBAXXZ$$CBV12@$$$V@std@@V?$TAllocator@VSimpleNodeImpl@AdobeXMPCore_Int@@@2@@std@@UEAAPEAXI@Z 0000000180080894 f i * CIL library *:* CIL module *
 0001:0007f894       ??_E?$_Ref_count_del_alloc@VDOMImplementationRegistryImpl@AdobeXMPCore_Int@@V?$_Mem_fn_wrap@XP8SharedObjectImpl@AdobeXMPCore_Int@@EBAXXZ$$CBV12@$$$V@std@@V?$TAllocator@VDOMImplementationRegistryImpl@AdobeXMPCore_Int@@@2@@std@@UEAAPEAXI@Z 0000000180080894 f i * CIL library *:* CIL module *
 0001:0007f894       ??_G?$_Ref_count_del_alloc@V?$TNodeIteratorImpl@V?$_Tree_iterator@V?$_Tree_val@U?$_Tree_simple_types@U?$pair@$$CBUQualifiedName@StructureNodeImpl@AdobeXMPCore_Int@@V?$shared_ptr@VINode_v1@AdobeXMPCore@@@std@@@std@@@std@@@std@@@std@@@AdobeXMPCore_Int@@V?$_Mem_fn_wrap@XP8SharedObjectImpl@AdobeXMPCore_Int@@EBAXXZ$$CBV12@$$$V@std@@V?$TAllocator@V?$TNodeIteratorImpl@V?$_Tree_iterator@V?$_Tree_val@U?$_Tree_simple_types@U?$pair@$$CBUQualifiedName@StructureNodeImpl@AdobeXMPCore_Int@@V?$shared_ptr@VINode_v1@AdobeXMPCore@@@std@@@std@@@std@@@std@@@std@@@AdobeXMPCore_Int@@@2@@std@@UEAAPEAXI@Z 0000000180080894 f i StructureNodeImpl.obj
 0001:0007f894       ??_G?$_Ref_count_del_alloc@VClientDOMParserWrapperImpl@AdobeXMPCore_Int@@V?$_Mem_fn_wrap@XP8SharedObjectImpl@AdobeXMPCore_Int@@EBAXXZ$$CBV12@$$$V@std@@V?$TAllocator@VClientDOMParserWrapperImpl@AdobeXMPCore_Int@@@2@@std@@UEAAPEAXI@Z 0000000180080894 f i DOMParserImpl.obj
 0001:0007f894       ??_E?$_Ref_count@VXMPMeta@@@std@@UEAAPEAXI@Z 0000000180080894 f i * CIL library *:* CIL module *
 0001:0007f8bc       ?GetInterfacePointer@INodeIterator_I@AdobeXMPCore_Int@@UEAAPEAX_KK@Z 00000001800808bc f   INodeIterator_I.obj
 0001:0007f964       ?getInterfacePointer@INodeIterator_I@AdobeXMPCore_Int@@MEAAPEAX_KKAEAPEBVIError_v1@AdobeXMPCommon@@@Z 0000000180080964 f   INodeIterator_I.obj
 0001:0007f9b4       ?getNode@INodeIterator_I@AdobeXMPCore_Int@@MEAAPEAVINode_v1@AdobeXMPCore@@AEAPEBVIError_v1@AdobeXMPCommon@@@Z 00000001800809b4 f   INodeIterator_I.obj
 0001:0007fa08       ?getNodeType@INodeIterator_I@AdobeXMPCore_Int@@MEBAKAEAPEBVIError_v1@AdobeXMPCommon@@@Z 0000000180080a08 f   INodeIterator_I.obj
 0001:0007fa5c       ?next@INodeIterator_I@AdobeXMPCore_Int@@MEAAPEAVINodeIterator_v1@AdobeXMPCore@@AEAPEBVIError_v1@AdobeXMPCommon@@@Z 0000000180080a5c f   INodeIterator_I.obj
 0001:0007fab0       ??$CallUnSafeFunction@VINodeIterator_I@AdobeXMPCore_Int@@PEAXPEAX_KK@AdobeXMPCore_Int@@YAPEAXAEAPEBVIError_v1@AdobeXMPCommon@@PEAVINodeIterator_I@0@PEAXP830@EAAPEAX_KK@ZPEBDK3K@Z 0000000180080ab0 f i INodeIterator_I.obj
 0001:0007faf8       ??$CallUnSafeFunctionReturningSharedPointer@VINodeIterator_v1@AdobeXMPCore@@PEAVINode_v1@2@V32@@AdobeXMPCore_Int@@YAPEAVINode_v1@AdobeXMPCore@@AEAPEBVIError_v1@AdobeXMPCommon@@PEAVINodeIterator_v1@2@P852@EAA?AV?$shared_ptr@VINode_v1@AdobeXMPCore@@@std@@XZPEBDK@Z 0000000180080af8 f i INodeIterator_I.obj
 0001:0007fc88       ??$CallConstUnSafeFunction@VINodeIterator_v1@AdobeXMPCore@@KW4eNodeType@INode_v1@2@@AdobeXMPCore_Int@@YAKAEAPEBVIError_v1@AdobeXMPCommon@@PEBVINodeIterator_v1@AdobeXMPCore@@KP834@EBA?AW4eNodeType@INode_v1@4@XZPEBDK@Z 0000000180080c88 f i INodeIterator_I.obj
 0001:0007fcc8       ??$CallUnSafeFunctionReturningSharedPointer@VINodeIterator_v1@AdobeXMPCore@@PEAV12@V12@@AdobeXMPCore_Int@@YAPEAVINodeIterator_v1@AdobeXMPCore@@AEAPEBVIError_v1@AdobeXMPCommon@@PEAV12@P812@EAA?AV?$shared_ptr@VINodeIterator_v1@AdobeXMPCore@@@std@@XZPEBDK@Z 0000000180080cc8 f i INodeIterator_I.obj
 0001:0007fe58       ?GetInterfacePointer@INode_I@AdobeXMPCore_Int@@UEAAPEAX_KK@Z 0000000180080e58 f   INode_I.obj
 0001:0007fe64       ?getInterfacePointer@INode_I@AdobeXMPCore_Int@@MEAAPEAX_KKAEAPEBVIError_v1@AdobeXMPCommon@@@Z 0000000180080e64 f   INode_I.obj
 0001:0007feb4       ?GetInterfacePointerInternal@INode_I@AdobeXMPCore_Int@@IEAAPEAX_KK_N@Z 0000000180080eb4 f   INode_I.obj
 0001:0007ff6c       ?getParent@INode_I@AdobeXMPCore_Int@@MEAAPEAVINode_v1@AdobeXMPCore@@AEAPEBVIError_v1@AdobeXMPCommon@@@Z 0000000180080f6c f   INode_I.obj
 0001:0007ffc0       ?getParentNodeType@INode_I@AdobeXMPCore_Int@@MEBAKAEAPEBVIError_v1@AdobeXMPCommon@@@Z 0000000180080fc0 f   INode_I.obj
 0001:0008001c       ?setName@INode_I@AdobeXMPCore_Int@@MEAAXPEBD_KAEAPEBVIError_v1@AdobeXMPCommon@@@Z 000000018008101c f   INode_I.obj
 0001:00080080       ?getName@INode_I@AdobeXMPCore_Int@@MEBAPEBVIUTF8String_v1@AdobeXMPCommon@@AEAPEBVIError_v1@4@@Z 0000000180081080 f   INode_I.obj
 0001:000800dc       ?setNameSpace@INode_I@AdobeXMPCore_Int@@MEAAXPEBD_KAEAPEBVIError_v1@AdobeXMPCommon@@@Z 00000001800810dc f   INode_I.obj
 0001:00080140       ?getNameSpace@INode_I@AdobeXMPCore_Int@@MEBAPEBVIUTF8String_v1@AdobeXMPCommon@@AEAPEBVIError_v1@4@@Z 0000000180081140 f   INode_I.obj
 0001:0008019c       ?getPath@INode_I@AdobeXMPCore_Int@@MEBAPEAVIPath_v1@AdobeXMPCore@@AEAPEBVIError_v1@AdobeXMPCommon@@@Z 000000018008119c f   INode_I.obj
 0001:000801f0       ?qualifiersIterator@INode_I@AdobeXMPCore_Int@@MEAAPEAVINodeIterator_v1@AdobeXMPCore@@AEAPEBVIError_v1@AdobeXMPCommon@@@Z 00000001800811f0 f   INode_I.obj
 0001:00080244       ?getQualifierNodeType@INode_I@AdobeXMPCore_Int@@MEBAKPEBD_K01AEAPEBVIError_v1@AdobeXMPCommon@@@Z 0000000180081244 f   INode_I.obj
 0001:000802b8       ?getQualifier@INode_I@AdobeXMPCore_Int@@MEAAPEAVINode_v1@AdobeXMPCore@@PEBD_K01AEAPEBVIError_v1@AdobeXMPCommon@@@Z 00000001800812b8 f   INode_I.obj
 0001:00080334       ?insertQualifier@INode_I@AdobeXMPCore_Int@@MEAAXPEAVINode_v1@AdobeXMPCore@@AEAPEBVIError_v1@AdobeXMPCommon@@@Z 0000000180081334 f   INode_I.obj
 0001:000803e0       ?replaceQualifier@INode_I@AdobeXMPCore_Int@@MEAAPEAVINode_v1@AdobeXMPCore@@PEAV34@AEAPEBVIError_v1@AdobeXMPCommon@@@Z 00000001800813e0 f   INode_I.obj
 0001:00080484       ?removeQualifier@INode_I@AdobeXMPCore_Int@@MEAAPEAVINode_v1@AdobeXMPCore@@PEBD_K01AEAPEBVIError_v1@AdobeXMPCommon@@@Z 0000000180081484 f   INode_I.obj
 0001:00080500       ?getNodeType@INode_I@AdobeXMPCore_Int@@MEBAKAEAPEBVIError_v1@AdobeXMPCommon@@@Z 0000000180081500 f   INode_I.obj
 0001:0008055c       ?isArrayItem@INode_I@AdobeXMPCore_Int@@MEBAKAEAPEBVIError_v1@AdobeXMPCommon@@@Z 000000018008155c f   INode_I.obj
 0001:000805b8       ?isQualifierNode@INode_I@AdobeXMPCore_Int@@MEBAKAEAPEBVIError_v1@AdobeXMPCommon@@@Z 00000001800815b8 f   INode_I.obj
 0001:00080614       ?getIndex@INode_I@AdobeXMPCore_Int@@MEBA_KAEAPEBVIError_v1@AdobeXMPCommon@@@Z 0000000180081614 f   INode_I.obj
 0001:00080668       ?hasQualifiers@INode_I@AdobeXMPCore_Int@@MEBAKAEAPEBVIError_v1@AdobeXMPCommon@@@Z 0000000180081668 f   INode_I.obj
 0001:000806c4       ?hasContent@INode_I@AdobeXMPCore_Int@@MEBAKAEAPEBVIError_v1@AdobeXMPCommon@@@Z 00000001800816c4 f   INode_I.obj
 0001:00080720       ?isEmpty@INode_I@AdobeXMPCore_Int@@MEBAKAEAPEBVIError_v1@AdobeXMPCommon@@@Z 0000000180081720 f   INode_I.obj
 0001:0008077c       ?hasChanged@INode_I@AdobeXMPCore_Int@@MEBAKAEAPEBVIError_v1@AdobeXMPCommon@@@Z 000000018008177c f   INode_I.obj
 0001:000807d8       ?clear@INode_I@AdobeXMPCore_Int@@MEAAXKKAEAPEBVIError_v1@AdobeXMPCommon@@@Z 00000001800817d8 f   INode_I.obj
 0001:00080848       ?clone@INode_I@AdobeXMPCore_Int@@MEBAPEAVINode_v1@AdobeXMPCore@@KKAEAPEBVIError_v1@AdobeXMPCommon@@@Z 0000000180081848 f   INode_I.obj
 0001:000808b8       ?convertToSimpleNode@INode_I@AdobeXMPCore_Int@@MEAAPEAVISimpleNode_v1@AdobeXMPCore@@AEAPEBVIError_v1@AdobeXMPCommon@@@Z 00000001800818b8 f   INode_I.obj
 0001:0008090c       ?convertToStructureNode@INode_I@AdobeXMPCore_Int@@MEAAPEAVIStructureNode_v1@AdobeXMPCore@@AEAPEBVIError_v1@AdobeXMPCommon@@@Z 000000018008190c f   INode_I.obj
 0001:00080960       ?convertToArrayNode@INode_I@AdobeXMPCore_Int@@MEAAPEAVIArrayNode_v1@AdobeXMPCore@@AEAPEBVIError_v1@AdobeXMPCommon@@@Z 0000000180081960 f   INode_I.obj
 0001:000809b4       ?convertToMetadata@INode_I@AdobeXMPCore_Int@@MEAAPEAVIMetadata_v1@AdobeXMPCore@@AEAPEBVIError_v1@AdobeXMPCommon@@@Z 00000001800819b4 f   INode_I.obj
 0001:00080a08       ??$CallUnSafeFunction@VINode_I@AdobeXMPCore_Int@@PEAXPEAX_KK@AdobeXMPCore_Int@@YAPEAXAEAPEBVIError_v1@AdobeXMPCommon@@PEAVINode_I@0@PEAXP830@EAAPEAX_KK@ZPEBDK3K@Z 0000000180081a08 f i INode_I.obj
 0001:00080a58       ??$CallUnSafeFunctionReturningSharedPointer@VINode_v1@AdobeXMPCore@@PEAV12@V12@@AdobeXMPCore_Int@@YAPEAVINode_v1@AdobeXMPCore@@AEAPEBVIError_v1@AdobeXMPCommon@@PEAV12@P812@EAA?AV?$shared_ptr@VINode_v1@AdobeXMPCore@@@std@@XZPEBDK@Z 0000000180081a58 f i INode_I.obj
 0001:00080be8       ??$CallConstUnSafeFunction@VINode_v1@AdobeXMPCore@@KW4eNodeType@12@@AdobeXMPCore_Int@@YAKAEAPEBVIError_v1@AdobeXMPCommon@@PEBVINode_v1@AdobeXMPCore@@KP834@EBA?AW4eNodeType@34@XZPEBDK@Z 0000000180081be8 f i INode_I.obj
 0001:00080c28       ??$CallUnSafeFunctionReturningVoid@VINode_v1@AdobeXMPCore@@PEBD_K@AdobeXMPCore_Int@@YAXAEAPEBVIError_v1@AdobeXMPCommon@@PEAVINode_v1@AdobeXMPCore@@P834@EAAXPEBD_K@Z2K23@Z 0000000180081c28 f i INode_I.obj
 0001:00080c74       ??$CallConstUnSafeFunctionReturningSharedPointer@VINode_v1@AdobeXMPCore@@PEBVIUTF8String_v1@AdobeXMPCommon@@$$CBV34@@AdobeXMPCore_Int@@YAPEBVIUTF8String_v1@AdobeXMPCommon@@AEAPEBVIError_v1@2@PEBVINode_v1@AdobeXMPCore@@P845@EBA?AV?$shared_ptr@$$CBVIUTF8String_v1@AdobeXMPCommon@@@std@@XZPEBDK@Z 0000000180081c74 f i INode_I.obj
 0001:00080e04       ??$CallConstUnSafeFunctionReturningSharedPointer@VINode_v1@AdobeXMPCore@@PEAVIPath_v1@2@V32@@AdobeXMPCore_Int@@YAPEAVIPath_v1@AdobeXMPCore@@AEAPEBVIError_v1@AdobeXMPCommon@@PEBVINode_v1@2@P852@EBA?AV?$shared_ptr@VIPath_v1@AdobeXMPCore@@@std@@XZPEBDK@Z 0000000180081e04 f i INode_I.obj
 0001:00080f94       ??$CallUnSafeFunctionReturningSharedPointer@VINode_v1@AdobeXMPCore@@PEAVINodeIterator_v1@2@V32@@AdobeXMPCore_Int@@YAPEAVINodeIterator_v1@AdobeXMPCore@@AEAPEBVIError_v1@AdobeXMPCommon@@PEAVINode_v1@2@P852@EAA?AV?$shared_ptr@VINodeIterator_v1@AdobeXMPCore@@@std@@XZPEBDK@Z 0000000180081f94 f i INode_I.obj
 0001:00081124       ??$CallConstUnSafeFunction@VINode_v1@AdobeXMPCore@@KW4eNodeType@12@PEBD_KPEBD_K@AdobeXMPCore_Int@@YAKAEAPEBVIError_v1@AdobeXMPCommon@@PEBVINode_v1@AdobeXMPCore@@KP834@EBA?AW4eNodeType@34@PEBD_K23@Z2K2323@Z 0000000180082124 f i INode_I.obj
 0001:0008118c       ??$CallUnSafeFunctionReturningSharedPointer@VINode_v1@AdobeXMPCore@@PEAV12@V12@PEBD_KPEBD_K@AdobeXMPCore_Int@@YAPEAVINode_v1@AdobeXMPCore@@AEAPEBVIError_v1@AdobeXMPCommon@@PEAV12@P812@EAA?AV?$shared_ptr@VINode_v1@AdobeXMPCore@@@std@@PEBD_K23@Z2K2323@Z 000000018008218c f i INode_I.obj
 0001:0008134c       ??$CallUnSafeFunctionReturningVoid@VINode_v1@AdobeXMPCore@@AEBV?$shared_ptr@VINode_v1@AdobeXMPCore@@@std@@@AdobeXMPCore_Int@@YAXAEAPEBVIError_v1@AdobeXMPCommon@@PEAVINode_v1@AdobeXMPCore@@P834@EAAXAEBV?$shared_ptr@VINode_v1@AdobeXMPCore@@@std@@@ZPEBDK2@Z 000000018008234c f i INode_I.obj
 0001:00081390       ??$CallUnSafeFunctionReturningSharedPointer@VINode_v1@AdobeXMPCore@@PEAV12@V12@AEBV?$shared_ptr@VINode_v1@AdobeXMPCore@@@std@@@AdobeXMPCore_Int@@YAPEAVINode_v1@AdobeXMPCore@@AEAPEBVIError_v1@AdobeXMPCommon@@PEAV12@P812@EAA?AV?$shared_ptr@VINode_v1@AdobeXMPCore@@@std@@AEBV56@@ZPEBDK2@Z 0000000180082390 f i INode_I.obj
 0001:0008152c       ??$CallConstUnSafeFunction@VINode_v1@AdobeXMPCore@@K_N@AdobeXMPCore_Int@@YAKAEAPEBVIError_v1@AdobeXMPCommon@@PEBVINode_v1@AdobeXMPCore@@KP834@EBA_NXZPEBDK@Z 000000018008252c f i INode_I.obj
 0001:0008156c       ??$CallConstUnSafeFunction@VINode_v1@AdobeXMPCore@@_K_K@AdobeXMPCore_Int@@YA_KAEAPEBVIError_v1@AdobeXMPCommon@@PEBVINode_v1@AdobeXMPCore@@_KP834@EBA_KXZPEBDK@Z 000000018008256c f i INode_I.obj
 0001:000815ac       ??$CallUnSafeFunctionReturningVoid@VINode_v1@AdobeXMPCore@@_N_N@AdobeXMPCore_Int@@YAXAEAPEBVIError_v1@AdobeXMPCommon@@PEAVINode_v1@AdobeXMPCore@@P834@EAAX_N2@ZPEBDK22@Z 00000001800825ac f i INode_I.obj
 0001:000815f8       ??$CallConstUnSafeFunctionReturningSharedPointer@VINode_v1@AdobeXMPCore@@PEAV12@V12@_N_N@AdobeXMPCore_Int@@YAPEAVINode_v1@AdobeXMPCore@@AEAPEBVIError_v1@AdobeXMPCommon@@PEBV12@P812@EBA?AV?$shared_ptr@VINode_v1@AdobeXMPCore@@@std@@_N2@ZPEBDK22@Z 00000001800825f8 f i INode_I.obj
 0001:0008179c       ??$CallUnSafeFunctionReturningSharedPointer@VINode_v1@AdobeXMPCore@@PEAVISimpleNode_v1@2@V32@@AdobeXMPCore_Int@@YAPEAVISimpleNode_v1@AdobeXMPCore@@AEAPEBVIError_v1@AdobeXMPCommon@@PEAVINode_v1@2@P852@EAA?AV?$shared_ptr@VISimpleNode_v1@AdobeXMPCore@@@std@@XZPEBDK@Z 000000018008279c f i INode_I.obj
 0001:0008192c       ??$CallUnSafeFunctionReturningSharedPointer@VINode_v1@AdobeXMPCore@@PEAVIStructureNode_v1@2@V32@@AdobeXMPCore_Int@@YAPEAVIStructureNode_v1@AdobeXMPCore@@AEAPEBVIError_v1@AdobeXMPCommon@@PEAVINode_v1@2@P852@EAA?AV?$shared_ptr@VIStructureNode_v1@AdobeXMPCore@@@std@@XZPEBDK@Z 000000018008292c f i INode_I.obj
 0001:00081abc       ??$CallUnSafeFunctionReturningSharedPointer@VINode_v1@AdobeXMPCore@@PEAVIArrayNode_v1@2@V32@@AdobeXMPCore_Int@@YAPEAVIArrayNode_v1@AdobeXMPCore@@AEAPEBVIError_v1@AdobeXMPCommon@@PEAVINode_v1@2@P852@EAA?AV?$shared_ptr@VIArrayNode_v1@AdobeXMPCore@@@std@@XZPEBDK@Z 0000000180082abc f i INode_I.obj
 0001:00081c4c       ??$CallUnSafeFunctionReturningSharedPointer@VINode_v1@AdobeXMPCore@@PEAVIMetadata_v1@2@V32@@AdobeXMPCore_Int@@YAPEAVIMetadata_v1@AdobeXMPCore@@AEAPEBVIError_v1@AdobeXMPCommon@@PEAVINode_v1@2@P852@EAA?AV?$shared_ptr@VIMetadata_v1@AdobeXMPCore@@@std@@XZPEBDK@Z 0000000180082c4c f i INode_I.obj
 0001:00081ddc       ??_9INode_v1@AdobeXMPCore@@$BFI@AA 0000000180082ddc f i INode_I.obj
 0001:00081ddc       ??_9IUTF8String_v1@AdobeXMPCommon@@$BFI@AA 0000000180082ddc f i IUTF8String_I.obj
 0001:00081de4       ??_9IUTF8String_v1@AdobeXMPCommon@@$BGI@AA 0000000180082de4 f i IUTF8String_I.obj
 0001:00081de4       ??_9INode_v1@AdobeXMPCore@@$BGI@AA 0000000180082de4 f i INode_I.obj
 0001:00081dec       ??_9IUTF8String_v1@AdobeXMPCommon@@$BHI@AA 0000000180082dec f i IUTF8String_I.obj
 0001:00081dec       ??_9INode_v1@AdobeXMPCore@@$BHI@AA 0000000180082dec f i INode_I.obj
 0001:00081df4       ??_9IConfigurable@AdobeXMPCommon@@$BII@AA 0000000180082df4 f i IConfigurable_I.obj
 0001:00081df4       ??_9IUTF8String_v1@AdobeXMPCommon@@$BII@AA 0000000180082df4 f i IUTF8String.obj
 0001:00081df4       ??_9INode_v1@AdobeXMPCore@@$BII@AA 0000000180082df4 f i INode_I.obj
 0001:00081e00       ??_9IUTF8String_v1@AdobeXMPCommon@@$BJI@AA 0000000180082e00 f i IUTF8String_I.obj
 0001:00081e00       ??_9INode_v1@AdobeXMPCore@@$BJI@AA 0000000180082e00 f i INode_I.obj
 0001:00081e0c       ??_9INode_v1@AdobeXMPCore@@$BKI@AA 0000000180082e0c f i INode_I.obj
 0001:00081e0c       ??_9IUTF8String_v1@AdobeXMPCommon@@$BKI@AA 0000000180082e0c f i IUTF8String_I.obj
 0001:00081e0c       ??_9IError_v1@AdobeXMPCommon@@$BKI@AA 0000000180082e0c f i IError.obj
 0001:00081e18       ??_9IError_v1@AdobeXMPCommon@@$BLI@AA 0000000180082e18 f i IError.obj
 0001:00081e18       ??_9INode_v1@AdobeXMPCore@@$BLI@AA 0000000180082e18 f i INode_I.obj
 0001:00081e18       ??_9IUTF8String_v1@AdobeXMPCommon@@$BLI@AA 0000000180082e18 f i IUTF8String.obj
 0001:00081e24       ??_9INode_v1@AdobeXMPCore@@$BMI@AA 0000000180082e24 f i INode_I.obj
 0001:00081e24       ??_9IUTF8String_v1@AdobeXMPCommon@@$BMI@AA 0000000180082e24 f i IUTF8String_I.obj
 0001:00081e24       ??_9IError_v1@AdobeXMPCommon@@$BMI@AA 0000000180082e24 f i IError.obj
 0001:00081e30       ??_9IUTF8String_v1@AdobeXMPCommon@@$BNI@AA 0000000180082e30 f i IUTF8String.obj
 0001:00081e30       ??_9INode_v1@AdobeXMPCore@@$BNI@AA 0000000180082e30 f i INode_I.obj
 0001:00081e3c       ??_9INode_v1@AdobeXMPCore@@$BFA@AA 0000000180082e3c f i INode_I.obj
 0001:00081e3c       ??_9IUTF8String_v1@AdobeXMPCommon@@$BFA@AA 0000000180082e3c f i IUTF8String_I.obj
 0001:00081e44       ??_9IUTF8String_v1@AdobeXMPCommon@@$BGA@AA 0000000180082e44 f i IUTF8String.obj
 0001:00081e44       ??_9INode_v1@AdobeXMPCore@@$BGA@AA 0000000180082e44 f i INode_I.obj
 0001:00081e4c       ??_9IUTF8String_v1@AdobeXMPCommon@@$BHA@AA 0000000180082e4c f i IUTF8String.obj
 0001:00081e4c       ??_9INode_v1@AdobeXMPCore@@$BHA@AA 0000000180082e4c f i INode_I.obj
 0001:00081e54       ??_9INode_v1@AdobeXMPCore@@$BIA@AA 0000000180082e54 f i INode_I.obj
 0001:00081e54       ??_9IUTF8String_v1@AdobeXMPCommon@@$BIA@AA 0000000180082e54 f i IUTF8String.obj
 0001:00081e60       ??_9IUTF8String_v1@AdobeXMPCommon@@$BJA@AA 0000000180082e60 f i IUTF8String_I.obj
 0001:00081e60       ??_9INode_v1@AdobeXMPCore@@$BJA@AA 0000000180082e60 f i INode_I.obj
 0001:00081e6c       ??_9INode_v1@AdobeXMPCore@@$BKA@AA 0000000180082e6c f i INode_I.obj
 0001:00081e6c       ??_9IUTF8String_v1@AdobeXMPCommon@@$BKA@AA 0000000180082e6c f i IUTF8String.obj
 0001:00081e78       ??_9INode_v1@AdobeXMPCore@@$BMA@AA 0000000180082e78 f i INode_I.obj
 0001:00081e78       ??_9IError_v1@AdobeXMPCommon@@$BMA@AA 0000000180082e78 f i IError.obj
 0001:00081e78       ??_9IUTF8String_v1@AdobeXMPCommon@@$BMA@AA 0000000180082e78 f i IUTF8String_I.obj
 0001:00081e84       ??_9IError_v1@AdobeXMPCommon@@$BNA@AA 0000000180082e84 f i IError.obj
 0001:00081e84       ??_9IUTF8String_v1@AdobeXMPCommon@@$BNA@AA 0000000180082e84 f i IUTF8String.obj
 0001:00081e84       ??_9INode_v1@AdobeXMPCore@@$BNA@AA 0000000180082e84 f i INode_I.obj
 0001:00081e90       ??_9IUTF8String_v1@AdobeXMPCommon@@$BOA@AA 0000000180082e90 f i IUTF8String_I.obj
 0001:00081e90       ??_9INode_v1@AdobeXMPCore@@$BOA@AA 0000000180082e90 f i INode_I.obj
 0001:00081e9c       ??_9IUTF8String_v1@AdobeXMPCommon@@$BDI@AA 0000000180082e9c f i IUTF8String_I.obj
 0001:00081e9c       ??_9IPath_v1@AdobeXMPCore@@$BDI@AA 0000000180082e9c f i IPath_I.obj
 0001:00081e9c       ??_9IConfigurable@AdobeXMPCommon@@$BDI@AA 0000000180082e9c f i IConfigurable_I.obj
 0001:00081e9c       ??_9INode_v1@AdobeXMPCore@@$BDI@AA 0000000180082e9c f i INode_I.obj
 0001:00081e9c       ??_9IError_v1@AdobeXMPCommon@@$BDI@AA 0000000180082e9c f i IError_I.obj
 0001:00081ea4       ?GetInterfacePointer@IPathSegment_I@AdobeXMPCore_Int@@UEAAPEAX_KK@Z 0000000180082ea4 f   IPathSegment_I.obj
 0001:00081f50       ?getInterfacePointer@IPathSegment_I@AdobeXMPCore_Int@@MEAAPEAX_KKAEAPEBVIError_v1@AdobeXMPCommon@@@Z 0000000180082f50 f   IPathSegment_I.obj
 0001:00081fa0       ?getNameSpace@IPathSegment_I@AdobeXMPCore_Int@@MEBAPEBVIUTF8String_v1@AdobeXMPCommon@@AEAPEBVIError_v1@4@@Z 0000000180082fa0 f   IPathSegment_I.obj
 0001:00081ffc       ?getName@IPathSegment_I@AdobeXMPCore_Int@@MEBAPEBVIUTF8String_v1@AdobeXMPCommon@@AEAPEBVIError_v1@4@@Z 0000000180082ffc f   IPathSegment_I.obj
 0001:00082058       ?getType@IPathSegment_I@AdobeXMPCore_Int@@MEBAKAEAPEBVIError_v1@AdobeXMPCommon@@@Z 0000000180083058 f   IPathSegment_I.obj
 0001:000820ac       ?getValue@IPathSegment_I@AdobeXMPCore_Int@@MEBAPEBVIUTF8String_v1@AdobeXMPCommon@@AEAPEBVIError_v1@4@@Z 00000001800830ac f   IPathSegment_I.obj
 0001:00082108       ??$CallUnSafeFunction@VIPathSegment_I@AdobeXMPCore_Int@@PEAXPEAX_KK@AdobeXMPCore_Int@@YAPEAXAEAPEBVIError_v1@AdobeXMPCommon@@PEAVIPathSegment_I@0@PEAXP830@EAAPEAX_KK@ZPEBDK3K@Z 0000000180083108 f i IPathSegment_I.obj
 0001:00082158       ??$CallConstUnSafeFunctionReturningSharedPointer@VIPathSegment_v1@AdobeXMPCore@@PEBVIUTF8String_v1@AdobeXMPCommon@@$$CBV34@@AdobeXMPCore_Int@@YAPEBVIUTF8String_v1@AdobeXMPCommon@@AEAPEBVIError_v1@2@PEBVIPathSegment_v1@AdobeXMPCore@@P845@EBA?AV?$shared_ptr@$$CBVIUTF8String_v1@AdobeXMPCommon@@@std@@XZPEBDK@Z 0000000180083158 f i IPathSegment_I.obj
 0001:000822e8       ??$CallConstUnSafeFunction@VIPathSegment_v1@AdobeXMPCore@@KW4ePathSegmentType@12@@AdobeXMPCore_Int@@YAKAEAPEBVIError_v1@AdobeXMPCommon@@PEBVIPathSegment_v1@AdobeXMPCore@@KP834@EBA?AW4ePathSegmentType@34@XZPEBDK@Z 00000001800832e8 f i IPathSegment_I.obj
 0001:00082328       ?MakeShared@IPathSegment_v1@AdobeXMPCore@@SA?AV?$shared_ptr@$$CBVIPathSegment_v1@AdobeXMPCore@@@std@@PEBV12@@Z 0000000180083328 f i IPath_I.obj
 0001:00082390       ?GetInterfacePointer@IPath_I@AdobeXMPCore_Int@@UEAAPEAX_KK@Z 0000000180083390 f   IPath_I.obj
 0001:00082438       ?getInterfacePointer@IPath_I@AdobeXMPCore_Int@@MEAAPEAX_KKAEAPEBVIError_v1@AdobeXMPCommon@@@Z 0000000180083438 f   IPath_I.obj
 0001:00082488       ?registerNameSpacePrefixMap@IPath_I@AdobeXMPCore_Int@@MEAAPEBVINameSpacePrefixMap_v1@AdobeXMPCore@@PEBV34@AEAPEBVIError_v1@AdobeXMPCommon@@@Z 0000000180083488 f   IPath_I.obj
 0001:0008252c       ?serialize@IPath_I@AdobeXMPCore_Int@@MEBAPEAVIUTF8String_v1@AdobeXMPCommon@@PEBVINameSpacePrefixMap_v1@AdobeXMPCore@@AEAPEBVIError_v1@4@@Z 000000018008352c f   IPath_I.obj
 0001:000825d0       ?appendPathSegment@IPath_I@AdobeXMPCore_Int@@MEAAXPEBVIPathSegment_v1@AdobeXMPCore@@AEAPEBVIError_v1@AdobeXMPCommon@@@Z 00000001800835d0 f   IPath_I.obj
 0001:0008267c       ?removePathSegment@IPath_I@AdobeXMPCore_Int@@MEAAPEBVIPathSegment_v1@AdobeXMPCore@@_KAEAPEBVIError_v1@AdobeXMPCommon@@@Z 000000018008367c f   IPath_I.obj
 0001:000826d8       ?getPathSegment@IPath_I@AdobeXMPCore_Int@@MEBAPEBVIPathSegment_v1@AdobeXMPCore@@_KAEAPEBVIError_v1@AdobeXMPCommon@@@Z 00000001800836d8 f   IPath_I.obj
 0001:00082734       ?clone@IPath_I@AdobeXMPCore_Int@@MEBAPEAVIPath_v1@AdobeXMPCore@@_K0AEAPEBVIError_v1@AdobeXMPCommon@@@Z 0000000180083734 f   IPath_I.obj
 0001:00082790       ??$CallUnSafeFunction@VIPath_I@AdobeXMPCore_Int@@PEAXPEAX_KK@AdobeXMPCore_Int@@YAPEAXAEAPEBVIError_v1@AdobeXMPCommon@@PEAVIPath_I@0@PEAXP830@EAAPEAX_KK@ZPEBDK3K@Z 0000000180083790 f i IPath_I.obj
 0001:000827d8       ??$CallUnSafeFunctionReturningSharedPointer@VIPath_v1@AdobeXMPCore@@PEBVINameSpacePrefixMap_v1@2@$$CBV32@AEBV?$shared_ptr@$$CBVINameSpacePrefixMap_v1@AdobeXMPCore@@@std@@@AdobeXMPCore_Int@@YAPEBVINameSpacePrefixMap_v1@AdobeXMPCore@@AEAPEBVIError_v1@AdobeXMPCommon@@PEAVIPath_v1@2@P852@EAA?AV?$shared_ptr@$$CBVINameSpacePrefixMap_v1@AdobeXMPCore@@@std@@AEBV67@@ZPEBDK2@Z 00000001800837d8 f i IPath_I.obj
 0001:00082974       ??$CallConstUnSafeFunctionReturningSharedPointer@VIPath_v1@AdobeXMPCore@@PEAVIUTF8String_v1@AdobeXMPCommon@@V34@AEBV?$shared_ptr@$$CBVINameSpacePrefixMap_v1@AdobeXMPCore@@@std@@@AdobeXMPCore_Int@@YAPEAVIUTF8String_v1@AdobeXMPCommon@@AEAPEBVIError_v1@2@PEBVIPath_v1@AdobeXMPCore@@P845@EBA?AV?$shared_ptr@VIUTF8String_v1@AdobeXMPCommon@@@std@@AEBV?$shared_ptr@$$CBVINameSpacePrefixMap_v1@AdobeXMPCore@@@7@@ZPEBDK2@Z 0000000180083974 f i IPath_I.obj
 0001:00082b10       ??$CallUnSafeFunctionReturningVoid@VIPath_v1@AdobeXMPCore@@AEBV?$shared_ptr@$$CBVIPathSegment_v1@AdobeXMPCore@@@std@@@AdobeXMPCore_Int@@YAXAEAPEBVIError_v1@AdobeXMPCommon@@PEAVIPath_v1@AdobeXMPCore@@P834@EAAXAEBV?$shared_ptr@$$CBVIPathSegment_v1@AdobeXMPCore@@@std@@@ZPEBDK2@Z 0000000180083b10 f i IPath_I.obj
 0001:00082b54       ??$CallUnSafeFunctionReturningSharedPointer@VIPath_v1@AdobeXMPCore@@PEBVIPathSegment_v1@2@$$CBV32@_K@AdobeXMPCore_Int@@YAPEBVIPathSegment_v1@AdobeXMPCore@@AEAPEBVIError_v1@AdobeXMPCommon@@PEAVIPath_v1@2@P852@EAA?AV?$shared_ptr@$$CBVIPathSegment_v1@AdobeXMPCore@@@std@@_K@ZPEBDK2@Z 0000000180083b54 f i IPath_I.obj
 0001:00082cf0       ??$CallConstUnSafeFunctionReturningSharedPointer@VIPath_v1@AdobeXMPCore@@PEBVIPathSegment_v1@2@$$CBV32@_K@AdobeXMPCore_Int@@YAPEBVIPathSegment_v1@AdobeXMPCore@@AEAPEBVIError_v1@AdobeXMPCommon@@PEBVIPath_v1@2@P852@EBA?AV?$shared_ptr@$$CBVIPathSegment_v1@AdobeXMPCore@@@std@@_K@ZPEBDK2@Z 0000000180083cf0 f i IPath_I.obj
 0001:00082e8c       ??$CallConstUnSafeFunctionReturningSharedPointer@VIPath_v1@AdobeXMPCore@@PEAV12@V12@_K_K@AdobeXMPCore_Int@@YAPEAVIPath_v1@AdobeXMPCore@@AEAPEBVIError_v1@AdobeXMPCommon@@PEBV12@P812@EBA?AV?$shared_ptr@VIPath_v1@AdobeXMPCore@@@std@@_K2@ZPEBDK22@Z 0000000180083e8c f i IPath_I.obj
 0001:00083030       ?GetInterfacePointer@ISimpleNode_I@AdobeXMPCore_Int@@UEAAPEAX_KK@Z 0000000180084030 f   ISimpleNode_I.obj
 0001:00083104       ?getInterfacePointer@ISimpleNode_I@AdobeXMPCore_Int@@MEAAPEAX_KKAEAPEBVIError_v1@AdobeXMPCommon@@@Z 0000000180084104 f   ISimpleNode_I.obj
 0001:00083154       ?getValue@ISimpleNode_I@AdobeXMPCore_Int@@MEBAPEBVIUTF8String_v1@AdobeXMPCommon@@AEAPEBVIError_v1@4@@Z 0000000180084154 f   ISimpleNode_I.obj
 0001:000831a8       ?setValue@ISimpleNode_I@AdobeXMPCore_Int@@MEAAXPEBD_KAEAPEBVIError_v1@AdobeXMPCommon@@@Z 00000001800841a8 f   ISimpleNode_I.obj
 0001:00083204       ?isURIType@ISimpleNode_I@AdobeXMPCore_Int@@MEBAKAEAPEBVIError_v1@AdobeXMPCommon@@@Z 0000000180084204 f   ISimpleNode_I.obj
 0001:00083258       ?setURIType@ISimpleNode_I@AdobeXMPCore_Int@@MEAAXKAEAPEBVIError_v1@AdobeXMPCommon@@@Z 0000000180084258 f   ISimpleNode_I.obj
 0001:000832c0       ??$CallUnSafeFunction@VISimpleNode_I@AdobeXMPCore_Int@@PEAXPEAX_KK@AdobeXMPCore_Int@@YAPEAXAEAPEBVIError_v1@AdobeXMPCommon@@PEAVISimpleNode_I@0@PEAXP830@EAAPEAX_KK@ZPEBDK3K@Z 00000001800842c0 f i ISimpleNode_I.obj
 0001:00083308       ??$CallConstUnSafeFunctionReturningSharedPointer@VISimpleNode_v1@AdobeXMPCore@@PEBVIUTF8String_v1@AdobeXMPCommon@@$$CBV34@@AdobeXMPCore_Int@@YAPEBVIUTF8String_v1@AdobeXMPCommon@@AEAPEBVIError_v1@2@PEBVISimpleNode_v1@AdobeXMPCore@@P845@EBA?AV?$shared_ptr@$$CBVIUTF8String_v1@AdobeXMPCommon@@@std@@XZPEBDK@Z 0000000180084308 f i ISimpleNode_I.obj
 0001:00083498       ??$CallUnSafeFunctionReturningVoid@VISimpleNode_v1@AdobeXMPCore@@PEBD_K@AdobeXMPCore_Int@@YAXAEAPEBVIError_v1@AdobeXMPCommon@@PEAVISimpleNode_v1@AdobeXMPCore@@P834@EAAXPEBD_K@Z2K23@Z 0000000180084498 f i ISimpleNode_I.obj
 0001:000834e4       ??$CallConstUnSafeFunction@VISimpleNode_v1@AdobeXMPCore@@K_N@AdobeXMPCore_Int@@YAKAEAPEBVIError_v1@AdobeXMPCommon@@PEBVISimpleNode_v1@AdobeXMPCore@@KP834@EBA_NXZPEBDK@Z 00000001800844e4 f i ISimpleNode_I.obj
 0001:00083524       ??$CallUnSafeFunctionReturningVoid@VISimpleNode_v1@AdobeXMPCore@@_N@AdobeXMPCore_Int@@YAXAEAPEBVIError_v1@AdobeXMPCommon@@PEAVISimpleNode_v1@AdobeXMPCore@@P834@EAAX_N@ZPEBDK2@Z 0000000180084524 f i ISimpleNode_I.obj
 0001:00083564       ?GetInterfacePointer@IStructureNode_I@AdobeXMPCore_Int@@UEAAPEAX_KK@Z 0000000180084564 f   IStructureNode_I.obj
 0001:00083570       ?getInterfacePointer@IStructureNode_I@AdobeXMPCore_Int@@MEAAPEAX_KKAEAPEBVIError_v1@AdobeXMPCommon@@@Z 0000000180084570 f   IStructureNode_I.obj
 0001:000835c0       ?GetInterfacePointerInternal@IStructureNode_I@AdobeXMPCore_Int@@IEAAPEAX_KK_N@Z 00000001800845c0 f   IStructureNode_I.obj
 0001:000836b4       ?getNode@IStructureNode_I@AdobeXMPCore_Int@@MEAAPEAVINode_v1@AdobeXMPCore@@PEBD_K01AEAPEBVIError_v1@AdobeXMPCommon@@@Z 00000001800846b4 f   IStructureNode_I.obj
 0001:00083730       ?getChildNodeType@IStructureNode_I@AdobeXMPCore_Int@@MEBAKPEBD_K01AEAPEBVIError_v1@AdobeXMPCommon@@@Z 0000000180084730 f   IStructureNode_I.obj
 0001:000837a4       ?insertNode@IStructureNode_I@AdobeXMPCore_Int@@MEAAXPEAVINode_v1@AdobeXMPCore@@AEAPEBVIError_v1@AdobeXMPCommon@@@Z 00000001800847a4 f   IStructureNode_I.obj
 0001:00083850       ?removeNode@IStructureNode_I@AdobeXMPCore_Int@@MEAAPEAVINode_v1@AdobeXMPCore@@PEBD_K01AEAPEBVIError_v1@AdobeXMPCommon@@@Z 0000000180084850 f   IStructureNode_I.obj
 0001:000838cc       ?replaceNode@IStructureNode_I@AdobeXMPCore_Int@@MEAAPEAVINode_v1@AdobeXMPCore@@PEAV34@AEAPEBVIError_v1@AdobeXMPCommon@@@Z 00000001800848cc f   IStructureNode_I.obj
 0001:00083970       ??$CallUnSafeFunction@VIStructureNode_I@AdobeXMPCore_Int@@PEAXPEAX_KK@AdobeXMPCore_Int@@YAPEAXAEAPEBVIError_v1@AdobeXMPCommon@@PEAVIStructureNode_I@0@PEAXP830@EAAPEAX_KK@ZPEBDK3K@Z 0000000180084970 f i IStructureNode_I.obj
 0001:000839c0       ??$CallUnSafeFunctionReturningSharedPointer@VIStructureNode_v1@AdobeXMPCore@@PEAVINode_v1@2@V32@PEBD_KPEBD_K@AdobeXMPCore_Int@@YAPEAVINode_v1@AdobeXMPCore@@AEAPEBVIError_v1@AdobeXMPCommon@@PEAVIStructureNode_v1@2@P852@EAA?AV?$shared_ptr@VINode_v1@AdobeXMPCore@@@std@@PEBD_K23@Z2K2323@Z 00000001800849c0 f i IStructureNode_I.obj
 0001:00083b80       ??$CallConstUnSafeFunction@VIStructureNode_v1@AdobeXMPCore@@KW4eNodeType@INode_v1@2@PEBD_KPEBD_K@AdobeXMPCore_Int@@YAKAEAPEBVIError_v1@AdobeXMPCommon@@PEBVIStructureNode_v1@AdobeXMPCore@@KP834@EBA?AW4eNodeType@INode_v1@4@PEBD_K23@Z2K2323@Z 0000000180084b80 f i IStructureNode_I.obj
 0001:00083be8       ??$CallUnSafeFunctionReturningVoid@VIStructureNode_v1@AdobeXMPCore@@AEBV?$shared_ptr@VINode_v1@AdobeXMPCore@@@std@@@AdobeXMPCore_Int@@YAXAEAPEBVIError_v1@AdobeXMPCommon@@PEAVIStructureNode_v1@AdobeXMPCore@@P834@EAAXAEBV?$shared_ptr@VINode_v1@AdobeXMPCore@@@std@@@ZPEBDK2@Z 0000000180084be8 f i IStructureNode_I.obj
 0001:00083c2c       ??$CallUnSafeFunctionReturningSharedPointer@VIStructureNode_v1@AdobeXMPCore@@PEAVINode_v1@2@V32@AEBV?$shared_ptr@VINode_v1@AdobeXMPCore@@@std@@@AdobeXMPCore_Int@@YAPEAVINode_v1@AdobeXMPCore@@AEAPEBVIError_v1@AdobeXMPCommon@@PEAVIStructureNode_v1@2@P852@EAA?AV?$shared_ptr@VINode_v1@AdobeXMPCore@@@std@@AEBV67@@ZPEBDK2@Z 0000000180084c2c f i IStructureNode_I.obj
 0001:00083dc8       ??1ISharedObject@AdobeXMPCommon@@MEAA@XZ 0000000180084dc8 f i ArrayNodeImpl.obj
 0001:00083dd4       ??1IVersionable@AdobeXMPCommon@@MEAA@XZ 0000000180084dd4 f i ArrayNodeImpl.obj
 0001:00083de0       ??_EIVersionable@AdobeXMPCommon@@MEAAPEAXI@Z 0000000180084de0 f i * CIL library *:* CIL module *
 0001:00083de0       ??_GIVersionable@AdobeXMPCommon@@MEAAPEAXI@Z 0000000180084de0 f i ArrayNodeImpl.obj
 0001:00083e08       ??1INode_v1@AdobeXMPCore@@MEAA@XZ 0000000180084e08 f i ArrayNodeImpl.obj
 0001:00083e50       ??_EINode_v1@AdobeXMPCore@@MEAAPEAXI@Z 0000000180084e50 f i * CIL library *:* CIL module *
 0001:00083e50       ??_GINode_v1@AdobeXMPCore@@MEAAPEAXI@Z 0000000180084e50 f i ArrayNodeImpl.obj
 0001:00083ed4       ??1ICompositeNode_v1@AdobeXMPCore@@MEAA@XZ 0000000180084ed4 f i ArrayNodeImpl.obj
 0001:00083f34       ??_GICompositeNode_v1@AdobeXMPCore@@MEAAPEAXI@Z 0000000180084f34 f i ArrayNodeImpl.obj
 0001:00083f34       ??_EICompositeNode_v1@AdobeXMPCore@@MEAAPEAXI@Z 0000000180084f34 f i * CIL library *:* CIL module *
 0001:00084014       ??1IArrayNode_v1@AdobeXMPCore@@MEAA@XZ 0000000180085014 f i ArrayNodeImpl.obj
 0001:00084088       ??_EIArrayNode_v1@AdobeXMPCore@@MEAAPEAXI@Z 0000000180085088 f i * CIL library *:* CIL module *
 0001:00084088       ??_GIArrayNode_v1@AdobeXMPCore@@MEAAPEAXI@Z 0000000180085088 f i ArrayNodeImpl.obj
 0001:000841d4       ?GetIThreadSafe_I@IThreadSafe_I@AdobeXMPCommon_Int@@UEAAPEAV12@XZ 00000001800851d4 f i ArrayNodeImpl.obj
 0001:000841d4       ?GetISharedObject_I@ISharedObject_I@AdobeXMPCommon_Int@@UEAAPEAV12@XZ 00000001800851d4 f i ArrayNodeImpl.obj
 0001:000841dc       ?isThreadSafe@IThreadSafe_I@AdobeXMPCommon_Int@@UEBAKXZ 00000001800851dc f i ArrayNodeImpl.obj
 0001:00084204       ?GetActualINode@INode_I@AdobeXMPCore_Int@@UEAAPEAVINode_v1@AdobeXMPCore@@XZ 0000000180085204 f i ArrayNodeImpl.obj
 0001:00084204       ?GetActualINameSpacePrefixMap@INameSpacePrefixMap_I@AdobeXMPCore_Int@@UEAAPEAVINameSpacePrefixMap_v1@AdobeXMPCore@@XZ 0000000180085204 f i NameSpacePrefixMapImpl.obj
 0001:00084228       ?GetIDOMImplementationRegistry_I@IDOMImplementationRegistry_I@AdobeXMPCore_Int@@UEAAPEAV12@XZ 0000000180085228 f i DOMImplementationRegistryImpl.obj
 0001:00084228       ?GetINode_I@INode_I@AdobeXMPCore_Int@@UEAAPEAV12@XZ 0000000180085228 f i ArrayNodeImpl.obj
 0001:00084228       ?GetINameSpacePrefixMap_I@INameSpacePrefixMap_I@AdobeXMPCore_Int@@UEAAPEAV12@XZ 0000000180085228 f i NameSpacePrefixMapImpl.obj
 0001:00084230       ??1INode_I@AdobeXMPCore_Int@@MEAA@XZ 0000000180085230 f i ArrayNodeImpl.obj
 0001:000842d8       ??_GINode_I@AdobeXMPCore_Int@@MEAAPEAXI@Z 00000001800852d8 f i ArrayNodeImpl.obj
 0001:000842d8       ??_EINode_I@AdobeXMPCore_Int@@MEAAPEAXI@Z 00000001800852d8 f i * CIL library *:* CIL module *
 0001:0008437c       ?GetActualICompositeNode@ICompositeNode_I@AdobeXMPCore_Int@@UEAAPEAVICompositeNode_v1@AdobeXMPCore@@XZ 000000018008537c f i ArrayNodeImpl.obj
 0001:0008437c       ?GetActualISimpleNode@ISimpleNode_I@AdobeXMPCore_Int@@UEAAPEAVISimpleNode_v1@AdobeXMPCore@@XZ 000000018008537c f i SimpleNodeImpl.obj
 0001:00084398       ?GetIDOMSerializer_I@IDOMSerializer_I@AdobeXMPCore_Int@@UEAAPEAV12@XZ 0000000180085398 f i ClientDOMSerializerWrapperImpl.obj
 0001:00084398       ?GetISimpleNode_I@ISimpleNode_I@AdobeXMPCore_Int@@UEAAPEAV12@XZ 0000000180085398 f i SimpleNodeImpl.obj
 0001:00084398       ?GetICompositeNode_I@ICompositeNode_I@AdobeXMPCore_Int@@UEAAPEAV12@XZ 0000000180085398 f i ArrayNodeImpl.obj
 0001:00084398       ?GetIDOMParser_I@IDOMParser_I@AdobeXMPCore_Int@@UEAAPEAV12@XZ 0000000180085398 f i ClientDOMParserWrapperImpl.obj
 0001:000843a0       ??1ICompositeNode_I@AdobeXMPCore_Int@@MEAA@XZ 00000001800853a0 f i ArrayNodeImpl.obj
 0001:00084474       ??_GICompositeNode_I@AdobeXMPCore_Int@@MEAAPEAXI@Z 0000000180085474 f i ArrayNodeImpl.obj
 0001:00084474       ??_EICompositeNode_I@AdobeXMPCore_Int@@MEAAPEAXI@Z 0000000180085474 f i * CIL library *:* CIL module *
 0001:00084580       ?GetActualIArrayNode@IArrayNode_I@AdobeXMPCore_Int@@UEAAPEAVIArrayNode_v1@AdobeXMPCore@@XZ 0000000180085580 f i ArrayNodeImpl.obj
 0001:0008459c       ?GetISharedObject_I@IArrayNode_I@AdobeXMPCore_Int@@UEAAPEAVISharedObject_I@AdobeXMPCommon_Int@@XZ 000000018008559c f i ArrayNodeImpl.obj
 0001:000845b8       ?GetIArrayNode_I@IArrayNode_I@AdobeXMPCore_Int@@UEAAPEAV12@XZ 00000001800855b8 f i ArrayNodeImpl.obj
 0001:000845b8       ?GetIStructureNode_I@IStructureNode_I@AdobeXMPCore_Int@@UEAAPEAV12@XZ 00000001800855b8 f i MetadataImpl.obj
 0001:000845c0       ??1IArrayNode_I@AdobeXMPCore_Int@@MEAA@XZ 00000001800855c0 f i ArrayNodeImpl.obj
 0001:000846c8       ??_EIArrayNode_I@AdobeXMPCore_Int@@MEAAPEAXI@Z 00000001800856c8 f i * CIL library *:* CIL module *
 0001:000846c8       ??_GIArrayNode_I@AdobeXMPCore_Int@@MEAAPEAXI@Z 00000001800856c8 f i ArrayNodeImpl.obj
 0001:0008484c       ??_GSharedObjectImpl@AdobeXMPCore_Int@@MEAAPEAXI@Z 000000018008584c f i ArrayNodeImpl.obj
 0001:0008484c       ??_ESharedObjectImpl@AdobeXMPCore_Int@@MEAAPEAXI@Z 000000018008584c f i * CIL library *:* CIL module *
 0001:000848c0       ??_EISharedObject_I@AdobeXMPCommon_Int@@UEAAPEAXI@Z 00000001800858c0 f i * CIL library *:* CIL module *
 0001:000848c0       ??_GISharedObject_I@AdobeXMPCommon_Int@@UEAAPEAXI@Z 00000001800858c0 f i ArrayNodeImpl.obj
 0001:000848f0       ??1ThreadSafeImpl@AdobeXMPCore_Int@@MEAA@XZ 00000001800858f0 f i ArrayNodeImpl.obj
 0001:00084978       ??_EThreadSafeImpl@AdobeXMPCore_Int@@MEAAPEAXI@Z 0000000180085978 f i * CIL library *:* CIL module *
 0001:00084978       ??_GThreadSafeImpl@AdobeXMPCore_Int@@MEAAPEAXI@Z 0000000180085978 f i ArrayNodeImpl.obj
 0001:000849b0       ??1NodeImpl@AdobeXMPCore_Int@@MEAA@XZ 00000001800859b0 f i ArrayNodeImpl.obj
 0001:00084bb8       ??_GNodeImpl@AdobeXMPCore_Int@@MEAAPEAXI@Z 0000000180085bb8 f i ArrayNodeImpl.obj
 0001:00084bb8       ??_ENodeImpl@AdobeXMPCore_Int@@MEAAPEAXI@Z 0000000180085bb8 f i * CIL library *:* CIL module *
 0001:00084cfc       ??0INode_I@AdobeXMPCore_Int@@QEAA@XZ 0000000180085cfc f i ArrayNodeImpl.obj
 0001:00084da8       ??0CompositeNodeImpl@AdobeXMPCore_Int@@QEAA@XZ 0000000180085da8 f i ArrayNodeImpl.obj
 0001:00084f10       ??1CompositeNodeImpl@AdobeXMPCore_Int@@MEAA@XZ 0000000180085f10 f i ArrayNodeImpl.obj
 0001:00085070       ??_ECompositeNodeImpl@AdobeXMPCore_Int@@MEAAPEAXI@Z 0000000180086070 f i * CIL library *:* CIL module *
 0001:00085070       ??_GCompositeNodeImpl@AdobeXMPCore_Int@@MEAAPEAXI@Z 0000000180086070 f i ArrayNodeImpl.obj
 0001:0008520c       ??0ICompositeNode_I@AdobeXMPCore_Int@@QEAA@XZ 000000018008620c f i ArrayNodeImpl.obj
 0001:000852d0       ??1ArrayNodeImpl@AdobeXMPCore_Int@@MEAA@XZ 00000001800862d0 f i ArrayNodeImpl.obj
 0001:00085490       ??_EArrayNodeImpl@AdobeXMPCore_Int@@MEAAPEAXI@Z 0000000180086490 f i * CIL library *:* CIL module *
 0001:00085490       ??_GArrayNodeImpl@AdobeXMPCore_Int@@MEAAPEAXI@Z 0000000180086490 f i ArrayNodeImpl.obj
 0001:000854dc       ??_DArrayNodeImpl@AdobeXMPCore_Int@@IEAAXXZ 00000001800864dc f i ArrayNodeImpl.obj
 0001:00085704       ??_EINodeIterator_v1@AdobeXMPCore@@MEAAPEAXI@Z 0000000180086704 f i * CIL library *:* CIL module *
 0001:00085704       ??_GINodeIterator_v1@AdobeXMPCore@@MEAAPEAXI@Z 0000000180086704 f i ArrayNodeImpl.obj
 0001:00085774       ?GetActualINodeIterator@INodeIterator_I@AdobeXMPCore_Int@@UEAAPEAVINodeIterator_v1@AdobeXMPCore@@XZ 0000000180086774 f i ArrayNodeImpl.obj
 0001:00085774       ?GetActualIPath@IPath_I@AdobeXMPCore_Int@@UEAAPEAVIPath_v1@AdobeXMPCore@@XZ 0000000180086774 f i PathImpl.obj
 0001:00085790       ?GetINodeIterator_I@INodeIterator_I@AdobeXMPCore_Int@@UEAAPEAV12@XZ 0000000180086790 f i ArrayNodeImpl.obj
 0001:00085790       ?GetIPath_I@IPath_I@AdobeXMPCore_Int@@UEAAPEAV12@XZ 0000000180086790 f i PathImpl.obj
 0001:00085798       ??_GINodeIterator_I@AdobeXMPCore_Int@@MEAAPEAXI@Z 0000000180086798 f i ArrayNodeImpl.obj
 0001:00085798       ??_EINodeIterator_I@AdobeXMPCore_Int@@MEAAPEAXI@Z 0000000180086798 f i * CIL library *:* CIL module *
 0001:0008586c       ??0ArrayNodeImpl@AdobeXMPCore_Int@@QEAA@PEBD_K01W4eArrayForm@IArrayNode_v1@AdobeXMPCore@@@Z 000000018008686c f   ArrayNodeImpl.obj
 0001:00085f60       ?GetArrayForm@ArrayNodeImpl@AdobeXMPCore_Int@@UEBA?AW4eArrayForm@IArrayNode_v1@AdobeXMPCore@@XZ 0000000180086f60 f   ArrayNodeImpl.obj
 0001:00085f68       ?GetChildNodeType@ArrayNodeImpl@AdobeXMPCore_Int@@UEBA?AW4eNodeType@INode_v1@AdobeXMPCore@@XZ 0000000180086f68 f   ArrayNodeImpl.obj
 0001:00085fd0       ?GetNodeAtIndex@ArrayNodeImpl@AdobeXMPCore_Int@@UEAA?AV?$shared_ptr@VINode_v1@AdobeXMPCore@@@std@@_K@Z 0000000180086fd0 f   ArrayNodeImpl.obj
 0001:000860a4       ?InsertNodeAtIndex@ArrayNodeImpl@AdobeXMPCore_Int@@UEAAXAEBV?$shared_ptr@VINode_v1@AdobeXMPCore@@@std@@_K@Z 00000001800870a4 f   ArrayNodeImpl.obj
 0001:00086388       ?RemoveNodeAtIndex@ArrayNodeImpl@AdobeXMPCore_Int@@UEAA?AV?$shared_ptr@VINode_v1@AdobeXMPCore@@@std@@_K@Z 0000000180087388 f   ArrayNodeImpl.obj
 0001:000864e0       ?ReplaceNodeAtIndex@ArrayNodeImpl@AdobeXMPCore_Int@@UEAA?AV?$shared_ptr@VINode_v1@AdobeXMPCore@@@std@@AEBV34@_K@Z 00000001800874e0 f   ArrayNodeImpl.obj
 0001:000867dc       ?AppendNode@ArrayNodeImpl@AdobeXMPCore_Int@@UEAAXAEBV?$shared_ptr@VINode_v1@AdobeXMPCore@@@std@@@Z 00000001800877dc f   ArrayNodeImpl.obj
 0001:0008683c       ?Iterator@ArrayNodeImpl@AdobeXMPCore_Int@@UEAA?AV?$shared_ptr@VINodeIterator_v1@AdobeXMPCore@@@std@@XZ 000000018008783c f   ArrayNodeImpl.obj
 0001:00086950       ?ChildCount@ArrayNodeImpl@AdobeXMPCore_Int@@UEBA_KXZ 0000000180087950 f   ArrayNodeImpl.obj
 0001:000869a0       ?ConvertToArrayNode@ArrayNodeImpl@AdobeXMPCore_Int@@UEAA?AV?$shared_ptr@VIArrayNode_v1@AdobeXMPCore@@@std@@XZ 00000001800879a0 f   ArrayNodeImpl.obj
 0001:00086a30       ?GetNodeType@ArrayNodeImpl@AdobeXMPCore_Int@@UEBA?AW4eNodeType@INode_v1@AdobeXMPCore@@XZ 0000000180087a30 f   ArrayNodeImpl.obj
 0001:00086a38       ?HasContent@ArrayNodeImpl@AdobeXMPCore_Int@@UEBA_NXZ 0000000180087a38 f   ArrayNodeImpl.obj
 0001:00086a84       ?ClearContents@ArrayNodeImpl@AdobeXMPCore_Int@@UEAAXXZ 0000000180087a84 f   ArrayNodeImpl.obj
 0001:00086b64       ?CloneContents@ArrayNodeImpl@AdobeXMPCore_Int@@UEBA?AV?$shared_ptr@VINode_v1@AdobeXMPCore@@@std@@_N0_K@Z 0000000180087b64 f   ArrayNodeImpl.obj
 0001:00086e2c       ?resetChangesForChildren@ArrayNodeImpl@AdobeXMPCore_Int@@MEBAXXZ 0000000180087e2c f   ArrayNodeImpl.obj
 0001:00086ea0       ?CheckSuitabilityToBeUsedAsChildNode@ArrayNodeImpl@AdobeXMPCore_Int@@UEBA_NAEBV?$shared_ptr@$$CBVINode_v1@AdobeXMPCore@@@std@@@Z 0000000180087ea0 f   ArrayNodeImpl.obj
 0001:00087034       ?CreateArrayNode@IArrayNode_I@AdobeXMPCore_Int@@SA?AV?$shared_ptr@VIArrayNode_v1@AdobeXMPCore@@@std@@AEBV?$shared_ptr@$$CBVIUTF8String_v1@AdobeXMPCommon@@@4@0W4eArrayForm@IArrayNode_v1@AdobeXMPCore@@@Z 0000000180088034 f   ArrayNodeImpl.obj
 0001:0008718c       ?GetNodeFromIterator@?$TNodeIteratorImpl@V?$_Vector_iterator@V?$_Vector_val@U?$_Simple_types@V?$shared_ptr@VINode_v1@AdobeXMPCore@@@std@@@std@@@std@@@std@@@AdobeXMPCore_Int@@QEBA?AV?$shared_ptr@VINode_v1@AdobeXMPCore@@@std@@AEBV?$_Vector_iterator@V?$_Vector_val@U?$_Simple_types@V?$shared_ptr@VINode_v1@AdobeXMPCore@@@std@@@std@@@std@@@4@@Z 000000018008818c f   ArrayNodeImpl.obj
 0001:000871c4       ?CreateUnorderedArrayNode@IArrayNode_v1@AdobeXMPCore@@SA?AV?$shared_ptr@VIArrayNode_v1@AdobeXMPCore@@@std@@PEBD_K01@Z 00000001800881c4 f   ArrayNodeImpl.obj
 0001:000872c0       ?CreateOrderedArrayNode@IArrayNode_v1@AdobeXMPCore@@SA?AV?$shared_ptr@VIArrayNode_v1@AdobeXMPCore@@@std@@PEBD_K01@Z 00000001800882c0 f   ArrayNodeImpl.obj
 0001:000873bc       ?CreateAlternativeArrayNode@IArrayNode_v1@AdobeXMPCore@@SA?AV?$shared_ptr@VIArrayNode_v1@AdobeXMPCore@@@std@@PEBD_K01@Z 00000001800883bc f   ArrayNodeImpl.obj
 0001:000874b8       ?insert@?$vector@V?$shared_ptr@VINode_v1@AdobeXMPCore@@@std@@V?$TAllocator@V?$shared_ptr@VINode_v1@AdobeXMPCore@@@std@@@AdobeXMPCore_Int@@@std@@QEAA?AV?$_Vector_iterator@V?$_Vector_val@U?$_Simple_types@V?$shared_ptr@VINode_v1@AdobeXMPCore@@@std@@@std@@@std@@@2@V?$_Vector_const_iterator@V?$_Vector_val@U?$_Simple_types@V?$shared_ptr@VINode_v1@AdobeXMPCore@@@std@@@std@@@std@@@2@$$QEAV?$shared_ptr@VINode_v1@AdobeXMPCore@@@2@@Z 00000001800884b8 f i ArrayNodeImpl.obj
 0001:00087660       ??1?$vector@V?$shared_ptr@$$CBVIPathSegment_v1@AdobeXMPCore@@@std@@V?$TAllocator@V?$shared_ptr@$$CBVIPathSegment_v1@AdobeXMPCore@@@std@@@AdobeXMPCore_Int@@@std@@QEAA@XZ 0000000180088660 f i PathImpl.obj
 0001:00087660       ??1?$vector@V?$shared_ptr@$$CBVIUTF8String_v1@AdobeXMPCommon@@@std@@V?$TAllocator@V?$shared_ptr@$$CBVIUTF8String_v1@AdobeXMPCommon@@@std@@@AdobeXMPCore_Int@@@std@@QEAA@XZ 0000000180088660 f i ErrorImpl.obj
 0001:00087660       ??1?$vector@V?$shared_ptr@VINode_v1@AdobeXMPCore@@@std@@V?$TAllocator@V?$shared_ptr@VINode_v1@AdobeXMPCore@@@std@@@AdobeXMPCore_Int@@@std@@QEAA@XZ 0000000180088660 f i ArrayNodeImpl.obj
 0001:000876f8       ??0?$TNodeIteratorImpl@V?$_Vector_iterator@V?$_Vector_val@U?$_Simple_types@V?$shared_ptr@VINode_v1@AdobeXMPCore@@@std@@@std@@@std@@@std@@@AdobeXMPCore_Int@@QEAA@AEBV?$_Vector_iterator@V?$_Vector_val@U?$_Simple_types@V?$shared_ptr@VINode_v1@AdobeXMPCore@@@std@@@std@@@std@@@std@@0@Z 00000001800886f8 f i ArrayNodeImpl.obj
 0001:000878fc       ?GetNode@?$TNodeIteratorImpl@V?$_Vector_iterator@V?$_Vector_val@U?$_Simple_types@V?$shared_ptr@VINode_v1@AdobeXMPCore@@@std@@@std@@@std@@@std@@@AdobeXMPCore_Int@@UEAA?AV?$shared_ptr@VINode_v1@AdobeXMPCore@@@std@@XZ 00000001800888fc f i ArrayNodeImpl.obj
 0001:00087934       ?GetNodeType@?$TNodeIteratorImpl@V?$_Vector_iterator@V?$_Vector_val@U?$_Simple_types@V?$shared_ptr@VINode_v1@AdobeXMPCore@@@std@@@std@@@std@@@std@@@AdobeXMPCore_Int@@UEBA?AW4eNodeType@INode_v1@AdobeXMPCore@@XZ 0000000180088934 f i ArrayNodeImpl.obj
 0001:000879a4       ?Next@?$TNodeIteratorImpl@V?$_Vector_iterator@V?$_Vector_val@U?$_Simple_types@V?$shared_ptr@VINode_v1@AdobeXMPCore@@@std@@@std@@@std@@@std@@@AdobeXMPCore_Int@@UEAA?AV?$shared_ptr@VINodeIterator_v1@AdobeXMPCore@@@std@@XZ 00000001800889a4 f i ArrayNodeImpl.obj
 0001:00087a54       ??_G?$TNodeIteratorImpl@V?$_Vector_iterator@V?$_Vector_val@U?$_Simple_types@V?$shared_ptr@VINode_v1@AdobeXMPCore@@@std@@@std@@@std@@@std@@@AdobeXMPCore_Int@@MEAAPEAXI@Z 0000000180088a54 f i ArrayNodeImpl.obj
 0001:00087a54       ??_E?$TNodeIteratorImpl@V?$_Vector_iterator@V?$_Vector_val@U?$_Simple_types@V?$shared_ptr@VINode_v1@AdobeXMPCore@@@std@@@std@@@std@@@std@@@AdobeXMPCore_Int@@MEAAPEAXI@Z 0000000180088a54 f i * CIL library *:* CIL module *
 0001:00087c08       ??$MakeUncheckedSharedPointer@VINode_v1@AdobeXMPCore@@@AdobeXMPCore_Int@@YA?AV?$shared_ptr@VINode_v1@AdobeXMPCore@@@std@@PEAVINode_v1@AdobeXMPCore@@PEBD_K_N@Z 0000000180088c08 f i ArrayNodeImpl.obj
 0001:00087d0c       ??$?0VIError_I@AdobeXMPCore_Int@@X@?$shared_ptr@$$CBVIError_v1@AdobeXMPCommon@@@std@@QEAA@AEBV?$shared_ptr@VIError_I@AdobeXMPCore_Int@@@1@@Z 0000000180088d0c f i ArrayNodeImpl.obj
 0001:00087d9c       ??$MakeUncheckedSharedPointer@V?$TNodeIteratorImpl@V?$_Vector_iterator@V?$_Vector_val@U?$_Simple_types@V?$shared_ptr@VINode_v1@AdobeXMPCore@@@std@@@std@@@std@@@std@@@AdobeXMPCore_Int@@@AdobeXMPCore_Int@@YA?AV?$shared_ptr@V?$TNodeIteratorImpl@V?$_Vector_iterator@V?$_Vector_val@U?$_Simple_types@V?$shared_ptr@VINode_v1@AdobeXMPCore@@@std@@@std@@@std@@@std@@@AdobeXMPCore_Int@@@std@@PEAV?$TNodeIteratorImpl@V?$_Vector_iterator@V?$_Vector_val@U?$_Simple_types@V?$shared_ptr@VINode_v1@AdobeXMPCore@@@std@@@std@@@std@@@std@@@0@PEBD_K_N@Z 0000000180088d9c f i ArrayNodeImpl.obj
 0001:00087eb4       ??$MakeUncheckedSharedPointer@VArrayNodeImpl@AdobeXMPCore_Int@@@AdobeXMPCore_Int@@YA?AV?$shared_ptr@VArrayNodeImpl@AdobeXMPCore_Int@@@std@@PEAVArrayNodeImpl@0@PEBD_K_N@Z 0000000180088eb4 f i ArrayNodeImpl.obj
 0001:00087fc4       ?_Reallocate@?$vector@V?$shared_ptr@$$CBVIUTF8String_v1@AdobeXMPCommon@@@std@@V?$TAllocator@V?$shared_ptr@$$CBVIUTF8String_v1@AdobeXMPCommon@@@std@@@AdobeXMPCore_Int@@@std@@IEAAX_K@Z 0000000180088fc4 f i ErrorImpl.obj
 0001:00087fc4       ?_Reallocate@?$vector@V?$shared_ptr@VINode_v1@AdobeXMPCore@@@std@@V?$TAllocator@V?$shared_ptr@VINode_v1@AdobeXMPCore@@@std@@@AdobeXMPCore_Int@@@std@@IEAAX_K@Z 0000000180088fc4 f i ArrayNodeImpl.obj
 0001:000880b0       ??$_Resetp@VINode_v1@AdobeXMPCore@@V?$_Mem_fn_wrap@XP8ISharedObject@AdobeXMPCommon@@EBAXXZ$$CBV12@$$$V@std@@V?$TAllocator@VINode_v1@AdobeXMPCore@@@AdobeXMPCore_Int@@@?$shared_ptr@VINode_v1@AdobeXMPCore@@@std@@AEAAXPEAVINode_v1@AdobeXMPCore@@V?$_Mem_fn_wrap@XP8ISharedObject@AdobeXMPCommon@@EBAXXZ$$CBV12@$$$V@1@V?$TAllocator@VINode_v1@AdobeXMPCore@@@AdobeXMPCore_Int@@@Z 00000001800890b0 f i ArrayNodeImpl.obj
 0001:00088164       ??$_Resetp@V?$TNodeIteratorImpl@V?$_Vector_iterator@V?$_Vector_val@U?$_Simple_types@V?$shared_ptr@VINode_v1@AdobeXMPCore@@@std@@@std@@@std@@@std@@@AdobeXMPCore_Int@@V?$_Mem_fn_wrap@XP8SharedObjectImpl@AdobeXMPCore_Int@@EBAXXZ$$CBV12@$$$V@std@@V?$TAllocator@V?$TNodeIteratorImpl@V?$_Vector_iterator@V?$_Vector_val@U?$_Simple_types@V?$shared_ptr@VINode_v1@AdobeXMPCore@@@std@@@std@@@std@@@std@@@AdobeXMPCore_Int@@@2@@?$shared_ptr@V?$TNodeIteratorImpl@V?$_Vector_iterator@V?$_Vector_val@U?$_Simple_types@V?$shared_ptr@VINode_v1@AdobeXMPCore@@@std@@@std@@@std@@@std@@@AdobeXMPCore_Int@@@std@@AEAAXPEAV?$TNodeIteratorImpl@V?$_Vector_iterator@V?$_Vector_val@U?$_Simple_types@V?$shared_ptr@VINode_v1@AdobeXMPCore@@@std@@@std@@@std@@@std@@@AdobeXMPCore_Int@@V?$_Mem_fn_wrap@XP8SharedObjectImpl@AdobeXMPCore_Int@@EBAXXZ$$CBV12@$$$V@1@V?$TAllocator@V?$TNodeIteratorImpl@V?$_Vector_iterator@V?$_Vector_val@U?$_Simple_types@V?$shared_ptr@VINode_v1@AdobeXMPCore@@@std@@@std@@@std@@@std@@@AdobeXMPCore_Int@@@3@@Z 0000000180089164 f i ArrayNodeImpl.obj
 0001:00088214       ??$_Resetp@VArrayNodeImpl@AdobeXMPCore_Int@@V?$_Mem_fn_wrap@XP8NodeImpl@AdobeXMPCore_Int@@EBAXXZ$$CBV12@$$$V@std@@V?$TAllocator@VArrayNodeImpl@AdobeXMPCore_Int@@@2@@?$shared_ptr@VArrayNodeImpl@AdobeXMPCore_Int@@@std@@AEAAXPEAVArrayNodeImpl@AdobeXMPCore_Int@@V?$_Mem_fn_wrap@XP8NodeImpl@AdobeXMPCore_Int@@EBAXXZ$$CBV12@$$$V@1@V?$TAllocator@VArrayNodeImpl@AdobeXMPCore_Int@@@3@@Z 0000000180089214 f i ArrayNodeImpl.obj
 0001:000882c4       ?_Get_deleter@?$_Ref_count_del_alloc@VINameSpacePrefixMap_v1@AdobeXMPCore@@V?$_Mem_fn_wrap@XP8ISharedObject@AdobeXMPCommon@@EBAXXZ$$CBV12@$$$V@std@@V?$TAllocator@VINameSpacePrefixMap_v1@AdobeXMPCore@@@AdobeXMPCore_Int@@@std@@UEBAPEAXAEBVtype_info@@@Z 00000001800892c4 f i NameSpacePrefixMapImpl.obj
 0001:000882c4       ?_Get_deleter@?$_Ref_count_del_alloc@VIPath_v1@AdobeXMPCore@@V?$_Mem_fn_wrap@XP8ISharedObject@AdobeXMPCommon@@EBAXXZ$$CBV12@$$$V@std@@V?$TAllocator@VIPath_v1@AdobeXMPCore@@@AdobeXMPCore_Int@@@std@@UEBAPEAXAEBVtype_info@@@Z 00000001800892c4 f i PathImpl.obj
 0001:000882c4       ?_Get_deleter@?$_Ref_count_del_alloc@VINameSpacePrefixMap_I@AdobeXMPCore_Int@@V?$_Mem_fn_wrap@XP8ISharedObject@AdobeXMPCommon@@EBAXXZ$$CBV12@$$$V@std@@V?$TAllocator@VINameSpacePrefixMap_I@AdobeXMPCore_Int@@@2@@std@@UEBAPEAXAEBVtype_info@@@Z 00000001800892c4 f i RDFDOMSerializerImpl.obj
 0001:000882c4       ?_Get_deleter@?$_Ref_count_del_alloc@VIMetadata_v1@AdobeXMPCore@@V?$_Mem_fn_wrap@XP8ISharedObject@AdobeXMPCommon@@EBAXXZ$$CBV12@$$$V@std@@V?$TAllocator@VIMetadata_v1@AdobeXMPCore@@@AdobeXMPCore_Int@@@std@@UEBAPEAXAEBVtype_info@@@Z 00000001800892c4 f i DOMParserImpl.obj
 0001:000882c4       ?_Get_deleter@?$_Ref_count_del_alloc@VINode_v1@AdobeXMPCore@@V?$_Mem_fn_wrap@XP8ISharedObject@AdobeXMPCommon@@EBAXXZ$$CBV12@$$$V@std@@V?$TAllocator@VINode_v1@AdobeXMPCore@@@AdobeXMPCore_Int@@@std@@UEBAPEAXAEBVtype_info@@@Z 00000001800892c4 f i ArrayNodeImpl.obj
 0001:000882c4       ?_Get_deleter@?$_Ref_count_del_alloc@VIPathSegment_v1@AdobeXMPCore@@V?$_Mem_fn_wrap@XP8ISharedObject@AdobeXMPCommon@@EBAXXZ$$CBV12@$$$V@std@@V?$TAllocator@VIPathSegment_v1@AdobeXMPCore@@@AdobeXMPCore_Int@@@std@@UEBAPEAXAEBVtype_info@@@Z 00000001800892c4 f i PathSegmentImpl.obj
 0001:000882f4       ?_Destroy@?$_Ref_count_del_alloc@VINode_v1@AdobeXMPCore@@V?$_Mem_fn_wrap@XP8ISharedObject@AdobeXMPCommon@@EBAXXZ$$CBV12@$$$V@std@@V?$TAllocator@VINode_v1@AdobeXMPCore@@@AdobeXMPCore_Int@@@std@@EEAAXXZ 00000001800892f4 f i ArrayNodeImpl.obj
 0001:000882f4       ?_Destroy@?$_Ref_count_del_alloc@VIPath_v1@AdobeXMPCore@@V?$_Mem_fn_wrap@XP8ISharedObject@AdobeXMPCommon@@EBAXXZ$$CBV12@$$$V@std@@V?$TAllocator@VIPath_v1@AdobeXMPCore@@@AdobeXMPCore_Int@@@std@@EEAAXXZ 00000001800892f4 f i PathImpl.obj
 0001:000882f4       ?_Destroy@?$_Ref_count_del_alloc@VIPathSegment_v1@AdobeXMPCore@@V?$_Mem_fn_wrap@XP8ISharedObject@AdobeXMPCommon@@EBAXXZ$$CBV12@$$$V@std@@V?$TAllocator@VIPathSegment_v1@AdobeXMPCore@@@AdobeXMPCore_Int@@@std@@EEAAXXZ 00000001800892f4 f i PathSegmentImpl.obj
 0001:000882f4       ?_Destroy@?$_Ref_count_del_alloc@VINameSpacePrefixMap_I@AdobeXMPCore_Int@@V?$_Mem_fn_wrap@XP8ISharedObject@AdobeXMPCommon@@EBAXXZ$$CBV12@$$$V@std@@V?$TAllocator@VINameSpacePrefixMap_I@AdobeXMPCore_Int@@@2@@std@@EEAAXXZ 00000001800892f4 f i RDFDOMSerializerImpl.obj
 0001:000882f4       ?_Destroy@?$_Ref_count_del_alloc@VIMetadata_v1@AdobeXMPCore@@V?$_Mem_fn_wrap@XP8ISharedObject@AdobeXMPCommon@@EBAXXZ$$CBV12@$$$V@std@@V?$TAllocator@VIMetadata_v1@AdobeXMPCore@@@AdobeXMPCore_Int@@@std@@EEAAXXZ 00000001800892f4 f i DOMParserImpl.obj
 0001:000882f4       ?_Destroy@?$_Ref_count_del_alloc@VINameSpacePrefixMap_v1@AdobeXMPCore@@V?$_Mem_fn_wrap@XP8ISharedObject@AdobeXMPCommon@@EBAXXZ$$CBV12@$$$V@std@@V?$TAllocator@VINameSpacePrefixMap_v1@AdobeXMPCore@@@AdobeXMPCore_Int@@@std@@EEAAXXZ 00000001800892f4 f i NameSpacePrefixMapImpl.obj
 0001:00088318       ?_Delete_this@?$_Ref_count_del_alloc@VClientDOMParserWrapperImpl@AdobeXMPCore_Int@@V?$_Mem_fn_wrap@XP8SharedObjectImpl@AdobeXMPCore_Int@@EBAXXZ$$CBV12@$$$V@std@@V?$TAllocator@VClientDOMParserWrapperImpl@AdobeXMPCore_Int@@@2@@std@@EEAAXXZ 0000000180089318 f i DOMParserImpl.obj
 0001:00088318       ?_Delete_this@?$_Ref_count_del_alloc@VRDFDOMParserImpl@AdobeXMPCore_Int@@V?$_Mem_fn_wrap@XP8SharedObjectImpl@AdobeXMPCore_Int@@EBAXXZ$$CBV12@$$$V@std@@V?$TAllocator@VRDFDOMParserImpl@AdobeXMPCore_Int@@@2@@std@@EEAAXXZ 0000000180089318 f i DOMImplementationRegistryImpl.obj
 0001:00088318       ?_Delete_this@?$_Ref_count_del_alloc@VINameSpacePrefixMap_I@AdobeXMPCore_Int@@V?$_Mem_fn_wrap@XP8ISharedObject@AdobeXMPCommon@@EBAXXZ$$CBV12@$$$V@std@@V?$TAllocator@VINameSpacePrefixMap_I@AdobeXMPCore_Int@@@2@@std@@EEAAXXZ 0000000180089318 f i RDFDOMSerializerImpl.obj
 0001:00088318       ?_Delete_this@?$_Ref_count_del_alloc@VINode_v1@AdobeXMPCore@@V?$_Mem_fn_wrap@XP8ISharedObject@AdobeXMPCommon@@EBAXXZ$$CBV12@$$$V@std@@V?$TAllocator@VINode_v1@AdobeXMPCore@@@AdobeXMPCore_Int@@@std@@EEAAXXZ 0000000180089318 f i ArrayNodeImpl.obj
 0001:00088318       ?_Delete_this@?$_Ref_count_del_alloc@VRDFDOMSerializerImpl@AdobeXMPCore_Int@@V?$_Mem_fn_wrap@XP8SharedObjectImpl@AdobeXMPCore_Int@@EBAXXZ$$CBV12@$$$V@std@@V?$TAllocator@VRDFDOMSerializerImpl@AdobeXMPCore_Int@@@2@@std@@EEAAXXZ 0000000180089318 f i DOMImplementationRegistryImpl.obj
 0001:00088318       ?_Delete_this@?$_Ref_count_del_alloc@VSimpleNodeImpl@AdobeXMPCore_Int@@V?$_Mem_fn_wrap@XP8NodeImpl@AdobeXMPCore_Int@@EBAXXZ$$CBV12@$$$V@std@@V?$TAllocator@VSimpleNodeImpl@AdobeXMPCore_Int@@@2@@std@@EEAAXXZ 0000000180089318 f i SimpleNodeImpl.obj
 0001:00088318       ?_Delete_this@?$_Ref_count_del_alloc@VDOMSerializerImpl@AdobeXMPCore_Int@@V?$_Mem_fn_wrap@XP8SharedObjectImpl@AdobeXMPCore_Int@@EBAXXZ$$CBV12@$$$V@std@@V?$TAllocator@VDOMSerializerImpl@AdobeXMPCore_Int@@@2@@std@@EEAAXXZ 0000000180089318 f i DOMSerializerImpl.obj
 0001:00088318       ?_Delete_this@?$_Ref_count_del_alloc@VPathSegmentImpl@AdobeXMPCore_Int@@V?$_Mem_fn_wrap@XP8SharedObjectImpl@AdobeXMPCore_Int@@EBAXXZ$$CBV12@$$$V@std@@V?$TAllocator@VPathSegmentImpl@AdobeXMPCore_Int@@@2@@std@@EEAAXXZ 0000000180089318 f i PathSegmentImpl.obj
 0001:00088318       ?_Delete_this@?$_Ref_count_del_alloc@V?$TNodeIteratorImpl@V?$_Tree_iterator@V?$_Tree_val@U?$_Tree_simple_types@U?$pair@$$CBUQualifiedName@StructureNodeImpl@AdobeXMPCore_Int@@V?$shared_ptr@VINode_v1@AdobeXMPCore@@@std@@@std@@@std@@@std@@@std@@@AdobeXMPCore_Int@@V?$_Mem_fn_wrap@XP8SharedObjectImpl@AdobeXMPCore_Int@@EBAXXZ$$CBV12@$$$V@std@@V?$TAllocator@V?$TNodeIteratorImpl@V?$_Tree_iterator@V?$_Tree_val@U?$_Tree_simple_types@U?$pair@$$CBUQualifiedName@StructureNodeImpl@AdobeXMPCore_Int@@V?$shared_ptr@VINode_v1@AdobeXMPCore@@@std@@@std@@@std@@@std@@@std@@@AdobeXMPCore_Int@@@2@@std@@EEAAXXZ 0000000180089318 f i StructureNodeImpl.obj
 0001:00088318       ?_Delete_this@?$_Ref_count_del_alloc@VDOMParserImpl@AdobeXMPCore_Int@@V?$_Mem_fn_wrap@XP8SharedObjectImpl@AdobeXMPCore_Int@@EBAXXZ$$CBV12@$$$V@std@@V?$TAllocator@VDOMParserImpl@AdobeXMPCore_Int@@@2@@std@@EEAAXXZ 0000000180089318 f i DOMParserImpl.obj
 0001:00088318       ?_Delete_this@?$_Ref_count_del_alloc@VIPath_v1@AdobeXMPCore@@V?$_Mem_fn_wrap@XP8ISharedObject@AdobeXMPCommon@@EBAXXZ$$CBV12@$$$V@std@@V?$TAllocator@VIPath_v1@AdobeXMPCore@@@AdobeXMPCore_Int@@@std@@EEAAXXZ 0000000180089318 f i PathImpl.obj
 0001:00088318       ?_Delete_this@?$_Ref_count_del_alloc@V?$TNodeIteratorImpl@V?$_Vector_iterator@V?$_Vector_val@U?$_Simple_types@V?$shared_ptr@VINode_v1@AdobeXMPCore@@@std@@@std@@@std@@@std@@@AdobeXMPCore_Int@@V?$_Mem_fn_wrap@XP8SharedObjectImpl@AdobeXMPCore_Int@@EBAXXZ$$CBV12@$$$V@std@@V?$TAllocator@V?$TNodeIteratorImpl@V?$_Vector_iterator@V?$_Vector_val@U?$_Simple_types@V?$shared_ptr@VINode_v1@AdobeXMPCore@@@std@@@std@@@std@@@std@@@AdobeXMPCore_Int@@@2@@std@@EEAAXXZ 0000000180089318 f i ArrayNodeImpl.obj
 0001:00088318       ?_Delete_this@?$_Ref_count_del_alloc@VPathImpl@AdobeXMPCore_Int@@V?$_Mem_fn_wrap@XP8SharedObjectImpl@AdobeXMPCore_Int@@EBAXXZ$$CBV12@$$$V@std@@V?$TAllocator@VPathImpl@AdobeXMPCore_Int@@@2@@std@@EEAAXXZ 0000000180089318 f i PathImpl.obj
 0001:00088318       ?_Delete_this@?$_Ref_count_del_alloc@VIPathSegment_v1@AdobeXMPCore@@V?$_Mem_fn_wrap@XP8ISharedObject@AdobeXMPCommon@@EBAXXZ$$CBV12@$$$V@std@@V?$TAllocator@VIPathSegment_v1@AdobeXMPCore@@@AdobeXMPCore_Int@@@std@@EEAAXXZ 0000000180089318 f i PathSegmentImpl.obj
 0001:00088318       ?_Delete_this@?$_Ref_count_del_alloc@VUTF8StringImpl@AdobeXMPCore_Int@@V?$_Mem_fn_wrap@XP8SharedObjectImpl@AdobeXMPCore_Int@@EBAXXZ$$CBV12@$$$V@std@@V?$TAllocator@VUTF8StringImpl@AdobeXMPCore_Int@@@2@@std@@EEAAXXZ 0000000180089318 f i UTF8StringImpl.obj
 0001:00088318       ?_Delete_this@?$_Ref_count_del_alloc@VArrayNodeImpl@AdobeXMPCore_Int@@V?$_Mem_fn_wrap@XP8NodeImpl@AdobeXMPCore_Int@@EBAXXZ$$CBV12@$$$V@std@@V?$TAllocator@VArrayNodeImpl@AdobeXMPCore_Int@@@2@@std@@EEAAXXZ 0000000180089318 f i ArrayNodeImpl.obj
 0001:00088318       ?_Delete_this@?$_Ref_count_del_alloc@VMetadataImpl@AdobeXMPCore_Int@@V?$_Mem_fn_wrap@XP8NodeImpl@AdobeXMPCore_Int@@EBAXXZ$$CBV12@$$$V@std@@V?$TAllocator@VMetadataImpl@AdobeXMPCore_Int@@@2@@std@@EEAAXXZ 0000000180089318 f i MetadataImpl.obj
 0001:00088318       ?_Delete_this@?$_Ref_count_del_alloc@VCompositeNodeImpl@AdobeXMPCore_Int@@V?$_Mem_fn_wrap@XP8NodeImpl@AdobeXMPCore_Int@@EBAXXZ$$CBV12@$$$V@std@@V?$TAllocator@VCompositeNodeImpl@AdobeXMPCore_Int@@@2@@std@@EEAAXXZ 0000000180089318 f i CompositeNodeImpl.obj
 0001:00088318       ?_Delete_this@?$_Ref_count_del_alloc@VSharedMutexImpl@AdobeXMPCore_Int@@V?$_Mem_fn_wrap@XP8SharedObjectImpl@AdobeXMPCore_Int@@EBAXXZ$$CBV12@$$$V@std@@V?$TAllocator@VSharedMutexImpl@AdobeXMPCore_Int@@@2@@std@@EEAAXXZ 0000000180089318 f i SharedMutexImpl.obj
 0001:00088318       ?_Delete_this@?$_Ref_count_del_alloc@VIMetadata_v1@AdobeXMPCore@@V?$_Mem_fn_wrap@XP8ISharedObject@AdobeXMPCommon@@EBAXXZ$$CBV12@$$$V@std@@V?$TAllocator@VIMetadata_v1@AdobeXMPCore@@@AdobeXMPCore_Int@@@std@@EEAAXXZ 0000000180089318 f i DOMParserImpl.obj
 0001:00088318       ?_Delete_this@?$_Ref_count_del_alloc@VCoreConfigurationManagerImpl@AdobeXMPCore_Int@@V?$_Mem_fn_wrap@XP8SharedObjectImpl@AdobeXMPCore_Int@@EBAXXZ$$CBV12@$$$V@std@@V?$TAllocator@VCoreConfigurationManagerImpl@AdobeXMPCore_Int@@@2@@std@@EEAAXXZ 0000000180089318 f i CoreConfigurationManagerImpl.obj
 0001:00088318       ?_Delete_this@?$_Ref_count_del_alloc@VINameSpacePrefixMap_v1@AdobeXMPCore@@V?$_Mem_fn_wrap@XP8ISharedObject@AdobeXMPCommon@@EBAXXZ$$CBV12@$$$V@std@@V?$TAllocator@VINameSpacePrefixMap_v1@AdobeXMPCore@@@AdobeXMPCore_Int@@@std@@EEAAXXZ 0000000180089318 f i NameSpacePrefixMapImpl.obj
 0001:00088318       ?_Delete_this@?$_Ref_count_del_alloc@VStructureNodeImpl@AdobeXMPCore_Int@@V?$_Mem_fn_wrap@XP8NodeImpl@AdobeXMPCore_Int@@EBAXXZ$$CBV12@$$$V@std@@V?$TAllocator@VStructureNodeImpl@AdobeXMPCore_Int@@@2@@std@@EEAAXXZ 0000000180089318 f i StructureNodeImpl.obj
 0001:00088318       ?_Delete_this@?$_Ref_count_del_alloc@VNameSpacePrefixMapImpl@AdobeXMPCore_Int@@V?$_Mem_fn_wrap@XP8SharedObjectImpl@AdobeXMPCore_Int@@EBAXXZ$$CBV12@$$$V@std@@V?$TAllocator@VNameSpacePrefixMapImpl@AdobeXMPCore_Int@@@2@@std@@EEAAXXZ 0000000180089318 f i NameSpacePrefixMapImpl.obj
 0001:00088318       ?_Delete_this@?$_Ref_count_del_alloc@VClientDOMSerializerWrapperImpl@AdobeXMPCore_Int@@V?$_Mem_fn_wrap@XP8SharedObjectImpl@AdobeXMPCore_Int@@EBAXXZ$$CBV12@$$$V@std@@V?$TAllocator@VClientDOMSerializerWrapperImpl@AdobeXMPCore_Int@@@2@@std@@EEAAXXZ 0000000180089318 f i DOMSerializerImpl.obj
 0001:00088318       ?_Delete_this@?$_Ref_count_del_alloc@VDOMImplementationRegistryImpl@AdobeXMPCore_Int@@V?$_Mem_fn_wrap@XP8SharedObjectImpl@AdobeXMPCore_Int@@EBAXXZ$$CBV12@$$$V@std@@V?$TAllocator@VDOMImplementationRegistryImpl@AdobeXMPCore_Int@@@2@@std@@EEAAXXZ 0000000180089318 f i DOMImplementationRegistryImpl.obj
 0001:00088318       ?_Delete_this@?$_Ref_count_del_alloc@VErrorImpl@AdobeXMPCore_Int@@V?$_Mem_fn_wrap@XP8SharedObjectImpl@AdobeXMPCore_Int@@EBAXXZ$$CBV12@$$$V@std@@V?$TAllocator@VErrorImpl@AdobeXMPCore_Int@@@2@@std@@EEAAXXZ 0000000180089318 f i ErrorImpl.obj
 0001:00088350       ?_Get_deleter@?$_Ref_count_del_alloc@V?$TNodeIteratorImpl@V?$_Tree_iterator@V?$_Tree_val@U?$_Tree_simple_types@U?$pair@$$CBUQualifiedName@StructureNodeImpl@AdobeXMPCore_Int@@V?$shared_ptr@VINode_v1@AdobeXMPCore@@@std@@@std@@@std@@@std@@@std@@@AdobeXMPCore_Int@@V?$_Mem_fn_wrap@XP8SharedObjectImpl@AdobeXMPCore_Int@@EBAXXZ$$CBV12@$$$V@std@@V?$TAllocator@V?$TNodeIteratorImpl@V?$_Tree_iterator@V?$_Tree_val@U?$_Tree_simple_types@U?$pair@$$CBUQualifiedName@StructureNodeImpl@AdobeXMPCore_Int@@V?$shared_ptr@VINode_v1@AdobeXMPCore@@@std@@@std@@@std@@@std@@@std@@@AdobeXMPCore_Int@@@2@@std@@UEBAPEAXAEBVtype_info@@@Z 0000000180089350 f i StructureNodeImpl.obj
 0001:00088350       ?_Get_deleter@?$_Ref_count_del_alloc@VPathImpl@AdobeXMPCore_Int@@V?$_Mem_fn_wrap@XP8SharedObjectImpl@AdobeXMPCore_Int@@EBAXXZ$$CBV12@$$$V@std@@V?$TAllocator@VPathImpl@AdobeXMPCore_Int@@@2@@std@@UEBAPEAXAEBVtype_info@@@Z 0000000180089350 f i PathImpl.obj
 0001:00088350       ?_Get_deleter@?$_Ref_count_del_alloc@VErrorImpl@AdobeXMPCore_Int@@V?$_Mem_fn_wrap@XP8SharedObjectImpl@AdobeXMPCore_Int@@EBAXXZ$$CBV12@$$$V@std@@V?$TAllocator@VErrorImpl@AdobeXMPCore_Int@@@2@@std@@UEBAPEAXAEBVtype_info@@@Z 0000000180089350 f i ErrorImpl.obj
 0001:00088350       ?_Get_deleter@?$_Ref_count_del_alloc@VPathSegmentImpl@AdobeXMPCore_Int@@V?$_Mem_fn_wrap@XP8SharedObjectImpl@AdobeXMPCore_Int@@EBAXXZ$$CBV12@$$$V@std@@V?$TAllocator@VPathSegmentImpl@AdobeXMPCore_Int@@@2@@std@@UEBAPEAXAEBVtype_info@@@Z 0000000180089350 f i PathSegmentImpl.obj
 0001:00088350       ?_Get_deleter@?$_Ref_count_del_alloc@VRDFDOMParserImpl@AdobeXMPCore_Int@@V?$_Mem_fn_wrap@XP8SharedObjectImpl@AdobeXMPCore_Int@@EBAXXZ$$CBV12@$$$V@std@@V?$TAllocator@VRDFDOMParserImpl@AdobeXMPCore_Int@@@2@@std@@UEBAPEAXAEBVtype_info@@@Z 0000000180089350 f i DOMImplementationRegistryImpl.obj
 0001:00088350       ?_Get_deleter@?$_Ref_count_del_alloc@V?$TNodeIteratorImpl@V?$_Vector_iterator@V?$_Vector_val@U?$_Simple_types@V?$shared_ptr@VINode_v1@AdobeXMPCore@@@std@@@std@@@std@@@std@@@AdobeXMPCore_Int@@V?$_Mem_fn_wrap@XP8SharedObjectImpl@AdobeXMPCore_Int@@EBAXXZ$$CBV12@$$$V@std@@V?$TAllocator@V?$TNodeIteratorImpl@V?$_Vector_iterator@V?$_Vector_val@U?$_Simple_types@V?$shared_ptr@VINode_v1@AdobeXMPCore@@@std@@@std@@@std@@@std@@@AdobeXMPCore_Int@@@2@@std@@UEBAPEAXAEBVtype_info@@@Z 0000000180089350 f i ArrayNodeImpl.obj
 0001:00088350       ?_Get_deleter@?$_Ref_count_del_alloc@VSharedMutexImpl@AdobeXMPCore_Int@@V?$_Mem_fn_wrap@XP8SharedObjectImpl@AdobeXMPCore_Int@@EBAXXZ$$CBV12@$$$V@std@@V?$TAllocator@VSharedMutexImpl@AdobeXMPCore_Int@@@2@@std@@UEBAPEAXAEBVtype_info@@@Z 0000000180089350 f i SharedMutexImpl.obj
 0001:00088350       ?_Get_deleter@?$_Ref_count_del_alloc@VClientDOMSerializerWrapperImpl@AdobeXMPCore_Int@@V?$_Mem_fn_wrap@XP8SharedObjectImpl@AdobeXMPCore_Int@@EBAXXZ$$CBV12@$$$V@std@@V?$TAllocator@VClientDOMSerializerWrapperImpl@AdobeXMPCore_Int@@@2@@std@@UEBAPEAXAEBVtype_info@@@Z 0000000180089350 f i DOMSerializerImpl.obj
 0001:00088350       ?_Get_deleter@?$_Ref_count_del_alloc@VRDFDOMSerializerImpl@AdobeXMPCore_Int@@V?$_Mem_fn_wrap@XP8SharedObjectImpl@AdobeXMPCore_Int@@EBAXXZ$$CBV12@$$$V@std@@V?$TAllocator@VRDFDOMSerializerImpl@AdobeXMPCore_Int@@@2@@std@@UEBAPEAXAEBVtype_info@@@Z 0000000180089350 f i DOMImplementationRegistryImpl.obj
 0001:00088350       ?_Get_deleter@?$_Ref_count_del_alloc@VNameSpacePrefixMapImpl@AdobeXMPCore_Int@@V?$_Mem_fn_wrap@XP8SharedObjectImpl@AdobeXMPCore_Int@@EBAXXZ$$CBV12@$$$V@std@@V?$TAllocator@VNameSpacePrefixMapImpl@AdobeXMPCore_Int@@@2@@std@@UEBAPEAXAEBVtype_info@@@Z 0000000180089350 f i NameSpacePrefixMapImpl.obj
 0001:00088350       ?_Get_deleter@?$_Ref_count_del_alloc@VDOMImplementationRegistryImpl@AdobeXMPCore_Int@@V?$_Mem_fn_wrap@XP8SharedObjectImpl@AdobeXMPCore_Int@@EBAXXZ$$CBV12@$$$V@std@@V?$TAllocator@VDOMImplementationRegistryImpl@AdobeXMPCore_Int@@@2@@std@@UEBAPEAXAEBVtype_info@@@Z 0000000180089350 f i DOMImplementationRegistryImpl.obj
 0001:00088350       ?_Get_deleter@?$_Ref_count_del_alloc@VDOMParserImpl@AdobeXMPCore_Int@@V?$_Mem_fn_wrap@XP8SharedObjectImpl@AdobeXMPCore_Int@@EBAXXZ$$CBV12@$$$V@std@@V?$TAllocator@VDOMParserImpl@AdobeXMPCore_Int@@@2@@std@@UEBAPEAXAEBVtype_info@@@Z 0000000180089350 f i DOMParserImpl.obj
 0001:00088350       ?_Get_deleter@?$_Ref_count_del_alloc@VCoreConfigurationManagerImpl@AdobeXMPCore_Int@@V?$_Mem_fn_wrap@XP8SharedObjectImpl@AdobeXMPCore_Int@@EBAXXZ$$CBV12@$$$V@std@@V?$TAllocator@VCoreConfigurationManagerImpl@AdobeXMPCore_Int@@@2@@std@@UEBAPEAXAEBVtype_info@@@Z 0000000180089350 f i CoreConfigurationManagerImpl.obj
 0001:00088350       ?_Get_deleter@?$_Ref_count_del_alloc@VDOMSerializerImpl@AdobeXMPCore_Int@@V?$_Mem_fn_wrap@XP8SharedObjectImpl@AdobeXMPCore_Int@@EBAXXZ$$CBV12@$$$V@std@@V?$TAllocator@VDOMSerializerImpl@AdobeXMPCore_Int@@@2@@std@@UEBAPEAXAEBVtype_info@@@Z 0000000180089350 f i DOMSerializerImpl.obj
 0001:00088350       ?_Get_deleter@?$_Ref_count_del_alloc@VClientDOMParserWrapperImpl@AdobeXMPCore_Int@@V?$_Mem_fn_wrap@XP8SharedObjectImpl@AdobeXMPCore_Int@@EBAXXZ$$CBV12@$$$V@std@@V?$TAllocator@VClientDOMParserWrapperImpl@AdobeXMPCore_Int@@@2@@std@@UEBAPEAXAEBVtype_info@@@Z 0000000180089350 f i DOMParserImpl.obj
 0001:00088350       ?_Get_deleter@?$_Ref_count_del_alloc@VUTF8StringImpl@AdobeXMPCore_Int@@V?$_Mem_fn_wrap@XP8SharedObjectImpl@AdobeXMPCore_Int@@EBAXXZ$$CBV12@$$$V@std@@V?$TAllocator@VUTF8StringImpl@AdobeXMPCore_Int@@@2@@std@@UEBAPEAXAEBVtype_info@@@Z 0000000180089350 f i UTF8StringImpl.obj
 0001:00088380       ?_Destroy@?$_Ref_count_del_alloc@VDOMImplementationRegistryImpl@AdobeXMPCore_Int@@V?$_Mem_fn_wrap@XP8SharedObjectImpl@AdobeXMPCore_Int@@EBAXXZ$$CBV12@$$$V@std@@V?$TAllocator@VDOMImplementationRegistryImpl@AdobeXMPCore_Int@@@2@@std@@EEAAXXZ 0000000180089380 f i DOMImplementationRegistryImpl.obj
 0001:00088380       ?_Destroy@?$_Ref_count_del_alloc@VPathImpl@AdobeXMPCore_Int@@V?$_Mem_fn_wrap@XP8SharedObjectImpl@AdobeXMPCore_Int@@EBAXXZ$$CBV12@$$$V@std@@V?$TAllocator@VPathImpl@AdobeXMPCore_Int@@@2@@std@@EEAAXXZ 0000000180089380 f i PathImpl.obj
 0001:00088380       ?_Destroy@?$_Ref_count_del_alloc@VUTF8StringImpl@AdobeXMPCore_Int@@V?$_Mem_fn_wrap@XP8SharedObjectImpl@AdobeXMPCore_Int@@EBAXXZ$$CBV12@$$$V@std@@V?$TAllocator@VUTF8StringImpl@AdobeXMPCore_Int@@@2@@std@@EEAAXXZ 0000000180089380 f i UTF8StringImpl.obj
 0001:00088380       ?_Destroy@?$_Ref_count_del_alloc@V?$TNodeIteratorImpl@V?$_Vector_iterator@V?$_Vector_val@U?$_Simple_types@V?$shared_ptr@VINode_v1@AdobeXMPCore@@@std@@@std@@@std@@@std@@@AdobeXMPCore_Int@@V?$_Mem_fn_wrap@XP8SharedObjectImpl@AdobeXMPCore_Int@@EBAXXZ$$CBV12@$$$V@std@@V?$TAllocator@V?$TNodeIteratorImpl@V?$_Vector_iterator@V?$_Vector_val@U?$_Simple_types@V?$shared_ptr@VINode_v1@AdobeXMPCore@@@std@@@std@@@std@@@std@@@AdobeXMPCore_Int@@@2@@std@@EEAAXXZ 0000000180089380 f i ArrayNodeImpl.obj
 0001:00088380       ?_Destroy@?$_Ref_count_del_alloc@VPathSegmentImpl@AdobeXMPCore_Int@@V?$_Mem_fn_wrap@XP8SharedObjectImpl@AdobeXMPCore_Int@@EBAXXZ$$CBV12@$$$V@std@@V?$TAllocator@VPathSegmentImpl@AdobeXMPCore_Int@@@2@@std@@EEAAXXZ 0000000180089380 f i PathSegmentImpl.obj
 0001:00088380       ?_Destroy@?$_Ref_count_del_alloc@VErrorImpl@AdobeXMPCore_Int@@V?$_Mem_fn_wrap@XP8SharedObjectImpl@AdobeXMPCore_Int@@EBAXXZ$$CBV12@$$$V@std@@V?$TAllocator@VErrorImpl@AdobeXMPCore_Int@@@2@@std@@EEAAXXZ 0000000180089380 f i ErrorImpl.obj
 0001:00088380       ?_Destroy@?$_Ref_count_del_alloc@V?$TNodeIteratorImpl@V?$_Tree_iterator@V?$_Tree_val@U?$_Tree_simple_types@U?$pair@$$CBUQualifiedName@StructureNodeImpl@AdobeXMPCore_Int@@V?$shared_ptr@VINode_v1@AdobeXMPCore@@@std@@@std@@@std@@@std@@@std@@@AdobeXMPCore_Int@@V?$_Mem_fn_wrap@XP8SharedObjectImpl@AdobeXMPCore_Int@@EBAXXZ$$CBV12@$$$V@std@@V?$TAllocator@V?$TNodeIteratorImpl@V?$_Tree_iterator@V?$_Tree_val@U?$_Tree_simple_types@U?$pair@$$CBUQualifiedName@StructureNodeImpl@AdobeXMPCore_Int@@V?$shared_ptr@VINode_v1@AdobeXMPCore@@@std@@@std@@@std@@@std@@@std@@@AdobeXMPCore_Int@@@2@@std@@EEAAXXZ 0000000180089380 f i StructureNodeImpl.obj
 0001:000883e4       ?_Get_deleter@?$_Ref_count_del_alloc@VSimpleNodeImpl@AdobeXMPCore_Int@@V?$_Mem_fn_wrap@XP8NodeImpl@AdobeXMPCore_Int@@EBAXXZ$$CBV12@$$$V@std@@V?$TAllocator@VSimpleNodeImpl@AdobeXMPCore_Int@@@2@@std@@UEBAPEAXAEBVtype_info@@@Z 00000001800893e4 f i SimpleNodeImpl.obj
 0001:000883e4       ?_Get_deleter@?$_Ref_count_del_alloc@VStructureNodeImpl@AdobeXMPCore_Int@@V?$_Mem_fn_wrap@XP8NodeImpl@AdobeXMPCore_Int@@EBAXXZ$$CBV12@$$$V@std@@V?$TAllocator@VStructureNodeImpl@AdobeXMPCore_Int@@@2@@std@@UEBAPEAXAEBVtype_info@@@Z 00000001800893e4 f i StructureNodeImpl.obj
 0001:000883e4       ?_Get_deleter@?$_Ref_count_del_alloc@VMetadataImpl@AdobeXMPCore_Int@@V?$_Mem_fn_wrap@XP8NodeImpl@AdobeXMPCore_Int@@EBAXXZ$$CBV12@$$$V@std@@V?$TAllocator@VMetadataImpl@AdobeXMPCore_Int@@@2@@std@@UEBAPEAXAEBVtype_info@@@Z 00000001800893e4 f i MetadataImpl.obj
 0001:000883e4       ?_Get_deleter@?$_Ref_count_del_alloc@VArrayNodeImpl@AdobeXMPCore_Int@@V?$_Mem_fn_wrap@XP8NodeImpl@AdobeXMPCore_Int@@EBAXXZ$$CBV12@$$$V@std@@V?$TAllocator@VArrayNodeImpl@AdobeXMPCore_Int@@@2@@std@@UEBAPEAXAEBVtype_info@@@Z 00000001800893e4 f i ArrayNodeImpl.obj
 0001:000883e4       ?_Get_deleter@?$_Ref_count_del_alloc@VCompositeNodeImpl@AdobeXMPCore_Int@@V?$_Mem_fn_wrap@XP8NodeImpl@AdobeXMPCore_Int@@EBAXXZ$$CBV12@$$$V@std@@V?$TAllocator@VCompositeNodeImpl@AdobeXMPCore_Int@@@2@@std@@UEBAPEAXAEBVtype_info@@@Z 00000001800893e4 f i CompositeNodeImpl.obj
 0001:00088414       ?_Destroy@?$_Ref_count_del_alloc@VArrayNodeImpl@AdobeXMPCore_Int@@V?$_Mem_fn_wrap@XP8NodeImpl@AdobeXMPCore_Int@@EBAXXZ$$CBV12@$$$V@std@@V?$TAllocator@VArrayNodeImpl@AdobeXMPCore_Int@@@2@@std@@EEAAXXZ 0000000180089414 f i ArrayNodeImpl.obj
 0001:00088414       ?_Destroy@?$_Ref_count_del_alloc@VStructureNodeImpl@AdobeXMPCore_Int@@V?$_Mem_fn_wrap@XP8NodeImpl@AdobeXMPCore_Int@@EBAXXZ$$CBV12@$$$V@std@@V?$TAllocator@VStructureNodeImpl@AdobeXMPCore_Int@@@2@@std@@EEAAXXZ 0000000180089414 f i StructureNodeImpl.obj
 0001:0008847c       ??$_Uninit_move@PEAV?$shared_ptr@VINode_v1@AdobeXMPCore@@@std@@PEAV12@V?$TAllocator@V?$shared_ptr@VINode_v1@AdobeXMPCore@@@std@@@AdobeXMPCore_Int@@V12@@std@@YAPEAV?$shared_ptr@VINode_v1@AdobeXMPCore@@@0@PEAV10@00AEAU?$_Wrap_alloc@V?$TAllocator@V?$shared_ptr@VINode_v1@AdobeXMPCore@@@std@@@AdobeXMPCore_Int@@@0@0U_Nonscalar_ptr_iterator_tag@0@@Z 000000018008947c f i ArrayNodeImpl.obj
 0001:0008847c       ??$_Uninit_move@PEAV?$shared_ptr@$$CBVIUTF8String_v1@AdobeXMPCommon@@@std@@PEAV12@V?$TAllocator@V?$shared_ptr@$$CBVIUTF8String_v1@AdobeXMPCommon@@@std@@@AdobeXMPCore_Int@@V12@@std@@YAPEAV?$shared_ptr@$$CBVIUTF8String_v1@AdobeXMPCommon@@@0@PEAV10@00AEAU?$_Wrap_alloc@V?$TAllocator@V?$shared_ptr@$$CBVIUTF8String_v1@AdobeXMPCommon@@@std@@@AdobeXMPCore_Int@@@0@0U_Nonscalar_ptr_iterator_tag@0@@Z 000000018008947c f i ErrorImpl.obj
 0001:000884cc       ?SetIndex@NodeImpl@AdobeXMPCore_Int@@$R4NI@DM@PPPPPPPM@PA@EAAX_K@Z 00000001800894cc f i ArrayNodeImpl.obj
 0001:000884e8       ?isArrayItem@INode_I@AdobeXMPCore_Int@@$R2GA@CE@PPPPPPPM@DI@EBAKAEAPEBVIError_v1@AdobeXMPCommon@@@Z 00000001800894e8 f i ArrayNodeImpl.obj
 0001:00088504       ?HasContent@ArrayNodeImpl@AdobeXMPCore_Int@@$4PPPPPPPM@A@EBA_NXZ 0000000180089504 f i ArrayNodeImpl.obj
 0001:00088510       ?convertToArrayNode@INode_I@AdobeXMPCore_Int@@$R2EA@CA@PPPPPPPM@DI@EAAPEAVIArrayNode_v1@AdobeXMPCore@@AEAPEBVIError_v1@AdobeXMPCommon@@@Z 0000000180089510 f i ArrayNodeImpl.obj
 0001:0008852c       ?QualifiersIterator@NodeImpl@AdobeXMPCore_Int@@$R4EA@DE@PPPPPPPM@KI@EAA?AV?$shared_ptr@VINodeIterator_v1@AdobeXMPCore@@@std@@XZ 000000018008952c f i ArrayNodeImpl.obj
 0001:00088548       ?RegisterChange@NodeImpl@AdobeXMPCore_Int@@$4PPPPPPPM@A@EAAXXZ 0000000180089548 f i ArrayNodeImpl.obj
 0001:00088554       ?RemoveQualifier@NodeImpl@AdobeXMPCore_Int@@$R4GA@DM@PPPPPPPM@KI@EAA?AV?$shared_ptr@VINode_v1@AdobeXMPCore@@@std@@PEBD_K01@Z 0000000180089554 f i ArrayNodeImpl.obj
 0001:00088570       ?AcquireInternal@NodeImpl@AdobeXMPCore_Int@@$4PPPPPPPM@A@EBAXXZ 0000000180089570 f i ArrayNodeImpl.obj
 0001:0008857c       ?Clear@NodeImpl@AdobeXMPCore_Int@@$4PPPPPPPM@A@EAAX_N0@Z 000000018008957c f i ArrayNodeImpl.obj
 0001:00088588       ?IsEmpty@NodeImpl@AdobeXMPCore_Int@@$4PPPPPPPM@A@EBA_NXZ 0000000180089588 f i ArrayNodeImpl.obj
 0001:00088594       ?iterator@ICompositeNode_I@AdobeXMPCore_Int@@$R2FA@CI@PPPPPPPM@EI@EAAPEAVINodeIterator_v1@AdobeXMPCore@@AEAPEBVIError_v1@AdobeXMPCommon@@@Z 0000000180089594 f i ArrayNodeImpl.obj
 0001:000885b0       ?replaceNodeAtPath@ICompositeNode_I@AdobeXMPCore_Int@@$R2FA@CI@PPPPPPPM@EI@EAAPEAVINode_v1@AdobeXMPCore@@PEAV34@PEBVIPath_v1@4@AEAPEBVIError_v1@AdobeXMPCommon@@@Z 00000001800895b0 f i ArrayNodeImpl.obj
 0001:000885cc       ?clone@INode_I@AdobeXMPCore_Int@@$R2DI@CE@PPPPPPPM@DI@EBAPEAVINode_v1@AdobeXMPCore@@KKAEAPEBVIError_v1@AdobeXMPCommon@@@Z 00000001800895cc f i ArrayNodeImpl.obj
 0001:000885e4       ?qualifiersIterator@INode_I@AdobeXMPCore_Int@@$R2DI@CE@PPPPPPPM@DI@EAAPEAVINodeIterator_v1@AdobeXMPCore@@AEAPEBVIError_v1@AdobeXMPCommon@@@Z 00000001800895e4 f i ArrayNodeImpl.obj
 0001:000885fc       ?removeNodeAtPath@ICompositeNode_I@AdobeXMPCore_Int@@$2PPPPPPPM@A@EAAPEAVINode_v1@AdobeXMPCore@@PEBVIPath_v1@4@AEAPEBVIError_v1@AdobeXMPCommon@@@Z 00000001800895fc f i ArrayNodeImpl.obj
 0001:00088608       ?isEmpty@INode_I@AdobeXMPCore_Int@@$R2DA@CA@PPPPPPPM@DI@EBAKAEAPEBVIError_v1@AdobeXMPCommon@@@Z 0000000180089608 f i ArrayNodeImpl.obj
 0001:00088624       ?hasContent@INode_I@AdobeXMPCore_Int@@$R2DA@CA@PPPPPPPM@DI@EBAKAEAPEBVIError_v1@AdobeXMPCommon@@@Z 0000000180089624 f i ArrayNodeImpl.obj
 0001:00088640       ?convertToArrayNode@INode_I@AdobeXMPCore_Int@@$2PPPPPPPM@A@EAAPEAVIArrayNode_v1@AdobeXMPCore@@AEAPEBVIError_v1@AdobeXMPCommon@@@Z 0000000180089640 f i ArrayNodeImpl.obj
 0001:0008864c       ?Acquire@SharedObjectImpl@AdobeXMPCore_Int@@$R4CA@BI@PPPPPPPM@CA@EBAXXZ 000000018008964c f i ArrayNodeImpl.obj
 0001:00088664       ?insertNodeAtIndex@IArrayNode_I@AdobeXMPCore_Int@@$R2JA@CM@PPPPPPPM@GI@EAAXPEAVINode_v1@AdobeXMPCore@@_KAEAPEBVIError_v1@AdobeXMPCommon@@@Z 0000000180089664 f i ArrayNodeImpl.obj
 0001:00088680       ?convertToMetadata@INode_I@AdobeXMPCore_Int@@$R2GA@CE@PPPPPPPM@DI@EAAPEAVIMetadata_v1@AdobeXMPCore@@AEAPEBVIError_v1@AdobeXMPCommon@@@Z 0000000180089680 f i ArrayNodeImpl.obj
 0001:0008869c       ?insertQualifier@INode_I@AdobeXMPCore_Int@@$R2GA@CE@PPPPPPPM@DI@EAAXPEAVINode_v1@AdobeXMPCore@@AEAPEBVIError_v1@AdobeXMPCommon@@@Z 000000018008969c f i ArrayNodeImpl.obj
 0001:000886b8       ?getParent@INode_I@AdobeXMPCore_Int@@$R2GA@CE@PPPPPPPM@DI@EAAPEAVINode_v1@AdobeXMPCore@@AEAPEBVIError_v1@AdobeXMPCommon@@@Z 00000001800896b8 f i ArrayNodeImpl.obj
 0001:000886d4       ?AcknowledgeChanges@NodeImpl@AdobeXMPCore_Int@@$R4GA@DM@PPPPPPPM@KI@EBAXXZ 00000001800896d4 f i ArrayNodeImpl.obj
 0001:000886f0       ?ShareMutex@ThreadSafeImpl@AdobeXMPCore_Int@@$R2II@DA@PPPPPPPM@DI@EAAXAEBV?$shared_ptr@VISharedMutex@AdobeXMPCore_Int@@@std@@@Z 00000001800896f0 f i ArrayNodeImpl.obj
 0001:0008870c       ?ConvertToMetadata@NodeImpl@AdobeXMPCore_Int@@$R4EA@DE@PPPPPPPM@KI@EAA?AV?$shared_ptr@VIMetadata_v1@AdobeXMPCore@@@std@@XZ 000000018008970c f i ArrayNodeImpl.obj
 0001:0008870c       ?ConvertToStructureNode@NodeImpl@AdobeXMPCore_Int@@$R4EA@DE@PPPPPPPM@KI@EAA?AV?$shared_ptr@VIStructureNode_v1@AdobeXMPCore@@@std@@XZ 000000018008970c f i ArrayNodeImpl.obj
 0001:0008870c       ?ConvertToArrayNode@NodeImpl@AdobeXMPCore_Int@@$R4EA@DE@PPPPPPPM@KI@EAA?AV?$shared_ptr@VIArrayNode_v1@AdobeXMPCore@@@std@@XZ 000000018008970c f i ArrayNodeImpl.obj
 0001:0008870c       ?ConvertToSimpleNode@NodeImpl@AdobeXMPCore_Int@@$R4EA@DE@PPPPPPPM@KI@EAA?AV?$shared_ptr@VISimpleNode_v1@AdobeXMPCore@@@std@@XZ 000000018008970c f i ArrayNodeImpl.obj
 0001:00088728       ?IsQualifierNode@NodeImpl@AdobeXMPCore_Int@@$R4EA@DE@PPPPPPPM@KI@EBA_NXZ 0000000180089728 f i ArrayNodeImpl.obj
 0001:00088744       ?GetQualifier@NodeImpl@AdobeXMPCore_Int@@$R4EA@DE@PPPPPPPM@KI@EAA?AV?$shared_ptr@VINode_v1@AdobeXMPCore@@@std@@PEBD_K01@Z 0000000180089744 f i ArrayNodeImpl.obj
 0001:00088760       ?ChangeParent@NodeImpl@AdobeXMPCore_Int@@$4PPPPPPPM@A@EAAXPEAVINode_v1@AdobeXMPCore@@@Z 0000000180089760 f i ArrayNodeImpl.obj
 0001:0008876c       ?getPath@INode_I@AdobeXMPCore_Int@@$R2KA@BM@PPPPPPPM@DI@EBAPEAVIPath_v1@AdobeXMPCore@@AEAPEBVIError_v1@AdobeXMPCommon@@@Z 000000018008976c f i ArrayNodeImpl.obj
 0001:00088788       ?GetQualifierNodeType@NodeImpl@AdobeXMPCore_Int@@$4PPPPPPPM@A@EBA?AW4eNodeType@INode_v1@AdobeXMPCore@@PEBD_K01@Z 0000000180089788 f i ArrayNodeImpl.obj
 0001:00088794       ?Release@NodeImpl@AdobeXMPCore_Int@@$4PPPPPPPM@A@EBAXXZ 0000000180089794 f i ArrayNodeImpl.obj
 0001:000887a0       ?convertToStructureNode@INode_I@AdobeXMPCore_Int@@$R2DI@CE@PPPPPPPM@DI@EAAPEAVIStructureNode_v1@AdobeXMPCore@@AEAPEBVIError_v1@AdobeXMPCommon@@@Z 00000001800897a0 f i ArrayNodeImpl.obj
 0001:000887b8       ?getNodeType@INode_I@AdobeXMPCore_Int@@$R2DA@CA@PPPPPPPM@DI@EBAKAEAPEBVIError_v1@AdobeXMPCommon@@@Z 00000001800897b8 f i ArrayNodeImpl.obj
 0001:000887d4       ?GetINode_I@INode_I@AdobeXMPCore_Int@@$R4DA@CA@PPPPPPPM@DI@EAAPEAV12@XZ 00000001800897d4 f i ArrayNodeImpl.obj
 0001:000887f0       ?GetIThreadSafe_I@IThreadSafe_I@AdobeXMPCommon_Int@@WPPPPPPMA@EAAPEAV12@XZ 00000001800897f0 f i ArrayNodeImpl.obj
 0001:000887f0       ?GetISharedObject_I@ISharedObject_I@AdobeXMPCommon_Int@@WPPPPPPMA@EAAPEAV12@XZ 00000001800897f0 f i ArrayNodeImpl.obj
 0001:000887fc       ?getInterfacePointer@INode_I@AdobeXMPCore_Int@@$2PPPPPPPM@A@EAAPEAX_KKAEAPEBVIError_v1@AdobeXMPCommon@@@Z 00000001800897fc f i ArrayNodeImpl.obj
 0001:00088808       ?replaceNodeAtIndex@IArrayNode_I@AdobeXMPCore_Int@@$R2JA@CM@PPPPPPPM@GI@EAAPEAVINode_v1@AdobeXMPCore@@PEAV34@_KAEAPEBVIError_v1@AdobeXMPCommon@@@Z 0000000180089808 f i ArrayNodeImpl.obj
 0001:00088824       ?GetActualIArrayNode@IArrayNode_I@AdobeXMPCore_Int@@$R4JA@CM@PPPPPPPM@GI@EAAPEAVIArrayNode_v1@AdobeXMPCore@@XZ 0000000180089824 f i ArrayNodeImpl.obj
 0001:00088840       ?ConvertToMetadata@NodeImpl@AdobeXMPCore_Int@@$R4GA@DM@PPPPPPPM@KI@EAA?AV?$shared_ptr@VIMetadata_v1@AdobeXMPCore@@@std@@XZ 0000000180089840 f i ArrayNodeImpl.obj
 0001:00088840       ?ConvertToSimpleNode@NodeImpl@AdobeXMPCore_Int@@$R4GA@DM@PPPPPPPM@KI@EAA?AV?$shared_ptr@VISimpleNode_v1@AdobeXMPCore@@@std@@XZ 0000000180089840 f i ArrayNodeImpl.obj
 0001:00088840       ?ConvertToStructureNode@NodeImpl@AdobeXMPCore_Int@@$R4GA@DM@PPPPPPPM@KI@EAA?AV?$shared_ptr@VIStructureNode_v1@AdobeXMPCore@@@std@@XZ 0000000180089840 f i ArrayNodeImpl.obj
 0001:0008885c       ?GetIndex@NodeImpl@AdobeXMPCore_Int@@$R4GA@DM@PPPPPPPM@KI@EBA_KXZ 000000018008985c f i ArrayNodeImpl.obj
 0001:00088878       ?GetParentNodeType@NodeImpl@AdobeXMPCore_Int@@$R4GA@DM@PPPPPPPM@KI@EBA?AW4eNodeType@INode_v1@AdobeXMPCore@@XZ 0000000180089878 f i ArrayNodeImpl.obj
 0001:00088894       ?EnableThreadSafety@ThreadSafeImpl@AdobeXMPCore_Int@@$R2FA@DI@PPPPPPPM@CI@EBAXXZ 0000000180089894 f i ArrayNodeImpl.obj
 0001:000888b0       ?getPath@INode_I@AdobeXMPCore_Int@@$R2EA@CA@PPPPPPPM@DI@EBAPEAVIPath_v1@AdobeXMPCore@@AEAPEBVIError_v1@AdobeXMPCommon@@@Z 00000001800898b0 f i ArrayNodeImpl.obj
 0001:000888cc       ?GetPath@NodeImpl@AdobeXMPCore_Int@@$R4EA@DE@PPPPPPPM@KI@EBA?AV?$shared_ptr@VIPath_v1@AdobeXMPCore@@@std@@XZ 00000001800898cc f i ArrayNodeImpl.obj
 0001:000888e8       ?ValidateNameOrNameSpaceChangeForAChild@NodeImpl@AdobeXMPCore_Int@@$4PPPPPPPM@A@EAA_NAEBV?$shared_ptr@$$CBVIUTF8String_v1@AdobeXMPCommon@@@std@@000@Z 00000001800898e8 f i ArrayNodeImpl.obj
 0001:000888f4       ?GetNameSpace@NodeImpl@AdobeXMPCore_Int@@$4PPPPPPPM@A@EBA?AV?$shared_ptr@$$CBVIUTF8String_v1@AdobeXMPCommon@@@std@@XZ 00000001800898f4 f i ArrayNodeImpl.obj
 0001:00088900       ?GetIThreadSafe_I@IThreadSafe_I@AdobeXMPCommon_Int@@$R4JA@BI@PPPPPPPM@BA@EAAPEAV12@XZ 0000000180089900 f i ArrayNodeImpl.obj
 0001:0008891c       ?next@INodeIterator_I@AdobeXMPCore_Int@@$2PPPPPPPM@A@EAAPEAVINodeIterator_v1@AdobeXMPCore@@AEAPEBVIError_v1@AdobeXMPCommon@@@Z 000000018008991c f i ArrayNodeImpl.obj
 0001:00088928       ?getParentNodeType@INode_I@AdobeXMPCore_Int@@$R2DI@CE@PPPPPPPM@DI@EBAKAEAPEBVIError_v1@AdobeXMPCommon@@@Z 0000000180089928 f i ArrayNodeImpl.obj
 0001:00088940       ?getInterfacePointer@IArrayNode_I@AdobeXMPCore_Int@@$2PPPPPPPM@A@EAAPEAX_KKAEAPEBVIError_v1@AdobeXMPCommon@@@Z 0000000180089940 f i ArrayNodeImpl.obj
 0001:0008894c       ?ShareMutex@ThreadSafeImpl@AdobeXMPCore_Int@@$R2MA@DI@PPPPPPPM@DI@EAAXAEBV?$shared_ptr@VISharedMutex@AdobeXMPCore_Int@@@std@@@Z 000000018008994c f i ArrayNodeImpl.obj
 0001:0008896c       ?removeNodeAtIndex@IArrayNode_I@AdobeXMPCore_Int@@$R2JA@CM@PPPPPPPM@GI@EAAPEAVINode_v1@AdobeXMPCore@@_KAEAPEBVIError_v1@AdobeXMPCommon@@@Z 000000018008996c f i ArrayNodeImpl.obj
 0001:00088988       ?ConvertToArrayNode@ArrayNodeImpl@AdobeXMPCore_Int@@$4PPPPPPPM@A@EAA?AV?$shared_ptr@VIArrayNode_v1@AdobeXMPCore@@@std@@XZ 0000000180089988 f i ArrayNodeImpl.obj
 0001:00088994       ?GetNodeType@ArrayNodeImpl@AdobeXMPCore_Int@@$4PPPPPPPM@A@EBA?AW4eNodeType@INode_v1@AdobeXMPCore@@XZ 0000000180089994 f i ArrayNodeImpl.obj
 0001:000889a0       ?Clone@NodeImpl@AdobeXMPCore_Int@@$R4EA@DE@PPPPPPPM@KI@EBA?AV?$shared_ptr@VINode_v1@AdobeXMPCore@@@std@@_N0@Z 00000001800899a0 f i ArrayNodeImpl.obj
 0001:000889bc       ?GetIThreadSafe_I@IThreadSafe_I@AdobeXMPCommon_Int@@$R4DA@BM@PPPPPPPM@BA@EAAPEAV12@XZ 00000001800899bc f i ArrayNodeImpl.obj
 0001:000889d8       ?SetQualifiers@NodeImpl@AdobeXMPCore_Int@@$4PPPPPPPM@A@EAAXAEBV?$shared_ptr@VIStructureNode_v1@AdobeXMPCore@@@std@@@Z 00000001800899d8 f i ArrayNodeImpl.obj
 0001:000889e4       ?ShareMutex@ThreadSafeImpl@AdobeXMPCore_Int@@$R2NA@CI@PPPPPPPM@DI@EAAXAEBV?$shared_ptr@VISharedMutex@AdobeXMPCore_Int@@@std@@@Z 00000001800899e4 f i ArrayNodeImpl.obj
 0001:00088a04       ?clone@INode_I@AdobeXMPCore_Int@@$R2KA@BM@PPPPPPPM@DI@EBAPEAVINode_v1@AdobeXMPCore@@KKAEAPEBVIError_v1@AdobeXMPCommon@@@Z 0000000180089a04 f i ArrayNodeImpl.obj
 0001:00088a20       ?qualifiersIterator@INode_I@AdobeXMPCore_Int@@$R2KA@BM@PPPPPPPM@DI@EAAPEAVINodeIterator_v1@AdobeXMPCore@@AEAPEBVIError_v1@AdobeXMPCommon@@@Z 0000000180089a20 f i ArrayNodeImpl.obj
 0001:00088a3c       ?HasQualifiers@NodeImpl@AdobeXMPCore_Int@@$4PPPPPPPM@A@EBA_NXZ 0000000180089a3c f i ArrayNodeImpl.obj
 0001:00088a48       ?IsThreadSafe@ThreadSafeImpl@AdobeXMPCore_Int@@$2PPPPPPPM@A@EBA_NXZ 0000000180089a48 f i ArrayNodeImpl.obj
 0001:00088a54       ?GetActualICompositeNode@ICompositeNode_I@AdobeXMPCore_Int@@$R4FA@CI@PPPPPPPM@EI@EAAPEAVICompositeNode_v1@AdobeXMPCore@@XZ 0000000180089a54 f i ArrayNodeImpl.obj
 0001:00088a70       ?setName@INode_I@AdobeXMPCore_Int@@$R2DI@CE@PPPPPPPM@DI@EAAXPEBD_KAEAPEBVIError_v1@AdobeXMPCommon@@@Z 0000000180089a70 f i ArrayNodeImpl.obj
 0001:00088a88       ?insertNodeAtPath@ICompositeNode_I@AdobeXMPCore_Int@@$2PPPPPPPM@A@EAAXPEAVINode_v1@AdobeXMPCore@@PEBVIPath_v1@4@AEAPEBVIError_v1@AdobeXMPCommon@@@Z 0000000180089a88 f i ArrayNodeImpl.obj
 0001:00088a94       ?getQualifier@INode_I@AdobeXMPCore_Int@@$R2DA@CA@PPPPPPPM@DI@EAAPEAVINode_v1@AdobeXMPCore@@PEBD_K01AEAPEBVIError_v1@AdobeXMPCommon@@@Z 0000000180089a94 f i ArrayNodeImpl.obj
 0001:00088ab0       ?getPath@INode_I@AdobeXMPCore_Int@@$2PPPPPPPM@A@EBAPEAVIPath_v1@AdobeXMPCore@@AEAPEBVIError_v1@AdobeXMPCommon@@@Z 0000000180089ab0 f i ArrayNodeImpl.obj
 0001:00088abc       ??_EICompositeNode_v1@AdobeXMPCore@@O7EAAPEAXI@Z 0000000180089abc f i ArrayNodeImpl.obj
 0001:00088ac8       ?next@INodeIterator_I@AdobeXMPCore_Int@@$R2EA@BE@PPPPPPPM@CI@EAAPEAVINodeIterator_v1@AdobeXMPCore@@AEAPEBVIError_v1@AdobeXMPCommon@@@Z 0000000180089ac8 f i ArrayNodeImpl.obj
 0001:00088ae4       ??_E?$TNodeIteratorImpl@V?$_Vector_iterator@V?$_Vector_val@U?$_Simple_types@V?$shared_ptr@VINode_v1@AdobeXMPCore@@@std@@@std@@@std@@@std@@@AdobeXMPCore_Int@@$2PPPPPPPM@A@EAAPEAXI@Z 0000000180089ae4 f i ArrayNodeImpl.obj
 0001:00088af0       ?CloneContents@ArrayNodeImpl@AdobeXMPCore_Int@@$4PPPPPPPM@A@EBA?AV?$shared_ptr@VINode_v1@AdobeXMPCore@@@std@@_N0_K@Z 0000000180089af0 f i ArrayNodeImpl.obj
 0001:00088afc       ?GetNodeAtIndex@ArrayNodeImpl@AdobeXMPCore_Int@@$4PPPPPPPM@A@EAA?AV?$shared_ptr@VINode_v1@AdobeXMPCore@@@std@@_K@Z 0000000180089afc f i ArrayNodeImpl.obj
 0001:00088b08       ?convertToArrayNode@INode_I@AdobeXMPCore_Int@@$R2GA@CE@PPPPPPPM@DI@EAAPEAVIArrayNode_v1@AdobeXMPCore@@AEAPEBVIError_v1@AdobeXMPCommon@@@Z 0000000180089b08 f i ArrayNodeImpl.obj
 0001:00088b24       ?SetNameSpace@NodeImpl@AdobeXMPCore_Int@@$R4GA@DM@PPPPPPPM@KI@EAAXPEBD_K@Z 0000000180089b24 f i ArrayNodeImpl.obj
 0001:00088b40       ?DisableThreadSafety@ThreadSafeImpl@AdobeXMPCore_Int@@$R2FA@DI@PPPPPPPM@CI@EBAXXZ 0000000180089b40 f i ArrayNodeImpl.obj
 0001:00088b5c       ?Acquire@NodeImpl@AdobeXMPCore_Int@@$R4DA@DM@PPPPPPPM@HI@EBAXXZ 0000000180089b5c f i ArrayNodeImpl.obj
 0001:00088b78       ?RemoveQualifier@NodeImpl@AdobeXMPCore_Int@@$R4KA@DE@PPPPPPPM@PA@EAA?AV?$shared_ptr@VINode_v1@AdobeXMPCore@@@std@@AEBV?$shared_ptr@$$CBVIUTF8String_v1@AdobeXMPCommon@@@4@0@Z 0000000180089b78 f i ArrayNodeImpl.obj
 0001:00088b94       ?iterator@ICompositeNode_I@AdobeXMPCore_Int@@$R2FI@CE@PPPPPPPM@EI@EAAPEAVINodeIterator_v1@AdobeXMPCore@@AEAPEBVIError_v1@AdobeXMPCommon@@@Z 0000000180089b94 f i ArrayNodeImpl.obj
 0001:00088bb0       ?replaceNodeAtPath@ICompositeNode_I@AdobeXMPCore_Int@@$R2FI@CE@PPPPPPPM@EI@EAAPEAVINode_v1@AdobeXMPCore@@PEAV34@PEBVIPath_v1@4@AEAPEBVIError_v1@AdobeXMPCommon@@@Z 0000000180089bb0 f i ArrayNodeImpl.obj
 0001:00088bcc       ?clone@INode_I@AdobeXMPCore_Int@@$R2EA@CA@PPPPPPPM@DI@EBAPEAVINode_v1@AdobeXMPCore@@KKAEAPEBVIError_v1@AdobeXMPCommon@@@Z 0000000180089bcc f i ArrayNodeImpl.obj
 0001:00088be8       ?qualifiersIterator@INode_I@AdobeXMPCore_Int@@$R2EA@CA@PPPPPPPM@DI@EAAPEAVINodeIterator_v1@AdobeXMPCore@@AEAPEBVIError_v1@AdobeXMPCommon@@@Z 0000000180089be8 f i ArrayNodeImpl.obj
 0001:00088c04       ?ReplaceQualifier@NodeImpl@AdobeXMPCore_Int@@$R4EA@DE@PPPPPPPM@KI@EAA?AV?$shared_ptr@VINode_v1@AdobeXMPCore@@@std@@AEBV34@@Z 0000000180089c04 f i ArrayNodeImpl.obj
 0001:00088c20       ?QualifiersCount@NodeImpl@AdobeXMPCore_Int@@$R4EA@DE@PPPPPPPM@KI@EBA_KXZ 0000000180089c20 f i ArrayNodeImpl.obj
 0001:00088c3c       ?convertToStructureNode@INode_I@AdobeXMPCore_Int@@$R2KA@BM@PPPPPPPM@DI@EAAPEAVIStructureNode_v1@AdobeXMPCore@@AEAPEBVIError_v1@AdobeXMPCommon@@@Z 0000000180089c3c f i ArrayNodeImpl.obj
 0001:00088c58       ??_ENodeImpl@AdobeXMPCore_Int@@$2PPPPPPPM@A@EAAPEAXI@Z 0000000180089c58 f i ArrayNodeImpl.obj
 0001:00088c64       ?Acquire@SharedObjectImpl@AdobeXMPCore_Int@@$4PPPPPPPM@A@EBAXXZ 0000000180089c64 f i ArrayNodeImpl.obj
 0001:00088c70       ?getName@INode_I@AdobeXMPCore_Int@@$R2DI@CE@PPPPPPPM@DI@EBAPEBVIUTF8String_v1@AdobeXMPCommon@@AEAPEBVIError_v1@4@@Z 0000000180089c70 f i ArrayNodeImpl.obj
 0001:00088c88       ?getNameSpace@INode_I@AdobeXMPCore_Int@@$R2DA@CA@PPPPPPPM@DI@EBAPEBVIUTF8String_v1@AdobeXMPCommon@@AEAPEBVIError_v1@4@@Z 0000000180089c88 f i ArrayNodeImpl.obj
 0001:00088ca4       ??_EIArrayNode_v1@AdobeXMPCore@@O7EAAPEAXI@Z 0000000180089ca4 f i ArrayNodeImpl.obj
 0001:00088cb0       ?GetArrayForm@ArrayNodeImpl@AdobeXMPCore_Int@@$4PPPPPPPM@A@EBA?AW4eArrayForm@IArrayNode_v1@AdobeXMPCore@@XZ 0000000180089cb0 f i ArrayNodeImpl.obj
 0001:00088cbc       ?GetISharedObject_I@IArrayNode_I@AdobeXMPCore_Int@@$R4DA@CM@PPPPPPPM@BA@EAAPEAVISharedObject_I@AdobeXMPCommon_Int@@XZ 0000000180089cbc f i ArrayNodeImpl.obj
 0001:00088cd8       ?convertToStructureNode@INode_I@AdobeXMPCore_Int@@$R2EA@CA@PPPPPPPM@DI@EAAPEAVIStructureNode_v1@AdobeXMPCore@@AEAPEBVIError_v1@AdobeXMPCommon@@@Z 0000000180089cd8 f i ArrayNodeImpl.obj
 0001:00088cf4       ?InsertQualifier@NodeImpl@AdobeXMPCore_Int@@$R4EA@DE@PPPPPPPM@KI@EAAXAEBV?$shared_ptr@VINode_v1@AdobeXMPCore@@@std@@@Z 0000000180089cf4 f i ArrayNodeImpl.obj
 0001:00088d10       ??_ECompositeNodeImpl@AdobeXMPCore_Int@@$2PPPPPPPM@BA@EAAPEAXI@Z 0000000180089d10 f i ArrayNodeImpl.obj
 0001:00088d20       ?Release@NodeImpl@AdobeXMPCore_Int@@$R4BA@DE@PPPPPPPM@HI@EBAXXZ 0000000180089d20 f i ArrayNodeImpl.obj
 0001:00088d3c       ?GetRawParentPointer@NodeImpl@AdobeXMPCore_Int@@$4PPPPPPPM@A@EAAPEAVINode_v1@AdobeXMPCore@@XZ 0000000180089d3c f i ArrayNodeImpl.obj
 0001:00088d48       ?getParentNodeType@INode_I@AdobeXMPCore_Int@@$R2KA@BM@PPPPPPPM@DI@EBAKAEAPEBVIError_v1@AdobeXMPCommon@@@Z 0000000180089d48 f i ArrayNodeImpl.obj
 0001:00088d64       ?IsArrayItem@NodeImpl@AdobeXMPCore_Int@@$4PPPPPPPM@A@EBA_NXZ 0000000180089d64 f i ArrayNodeImpl.obj
 0001:00088d70       ?getInterfacePointer@INode_I@AdobeXMPCore_Int@@$R2IA@BM@PPPPPPPM@CA@EAAPEAX_KKAEAPEBVIError_v1@AdobeXMPCommon@@@Z 0000000180089d70 f i ArrayNodeImpl.obj
 0001:00088d8c       ?getNodeType@INodeIterator_I@AdobeXMPCore_Int@@$2PPPPPPPM@A@EBAKAEAPEBVIError_v1@AdobeXMPCommon@@@Z 0000000180089d8c f i ArrayNodeImpl.obj
 0001:00088d98       ?getArrayForm@IArrayNode_I@AdobeXMPCore_Int@@$2PPPPPPPM@A@EBAKAEAPEBVIError_v1@AdobeXMPCommon@@@Z 0000000180089d98 f i ArrayNodeImpl.obj
 0001:00088da4       ?getNodeTypeAtPath@ICompositeNode_I@AdobeXMPCore_Int@@$R2FA@CI@PPPPPPPM@EI@EBAKPEBVIPath_v1@AdobeXMPCore@@AEAPEBVIError_v1@AdobeXMPCommon@@@Z 0000000180089da4 f i ArrayNodeImpl.obj
 0001:00088dc0       ?clear@INode_I@AdobeXMPCore_Int@@$R2DI@CE@PPPPPPPM@DI@EAAXKKAEAPEBVIError_v1@AdobeXMPCommon@@@Z 0000000180089dc0 f i ArrayNodeImpl.obj
 0001:00088dd8       ?hasQualifiers@INode_I@AdobeXMPCore_Int@@$R2DI@CE@PPPPPPPM@DI@EBAKAEAPEBVIError_v1@AdobeXMPCommon@@@Z 0000000180089dd8 f i ArrayNodeImpl.obj
 0001:00088df0       ?isQualifierNode@INode_I@AdobeXMPCore_Int@@$R2DI@CE@PPPPPPPM@DI@EBAKAEAPEBVIError_v1@AdobeXMPCommon@@@Z 0000000180089df0 f i ArrayNodeImpl.obj
 0001:00088e08       ??_EIArrayNode_I@AdobeXMPCore_Int@@$2PPPPPPPM@A@EAAPEAXI@Z 0000000180089e08 f i ArrayNodeImpl.obj
 0001:00088e14       ?getQualifierNodeType@INode_I@AdobeXMPCore_Int@@$R2DA@CA@PPPPPPPM@DI@EBAKPEBD_K01AEAPEBVIError_v1@AdobeXMPCommon@@@Z 0000000180089e14 f i ArrayNodeImpl.obj
 0001:00088e30       ?setNameSpace@INode_I@AdobeXMPCore_Int@@$R2DA@CA@PPPPPPPM@DI@EAAXPEBD_KAEAPEBVIError_v1@AdobeXMPCommon@@@Z 0000000180089e30 f i ArrayNodeImpl.obj
 0001:00088e4c       ?clone@INode_I@AdobeXMPCore_Int@@$2PPPPPPPM@A@EBAPEAVINode_v1@AdobeXMPCore@@KKAEAPEBVIError_v1@AdobeXMPCommon@@@Z 0000000180089e4c f i ArrayNodeImpl.obj
 0001:00088e58       ?qualifiersIterator@INode_I@AdobeXMPCore_Int@@$2PPPPPPPM@A@EAAPEAVINodeIterator_v1@AdobeXMPCore@@AEAPEBVIError_v1@AdobeXMPCommon@@@Z 0000000180089e58 f i ArrayNodeImpl.obj
 0001:00088e64       ?RemoveQualifier@NodeImpl@AdobeXMPCore_Int@@$R4NI@DM@PPPPPPPM@PA@EAA?AV?$shared_ptr@VINode_v1@AdobeXMPCore@@@std@@AEBV?$shared_ptr@$$CBVIUTF8String_v1@AdobeXMPCommon@@@4@0@Z 0000000180089e64 f i ArrayNodeImpl.obj
 0001:00088e80       ?ChildCount@ArrayNodeImpl@AdobeXMPCore_Int@@$4PPPPPPPM@A@EBA_KXZ 0000000180089e80 f i ArrayNodeImpl.obj
 0001:00088e8c       ?GetName@NodeImpl@AdobeXMPCore_Int@@$R4GA@DM@PPPPPPPM@KI@EBA?AV?$shared_ptr@$$CBVIUTF8String_v1@AdobeXMPCommon@@@std@@XZ 0000000180089e8c f i ArrayNodeImpl.obj
 0001:00088ea8       ?SetName@NodeImpl@AdobeXMPCore_Int@@$R4GA@DM@PPPPPPPM@KI@EAAXPEBD_K@Z 0000000180089ea8 f i ArrayNodeImpl.obj
 0001:00088ec4       ?UnRegisterChange@NodeImpl@AdobeXMPCore_Int@@$R4KA@DE@PPPPPPPM@PA@EAAXXZ 0000000180089ec4 f i ArrayNodeImpl.obj
 0001:00088ee0       ?getParentNodeType@INode_I@AdobeXMPCore_Int@@$R2EA@CA@PPPPPPPM@DI@EBAKAEAPEBVIError_v1@AdobeXMPCommon@@@Z 0000000180089ee0 f i ArrayNodeImpl.obj
 0001:00088efc       ?setName@INode_I@AdobeXMPCore_Int@@$R2KA@BM@PPPPPPPM@DI@EAAXPEBD_KAEAPEBVIError_v1@AdobeXMPCommon@@@Z 0000000180089efc f i ArrayNodeImpl.obj
 0001:00088f18       ?isThreadSafe@IThreadSafe_I@AdobeXMPCommon_Int@@$R4CA@7PPPPPPPM@BA@EBAKXZ 0000000180089f18 f i ArrayNodeImpl.obj
 0001:00088f34       ?getNodeAtIndex@IArrayNode_I@AdobeXMPCore_Int@@$2PPPPPPPM@A@EAAPEAVINode_v1@AdobeXMPCore@@_KAEAPEBVIError_v1@AdobeXMPCommon@@@Z 0000000180089f34 f i ArrayNodeImpl.obj
 0001:00088f40       ?GetIArrayNode_I@IArrayNode_I@AdobeXMPCore_Int@@$4PPPPPPPM@A@EAAPEAV12@XZ 0000000180089f40 f i ArrayNodeImpl.obj
 0001:00088f40       ?GetIStructureNode_I@IStructureNode_I@AdobeXMPCore_Int@@$4PPPPPPPM@A@EAAPEAV12@XZ 0000000180089f40 f i MetadataImpl.obj
 0001:00088f4c       ?GetICompositeNode_I@ICompositeNode_I@AdobeXMPCore_Int@@$4PPPPPPPM@A@EAAPEAV12@XZ 0000000180089f4c f i ArrayNodeImpl.obj
 0001:00088f4c       ?GetISimpleNode_I@ISimpleNode_I@AdobeXMPCore_Int@@$4PPPPPPPM@A@EAAPEAV12@XZ 0000000180089f4c f i SimpleNodeImpl.obj
 0001:00088f4c       ?GetIDOMParser_I@IDOMParser_I@AdobeXMPCore_Int@@$4PPPPPPPM@A@EAAPEAV12@XZ 0000000180089f4c f i ClientDOMParserWrapperImpl.obj
 0001:00088f4c       ?GetIDOMSerializer_I@IDOMSerializer_I@AdobeXMPCore_Int@@$4PPPPPPPM@A@EAAPEAV12@XZ 0000000180089f4c f i ClientDOMSerializerWrapperImpl.obj
 0001:00088f58       ?GetActualINode@INode_I@AdobeXMPCore_Int@@$R4DA@CA@PPPPPPPM@DI@EAAPEAVINode_v1@AdobeXMPCore@@XZ 0000000180089f58 f i ArrayNodeImpl.obj
 0001:00088f74       ?convertToStructureNode@INode_I@AdobeXMPCore_Int@@$2PPPPPPPM@A@EAAPEAVIStructureNode_v1@AdobeXMPCore@@AEAPEBVIError_v1@AdobeXMPCommon@@@Z 0000000180089f74 f i ArrayNodeImpl.obj
 0001:00088f80       ?getNodeType@INodeIterator_I@AdobeXMPCore_Int@@$R2EA@BE@PPPPPPPM@CI@EBAKAEAPEBVIError_v1@AdobeXMPCommon@@@Z 0000000180089f80 f i ArrayNodeImpl.obj
 0001:00088f9c       ?getPath@INode_I@AdobeXMPCore_Int@@$R2GA@CE@PPPPPPPM@DI@EBAPEAVIPath_v1@AdobeXMPCore@@AEAPEBVIError_v1@AdobeXMPCommon@@@Z 0000000180089f9c f i ArrayNodeImpl.obj
 0001:00088fb8       ?GetActualICompositeNode@ICompositeNode_I@AdobeXMPCore_Int@@$R4FI@CE@PPPPPPPM@EI@EAAPEAVICompositeNode_v1@AdobeXMPCore@@XZ 0000000180089fb8 f i ArrayNodeImpl.obj
 0001:00088fd4       ?setName@INode_I@AdobeXMPCore_Int@@$R2EA@CA@PPPPPPPM@DI@EAAXPEBD_KAEAPEBVIError_v1@AdobeXMPCommon@@@Z 0000000180089fd4 f i ArrayNodeImpl.obj
 0001:00088ff0       ?Clear@NodeImpl@AdobeXMPCore_Int@@$R4EA@DE@PPPPPPPM@KI@EAAX_N0@Z 0000000180089ff0 f i ArrayNodeImpl.obj
 0001:0008900c       ?IsEmpty@NodeImpl@AdobeXMPCore_Int@@$R4EA@DE@PPPPPPPM@KI@EBA_NXZ 000000018008a00c f i ArrayNodeImpl.obj
 0001:00089028       ?getName@INode_I@AdobeXMPCore_Int@@$R2KA@BM@PPPPPPPM@DI@EBAPEBVIUTF8String_v1@AdobeXMPCommon@@AEAPEBVIError_v1@4@@Z 000000018008a028 f i ArrayNodeImpl.obj
 0001:00089044       ?ShareMutex@ThreadSafeImpl@AdobeXMPCore_Int@@$2PPPPPPPM@A@EAAXAEBV?$shared_ptr@VISharedMutex@AdobeXMPCore_Int@@@std@@@Z 000000018008a044 f i ArrayNodeImpl.obj
 0001:00089050       ?hasChanged@INode_I@AdobeXMPCore_Int@@$R2DI@CE@PPPPPPPM@DI@EBAKAEAPEBVIError_v1@AdobeXMPCommon@@@Z 000000018008a050 f i ArrayNodeImpl.obj
 0001:00089068       ?appendNode@ICompositeNode_I@AdobeXMPCore_Int@@$2PPPPPPPM@A@EAAXPEAVINode_v1@AdobeXMPCore@@AEAPEBVIError_v1@AdobeXMPCommon@@@Z 000000018008a068 f i ArrayNodeImpl.obj
 0001:00089074       ?replaceQualifier@INode_I@AdobeXMPCore_Int@@$R2DA@CA@PPPPPPPM@DI@EAAPEAVINode_v1@AdobeXMPCore@@PEAV34@AEAPEBVIError_v1@AdobeXMPCommon@@@Z 000000018008a074 f i ArrayNodeImpl.obj
 0001:00089090       ?getParentNodeType@INode_I@AdobeXMPCore_Int@@$2PPPPPPPM@A@EBAKAEAPEBVIError_v1@AdobeXMPCommon@@@Z 000000018008a090 f i ArrayNodeImpl.obj
 0001:0008909c       ?GetISharedObject_I@ISharedObject_I@AdobeXMPCommon_Int@@WPPPPPPLI@EAAPEAV12@XZ 000000018008a09c f i ArrayNodeImpl.obj
 0001:0008909c       ?GetIThreadSafe_I@IThreadSafe_I@AdobeXMPCommon_Int@@WPPPPPPLI@EAAPEAV12@XZ 000000018008a09c f i NameSpacePrefixMapImpl.obj
 0001:000890a8       ??_EINode_v1@AdobeXMPCore@@O7EAAPEAXI@Z 000000018008a0a8 f i ArrayNodeImpl.obj
 0001:000890b4       ?CheckSuitabilityToBeUsedAsChildNode@ArrayNodeImpl@AdobeXMPCore_Int@@$4PPPPPPPM@A@EBA_NAEBV?$shared_ptr@$$CBVINode_v1@AdobeXMPCore@@@std@@@Z 000000018008a0b4 f i ArrayNodeImpl.obj
 0001:000890c0       ?UnRegisterChange@NodeImpl@AdobeXMPCore_Int@@$R4NI@DM@PPPPPPPM@PA@EAAXXZ 000000018008a0c0 f i ArrayNodeImpl.obj
 0001:000890dc       ?getChildNodeType@IArrayNode_I@AdobeXMPCore_Int@@$R2JA@CM@PPPPPPPM@GI@EBAKAEAPEBVIError_v1@AdobeXMPCommon@@@Z 000000018008a0dc f i ArrayNodeImpl.obj
 0001:000890f8       ?Iterator@ArrayNodeImpl@AdobeXMPCore_Int@@$4PPPPPPPM@A@EAA?AV?$shared_ptr@VINodeIterator_v1@AdobeXMPCore@@@std@@XZ 000000018008a0f8 f i ArrayNodeImpl.obj
 0001:00089104       ?QualifiersIterator@NodeImpl@AdobeXMPCore_Int@@$R4GA@DM@PPPPPPPM@KI@EAA?AV?$shared_ptr@VINodeIterator_v1@AdobeXMPCore@@@std@@XZ 000000018008a104 f i ArrayNodeImpl.obj
 0001:00089120       ?GetIThreadSafe_I@IThreadSafe_I@AdobeXMPCommon_Int@@$R4FA@CA@PPPPPPPM@BA@EAAPEAV12@XZ 000000018008a120 f i ArrayNodeImpl.obj
 0001:0008913c       ?getName@INode_I@AdobeXMPCore_Int@@$R2EA@CA@PPPPPPPM@DI@EBAPEBVIUTF8String_v1@AdobeXMPCommon@@AEAPEBVIError_v1@4@@Z 000000018008a13c f i ArrayNodeImpl.obj
 0001:00089158       ?GetQualifierNodeType@NodeImpl@AdobeXMPCore_Int@@$R4EA@DE@PPPPPPPM@KI@EBA?AW4eNodeType@INode_v1@AdobeXMPCore@@PEBD_K01@Z 000000018008a158 f i ArrayNodeImpl.obj
 0001:00089174       ?SetIndex@NodeImpl@AdobeXMPCore_Int@@$4PPPPPPPM@A@EAAX_K@Z 000000018008a174 f i ArrayNodeImpl.obj
 0001:00089180       ?clear@INode_I@AdobeXMPCore_Int@@$R2KA@BM@PPPPPPPM@DI@EAAXKKAEAPEBVIError_v1@AdobeXMPCommon@@@Z 000000018008a180 f i ArrayNodeImpl.obj
 0001:0008919c       ?hasQualifiers@INode_I@AdobeXMPCore_Int@@$R2KA@BM@PPPPPPPM@DI@EBAKAEAPEBVIError_v1@AdobeXMPCommon@@@Z 000000018008a19c f i ArrayNodeImpl.obj
 0001:000891b8       ?isQualifierNode@INode_I@AdobeXMPCore_Int@@$R2KA@BM@PPPPPPPM@DI@EBAKAEAPEBVIError_v1@AdobeXMPCommon@@@Z 000000018008a1b8 f i ArrayNodeImpl.obj
 0001:000891d4       ?removeNodeAtPath@ICompositeNode_I@AdobeXMPCore_Int@@$R2FA@CI@PPPPPPPM@EI@EAAPEAVINode_v1@AdobeXMPCore@@PEBVIPath_v1@4@AEAPEBVIError_v1@AdobeXMPCommon@@@Z 000000018008a1d4 f i ArrayNodeImpl.obj
 0001:000891f0       ?removeQualifier@INode_I@AdobeXMPCore_Int@@$R2DI@CE@PPPPPPPM@DI@EAAPEAVINode_v1@AdobeXMPCore@@PEBD_K01AEAPEBVIError_v1@AdobeXMPCommon@@@Z 000000018008a1f0 f i ArrayNodeImpl.obj
 0001:00089208       ?getNodeAtPath@ICompositeNode_I@AdobeXMPCore_Int@@$2PPPPPPPM@A@EAAPEAVINode_v1@AdobeXMPCore@@PEBVIPath_v1@4@AEAPEBVIError_v1@AdobeXMPCommon@@@Z 000000018008a208 f i ArrayNodeImpl.obj
 0001:00089214       ?GetIThreadSafe_I@IThreadSafe_I@AdobeXMPCommon_Int@@WPPPPPPKI@EAAPEAV12@XZ 000000018008a214 f i ArrayNodeImpl.obj
 0001:00089220       ?setName@INode_I@AdobeXMPCore_Int@@$2PPPPPPPM@A@EAAXPEBD_KAEAPEBVIError_v1@AdobeXMPCommon@@@Z 000000018008a220 f i ArrayNodeImpl.obj
 0001:0008922c       ?RemoveNodeAtIndex@ArrayNodeImpl@AdobeXMPCore_Int@@$4PPPPPPPM@A@EAA?AV?$shared_ptr@VINode_v1@AdobeXMPCore@@@std@@_K@Z 000000018008a22c f i ArrayNodeImpl.obj
 0001:00089238       ?iterator@ICompositeNode_I@AdobeXMPCore_Int@@$R2HI@CI@PPPPPPPM@EI@EAAPEAVINodeIterator_v1@AdobeXMPCore@@AEAPEBVIError_v1@AdobeXMPCommon@@@Z 000000018008a238 f i ArrayNodeImpl.obj
 0001:00089254       ?replaceNodeAtPath@ICompositeNode_I@AdobeXMPCore_Int@@$R2HI@CI@PPPPPPPM@EI@EAAPEAVINode_v1@AdobeXMPCore@@PEAV34@PEBVIPath_v1@4@AEAPEBVIError_v1@AdobeXMPCommon@@@Z 000000018008a254 f i ArrayNodeImpl.obj
 0001:00089270       ?clone@INode_I@AdobeXMPCore_Int@@$R2GA@CE@PPPPPPPM@DI@EBAPEAVINode_v1@AdobeXMPCore@@KKAEAPEBVIError_v1@AdobeXMPCommon@@@Z 000000018008a270 f i ArrayNodeImpl.obj
 0001:0008928c       ?qualifiersIterator@INode_I@AdobeXMPCore_Int@@$R2GA@CE@PPPPPPPM@DI@EAAPEAVINodeIterator_v1@AdobeXMPCore@@AEAPEBVIError_v1@AdobeXMPCommon@@@Z 000000018008a28c f i ArrayNodeImpl.obj
 0001:000892a8       ?getNodeTypeAtPath@ICompositeNode_I@AdobeXMPCore_Int@@$R2FI@CE@PPPPPPPM@EI@EBAKPEBVIPath_v1@AdobeXMPCore@@AEAPEBVIError_v1@AdobeXMPCommon@@@Z 000000018008a2a8 f i ArrayNodeImpl.obj
 0001:000892c4       ?clear@INode_I@AdobeXMPCore_Int@@$R2EA@CA@PPPPPPPM@DI@EAAXKKAEAPEBVIError_v1@AdobeXMPCommon@@@Z 000000018008a2c4 f i ArrayNodeImpl.obj
 0001:000892e0       ?hasQualifiers@INode_I@AdobeXMPCore_Int@@$R2EA@CA@PPPPPPPM@DI@EBAKAEAPEBVIError_v1@AdobeXMPCommon@@@Z 000000018008a2e0 f i ArrayNodeImpl.obj
 0001:000892fc       ?isQualifierNode@INode_I@AdobeXMPCore_Int@@$R2EA@CA@PPPPPPPM@DI@EBAKAEAPEBVIError_v1@AdobeXMPCommon@@@Z 000000018008a2fc f i ArrayNodeImpl.obj
 0001:00089318       ?GetNameSpace@NodeImpl@AdobeXMPCore_Int@@$R4EA@DE@PPPPPPPM@KI@EBA?AV?$shared_ptr@$$CBVIUTF8String_v1@AdobeXMPCommon@@@std@@XZ 000000018008a318 f i ArrayNodeImpl.obj
 0001:00089334       ?GetParent@MetadataImpl@AdobeXMPCore_Int@@$2PPPPPPPM@A@EAA?AV?$shared_ptr@VINode_v1@AdobeXMPCore@@@std@@XZ 000000018008a334 f i MetadataImpl.obj
 0001:00089334       ?ConvertToArrayNode@NodeImpl@AdobeXMPCore_Int@@$4PPPPPPPM@A@EAA?AV?$shared_ptr@VIArrayNode_v1@AdobeXMPCore@@@std@@XZ 000000018008a334 f i ArrayNodeImpl.obj
 0001:00089334       ?ConvertToStructureNode@NodeImpl@AdobeXMPCore_Int@@$4PPPPPPPM@A@EAA?AV?$shared_ptr@VIStructureNode_v1@AdobeXMPCore@@@std@@XZ 000000018008a334 f i ArrayNodeImpl.obj
 0001:00089334       ?ConvertToSimpleNode@NodeImpl@AdobeXMPCore_Int@@$4PPPPPPPM@A@EAA?AV?$shared_ptr@VISimpleNode_v1@AdobeXMPCore@@@std@@XZ 000000018008a334 f i ArrayNodeImpl.obj
 0001:00089334       ?ConvertToMetadata@NodeImpl@AdobeXMPCore_Int@@$4PPPPPPPM@A@EAA?AV?$shared_ptr@VIMetadata_v1@AdobeXMPCore@@@std@@XZ 000000018008a334 f i ArrayNodeImpl.obj
 0001:00089334       ?SerializeInternal@ClientDOMSerializerWrapperImpl@AdobeXMPCore_Int@@$4PPPPPPPM@A@EBA?AV?$shared_ptr@VIUTF8String_v1@AdobeXMPCommon@@@std@@AEBV?$shared_ptr@VINode_v1@AdobeXMPCore@@@4@K_KPEBD21AEBV?$shared_ptr@$$CBVINameSpacePrefixMap_v1@AdobeXMPCore@@@4@@Z 000000018008a334 f i ClientDOMSerializerWrapperImpl.obj
 0001:00089340       ?convertToSimpleNode@INode_I@AdobeXMPCore_Int@@$R2DI@CE@PPPPPPPM@DI@EAAPEAVISimpleNode_v1@AdobeXMPCore@@AEAPEBVIError_v1@AdobeXMPCommon@@@Z 000000018008a340 f i ArrayNodeImpl.obj
 0001:00089358       ?getIndex@INode_I@AdobeXMPCore_Int@@$R2DI@CE@PPPPPPPM@DI@EBA_KAEAPEBVIError_v1@AdobeXMPCommon@@@Z 000000018008a358 f i ArrayNodeImpl.obj
 0001:00089370       ?isArrayItem@INode_I@AdobeXMPCore_Int@@$R2DA@CA@PPPPPPPM@DI@EBAKAEAPEBVIError_v1@AdobeXMPCommon@@@Z 000000018008a370 f i ArrayNodeImpl.obj
 0001:0008938c       ?getName@INode_I@AdobeXMPCore_Int@@$2PPPPPPPM@A@EBAPEBVIUTF8String_v1@AdobeXMPCommon@@AEAPEBVIError_v1@4@@Z 000000018008a38c f i ArrayNodeImpl.obj
 0001:00089398       ?isThreadSafe@IThreadSafe_I@AdobeXMPCommon_Int@@WPPPPPPMA@EBAKXZ 000000018008a398 f i ArrayNodeImpl.obj
 0001:000893a4       ?convertToStructureNode@INode_I@AdobeXMPCore_Int@@$R2GA@CE@PPPPPPPM@DI@EAAPEAVIStructureNode_v1@AdobeXMPCore@@AEAPEBVIError_v1@AdobeXMPCommon@@@Z 000000018008a3a4 f i ArrayNodeImpl.obj
 0001:000893c0       ?IsQualifierNode@NodeImpl@AdobeXMPCore_Int@@$R4GA@DM@PPPPPPPM@KI@EBA_NXZ 000000018008a3c0 f i ArrayNodeImpl.obj
 0001:000893dc       ?GetQualifier@NodeImpl@AdobeXMPCore_Int@@$R4GA@DM@PPPPPPPM@KI@EAA?AV?$shared_ptr@VINode_v1@AdobeXMPCore@@@std@@PEBD_K01@Z 000000018008a3dc f i ArrayNodeImpl.obj
 0001:000893f8       ?ReplaceNodeAtPath@CompositeNodeImpl@AdobeXMPCore_Int@@$4PPPPPPPM@A@EAA?AV?$shared_ptr@VINode_v1@AdobeXMPCore@@@std@@AEBV34@AEBV?$shared_ptr@$$CBVIPath_v1@AdobeXMPCore@@@4@@Z 000000018008a3f8 f i ArrayNodeImpl.obj
 0001:00089404       ?HasQualifiers@NodeImpl@AdobeXMPCore_Int@@$R4EA@DE@PPPPPPPM@KI@EBA_NXZ 000000018008a404 f i ArrayNodeImpl.obj
 0001:00089420       ??_ENodeImpl@AdobeXMPCore_Int@@OKA@EAAPEAXI@Z 000000018008a420 f i ArrayNodeImpl.obj
 0001:0008942c       ?hasChanged@INode_I@AdobeXMPCore_Int@@$R2KA@BM@PPPPPPPM@DI@EBAKAEAPEBVIError_v1@AdobeXMPCommon@@@Z 000000018008a42c f i ArrayNodeImpl.obj
 0001:00089448       ?isThreadSafe@IThreadSafe_I@AdobeXMPCommon_Int@@$R4JA@BI@PPPPPPPM@BA@EBAKXZ 000000018008a448 f i ArrayNodeImpl.obj
 0001:00089464       ?EnableThreadSafety@ThreadSafeImpl@AdobeXMPCore_Int@@$2PPPPPPPM@A@EBAXXZ 000000018008a464 f i ArrayNodeImpl.obj
 0001:00089470       ?clear@INode_I@AdobeXMPCore_Int@@$2PPPPPPPM@A@EAAXKKAEAPEBVIError_v1@AdobeXMPCommon@@@Z 000000018008a470 f i ArrayNodeImpl.obj
 0001:0008947c       ?hasQualifiers@INode_I@AdobeXMPCore_Int@@$2PPPPPPPM@A@EBAKAEAPEBVIError_v1@AdobeXMPCommon@@@Z 000000018008a47c f i ArrayNodeImpl.obj
 0001:00089488       ?isQualifierNode@INode_I@AdobeXMPCore_Int@@$2PPPPPPPM@A@EBAKAEAPEBVIError_v1@AdobeXMPCommon@@@Z 000000018008a488 f i ArrayNodeImpl.obj
 0001:00089494       ?getParentNodeType@INode_I@AdobeXMPCore_Int@@$R2GA@CE@PPPPPPPM@DI@EBAKAEAPEBVIError_v1@AdobeXMPCommon@@@Z 000000018008a494 f i ArrayNodeImpl.obj
 0001:000894b0       ?GetPath@NodeImpl@AdobeXMPCore_Int@@$R4GA@DM@PPPPPPPM@KI@EBA?AV?$shared_ptr@VIPath_v1@AdobeXMPCore@@@std@@XZ 000000018008a4b0 f i ArrayNodeImpl.obj
 0001:000894cc       ?hasChanged@INode_I@AdobeXMPCore_Int@@$R2EA@CA@PPPPPPPM@DI@EBAKAEAPEBVIError_v1@AdobeXMPCommon@@@Z 000000018008a4cc f i ArrayNodeImpl.obj
 0001:000894e8       ?isThreadSafe@IThreadSafe_I@AdobeXMPCommon_Int@@$R4DA@BM@PPPPPPPM@BA@EBAKXZ 000000018008a4e8 f i ArrayNodeImpl.obj
 0001:00089504       ?removeQualifier@INode_I@AdobeXMPCore_Int@@$R2KA@BM@PPPPPPPM@DI@EAAPEAVINode_v1@AdobeXMPCore@@PEBD_K01AEAPEBVIError_v1@AdobeXMPCommon@@@Z 000000018008a504 f i ArrayNodeImpl.obj
 0001:00089520       ?HasChanged@NodeImpl@AdobeXMPCore_Int@@$4PPPPPPPM@A@EBA_NXZ 000000018008a520 f i ArrayNodeImpl.obj
 0001:0008952c       ?GetISharedObject_I@ISharedObject_I@AdobeXMPCommon_Int@@$R4HA@BE@PPPPPPPM@BA@EAAPEAV12@XZ 000000018008a52c f i ArrayNodeImpl.obj
 0001:00089548       ??_EINodeIterator_I@AdobeXMPCore_Int@@$2PPPPPPPM@BA@EAAPEAXI@Z 000000018008a548 f i ArrayNodeImpl.obj
 0001:00089558       ?GetInterfacePointer@INodeIterator_I@AdobeXMPCore_Int@@$4PPPPPPPM@A@EAAPEAX_KK@Z 000000018008a558 f i ArrayNodeImpl.obj
 0001:00089564       ?insertNodeAtPath@ICompositeNode_I@AdobeXMPCore_Int@@$R2FA@CI@PPPPPPPM@EI@EAAXPEAVINode_v1@AdobeXMPCore@@PEBVIPath_v1@4@AEAPEBVIError_v1@AdobeXMPCommon@@@Z 000000018008a564 f i ArrayNodeImpl.obj
 0001:00089580       ?convertToMetadata@INode_I@AdobeXMPCore_Int@@$R2DA@CA@PPPPPPPM@DI@EAAPEAVIMetadata_v1@AdobeXMPCore@@AEAPEBVIError_v1@AdobeXMPCommon@@@Z 000000018008a580 f i ArrayNodeImpl.obj
 0001:0008959c       ?insertQualifier@INode_I@AdobeXMPCore_Int@@$R2DA@CA@PPPPPPPM@DI@EAAXPEAVINode_v1@AdobeXMPCore@@AEAPEBVIError_v1@AdobeXMPCommon@@@Z 000000018008a59c f i ArrayNodeImpl.obj
 0001:000895b8       ?getParent@INode_I@AdobeXMPCore_Int@@$R2DA@CA@PPPPPPPM@DI@EAAPEAVINode_v1@AdobeXMPCore@@AEAPEBVIError_v1@AdobeXMPCommon@@@Z 000000018008a5b8 f i ArrayNodeImpl.obj
 0001:000895d4       ?GetInterfacePointer@INodeIterator_I@AdobeXMPCore_Int@@$R4DA@BE@PPPPPPPM@BI@EAAPEAX_KK@Z 000000018008a5d4 f i ArrayNodeImpl.obj
 0001:000895f0       ?GetActualICompositeNode@ICompositeNode_I@AdobeXMPCore_Int@@$R4HI@CI@PPPPPPPM@EI@EAAPEAVICompositeNode_v1@AdobeXMPCore@@XZ 000000018008a5f0 f i ArrayNodeImpl.obj
 0001:0008960c       ?setName@INode_I@AdobeXMPCore_Int@@$R2GA@CE@PPPPPPPM@DI@EAAXPEBD_KAEAPEBVIError_v1@AdobeXMPCommon@@@Z 000000018008a60c f i ArrayNodeImpl.obj
 0001:00089628       ?Clone@NodeImpl@AdobeXMPCore_Int@@$R4GA@DM@PPPPPPPM@KI@EBA?AV?$shared_ptr@VINode_v1@AdobeXMPCore@@@std@@_N0@Z 000000018008a628 f i ArrayNodeImpl.obj
 0001:00089644       ?GetInterfacePointer@IArrayNode_I@AdobeXMPCore_Int@@$R4EA@CM@PPPPPPPM@CA@EAAPEAX_KK@Z 000000018008a644 f i ArrayNodeImpl.obj
 0001:00089660       ?removeNodeAtPath@ICompositeNode_I@AdobeXMPCore_Int@@$R2FI@CE@PPPPPPPM@EI@EAAPEAVINode_v1@AdobeXMPCore@@PEBVIPath_v1@4@AEAPEBVIError_v1@AdobeXMPCommon@@@Z 000000018008a660 f i ArrayNodeImpl.obj
 0001:0008967c       ?removeQualifier@INode_I@AdobeXMPCore_Int@@$R2EA@CA@PPPPPPPM@DI@EAAPEAVINode_v1@AdobeXMPCore@@PEBD_K01AEAPEBVIError_v1@AdobeXMPCommon@@@Z 000000018008a67c f i ArrayNodeImpl.obj
 0001:00089698       ?IsArrayItem@NodeImpl@AdobeXMPCore_Int@@$R4EA@DE@PPPPPPPM@KI@EBA_NXZ 000000018008a698 f i ArrayNodeImpl.obj
 0001:000896b4       ?GetISharedObject_I@ISharedObject_I@AdobeXMPCommon_Int@@$R4BA@BI@PPPPPPPM@BA@EAAPEAV12@XZ 000000018008a6b4 f i ArrayNodeImpl.obj
 0001:000896cc       ?convertToSimpleNode@INode_I@AdobeXMPCore_Int@@$R2KA@BM@PPPPPPPM@DI@EAAPEAVISimpleNode_v1@AdobeXMPCore@@AEAPEBVIError_v1@AdobeXMPCommon@@@Z 000000018008a6cc f i ArrayNodeImpl.obj
 0001:000896e8       ?getIndex@INode_I@AdobeXMPCore_Int@@$R2KA@BM@PPPPPPPM@DI@EBA_KAEAPEBVIError_v1@AdobeXMPCommon@@@Z 000000018008a6e8 f i ArrayNodeImpl.obj
 0001:00089704       ?IsThreadSafe@ThreadSafeImpl@AdobeXMPCore_Int@@$R2JA@CI@PPPPPPPM@CI@EBA_NXZ 000000018008a704 f i ArrayNodeImpl.obj
 0001:00089720       ?DisableThreadSafety@ThreadSafeImpl@AdobeXMPCore_Int@@$2PPPPPPPM@A@EBAXXZ 000000018008a720 f i ArrayNodeImpl.obj
 0001:0008972c       ?GetISharedObject_I@ISharedObject_I@AdobeXMPCommon_Int@@$R4CA@7PPPPPPPM@BA@EAAPEAV12@XZ 000000018008a72c f i ArrayNodeImpl.obj
 0001:0008972c       ?GetIThreadSafe_I@IThreadSafe_I@AdobeXMPCommon_Int@@$R4CA@7PPPPPPPM@BA@EAAPEAV12@XZ 000000018008a72c f i ArrayNodeImpl.obj
 0001:00089748       ?isEmpty@INode_I@AdobeXMPCore_Int@@$R2DI@CE@PPPPPPPM@DI@EBAKAEAPEBVIError_v1@AdobeXMPCommon@@@Z 000000018008a748 f i ArrayNodeImpl.obj
 0001:00089760       ?hasContent@INode_I@AdobeXMPCore_Int@@$R2DI@CE@PPPPPPPM@DI@EBAKAEAPEBVIError_v1@AdobeXMPCommon@@@Z 000000018008a760 f i ArrayNodeImpl.obj
 0001:00089778       ?hasChanged@INode_I@AdobeXMPCore_Int@@$2PPPPPPPM@A@EBAKAEAPEBVIError_v1@AdobeXMPCommon@@@Z 000000018008a778 f i ArrayNodeImpl.obj
 0001:00089784       ?ReplaceNodeAtPath@CompositeNodeImpl@AdobeXMPCore_Int@@$R4HI@EA@PPPPPPPM@GA@EAA?AV?$shared_ptr@VINode_v1@AdobeXMPCore@@@std@@AEBV34@AEBV?$shared_ptr@$$CBVIPath_v1@AdobeXMPCore@@@4@@Z 000000018008a784 f i ArrayNodeImpl.obj
 0001:000897a0       ?getName@INode_I@AdobeXMPCore_Int@@$R2GA@CE@PPPPPPPM@DI@EBAPEBVIUTF8String_v1@AdobeXMPCommon@@AEAPEBVIError_v1@4@@Z 000000018008a7a0 f i ArrayNodeImpl.obj
 0001:000897bc       ?ReplaceQualifier@NodeImpl@AdobeXMPCore_Int@@$R4GA@DM@PPPPPPPM@KI@EAA?AV?$shared_ptr@VINode_v1@AdobeXMPCore@@@std@@AEBV34@@Z 000000018008a7bc f i ArrayNodeImpl.obj
 0001:000897d8       ?QualifiersCount@NodeImpl@AdobeXMPCore_Int@@$R4GA@DM@PPPPPPPM@KI@EBA_KXZ 000000018008a7d8 f i ArrayNodeImpl.obj
 0001:000897f4       ??_EArrayNodeImpl@AdobeXMPCore_Int@@$2PPPPPPPM@A@EAAPEAXI@Z 000000018008a7f4 f i ArrayNodeImpl.obj
 0001:00089800       ?GetNodeTypeAtPath@CompositeNodeImpl@AdobeXMPCore_Int@@$4PPPPPPPM@A@EBA?AW4eNodeType@INode_v1@AdobeXMPCore@@AEBV?$shared_ptr@$$CBVIPath_v1@AdobeXMPCore@@@std@@@Z 000000018008a800 f i ArrayNodeImpl.obj
 0001:0008980c       ?convertToSimpleNode@INode_I@AdobeXMPCore_Int@@$R2EA@CA@PPPPPPPM@DI@EAAPEAVISimpleNode_v1@AdobeXMPCore@@AEAPEBVIError_v1@AdobeXMPCommon@@@Z 000000018008a80c f i ArrayNodeImpl.obj
 0001:00089828       ?getIndex@INode_I@AdobeXMPCore_Int@@$R2EA@CA@PPPPPPPM@DI@EBA_KAEAPEBVIError_v1@AdobeXMPCommon@@@Z 000000018008a828 f i ArrayNodeImpl.obj
 0001:00089844       ?GetParent@NodeImpl@AdobeXMPCore_Int@@$4PPPPPPPM@A@EAA?AV?$shared_ptr@VINode_v1@AdobeXMPCore@@@std@@XZ 000000018008a844 f i ArrayNodeImpl.obj
 0001:00089850       ?AcquireInternal@SharedObjectImpl@AdobeXMPCore_Int@@$4PPPPPPPM@A@EBAXXZ 000000018008a850 f i ArrayNodeImpl.obj
 0001:0008985c       ?GetActualIPath@IPath_I@AdobeXMPCore_Int@@$4PPPPPPPM@A@EAAPEAVIPath_v1@AdobeXMPCore@@XZ 000000018008a85c f i PathImpl.obj
 0001:0008985c       ?GetActualINodeIterator@INodeIterator_I@AdobeXMPCore_Int@@$4PPPPPPPM@A@EAAPEAVINodeIterator_v1@AdobeXMPCore@@XZ 000000018008a85c f i ArrayNodeImpl.obj
 0001:00089868       ?getNodeType@INode_I@AdobeXMPCore_Int@@$R2DI@CE@PPPPPPPM@DI@EBAKAEAPEBVIError_v1@AdobeXMPCommon@@@Z 000000018008a868 f i ArrayNodeImpl.obj
 0001:00089880       ?GetINode_I@INode_I@AdobeXMPCore_Int@@$R4DI@CE@PPPPPPPM@DI@EAAPEAV12@XZ 000000018008a880 f i ArrayNodeImpl.obj
 0001:00089898       ?removeQualifier@INode_I@AdobeXMPCore_Int@@$2PPPPPPPM@A@EAAPEAVINode_v1@AdobeXMPCore@@PEBD_K01AEAPEBVIError_v1@AdobeXMPCommon@@@Z 000000018008a898 f i ArrayNodeImpl.obj
 0001:000898a4       ?getNodeTypeAtPath@ICompositeNode_I@AdobeXMPCore_Int@@$R2HI@CI@PPPPPPPM@EI@EBAKPEBVIPath_v1@AdobeXMPCore@@AEAPEBVIError_v1@AdobeXMPCommon@@@Z 000000018008a8a4 f i ArrayNodeImpl.obj
 0001:000898c0       ?clear@INode_I@AdobeXMPCore_Int@@$R2GA@CE@PPPPPPPM@DI@EAAXKKAEAPEBVIError_v1@AdobeXMPCommon@@@Z 000000018008a8c0 f i ArrayNodeImpl.obj
 0001:000898dc       ?hasQualifiers@INode_I@AdobeXMPCore_Int@@$R2GA@CE@PPPPPPPM@DI@EBAKAEAPEBVIError_v1@AdobeXMPCommon@@@Z 000000018008a8dc f i ArrayNodeImpl.obj
 0001:000898f8       ?isQualifierNode@INode_I@AdobeXMPCore_Int@@$R2GA@CE@PPPPPPPM@DI@EBAKAEAPEBVIError_v1@AdobeXMPCommon@@@Z 000000018008a8f8 f i ArrayNodeImpl.obj
 0001:00089914       ?InsertQualifier@NodeImpl@AdobeXMPCore_Int@@$R4GA@DM@PPPPPPPM@KI@EAAXAEBV?$shared_ptr@VINode_v1@AdobeXMPCore@@@std@@@Z 000000018008a914 f i ArrayNodeImpl.obj
 0001:00089930       ?Release@NodeImpl@AdobeXMPCore_Int@@$R4DA@DM@PPPPPPPM@HI@EBAXXZ 000000018008a930 f i ArrayNodeImpl.obj
 0001:0008994c       ?SetIsQualifierNode@NodeImpl@AdobeXMPCore_Int@@$R4KA@DE@PPPPPPPM@PA@EAAX_N@Z 000000018008a94c f i ArrayNodeImpl.obj
 0001:00089968       ?GetQualifier@NodeImpl@AdobeXMPCore_Int@@$R4KA@DE@PPPPPPPM@PA@EAA?AV?$shared_ptr@VINode_v1@AdobeXMPCore@@@std@@AEBV?$shared_ptr@$$CBVIUTF8String_v1@AdobeXMPCommon@@@4@0@Z 000000018008a968 f i ArrayNodeImpl.obj
 0001:00089984       ?GetICompositeNode_I@ICompositeNode_I@AdobeXMPCore_Int@@$R4FA@CI@PPPPPPPM@EI@EAAPEAV12@XZ 000000018008a984 f i ArrayNodeImpl.obj
 0001:000899a0       ?convertToArrayNode@INode_I@AdobeXMPCore_Int@@$R2DA@CA@PPPPPPPM@DI@EAAPEAVIArrayNode_v1@AdobeXMPCore@@AEAPEBVIError_v1@AdobeXMPCommon@@@Z 000000018008a9a0 f i ArrayNodeImpl.obj
 0001:000899bc       ??_EICompositeNode_I@AdobeXMPCore_Int@@$2PPPPPPPM@BA@EAAPEAXI@Z 000000018008a9bc f i ArrayNodeImpl.obj
 0001:000899cc       ?GetISharedObject_I@ISharedObject_I@AdobeXMPCommon_Int@@WPPPPPPKA@EAAPEAV12@XZ 000000018008a9cc f i ArrayNodeImpl.obj
 0001:000899d8       ?convertToSimpleNode@INode_I@AdobeXMPCore_Int@@$2PPPPPPPM@A@EAAPEAVISimpleNode_v1@AdobeXMPCore@@AEAPEBVIError_v1@AdobeXMPCommon@@@Z 000000018008a9d8 f i ArrayNodeImpl.obj
 0001:000899e4       ?getIndex@INode_I@AdobeXMPCore_Int@@$2PPPPPPPM@A@EBA_KAEAPEBVIError_v1@AdobeXMPCommon@@@Z 000000018008a9e4 f i ArrayNodeImpl.obj
 0001:000899f0       ?GetActualINodeIterator@INodeIterator_I@AdobeXMPCore_Int@@$R4EA@BE@PPPPPPPM@CI@EAAPEAVINodeIterator_v1@AdobeXMPCore@@XZ 000000018008a9f0 f i ArrayNodeImpl.obj
 0001:00089a0c       ?Next@?$TNodeIteratorImpl@V?$_Vector_iterator@V?$_Vector_val@U?$_Simple_types@V?$shared_ptr@VINode_v1@AdobeXMPCore@@@std@@@std@@@std@@@std@@@AdobeXMPCore_Int@@$4PPPPPPPM@A@EAA?AV?$shared_ptr@VINodeIterator_v1@AdobeXMPCore@@@std@@XZ 000000018008aa0c f i ArrayNodeImpl.obj
 0001:00089a18       ?Release@SharedObjectImpl@AdobeXMPCore_Int@@$R4CA@BI@PPPPPPPM@CA@EBAXXZ 000000018008aa18 f i ArrayNodeImpl.obj
 0001:00089a30       ?UnShareMutex@ThreadSafeImpl@AdobeXMPCore_Int@@$R2II@DA@PPPPPPPM@DI@EAAXXZ 000000018008aa30 f i ArrayNodeImpl.obj
 0001:00089a4c       ?insertNodeAtPath@ICompositeNode_I@AdobeXMPCore_Int@@$R2FI@CE@PPPPPPPM@EI@EAAXPEAVINode_v1@AdobeXMPCore@@PEBVIPath_v1@4@AEAPEBVIError_v1@AdobeXMPCommon@@@Z 000000018008aa4c f i ArrayNodeImpl.obj
 0001:00089a68       ?InsertNodeAtPath@CompositeNodeImpl@AdobeXMPCore_Int@@$4PPPPPPPM@A@EAAXAEBV?$shared_ptr@VINode_v1@AdobeXMPCore@@@std@@AEBV?$shared_ptr@$$CBVIPath_v1@AdobeXMPCore@@@4@@Z 000000018008aa68 f i ArrayNodeImpl.obj
 0001:00089a74       ?RemoveQualifier@NodeImpl@AdobeXMPCore_Int@@$4PPPPPPPM@A@EAA?AV?$shared_ptr@VINode_v1@AdobeXMPCore@@@std@@AEBV?$shared_ptr@$$CBVIUTF8String_v1@AdobeXMPCommon@@@4@0@Z 000000018008aa74 f i ArrayNodeImpl.obj
 0001:00089a80       ?isEmpty@INode_I@AdobeXMPCore_Int@@$R2KA@BM@PPPPPPPM@DI@EBAKAEAPEBVIError_v1@AdobeXMPCommon@@@Z 000000018008aa80 f i ArrayNodeImpl.obj
 0001:00089a9c       ?hasContent@INode_I@AdobeXMPCore_Int@@$R2KA@BM@PPPPPPPM@DI@EBAKAEAPEBVIError_v1@AdobeXMPCommon@@@Z 000000018008aa9c f i ArrayNodeImpl.obj
 0001:00089ab8       ?RemoveQualifier@NodeImpl@AdobeXMPCore_Int@@$4PPPPPPPM@A@EAA?AV?$shared_ptr@VINode_v1@AdobeXMPCore@@@std@@PEBD_K01@Z 000000018008aab8 f i ArrayNodeImpl.obj
 0001:00089ac4       ?GetIPath_I@IPath_I@AdobeXMPCore_Int@@$4PPPPPPPM@A@EAAPEAV12@XZ 000000018008aac4 f i PathImpl.obj
 0001:00089ac4       ?GetINodeIterator_I@INodeIterator_I@AdobeXMPCore_Int@@$4PPPPPPPM@A@EAAPEAV12@XZ 000000018008aac4 f i ArrayNodeImpl.obj
 0001:00089ad0       ?appendNode@ICompositeNode_I@AdobeXMPCore_Int@@$R2FA@CI@PPPPPPPM@EI@EAAXPEAVINode_v1@AdobeXMPCore@@AEAPEBVIError_v1@AdobeXMPCommon@@@Z 000000018008aad0 f i ArrayNodeImpl.obj
 0001:00089aec       ?getQualifier@INode_I@AdobeXMPCore_Int@@$R2DI@CE@PPPPPPPM@DI@EAAPEAVINode_v1@AdobeXMPCore@@PEBD_K01AEAPEBVIError_v1@AdobeXMPCommon@@@Z 000000018008aaec f i ArrayNodeImpl.obj
 0001:00089b04       ?GetIThreadSafe_I@IThreadSafe_I@AdobeXMPCommon_Int@@WPPPPPPJA@EAAPEAV12@XZ 000000018008ab04 f i ArrayNodeImpl.obj
 0001:00089b10       ?SetIsQualifierNode@NodeImpl@AdobeXMPCore_Int@@$R4NI@DM@PPPPPPPM@PA@EAAX_N@Z 000000018008ab10 f i ArrayNodeImpl.obj
 0001:00089b2c       ?GetQualifier@NodeImpl@AdobeXMPCore_Int@@$R4NI@DM@PPPPPPPM@PA@EAA?AV?$shared_ptr@VINode_v1@AdobeXMPCore@@@std@@AEBV?$shared_ptr@$$CBVIUTF8String_v1@AdobeXMPCommon@@@4@0@Z 000000018008ab2c f i ArrayNodeImpl.obj
 0001:00089b48       ?GetNodeTypeAtPath@CompositeNodeImpl@AdobeXMPCore_Int@@$R4HI@EA@PPPPPPPM@GA@EBA?AW4eNodeType@INode_v1@AdobeXMPCore@@AEBV?$shared_ptr@$$CBVIPath_v1@AdobeXMPCore@@@std@@@Z 000000018008ab48 f i ArrayNodeImpl.obj
 0001:00089b64       ?hasChanged@INode_I@AdobeXMPCore_Int@@$R2GA@CE@PPPPPPPM@DI@EBAKAEAPEBVIError_v1@AdobeXMPCommon@@@Z 000000018008ab64 f i ArrayNodeImpl.obj
 0001:00089b80       ?Clear@NodeImpl@AdobeXMPCore_Int@@$R4GA@DM@PPPPPPPM@KI@EAAX_N0@Z 000000018008ab80 f i ArrayNodeImpl.obj
 0001:00089b9c       ?IsEmpty@NodeImpl@AdobeXMPCore_Int@@$R4GA@DM@PPPPPPPM@KI@EBA_NXZ 000000018008ab9c f i ArrayNodeImpl.obj
 0001:00089bb8       ?isThreadSafe@IThreadSafe_I@AdobeXMPCommon_Int@@$R4FA@CA@PPPPPPPM@BA@EBAKXZ 000000018008abb8 f i ArrayNodeImpl.obj
 0001:00089bd4       ?isEmpty@INode_I@AdobeXMPCore_Int@@$R2EA@CA@PPPPPPPM@DI@EBAKAEAPEBVIError_v1@AdobeXMPCommon@@@Z 000000018008abd4 f i ArrayNodeImpl.obj
 0001:00089bf0       ?hasContent@INode_I@AdobeXMPCore_Int@@$R2EA@CA@PPPPPPPM@DI@EBAKAEAPEBVIError_v1@AdobeXMPCommon@@@Z 000000018008abf0 f i ArrayNodeImpl.obj
 0001:00089c0c       ?getNodeType@INode_I@AdobeXMPCore_Int@@$R2KA@BM@PPPPPPPM@DI@EBAKAEAPEBVIError_v1@AdobeXMPCommon@@@Z 000000018008ac0c f i ArrayNodeImpl.obj
 0001:00089c28       ?GetINode_I@INode_I@AdobeXMPCore_Int@@$R4KA@BM@PPPPPPPM@DI@EAAPEAV12@XZ 000000018008ac28 f i ArrayNodeImpl.obj
 0001:00089c44       ?AcknowledgeChanges@NodeImpl@AdobeXMPCore_Int@@$4PPPPPPPM@A@EBAXXZ 000000018008ac44 f i ArrayNodeImpl.obj
 0001:00089c50       ?getNodeAtPath@ICompositeNode_I@AdobeXMPCore_Int@@$R2FA@CI@PPPPPPPM@EI@EAAPEAVINode_v1@AdobeXMPCore@@PEBVIPath_v1@4@AEAPEBVIError_v1@AdobeXMPCommon@@@Z 000000018008ac50 f i ArrayNodeImpl.obj
 0001:00089c6c       ?getNameSpace@INode_I@AdobeXMPCore_Int@@$R2DI@CE@PPPPPPPM@DI@EBAPEBVIUTF8String_v1@AdobeXMPCommon@@AEAPEBVIError_v1@4@@Z 000000018008ac6c f i ArrayNodeImpl.obj
 0001:00089c84       ?isThreadSafe@IThreadSafe_I@AdobeXMPCommon_Int@@WPPPPPPKI@EBAKXZ 000000018008ac84 f i ArrayNodeImpl.obj
 0001:00089c90       ?GetINodeIterator_I@INodeIterator_I@AdobeXMPCore_Int@@$R4EA@BE@PPPPPPPM@CI@EAAPEAV12@XZ 000000018008ac90 f i ArrayNodeImpl.obj
 0001:00089cac       ?UnShareMutex@ThreadSafeImpl@AdobeXMPCore_Int@@$R2MA@DI@PPPPPPPM@DI@EAAXXZ 000000018008acac f i ArrayNodeImpl.obj
 0001:00089ccc       ?removeNodeAtPath@ICompositeNode_I@AdobeXMPCore_Int@@$R2HI@CI@PPPPPPPM@EI@EAAPEAVINode_v1@AdobeXMPCore@@PEBVIPath_v1@4@AEAPEBVIError_v1@AdobeXMPCommon@@@Z 000000018008accc f i ArrayNodeImpl.obj
 0001:00089ce8       ?removeQualifier@INode_I@AdobeXMPCore_Int@@$R2GA@CE@PPPPPPPM@DI@EAAPEAVINode_v1@AdobeXMPCore@@PEBD_K01AEAPEBVIError_v1@AdobeXMPCommon@@@Z 000000018008ace8 f i ArrayNodeImpl.obj
 0001:00089d04       ?GetQualifierNodeType@NodeImpl@AdobeXMPCore_Int@@$R4GA@DM@PPPPPPPM@KI@EBA?AW4eNodeType@INode_v1@AdobeXMPCore@@PEBD_K01@Z 000000018008ad04 f i ArrayNodeImpl.obj
 0001:00089d20       ?AcquireInternal@NodeImpl@AdobeXMPCore_Int@@$R4HA@DE@PPPPPPPM@MA@EBAXXZ 000000018008ad20 f i ArrayNodeImpl.obj
 0001:00089d3c       ?getNodeType@INode_I@AdobeXMPCore_Int@@$R2EA@CA@PPPPPPPM@DI@EBAKAEAPEBVIError_v1@AdobeXMPCommon@@@Z 000000018008ad3c f i ArrayNodeImpl.obj
 0001:00089d58       ?GetINode_I@INode_I@AdobeXMPCore_Int@@$R4EA@CA@PPPPPPPM@DI@EAAPEAV12@XZ 000000018008ad58 f i ArrayNodeImpl.obj
 0001:00089d74       ?IsThreadSafe@ThreadSafeImpl@AdobeXMPCore_Int@@$R2DA@DA@PPPPPPPM@CI@EBA_NXZ 000000018008ad74 f i ArrayNodeImpl.obj
 0001:00089d90       ?UnRegisterChange@NodeImpl@AdobeXMPCore_Int@@$4PPPPPPPM@A@EAAXXZ 000000018008ad90 f i ArrayNodeImpl.obj
 0001:00089d9c       ?UnShareMutex@ThreadSafeImpl@AdobeXMPCore_Int@@$R2NA@CI@PPPPPPPM@DI@EAAXXZ 000000018008ad9c f i ArrayNodeImpl.obj
 0001:00089dbc       ?GetIndex@NodeImpl@AdobeXMPCore_Int@@$4PPPPPPPM@A@EBA_KXZ 000000018008adbc f i ArrayNodeImpl.obj
 0001:00089dc8       ?GetParentNodeType@NodeImpl@AdobeXMPCore_Int@@$4PPPPPPPM@A@EBA?AW4eNodeType@INode_v1@AdobeXMPCore@@XZ 000000018008adc8 f i ArrayNodeImpl.obj
 0001:00089dd4       ??_ESharedObjectImpl@AdobeXMPCore_Int@@$2PPPPPPPM@A@EAAPEAXI@Z 000000018008add4 f i ArrayNodeImpl.obj
 0001:00089de0       ?insertNodeAtIndex@IArrayNode_I@AdobeXMPCore_Int@@$2PPPPPPPM@A@EAAXPEAVINode_v1@AdobeXMPCore@@_KAEAPEBVIError_v1@AdobeXMPCommon@@@Z 000000018008ade0 f i ArrayNodeImpl.obj
 0001:00089dec       ?getQualifierNodeType@INode_I@AdobeXMPCore_Int@@$R2DI@CE@PPPPPPPM@DI@EBAKPEBD_K01AEAPEBVIError_v1@AdobeXMPCommon@@@Z 000000018008adec f i ArrayNodeImpl.obj
 0001:00089e04       ?setNameSpace@INode_I@AdobeXMPCore_Int@@$R2DI@CE@PPPPPPPM@DI@EAAXPEBD_KAEAPEBVIError_v1@AdobeXMPCommon@@@Z 000000018008ae04 f i ArrayNodeImpl.obj
 0001:00089e1c       ?getPath@INode_I@AdobeXMPCore_Int@@$R2DA@CA@PPPPPPPM@DI@EBAPEAVIPath_v1@AdobeXMPCore@@AEAPEBVIError_v1@AdobeXMPCommon@@@Z 000000018008ae1c f i ArrayNodeImpl.obj
 0001:00089e38       ?isEmpty@INode_I@AdobeXMPCore_Int@@$2PPPPPPPM@A@EBAKAEAPEBVIError_v1@AdobeXMPCommon@@@Z 000000018008ae38 f i ArrayNodeImpl.obj
 0001:00089e44       ?hasContent@INode_I@AdobeXMPCore_Int@@$2PPPPPPPM@A@EBAKAEAPEBVIError_v1@AdobeXMPCommon@@@Z 000000018008ae44 f i ArrayNodeImpl.obj
 0001:00089e50       ?resetChangesForChildren@ArrayNodeImpl@AdobeXMPCore_Int@@$2PPPPPPPM@A@EBAXXZ 000000018008ae50 f i ArrayNodeImpl.obj
 0001:00089e5c       ?InsertNodeAtPath@CompositeNodeImpl@AdobeXMPCore_Int@@$R4HI@EA@PPPPPPPM@GA@EAAXAEBV?$shared_ptr@VINode_v1@AdobeXMPCore@@@std@@AEBV?$shared_ptr@$$CBVIPath_v1@AdobeXMPCore@@@4@@Z 000000018008ae5c f i ArrayNodeImpl.obj
 0001:00089e78       ?convertToSimpleNode@INode_I@AdobeXMPCore_Int@@$R2GA@CE@PPPPPPPM@DI@EAAPEAVISimpleNode_v1@AdobeXMPCore@@AEAPEBVIError_v1@AdobeXMPCommon@@@Z 000000018008ae78 f i ArrayNodeImpl.obj
 0001:00089e94       ?getIndex@INode_I@AdobeXMPCore_Int@@$R2GA@CE@PPPPPPPM@DI@EBA_KAEAPEBVIError_v1@AdobeXMPCommon@@@Z 000000018008ae94 f i ArrayNodeImpl.obj
 0001:00089eb0       ?GetNameSpace@NodeImpl@AdobeXMPCore_Int@@$R4GA@DM@PPPPPPPM@KI@EBA?AV?$shared_ptr@$$CBVIUTF8String_v1@AdobeXMPCommon@@@std@@XZ 000000018008aeb0 f i ArrayNodeImpl.obj
 0001:00089ecc       ?GetICompositeNode_I@ICompositeNode_I@AdobeXMPCore_Int@@$R4FI@CE@PPPPPPPM@EI@EAAPEAV12@XZ 000000018008aecc f i ArrayNodeImpl.obj
 0001:00089ee8       ?HasChanged@NodeImpl@AdobeXMPCore_Int@@$R4EA@DE@PPPPPPPM@KI@EBA_NXZ 000000018008aee8 f i ArrayNodeImpl.obj
 0001:00089f04       ?getQualifier@INode_I@AdobeXMPCore_Int@@$R2KA@BM@PPPPPPPM@DI@EAAPEAVINode_v1@AdobeXMPCore@@PEBD_K01AEAPEBVIError_v1@AdobeXMPCommon@@@Z 000000018008af04 f i ArrayNodeImpl.obj
 0001:00089f20       ?Release@SharedObjectImpl@AdobeXMPCore_Int@@$4PPPPPPPM@A@EBAXXZ 000000018008af20 f i ArrayNodeImpl.obj
 0001:00089f2c       ?getNode@INodeIterator_I@AdobeXMPCore_Int@@$2PPPPPPPM@A@EAAPEAVINode_v1@AdobeXMPCore@@AEAPEBVIError_v1@AdobeXMPCommon@@@Z 000000018008af2c f i ArrayNodeImpl.obj
 0001:00089f38       ?replaceNodeAtIndex@IArrayNode_I@AdobeXMPCore_Int@@$2PPPPPPPM@A@EAAPEAVINode_v1@AdobeXMPCore@@PEAV34@_KAEAPEBVIError_v1@AdobeXMPCommon@@@Z 000000018008af38 f i ArrayNodeImpl.obj
 0001:00089f44       ?GetActualIArrayNode@IArrayNode_I@AdobeXMPCore_Int@@$4PPPPPPPM@A@EAAPEAVIArrayNode_v1@AdobeXMPCore@@XZ 000000018008af44 f i ArrayNodeImpl.obj
 0001:00089f50       ?GetActualINode@INode_I@AdobeXMPCore_Int@@$R4DI@CE@PPPPPPPM@DI@EAAPEAVINode_v1@AdobeXMPCore@@XZ 000000018008af50 f i ArrayNodeImpl.obj
 0001:00089f68       ?GetInterfacePointer@ICompositeNode_I@AdobeXMPCore_Int@@$4PPPPPPPM@A@EAAPEAX_KK@Z 000000018008af68 f i ArrayNodeImpl.obj
 0001:00089f74       ?getNodeType@INode_I@AdobeXMPCore_Int@@$2PPPPPPPM@A@EBAKAEAPEBVIError_v1@AdobeXMPCommon@@@Z 000000018008af74 f i ArrayNodeImpl.obj
 0001:00089f80       ?GetIDOMImplementationRegistry_I@IDOMImplementationRegistry_I@AdobeXMPCore_Int@@$4PPPPPPPM@A@EAAPEAV12@XZ 000000018008af80 f i DOMImplementationRegistryImpl.obj
 0001:00089f80       ?GetINode_I@INode_I@AdobeXMPCore_Int@@$4PPPPPPPM@A@EAAPEAV12@XZ 000000018008af80 f i ArrayNodeImpl.obj
 0001:00089f80       ?GetINameSpacePrefixMap_I@INameSpacePrefixMap_I@AdobeXMPCore_Int@@$4PPPPPPPM@A@EAAPEAV12@XZ 000000018008af80 f i NameSpacePrefixMapImpl.obj
 0001:00089f8c       ?AcquireInternal@NodeImpl@AdobeXMPCore_Int@@$R4KI@DM@PPPPPPPM@MA@EBAXXZ 000000018008af8c f i ArrayNodeImpl.obj
 0001:00089fa8       ?HasQualifiers@NodeImpl@AdobeXMPCore_Int@@$R4GA@DM@PPPPPPPM@KI@EBA_NXZ 000000018008afa8 f i ArrayNodeImpl.obj
 0001:00089fc4       ?RegisterChange@NodeImpl@AdobeXMPCore_Int@@$R4KA@DE@PPPPPPPM@PA@EAAXXZ 000000018008afc4 f i ArrayNodeImpl.obj
 0001:00089fe0       ?appendNode@ICompositeNode_I@AdobeXMPCore_Int@@$R2FI@CE@PPPPPPPM@EI@EAAXPEAVINode_v1@AdobeXMPCore@@AEAPEBVIError_v1@AdobeXMPCommon@@@Z 000000018008afe0 f i ArrayNodeImpl.obj
 0001:00089ffc       ?getQualifier@INode_I@AdobeXMPCore_Int@@$R2EA@CA@PPPPPPPM@DI@EAAPEAVINode_v1@AdobeXMPCore@@PEBD_K01AEAPEBVIError_v1@AdobeXMPCommon@@@Z 000000018008affc f i ArrayNodeImpl.obj
 0001:0008a018       ?GetInterfacePointer@ICompositeNode_I@AdobeXMPCore_Int@@$R4CA@CE@PPPPPPPM@BI@EAAPEAX_KK@Z 000000018008b018 f i ArrayNodeImpl.obj
 0001:0008a034       ?getNameSpace@INode_I@AdobeXMPCore_Int@@$R2KA@BM@PPPPPPPM@DI@EBAPEBVIUTF8String_v1@AdobeXMPCommon@@AEAPEBVIError_v1@4@@Z 000000018008b034 f i ArrayNodeImpl.obj
 0001:0008a050       ?SetNameSpace@NodeImpl@AdobeXMPCore_Int@@$4PPPPPPPM@A@EAAXPEBD_K@Z 000000018008b050 f i ArrayNodeImpl.obj
 0001:0008a05c       ?EnableThreadSafety@ThreadSafeImpl@AdobeXMPCore_Int@@$R2JA@CI@PPPPPPPM@CI@EBAXXZ 000000018008b05c f i ArrayNodeImpl.obj
 0001:0008a078       ?getInterfacePointer@INodeIterator_I@AdobeXMPCore_Int@@$2PPPPPPPM@A@EAAPEAX_KKAEAPEBVIError_v1@AdobeXMPCommon@@@Z 000000018008b078 f i ArrayNodeImpl.obj
 0001:0008a084       ?removeNodeAtIndex@IArrayNode_I@AdobeXMPCore_Int@@$2PPPPPPPM@A@EAAPEAVINode_v1@AdobeXMPCore@@_KAEAPEBVIError_v1@AdobeXMPCommon@@@Z 000000018008b084 f i ArrayNodeImpl.obj
 0001:0008a090       ?replaceQualifier@INode_I@AdobeXMPCore_Int@@$R2DI@CE@PPPPPPPM@DI@EAAPEAVINode_v1@AdobeXMPCore@@PEAV34@AEAPEBVIError_v1@AdobeXMPCommon@@@Z 000000018008b090 f i ArrayNodeImpl.obj
 0001:0008a0a8       ?GetISharedObject_I@IArrayNode_I@AdobeXMPCore_Int@@$4PPPPPPPM@A@EAAPEAVISharedObject_I@AdobeXMPCommon_Int@@XZ 000000018008b0a8 f i ArrayNodeImpl.obj
 0001:0008a0b4       ?clone@INode_I@AdobeXMPCore_Int@@$R2DA@CA@PPPPPPPM@DI@EBAPEAVINode_v1@AdobeXMPCore@@KKAEAPEBVIError_v1@AdobeXMPCommon@@@Z 000000018008b0b4 f i ArrayNodeImpl.obj
 0001:0008a0d0       ?qualifiersIterator@INode_I@AdobeXMPCore_Int@@$R2DA@CA@PPPPPPPM@DI@EAAPEAVINodeIterator_v1@AdobeXMPCore@@AEAPEBVIError_v1@AdobeXMPCommon@@@Z 000000018008b0d0 f i ArrayNodeImpl.obj
 0001:0008a0ec       ?AcquireInternal@SharedObjectImpl@AdobeXMPCore_Int@@$R4FI@BI@PPPPPPPM@DA@EBAXXZ 000000018008b0ec f i ArrayNodeImpl.obj
 0001:0008a108       ?getNode@INodeIterator_I@AdobeXMPCore_Int@@$R2EA@BE@PPPPPPPM@CI@EAAPEAVINode_v1@AdobeXMPCore@@AEAPEBVIError_v1@AdobeXMPCommon@@@Z 000000018008b108 f i ArrayNodeImpl.obj
 0001:0008a124       ?getInterfacePointer@INodeIterator_I@AdobeXMPCore_Int@@$R2DA@BE@PPPPPPPM@BI@EAAPEAX_KKAEAPEBVIError_v1@AdobeXMPCommon@@@Z 000000018008b124 f i ArrayNodeImpl.obj
 0001:0008a140       ??_E?$TNodeIteratorImpl@V?$_Vector_iterator@V?$_Vector_val@U?$_Simple_types@V?$shared_ptr@VINode_v1@AdobeXMPCore@@@std@@@std@@@std@@@std@@@AdobeXMPCore_Int@@$2PPPPPPPM@BA@EAAPEAXI@Z 000000018008b140 f i ArrayNodeImpl.obj
 0001:0008a150       ?GetISharedObject_I@ISharedObject_I@AdobeXMPCommon_Int@@$R4CA@BA@PPPPPPPM@BA@EAAPEAV12@XZ 000000018008b150 f i ArrayNodeImpl.obj
 0001:0008a16c       ?getArrayForm@IArrayNode_I@AdobeXMPCore_Int@@$R2JA@CM@PPPPPPPM@GI@EBAKAEAPEBVIError_v1@AdobeXMPCommon@@@Z 000000018008b16c f i ArrayNodeImpl.obj
 0001:0008a188       ?insertNodeAtPath@ICompositeNode_I@AdobeXMPCore_Int@@$R2HI@CI@PPPPPPPM@EI@EAAXPEAVINode_v1@AdobeXMPCore@@PEBVIPath_v1@4@AEAPEBVIError_v1@AdobeXMPCommon@@@Z 000000018008b188 f i ArrayNodeImpl.obj
 0001:0008a1a4       ?getInterfacePointer@IArrayNode_I@AdobeXMPCore_Int@@$R2EA@CM@PPPPPPPM@CA@EAAPEAX_KKAEAPEBVIError_v1@AdobeXMPCommon@@@Z 000000018008b1a4 f i ArrayNodeImpl.obj
 0001:0008a1c0       ?getNodeAtPath@ICompositeNode_I@AdobeXMPCore_Int@@$R2FI@CE@PPPPPPPM@EI@EAAPEAVINode_v1@AdobeXMPCore@@PEBVIPath_v1@4@AEAPEBVIError_v1@AdobeXMPCommon@@@Z 000000018008b1c0 f i ArrayNodeImpl.obj
 0001:0008a1dc       ?getNameSpace@INode_I@AdobeXMPCore_Int@@$R2EA@CA@PPPPPPPM@DI@EBAPEBVIUTF8String_v1@AdobeXMPCommon@@AEAPEBVIError_v1@4@@Z 000000018008b1dc f i ArrayNodeImpl.obj
 0001:0008a1f8       ?GetParent@NodeImpl@AdobeXMPCore_Int@@$R4EA@DE@PPPPPPPM@KI@EAA?AV?$shared_ptr@VINode_v1@AdobeXMPCore@@@std@@XZ 000000018008b1f8 f i ArrayNodeImpl.obj
 0001:0008a214       ??_ECompositeNodeImpl@AdobeXMPCore_Int@@$2PPPPPPPM@A@EAAPEAXI@Z 000000018008b214 f i ArrayNodeImpl.obj
 0001:0008a220       ?getQualifierNodeType@INode_I@AdobeXMPCore_Int@@$R2KA@BM@PPPPPPPM@DI@EBAKPEBD_K01AEAPEBVIError_v1@AdobeXMPCommon@@@Z 000000018008b220 f i ArrayNodeImpl.obj
 0001:0008a23c       ?setNameSpace@INode_I@AdobeXMPCore_Int@@$R2KA@BM@PPPPPPPM@DI@EAAXPEBD_KAEAPEBVIError_v1@AdobeXMPCommon@@@Z 000000018008b23c f i ArrayNodeImpl.obj
 0001:0008a258       ??_ENodeImpl@AdobeXMPCore_Int@@$2PPPPPPPM@BA@EAAPEAXI@Z 000000018008b258 f i ArrayNodeImpl.obj
 0001:0008a268       ?convertToStructureNode@INode_I@AdobeXMPCore_Int@@$R2DA@CA@PPPPPPPM@DI@EAAPEAVIStructureNode_v1@AdobeXMPCore@@AEAPEBVIError_v1@AdobeXMPCommon@@@Z 000000018008b268 f i ArrayNodeImpl.obj
 0001:0008a284       ?getQualifier@INode_I@AdobeXMPCore_Int@@$2PPPPPPPM@A@EAAPEAVINode_v1@AdobeXMPCore@@PEBD_K01AEAPEBVIError_v1@AdobeXMPCommon@@@Z 000000018008b284 f i ArrayNodeImpl.obj
 0001:0008a290       ??_EINode_I@AdobeXMPCore_Int@@$2PPPPPPPM@BA@EAAPEAXI@Z 000000018008b290 f i ArrayNodeImpl.obj
 0001:0008a2a0       ??_EArrayNodeImpl@AdobeXMPCore_Int@@OOA@EAAPEAXI@Z 000000018008b2a0 f i ArrayNodeImpl.obj
 0001:0008a2ac       ?RegisterChange@NodeImpl@AdobeXMPCore_Int@@$R4NI@DM@PPPPPPPM@PA@EAAXXZ 000000018008b2ac f i ArrayNodeImpl.obj
 0001:0008a2c8       ?getNodeAtIndex@IArrayNode_I@AdobeXMPCore_Int@@$R2JA@CM@PPPPPPPM@GI@EAAPEAVINode_v1@AdobeXMPCore@@_KAEAPEBVIError_v1@AdobeXMPCommon@@@Z 000000018008b2c8 f i ArrayNodeImpl.obj
 0001:0008a2e4       ?GetIArrayNode_I@IArrayNode_I@AdobeXMPCore_Int@@$R4JA@CM@PPPPPPPM@GI@EAAPEAV12@XZ 000000018008b2e4 f i ArrayNodeImpl.obj
 0001:0008a300       ?isEmpty@INode_I@AdobeXMPCore_Int@@$R2GA@CE@PPPPPPPM@DI@EBAKAEAPEBVIError_v1@AdobeXMPCommon@@@Z 000000018008b300 f i ArrayNodeImpl.obj
 0001:0008a31c       ?hasContent@INode_I@AdobeXMPCore_Int@@$R2GA@CE@PPPPPPPM@DI@EBAKAEAPEBVIError_v1@AdobeXMPCommon@@@Z 000000018008b31c f i ArrayNodeImpl.obj
 0001:0008a338       ?IsArrayItem@NodeImpl@AdobeXMPCore_Int@@$R4GA@DM@PPPPPPPM@KI@EBA_NXZ 000000018008b338 f i ArrayNodeImpl.obj
 0001:0008a354       ?ChangeParent@NodeImpl@AdobeXMPCore_Int@@$R4KA@DE@PPPPPPPM@PA@EAAXPEAVINode_v1@AdobeXMPCore@@@Z 000000018008b354 f i ArrayNodeImpl.obj
 0001:0008a370       ?GetNodeAtPath@CompositeNodeImpl@AdobeXMPCore_Int@@$4PPPPPPPM@A@EAA?AV?$shared_ptr@VINode_v1@AdobeXMPCore@@@std@@AEBV?$shared_ptr@$$CBVIPath_v1@AdobeXMPCore@@@4@@Z 000000018008b370 f i ArrayNodeImpl.obj
 0001:0008a37c       ?getQualifierNodeType@INode_I@AdobeXMPCore_Int@@$R2EA@CA@PPPPPPPM@DI@EBAKPEBD_K01AEAPEBVIError_v1@AdobeXMPCommon@@@Z 000000018008b37c f i ArrayNodeImpl.obj
 0001:0008a398       ?setNameSpace@INode_I@AdobeXMPCore_Int@@$R2EA@CA@PPPPPPPM@DI@EAAXPEBD_KAEAPEBVIError_v1@AdobeXMPCommon@@@Z 000000018008b398 f i ArrayNodeImpl.obj
 0001:0008a3b4       ?GetActualINode@INode_I@AdobeXMPCore_Int@@$R4KA@BM@PPPPPPPM@DI@EAAPEAVINode_v1@AdobeXMPCore@@XZ 000000018008b3b4 f i ArrayNodeImpl.obj
 0001:0008a3d0       ?GetName@NodeImpl@AdobeXMPCore_Int@@$4PPPPPPPM@A@EBA?AV?$shared_ptr@$$CBVIUTF8String_v1@AdobeXMPCommon@@@std@@XZ 000000018008b3d0 f i ArrayNodeImpl.obj
 0001:0008a3dc       ?SetName@NodeImpl@AdobeXMPCore_Int@@$4PPPPPPPM@A@EAAXPEBD_K@Z 000000018008b3dc f i ArrayNodeImpl.obj
 0001:0008a3e8       ?DisableThreadSafety@ThreadSafeImpl@AdobeXMPCore_Int@@$R2JA@CI@PPPPPPPM@CI@EBAXXZ 000000018008b3e8 f i ArrayNodeImpl.obj
 0001:0008a404       ?UnShareMutex@ThreadSafeImpl@AdobeXMPCore_Int@@$2PPPPPPPM@A@EAAXXZ 000000018008b404 f i ArrayNodeImpl.obj
 0001:0008a410       ?isArrayItem@INode_I@AdobeXMPCore_Int@@$R2DI@CE@PPPPPPPM@DI@EBAKAEAPEBVIError_v1@AdobeXMPCommon@@@Z 000000018008b410 f i ArrayNodeImpl.obj
 0001:0008a428       ??_EIArrayNode_I@AdobeXMPCore_Int@@$2PPPPPPPM@BA@EAAPEAXI@Z 000000018008b428 f i ArrayNodeImpl.obj
 0001:0008a438       ?getParentNodeType@INode_I@AdobeXMPCore_Int@@$R2DA@CA@PPPPPPPM@DI@EBAKAEAPEBVIError_v1@AdobeXMPCommon@@@Z 000000018008b438 f i ArrayNodeImpl.obj
 0001:0008a454       ?getNameSpace@INode_I@AdobeXMPCore_Int@@$2PPPPPPPM@A@EBAPEBVIUTF8String_v1@AdobeXMPCommon@@AEAPEBVIError_v1@4@@Z 000000018008b454 f i ArrayNodeImpl.obj
 0001:0008a460       ?InsertNodeAtIndex@ArrayNodeImpl@AdobeXMPCore_Int@@$4PPPPPPPM@A@EAAXAEBV?$shared_ptr@VINode_v1@AdobeXMPCore@@@std@@_K@Z 000000018008b460 f i ArrayNodeImpl.obj
 0001:0008a46c       ?GetChildNodeType@ArrayNodeImpl@AdobeXMPCore_Int@@$4PPPPPPPM@A@EBA?AW4eNodeType@INode_v1@AdobeXMPCore@@XZ 000000018008b46c f i ArrayNodeImpl.obj
 0001:0008a478       ?getNodeType@INode_I@AdobeXMPCore_Int@@$R2GA@CE@PPPPPPPM@DI@EBAKAEAPEBVIError_v1@AdobeXMPCommon@@@Z 000000018008b478 f i ArrayNodeImpl.obj
 0001:0008a494       ?GetINode_I@INode_I@AdobeXMPCore_Int@@$R4GA@CE@PPPPPPPM@DI@EAAPEAV12@XZ 000000018008b494 f i ArrayNodeImpl.obj
 0001:0008a4b0       ?ValidateNameOrNameSpaceChangeForAChild@NodeImpl@AdobeXMPCore_Int@@$R4KA@DE@PPPPPPPM@PA@EAA_NAEBV?$shared_ptr@$$CBVIUTF8String_v1@AdobeXMPCommon@@@std@@000@Z 000000018008b4b0 f i ArrayNodeImpl.obj
 0001:0008a4cc       ?RemoveNodeAtPath@CompositeNodeImpl@AdobeXMPCore_Int@@$4PPPPPPPM@A@EAA?AV?$shared_ptr@VINode_v1@AdobeXMPCore@@@std@@AEBV?$shared_ptr@$$CBVIPath_v1@AdobeXMPCore@@@4@@Z 000000018008b4cc f i ArrayNodeImpl.obj
 0001:0008a4d8       ?GetActualINode@INode_I@AdobeXMPCore_Int@@$R4EA@CA@PPPPPPPM@DI@EAAPEAVINode_v1@AdobeXMPCore@@XZ 000000018008b4d8 f i ArrayNodeImpl.obj
 0001:0008a4f4       ?RemoveQualifier@NodeImpl@AdobeXMPCore_Int@@$R4EA@DE@PPPPPPPM@KI@EAA?AV?$shared_ptr@VINode_v1@AdobeXMPCore@@@std@@PEBD_K01@Z 000000018008b4f4 f i ArrayNodeImpl.obj
 0001:0008a510       ?replaceQualifier@INode_I@AdobeXMPCore_Int@@$R2KA@BM@PPPPPPPM@DI@EAAPEAVINode_v1@AdobeXMPCore@@PEAV34@AEAPEBVIError_v1@AdobeXMPCommon@@@Z 000000018008b510 f i ArrayNodeImpl.obj
 0001:0008a52c       ?Acquire@NodeImpl@AdobeXMPCore_Int@@$4PPPPPPPM@A@EBAXXZ 000000018008b52c f i ArrayNodeImpl.obj
 0001:0008a538       ?setName@INode_I@AdobeXMPCore_Int@@$R2DA@CA@PPPPPPPM@DI@EAAXPEBD_KAEAPEBVIError_v1@AdobeXMPCommon@@@Z 000000018008b538 f i ArrayNodeImpl.obj
 0001:0008a554       ?getQualifierNodeType@INode_I@AdobeXMPCore_Int@@$2PPPPPPPM@A@EBAKPEBD_K01AEAPEBVIError_v1@AdobeXMPCommon@@@Z 000000018008b554 f i ArrayNodeImpl.obj
 0001:0008a560       ?setNameSpace@INode_I@AdobeXMPCore_Int@@$2PPPPPPPM@A@EAAXPEBD_KAEAPEBVIError_v1@AdobeXMPCommon@@@Z 000000018008b560 f i ArrayNodeImpl.obj
 0001:0008a56c       ?ClearContents@ArrayNodeImpl@AdobeXMPCore_Int@@$4PPPPPPPM@A@EAAXXZ 000000018008b56c f i ArrayNodeImpl.obj
 0001:0008a578       ?ChangeParent@NodeImpl@AdobeXMPCore_Int@@$R4NI@DM@PPPPPPPM@PA@EAAXPEAVINode_v1@AdobeXMPCore@@@Z 000000018008b578 f i ArrayNodeImpl.obj
 0001:0008a594       ?GetICompositeNode_I@ICompositeNode_I@AdobeXMPCore_Int@@$R4HI@CI@PPPPPPPM@EI@EAAPEAV12@XZ 000000018008b594 f i ArrayNodeImpl.obj
 0001:0008a5b0       ?SetQualifiers@NodeImpl@AdobeXMPCore_Int@@$R4KA@DE@PPPPPPPM@PA@EAAXAEBV?$shared_ptr@VIStructureNode_v1@AdobeXMPCore@@@std@@@Z 000000018008b5b0 f i ArrayNodeImpl.obj
 0001:0008a5cc       ?replaceQualifier@INode_I@AdobeXMPCore_Int@@$R2EA@CA@PPPPPPPM@DI@EAAPEAVINode_v1@AdobeXMPCore@@PEAV34@AEAPEBVIError_v1@AdobeXMPCommon@@@Z 000000018008b5cc f i ArrayNodeImpl.obj
 0001:0008a5e8       ?AcknowledgeChanges@NodeImpl@AdobeXMPCore_Int@@$R4EA@DE@PPPPPPPM@KI@EBAXXZ 000000018008b5e8 f i ArrayNodeImpl.obj
 0001:0008a604       ?QualifiersIterator@NodeImpl@AdobeXMPCore_Int@@$4PPPPPPPM@A@EAA?AV?$shared_ptr@VINodeIterator_v1@AdobeXMPCore@@@std@@XZ 000000018008b604 f i ArrayNodeImpl.obj
 0001:0008a610       ?convertToMetadata@INode_I@AdobeXMPCore_Int@@$R2DI@CE@PPPPPPPM@DI@EAAPEAVIMetadata_v1@AdobeXMPCore@@AEAPEBVIError_v1@AdobeXMPCommon@@@Z 000000018008b610 f i ArrayNodeImpl.obj
 0001:0008a628       ?insertQualifier@INode_I@AdobeXMPCore_Int@@$R2DI@CE@PPPPPPPM@DI@EAAXPEAVINode_v1@AdobeXMPCore@@AEAPEBVIError_v1@AdobeXMPCommon@@@Z 000000018008b628 f i ArrayNodeImpl.obj
 0001:0008a640       ?getParent@INode_I@AdobeXMPCore_Int@@$R2DI@CE@PPPPPPPM@DI@EAAPEAVINode_v1@AdobeXMPCore@@AEAPEBVIError_v1@AdobeXMPCommon@@@Z 000000018008b640 f i ArrayNodeImpl.obj
 0001:0008a658       ?isThreadSafe@IThreadSafe_I@AdobeXMPCommon_Int@@WPPPPPPJA@EBAKXZ 000000018008b658 f i ArrayNodeImpl.obj
 0001:0008a664       ?iterator@ICompositeNode_I@AdobeXMPCore_Int@@$2PPPPPPPM@A@EAAPEAVINodeIterator_v1@AdobeXMPCore@@AEAPEBVIError_v1@AdobeXMPCommon@@@Z 000000018008b664 f i ArrayNodeImpl.obj
 0001:0008a670       ?replaceNodeAtPath@ICompositeNode_I@AdobeXMPCore_Int@@$2PPPPPPPM@A@EAAPEAVINode_v1@AdobeXMPCore@@PEAV34@PEBVIPath_v1@4@AEAPEBVIError_v1@AdobeXMPCommon@@@Z 000000018008b670 f i ArrayNodeImpl.obj
 0001:0008a67c       ?getName@INode_I@AdobeXMPCore_Int@@$R2DA@CA@PPPPPPPM@DI@EBAPEBVIUTF8String_v1@AdobeXMPCommon@@AEAPEBVIError_v1@4@@Z 000000018008b67c f i ArrayNodeImpl.obj
 0001:0008a698       ?GetActualINode@INode_I@AdobeXMPCore_Int@@$4PPPPPPPM@A@EAAPEAVINode_v1@AdobeXMPCore@@XZ 000000018008b698 f i ArrayNodeImpl.obj
 0001:0008a698       ?GetActualINameSpacePrefixMap@INameSpacePrefixMap_I@AdobeXMPCore_Int@@$4PPPPPPPM@A@EAAPEAVINameSpacePrefixMap_v1@AdobeXMPCore@@XZ 000000018008b698 f i NameSpacePrefixMapImpl.obj
 0001:0008a6a4       ?ValidateNameOrNameSpaceChangeForAChild@NodeImpl@AdobeXMPCore_Int@@$R4NI@DM@PPPPPPPM@PA@EAA_NAEBV?$shared_ptr@$$CBVIUTF8String_v1@AdobeXMPCommon@@@std@@000@Z 000000018008b6a4 f i ArrayNodeImpl.obj
 0001:0008a6c0       ?appendNode@ICompositeNode_I@AdobeXMPCore_Int@@$R2HI@CI@PPPPPPPM@EI@EAAXPEAVINode_v1@AdobeXMPCore@@AEAPEBVIError_v1@AdobeXMPCommon@@@Z 000000018008b6c0 f i ArrayNodeImpl.obj
 0001:0008a6dc       ?AppendNode@ArrayNodeImpl@AdobeXMPCore_Int@@$4PPPPPPPM@A@EAAXAEBV?$shared_ptr@VINode_v1@AdobeXMPCore@@@std@@@Z 000000018008b6dc f i ArrayNodeImpl.obj
 0001:0008a6e8       ?GetNodeAtPath@CompositeNodeImpl@AdobeXMPCore_Int@@$R4HI@EA@PPPPPPPM@GA@EAA?AV?$shared_ptr@VINode_v1@AdobeXMPCore@@@std@@AEBV?$shared_ptr@$$CBVIPath_v1@AdobeXMPCore@@@4@@Z 000000018008b6e8 f i ArrayNodeImpl.obj
 0001:0008a704       ?getQualifier@INode_I@AdobeXMPCore_Int@@$R2GA@CE@PPPPPPPM@DI@EAAPEAVINode_v1@AdobeXMPCore@@PEBD_K01AEAPEBVIError_v1@AdobeXMPCommon@@@Z 000000018008b704 f i ArrayNodeImpl.obj
 0001:0008a720       ?GetIndex@NodeImpl@AdobeXMPCore_Int@@$R4EA@DE@PPPPPPPM@KI@EBA_KXZ 000000018008b720 f i ArrayNodeImpl.obj
 0001:0008a73c       ?GetParentNodeType@NodeImpl@AdobeXMPCore_Int@@$R4EA@DE@PPPPPPPM@KI@EBA?AW4eNodeType@INode_v1@AdobeXMPCore@@XZ 000000018008b73c f i ArrayNodeImpl.obj
 0001:0008a758       ?EnableThreadSafety@ThreadSafeImpl@AdobeXMPCore_Int@@$R2DA@DA@PPPPPPPM@CI@EBAXXZ 000000018008b758 f i ArrayNodeImpl.obj
 0001:0008a774       ?isArrayItem@INode_I@AdobeXMPCore_Int@@$R2KA@BM@PPPPPPPM@DI@EBAKAEAPEBVIError_v1@AdobeXMPCommon@@@Z 000000018008b774 f i ArrayNodeImpl.obj
 0001:0008a790       ?getChildNodeType@IArrayNode_I@AdobeXMPCore_Int@@$2PPPPPPPM@A@EBAKAEAPEBVIError_v1@AdobeXMPCommon@@@Z 000000018008b790 f i ArrayNodeImpl.obj
 0001:0008a79c       ?clear@INode_I@AdobeXMPCore_Int@@$R2DA@CA@PPPPPPPM@DI@EAAXKKAEAPEBVIError_v1@AdobeXMPCommon@@@Z 000000018008b79c f i ArrayNodeImpl.obj
 0001:0008a7b8       ?hasQualifiers@INode_I@AdobeXMPCore_Int@@$R2DA@CA@PPPPPPPM@DI@EBAKAEAPEBVIError_v1@AdobeXMPCommon@@@Z 000000018008b7b8 f i ArrayNodeImpl.obj
 0001:0008a7d4       ?isQualifierNode@INode_I@AdobeXMPCore_Int@@$R2DA@CA@PPPPPPPM@DI@EBAKAEAPEBVIError_v1@AdobeXMPCommon@@@Z 000000018008b7d4 f i ArrayNodeImpl.obj
 0001:0008a7f0       ?replaceQualifier@INode_I@AdobeXMPCore_Int@@$2PPPPPPPM@A@EAAPEAVINode_v1@AdobeXMPCore@@PEAV34@AEAPEBVIError_v1@AdobeXMPCommon@@@Z 000000018008b7f0 f i ArrayNodeImpl.obj
 0001:0008a7fc       ?GetInterfacePointer@INode_I@AdobeXMPCore_Int@@$4PPPPPPPM@A@EAAPEAX_KK@Z 000000018008b7fc f i ArrayNodeImpl.obj
 0001:0008a808       ?GetNodeType@?$TNodeIteratorImpl@V?$_Vector_iterator@V?$_Vector_val@U?$_Simple_types@V?$shared_ptr@VINode_v1@AdobeXMPCore@@@std@@@std@@@std@@@std@@@AdobeXMPCore_Int@@$4PPPPPPPM@A@EBA?AW4eNodeType@INode_v1@AdobeXMPCore@@XZ 000000018008b808 f i ArrayNodeImpl.obj
 0001:0008a814       ?SetQualifiers@NodeImpl@AdobeXMPCore_Int@@$R4NI@DM@PPPPPPPM@PA@EAAXAEBV?$shared_ptr@VIStructureNode_v1@AdobeXMPCore@@@std@@@Z 000000018008b814 f i ArrayNodeImpl.obj
 0001:0008a830       ?getNodeAtPath@ICompositeNode_I@AdobeXMPCore_Int@@$R2HI@CI@PPPPPPPM@EI@EAAPEAVINode_v1@AdobeXMPCore@@PEBVIPath_v1@4@AEAPEBVIError_v1@AdobeXMPCommon@@@Z 000000018008b830 f i ArrayNodeImpl.obj
 0001:0008a84c       ?RemoveNodeAtPath@CompositeNodeImpl@AdobeXMPCore_Int@@$R4HI@EA@PPPPPPPM@GA@EAA?AV?$shared_ptr@VINode_v1@AdobeXMPCore@@@std@@AEBV?$shared_ptr@$$CBVIPath_v1@AdobeXMPCore@@@4@@Z 000000018008b84c f i ArrayNodeImpl.obj
 0001:0008a868       ?getNameSpace@INode_I@AdobeXMPCore_Int@@$R2GA@CE@PPPPPPPM@DI@EBAPEBVIUTF8String_v1@AdobeXMPCommon@@AEAPEBVIError_v1@4@@Z 000000018008b868 f i ArrayNodeImpl.obj
 0001:0008a884       ?GetRawParentPointer@NodeImpl@AdobeXMPCore_Int@@$R4KA@DE@PPPPPPPM@PA@EAAPEAVINode_v1@AdobeXMPCore@@XZ 000000018008b884 f i ArrayNodeImpl.obj
 0001:0008a8a0       ?isArrayItem@INode_I@AdobeXMPCore_Int@@$R2EA@CA@PPPPPPPM@DI@EBAKAEAPEBVIError_v1@AdobeXMPCommon@@@Z 000000018008b8a0 f i ArrayNodeImpl.obj
 0001:0008a8bc       ?SetIsQualifierNode@NodeImpl@AdobeXMPCore_Int@@$4PPPPPPPM@A@EAAX_N@Z 000000018008b8bc f i ArrayNodeImpl.obj
 0001:0008a8c8       ?GetQualifier@NodeImpl@AdobeXMPCore_Int@@$4PPPPPPPM@A@EAA?AV?$shared_ptr@VINode_v1@AdobeXMPCore@@@std@@AEBV?$shared_ptr@$$CBVIUTF8String_v1@AdobeXMPCommon@@@4@0@Z 000000018008b8c8 f i ArrayNodeImpl.obj
 0001:0008a8d4       ?IsQualifierNode@NodeImpl@AdobeXMPCore_Int@@$4PPPPPPPM@A@EBA_NXZ 000000018008b8d4 f i ArrayNodeImpl.obj
 0001:0008a8e0       ?GetQualifier@NodeImpl@AdobeXMPCore_Int@@$4PPPPPPPM@A@EAA?AV?$shared_ptr@VINode_v1@AdobeXMPCore@@@std@@PEBD_K01@Z 000000018008b8e0 f i ArrayNodeImpl.obj
 0001:0008a8ec       ?GetInterfacePointer@IArrayNode_I@AdobeXMPCore_Int@@$4PPPPPPPM@A@EAAPEAX_KK@Z 000000018008b8ec f i ArrayNodeImpl.obj
 0001:0008a8f8       ??_EINodeIterator_v1@AdobeXMPCore@@O7EAAPEAXI@Z 000000018008b8f8 f i ArrayNodeImpl.obj
 0001:0008a904       ?getQualifierNodeType@INode_I@AdobeXMPCore_Int@@$R2GA@CE@PPPPPPPM@DI@EBAKPEBD_K01AEAPEBVIError_v1@AdobeXMPCommon@@@Z 000000018008b904 f i ArrayNodeImpl.obj
 0001:0008a920       ?setNameSpace@INode_I@AdobeXMPCore_Int@@$R2GA@CE@PPPPPPPM@DI@EAAXPEBD_KAEAPEBVIError_v1@AdobeXMPCommon@@@Z 000000018008b920 f i ArrayNodeImpl.obj
 0001:0008a93c       ?IsThreadSafe@ThreadSafeImpl@AdobeXMPCore_Int@@$R2FA@DI@PPPPPPPM@CI@EBA_NXZ 000000018008b93c f i ArrayNodeImpl.obj
 0001:0008a958       ?SetNameSpace@NodeImpl@AdobeXMPCore_Int@@$R4EA@DE@PPPPPPPM@KI@EAAXPEBD_K@Z 000000018008b958 f i ArrayNodeImpl.obj
 0001:0008a974       ?DisableThreadSafety@ThreadSafeImpl@AdobeXMPCore_Int@@$R2DA@DA@PPPPPPPM@CI@EBAXXZ 000000018008b974 f i ArrayNodeImpl.obj
 0001:0008a990       ?Acquire@NodeImpl@AdobeXMPCore_Int@@$R4BA@DE@PPPPPPPM@HI@EBAXXZ 000000018008b990 f i ArrayNodeImpl.obj
 0001:0008a9ac       ?convertToMetadata@INode_I@AdobeXMPCore_Int@@$R2KA@BM@PPPPPPPM@DI@EAAPEAVIMetadata_v1@AdobeXMPCore@@AEAPEBVIError_v1@AdobeXMPCommon@@@Z 000000018008b9ac f i ArrayNodeImpl.obj
 0001:0008a9c8       ?insertQualifier@INode_I@AdobeXMPCore_Int@@$R2KA@BM@PPPPPPPM@DI@EAAXPEAVINode_v1@AdobeXMPCore@@AEAPEBVIError_v1@AdobeXMPCommon@@@Z 000000018008b9c8 f i ArrayNodeImpl.obj
 0001:0008a9e4       ?getParent@INode_I@AdobeXMPCore_Int@@$R2KA@BM@PPPPPPPM@DI@EAAPEAVINode_v1@AdobeXMPCore@@AEAPEBVIError_v1@AdobeXMPCommon@@@Z 000000018008b9e4 f i ArrayNodeImpl.obj
 0001:0008aa00       ?GetPath@NodeImpl@AdobeXMPCore_Int@@$4PPPPPPPM@A@EBA?AV?$shared_ptr@VIPath_v1@AdobeXMPCore@@@std@@XZ 000000018008ba00 f i ArrayNodeImpl.obj
 0001:0008aa0c       ?convertToArrayNode@INode_I@AdobeXMPCore_Int@@$R2DI@CE@PPPPPPPM@DI@EAAPEAVIArrayNode_v1@AdobeXMPCore@@AEAPEBVIError_v1@AdobeXMPCommon@@@Z 000000018008ba0c f i ArrayNodeImpl.obj
 0001:0008aa24       ?GetActualISimpleNode@ISimpleNode_I@AdobeXMPCore_Int@@$4PPPPPPPM@A@EAAPEAVISimpleNode_v1@AdobeXMPCore@@XZ 000000018008ba24 f i SimpleNodeImpl.obj
 0001:0008aa24       ?GetActualICompositeNode@ICompositeNode_I@AdobeXMPCore_Int@@$4PPPPPPPM@A@EAAPEAVICompositeNode_v1@AdobeXMPCore@@XZ 000000018008ba24 f i ArrayNodeImpl.obj
 0001:0008aa30       ?hasChanged@INode_I@AdobeXMPCore_Int@@$R2DA@CA@PPPPPPPM@DI@EBAKAEAPEBVIError_v1@AdobeXMPCommon@@@Z 000000018008ba30 f i ArrayNodeImpl.obj
 0001:0008aa4c       ?getInterfacePointer@ICompositeNode_I@AdobeXMPCore_Int@@$2PPPPPPPM@A@EAAPEAX_KKAEAPEBVIError_v1@AdobeXMPCommon@@@Z 000000018008ba4c f i ArrayNodeImpl.obj
 0001:0008aa58       ?isArrayItem@INode_I@AdobeXMPCore_Int@@$2PPPPPPPM@A@EBAKAEAPEBVIError_v1@AdobeXMPCommon@@@Z 000000018008ba58 f i ArrayNodeImpl.obj
 0001:0008aa64       ?GetNode@?$TNodeIteratorImpl@V?$_Vector_iterator@V?$_Vector_val@U?$_Simple_types@V?$shared_ptr@VINode_v1@AdobeXMPCore@@@std@@@std@@@std@@@std@@@AdobeXMPCore_Int@@$4PPPPPPPM@A@EAA?AV?$shared_ptr@VINode_v1@AdobeXMPCore@@@std@@XZ 000000018008ba64 f i ArrayNodeImpl.obj
 0001:0008aa70       ?GetRawParentPointer@NodeImpl@AdobeXMPCore_Int@@$R4NI@DM@PPPPPPPM@PA@EAAPEAVINode_v1@AdobeXMPCore@@XZ 000000018008ba70 f i ArrayNodeImpl.obj
 0001:0008aa8c       ?GetActualINode@INode_I@AdobeXMPCore_Int@@$R4GA@CE@PPPPPPPM@DI@EAAPEAVINode_v1@AdobeXMPCore@@XZ 000000018008ba8c f i ArrayNodeImpl.obj
 0001:0008aaa8       ?HasChanged@NodeImpl@AdobeXMPCore_Int@@$R4GA@DM@PPPPPPPM@KI@EBA_NXZ 000000018008baa8 f i ArrayNodeImpl.obj
 0001:0008aac4       ??_ECompositeNodeImpl@AdobeXMPCore_Int@@OMA@EAAPEAXI@Z 000000018008bac4 f i ArrayNodeImpl.obj
 0001:0008aad0       ?convertToMetadata@INode_I@AdobeXMPCore_Int@@$R2EA@CA@PPPPPPPM@DI@EAAPEAVIMetadata_v1@AdobeXMPCore@@AEAPEBVIError_v1@AdobeXMPCommon@@@Z 000000018008bad0 f i ArrayNodeImpl.obj
 0001:0008aaec       ?insertQualifier@INode_I@AdobeXMPCore_Int@@$R2EA@CA@PPPPPPPM@DI@EAAXPEAVINode_v1@AdobeXMPCore@@AEAPEBVIError_v1@AdobeXMPCommon@@@Z 000000018008baec f i ArrayNodeImpl.obj
 0001:0008ab08       ?getParent@INode_I@AdobeXMPCore_Int@@$R2EA@CA@PPPPPPPM@DI@EAAPEAVINode_v1@AdobeXMPCore@@AEAPEBVIError_v1@AdobeXMPCommon@@@Z 000000018008bb08 f i ArrayNodeImpl.obj
 0001:0008ab24       ?getInterfacePointer@ICompositeNode_I@AdobeXMPCore_Int@@$R2CA@CE@PPPPPPPM@BI@EAAPEAX_KKAEAPEBVIError_v1@AdobeXMPCommon@@@Z 000000018008bb24 f i ArrayNodeImpl.obj
 0001:0008ab40       ?Clone@NodeImpl@AdobeXMPCore_Int@@$4PPPPPPPM@A@EBA?AV?$shared_ptr@VINode_v1@AdobeXMPCore@@@std@@_N0@Z 000000018008bb40 f i ArrayNodeImpl.obj
 0001:0008ab4c       ?removeQualifier@INode_I@AdobeXMPCore_Int@@$R2DA@CA@PPPPPPPM@DI@EAAPEAVINode_v1@AdobeXMPCore@@PEBD_K01AEAPEBVIError_v1@AdobeXMPCommon@@@Z 000000018008bb4c f i ArrayNodeImpl.obj
 0001:0008ab68       ?replaceQualifier@INode_I@AdobeXMPCore_Int@@$R2GA@CE@PPPPPPPM@DI@EAAPEAVINode_v1@AdobeXMPCore@@PEAV34@AEAPEBVIError_v1@AdobeXMPCommon@@@Z 000000018008bb68 f i ArrayNodeImpl.obj
 0001:0008ab84       ?SetIndex@NodeImpl@AdobeXMPCore_Int@@$R4KA@DE@PPPPPPPM@PA@EAAX_K@Z 000000018008bb84 f i ArrayNodeImpl.obj
 0001:0008aba0       ?GetName@NodeImpl@AdobeXMPCore_Int@@$R4EA@DE@PPPPPPPM@KI@EBA?AV?$shared_ptr@$$CBVIUTF8String_v1@AdobeXMPCommon@@@std@@XZ 000000018008bba0 f i ArrayNodeImpl.obj
 0001:0008abbc       ?SetName@NodeImpl@AdobeXMPCore_Int@@$R4EA@DE@PPPPPPPM@KI@EAAXPEBD_K@Z 000000018008bbbc f i ArrayNodeImpl.obj
 0001:0008abd8       ?ReplaceQualifier@NodeImpl@AdobeXMPCore_Int@@$4PPPPPPPM@A@EAA?AV?$shared_ptr@VINode_v1@AdobeXMPCore@@@std@@AEBV34@@Z 000000018008bbd8 f i ArrayNodeImpl.obj
 0001:0008abe4       ?QualifiersCount@NodeImpl@AdobeXMPCore_Int@@$4PPPPPPPM@A@EBA_KXZ 000000018008bbe4 f i ArrayNodeImpl.obj
 0001:0008abf0       ?GetInterfacePointer@INode_I@AdobeXMPCore_Int@@$R4IA@BM@PPPPPPPM@CA@EAAPEAX_KK@Z 000000018008bbf0 f i ArrayNodeImpl.obj
 0001:0008ac0c       ?getNodeTypeAtPath@ICompositeNode_I@AdobeXMPCore_Int@@$2PPPPPPPM@A@EBAKPEBVIPath_v1@AdobeXMPCore@@AEAPEBVIError_v1@AdobeXMPCommon@@@Z 000000018008bc0c f i ArrayNodeImpl.obj
 0001:0008ac18       ?convertToSimpleNode@INode_I@AdobeXMPCore_Int@@$R2DA@CA@PPPPPPPM@DI@EAAPEAVISimpleNode_v1@AdobeXMPCore@@AEAPEBVIError_v1@AdobeXMPCommon@@@Z 000000018008bc18 f i ArrayNodeImpl.obj
 0001:0008ac34       ?getIndex@INode_I@AdobeXMPCore_Int@@$R2DA@CA@PPPPPPPM@DI@EBA_KAEAPEBVIError_v1@AdobeXMPCommon@@@Z 000000018008bc34 f i ArrayNodeImpl.obj
 0001:0008ac50       ?convertToMetadata@INode_I@AdobeXMPCore_Int@@$2PPPPPPPM@A@EAAPEAVIMetadata_v1@AdobeXMPCore@@AEAPEBVIError_v1@AdobeXMPCommon@@@Z 000000018008bc50 f i ArrayNodeImpl.obj
 0001:0008ac5c       ?insertQualifier@INode_I@AdobeXMPCore_Int@@$2PPPPPPPM@A@EAAXPEAVINode_v1@AdobeXMPCore@@AEAPEBVIError_v1@AdobeXMPCommon@@@Z 000000018008bc5c f i ArrayNodeImpl.obj
 0001:0008ac68       ?getParent@INode_I@AdobeXMPCore_Int@@$2PPPPPPPM@A@EAAPEAVINode_v1@AdobeXMPCore@@AEAPEBVIError_v1@AdobeXMPCommon@@@Z 000000018008bc68 f i ArrayNodeImpl.obj
 0001:0008ac74       ?ReplaceNodeAtIndex@ArrayNodeImpl@AdobeXMPCore_Int@@$4PPPPPPPM@A@EAA?AV?$shared_ptr@VINode_v1@AdobeXMPCore@@@std@@AEBV34@_K@Z 000000018008bc74 f i ArrayNodeImpl.obj
 0001:0008ac80       ?GetParent@NodeImpl@AdobeXMPCore_Int@@$R4GA@DM@PPPPPPPM@KI@EAA?AV?$shared_ptr@VINode_v1@AdobeXMPCore@@@std@@XZ 000000018008bc80 f i ArrayNodeImpl.obj
 0001:0008ac9c       ??_EArrayNodeImpl@AdobeXMPCore_Int@@$2PPPPPPPM@BA@EAAPEAXI@Z 000000018008bc9c f i ArrayNodeImpl.obj
 0001:0008acac       ?convertToArrayNode@INode_I@AdobeXMPCore_Int@@$R2KA@BM@PPPPPPPM@DI@EAAPEAVIArrayNode_v1@AdobeXMPCore@@AEAPEBVIError_v1@AdobeXMPCommon@@@Z 000000018008bcac f i ArrayNodeImpl.obj
 0001:0008acc8       ?InsertQualifier@NodeImpl@AdobeXMPCore_Int@@$4PPPPPPPM@A@EAAXAEBV?$shared_ptr@VINode_v1@AdobeXMPCore@@@std@@@Z 000000018008bcc8 f i ArrayNodeImpl.obj
 0001:0008acd4       ?getPath@INode_I@AdobeXMPCore_Int@@$R2DI@CE@PPPPPPPM@DI@EBAPEAVIPath_v1@AdobeXMPCore@@AEAPEBVIError_v1@AdobeXMPCommon@@@Z 000000018008bcd4 f i ArrayNodeImpl.obj
 0001:0008acec       ??1IConfigurable@AdobeXMPCommon@@MEAA@XZ 000000018008bcec f i ClientDOMParserWrapperImpl.obj
 0001:0008acf8       ??_EIConfigurable@AdobeXMPCommon@@MEAAPEAXI@Z 000000018008bcf8 f i * CIL library *:* CIL module *
 0001:0008acf8       ??_GIConfigurable@AdobeXMPCommon@@MEAAPEAXI@Z 000000018008bcf8 f i ClientDOMParserWrapperImpl.obj
 0001:0008ad20       ??1IDOMParser_v1@AdobeXMPCore@@MEAA@XZ 000000018008bd20 f i ClientDOMParserWrapperImpl.obj
 0001:0008ad68       ??_GIDOMParser_v1@AdobeXMPCore@@MEAAPEAXI@Z 000000018008bd68 f i ClientDOMParserWrapperImpl.obj
 0001:0008ad68       ??_EIDOMParser_v1@AdobeXMPCore@@MEAAPEAXI@Z 000000018008bd68 f i * CIL library *:* CIL module *
 0001:0008adf8       ?ModifyKey@IConfigurable_I@AdobeXMPCore_Int@@UEBA_KAEB_K@Z 000000018008bdf8 f i ClientDOMParserWrapperImpl.obj
 0001:0008adfc       ??1IConfigurable_I@AdobeXMPCore_Int@@MEAA@XZ 000000018008bdfc f i ClientDOMParserWrapperImpl.obj
 0001:0008ae30       ??_EIConfigurable_I@AdobeXMPCore_Int@@MEAAPEAXI@Z 000000018008be30 f i * CIL library *:* CIL module *
 0001:0008ae30       ??_GIConfigurable_I@AdobeXMPCore_Int@@MEAAPEAXI@Z 000000018008be30 f i ClientDOMParserWrapperImpl.obj
 0001:0008ae90       ?GetActualIDOMParser@IDOMParser_I@AdobeXMPCore_Int@@UEAAPEAVIDOMParser_v1@AdobeXMPCore@@XZ 000000018008be90 f i ClientDOMParserWrapperImpl.obj
 0001:0008ae90       ?GetActualIDOMSerializer@IDOMSerializer_I@AdobeXMPCore_Int@@UEAAPEAVIDOMSerializer_v1@AdobeXMPCore@@XZ 000000018008be90 f i ClientDOMSerializerWrapperImpl.obj
 0001:0008aeb4       ?GetISharedObject_I@IDOMParser_I@AdobeXMPCore_Int@@UEAAPEAVISharedObject_I@AdobeXMPCommon_Int@@XZ 000000018008beb4 f i ClientDOMParserWrapperImpl.obj
 0001:0008aeb4       ?GetISharedObject_I@IDOMSerializer_I@AdobeXMPCore_Int@@UEAAPEAVISharedObject_I@AdobeXMPCommon_Int@@XZ 000000018008beb4 f i ClientDOMSerializerWrapperImpl.obj
 0001:0008aed8       ??1IDOMParser_I@AdobeXMPCore_Int@@MEAA@XZ 000000018008bed8 f i ClientDOMParserWrapperImpl.obj
 0001:0008afa0       ??_EIDOMParser_I@AdobeXMPCore_Int@@MEAAPEAXI@Z 000000018008bfa0 f i * CIL library *:* CIL module *
 0001:0008afa0       ??_GIDOMParser_I@AdobeXMPCore_Int@@MEAAPEAXI@Z 000000018008bfa0 f i ClientDOMParserWrapperImpl.obj
 0001:0008b07c       ??0ConfigurableImpl@AdobeXMPCore_Int@@QEAA@XZ 000000018008c07c f i ClientDOMParserWrapperImpl.obj
 0001:0008b114       ??_EConfigurableImpl@AdobeXMPCore_Int@@UEAAPEAXI@Z 000000018008c114 f i * CIL library *:* CIL module *
 0001:0008b114       ??_GConfigurableImpl@AdobeXMPCore_Int@@UEAAPEAXI@Z 000000018008c114 f i ClientDOMParserWrapperImpl.obj
 0001:0008b194       ??1DOMParserImpl@AdobeXMPCore_Int@@MEAA@XZ 000000018008c194 f i ClientDOMParserWrapperImpl.obj
 0001:0008b2ec       ??_EDOMParserImpl@AdobeXMPCore_Int@@MEAAPEAXI@Z 000000018008c2ec f i * CIL library *:* CIL module *
 0001:0008b2ec       ??_GDOMParserImpl@AdobeXMPCore_Int@@MEAAPEAXI@Z 000000018008c2ec f i ClientDOMParserWrapperImpl.obj
 0001:0008b458       ?MakeShared@IError_v1@AdobeXMPCommon@@SA?AV?$shared_ptr@$$CBVIError_v1@AdobeXMPCommon@@@std@@PEBV12@@Z 000000018008c458 f i ClientDOMParserWrapperImpl.obj
 0001:0008b4c0       ??0ClientDOMParserWrapperImpl@AdobeXMPCore_Int@@QEAA@PEAVIClientDOMParser_v1@AdobeXMPCore@@@Z 000000018008c4c0 f   ClientDOMParserWrapperImpl.obj
 0001:0008b950       ??_EClientDOMParserWrapperImpl@AdobeXMPCore_Int@@MEAAPEAXI@Z 000000018008c950 f i * CIL library *:* CIL module *
 0001:0008b950       ??_GClientDOMParserWrapperImpl@AdobeXMPCore_Int@@MEAAPEAXI@Z 000000018008c950 f i ClientDOMParserWrapperImpl.obj
 0001:0008bac0       ??0IDOMParser_I@AdobeXMPCore_Int@@QEAA@XZ 000000018008cac0 f i ClientDOMParserWrapperImpl.obj
 0001:0008bb88       ?ParseAsNode@ClientDOMParserWrapperImpl@AdobeXMPCore_Int@@UEAA?AV?$shared_ptr@VINode_v1@AdobeXMPCore@@@std@@PEBD_K@Z 000000018008cb88 f   ClientDOMParserWrapperImpl.obj
 0001:0008bd54       ??1ClientDOMParserWrapperImpl@AdobeXMPCore_Int@@MEAA@XZ 000000018008cd54 f   ClientDOMParserWrapperImpl.obj
 0001:0008beac       ?ValidateValue@ClientDOMParserWrapperImpl@AdobeXMPCore_Int@@UEBA?AW4eConfigurableErrorCode@AdobeXMPCommon@@AEB_KW4eDataType@IConfigurable@4@AEBTCombinedDataValue@64@@Z 000000018008ceac f   ClientDOMParserWrapperImpl.obj
 0001:0008c000       ?clone@ClientDOMParserWrapperImpl@AdobeXMPCore_Int@@UEBAPEAVDOMParserImpl@2@XZ 000000018008d000 f   ClientDOMParserWrapperImpl.obj
 0001:0008c068       ?erase@?$_Tree@V?$_Tmap_traits@_KU?$pair@W4eDataType@IConfigurable@AdobeXMPCommon@@TCombinedDataValue@23@@std@@U?$less@_K@2@V?$TAllocator@U?$pair@_KU?$pair@W4eDataType@IConfigurable@AdobeXMPCommon@@TCombinedDataValue@23@@std@@@std@@@AdobeXMPCore_Int@@$0A@@std@@@std@@QEAA?AV?$_Tree_iterator@V?$_Tree_val@U?$_Tree_simple_types@U?$pair@$$CB_KU?$pair@W4eDataType@IConfigurable@AdobeXMPCommon@@TCombinedDataValue@23@@std@@@std@@@std@@@std@@@2@V?$_Tree_const_iterator@V?$_Tree_val@U?$_Tree_simple_types@U?$pair@$$CB_KU?$pair@W4eDataType@IConfigurable@AdobeXMPCommon@@TCombinedDataValue@23@@std@@@std@@@std@@@std@@@2@0@Z 000000018008d068 f i ClientDOMParserWrapperImpl.obj
 0001:0008c17c       ?erase@?$_Tree@V?$_Tmap_traits@_KU?$pair@W4eDataType@IConfigurable@AdobeXMPCommon@@TCombinedDataValue@23@@std@@U?$less@_K@2@V?$TAllocator@U?$pair@_KU?$pair@W4eDataType@IConfigurable@AdobeXMPCommon@@TCombinedDataValue@23@@std@@@std@@@AdobeXMPCore_Int@@$0A@@std@@@std@@QEAA?AV?$_Tree_iterator@V?$_Tree_val@U?$_Tree_simple_types@U?$pair@$$CB_KU?$pair@W4eDataType@IConfigurable@AdobeXMPCommon@@TCombinedDataValue@23@@std@@@std@@@std@@@std@@@2@V?$_Tree_const_iterator@V?$_Tree_val@U?$_Tree_simple_types@U?$pair@$$CB_KU?$pair@W4eDataType@IConfigurable@AdobeXMPCommon@@TCombinedDataValue@23@@std@@@std@@@std@@@std@@@2@@Z 000000018008d17c f i ClientDOMParserWrapperImpl.obj
 0001:0008c614       ?_Erase@?$_Tree@V?$_Tmap_traits@_KU?$pair@W4eDataType@IConfigurable@AdobeXMPCommon@@TCombinedDataValue@23@@std@@U?$less@_K@2@V?$TAllocator@U?$pair@_KU?$pair@W4eDataType@IConfigurable@AdobeXMPCommon@@TCombinedDataValue@23@@std@@@std@@@AdobeXMPCore_Int@@$0A@@std@@@std@@IEAAXPEAU?$_Tree_node@U?$pair@$$CB_KU?$pair@W4eDataType@IConfigurable@AdobeXMPCommon@@TCombinedDataValue@23@@std@@@std@@PEAX@2@@Z 000000018008d614 f i ClientDOMParserWrapperImpl.obj
 0001:0008c614       ?_Erase@?$_Tree@V?$_Tset_traits@_KU?$less@_K@std@@V?$TAllocator@_K@AdobeXMPCore_Int@@$0A@@std@@@std@@IEAAXPEAU?$_Tree_node@_KPEAX@2@@Z 000000018008d614 f i DOMParserImpl.obj
 0001:0008c614       ?_Erase@?$_Tree@V?$_Tmap_traits@_KW4eDataType@IConfigurable@AdobeXMPCommon@@U?$less@_K@std@@V?$TAllocator@U?$pair@_KW4eDataType@IConfigurable@AdobeXMPCommon@@@std@@@AdobeXMPCore_Int@@$0A@@std@@@std@@IEAAXPEAU?$_Tree_node@U?$pair@$$CB_KW4eDataType@IConfigurable@AdobeXMPCommon@@@std@@PEAX@2@@Z 000000018008d614 f i DOMParserImpl.obj
 0001:0008c678       ?_Buyheadnode@?$_Tree_alloc@$0A@U?$_Tree_base_types@U?$pair@$$CB_KU?$pair@W4eDataType@IConfigurable@AdobeXMPCommon@@TCombinedDataValue@23@@std@@@std@@V?$TAllocator@U?$pair@_KU?$pair@W4eDataType@IConfigurable@AdobeXMPCommon@@TCombinedDataValue@23@@std@@@std@@@AdobeXMPCore_Int@@@std@@@std@@QEAAPEAU?$_Tree_node@U?$pair@$$CB_KU?$pair@W4eDataType@IConfigurable@AdobeXMPCommon@@TCombinedDataValue@23@@std@@@std@@PEAX@2@XZ 000000018008d678 f i ClientDOMParserWrapperImpl.obj
 0001:0008c6c8       ?GetParameter@ConfigurableImpl@AdobeXMPCore_Int@@$R4HA@CA@PPPPPPPM@FA@EBA_NAEB_KW4eDataType@IConfigurable@AdobeXMPCommon@@AEATCombinedDataValue@45@@Z 000000018008d6c8 f i ClientDOMParserWrapperImpl.obj
 0001:0008c6e4       ?TreatKeyAsCaseInsensitive@ConfigurableImpl@AdobeXMPCore_Int@@$4PPPPPPPM@A@EAAX_N@Z 000000018008d6e4 f i ClientDOMParserWrapperImpl.obj
 0001:0008c6f0       ??_EIDOMParser_v1@AdobeXMPCore@@O7EAAPEAXI@Z 000000018008d6f0 f i ClientDOMParserWrapperImpl.obj
 0001:0008c6fc       ?SetAllowedKeys@ConfigurableImpl@AdobeXMPCore_Int@@$4PPPPPPPM@A@EAAXPEA_K_K@Z 000000018008d6fc f i ClientDOMParserWrapperImpl.obj
 0001:0008c708       ?ValidateValue@ClientDOMParserWrapperImpl@AdobeXMPCore_Int@@$4PPPPPPPM@A@EBA?AW4eConfigurableErrorCode@AdobeXMPCommon@@AEB_KW4eDataType@IConfigurable@4@AEBTCombinedDataValue@64@@Z 000000018008d708 f i ClientDOMParserWrapperImpl.obj
 0001:0008c714       ?SetParameter@ConfigurableImpl@AdobeXMPCore_Int@@$R4HA@CA@PPPPPPPM@FA@EAAXAEB_KW4eDataType@IConfigurable@AdobeXMPCommon@@AEBTCombinedDataValue@45@@Z 000000018008d714 f i ClientDOMParserWrapperImpl.obj
 0001:0008c730       ?GetIDOMParser_I@IDOMParser_I@AdobeXMPCore_Int@@$R4FI@BM@PPPPPPPM@EI@EAAPEAV12@XZ 000000018008d730 f i ClientDOMParserWrapperImpl.obj
 0001:0008c74c       ?getAllParameters@IConfigurable_I@AdobeXMPCore_Int@@$R2CI@BE@PPPPPPPM@BI@EBAXPEA_K_K@Z 000000018008d74c f i ClientDOMParserWrapperImpl.obj
 0001:0008c768       ?setParameter@IConfigurable_I@AdobeXMPCore_Int@@$R2DI@7PPPPPPPM@BI@EAAXAEB_KKAEBTCombinedDataValue@IConfigurable@AdobeXMPCommon@@AEAPEBVIError_v1@5@@Z 000000018008d768 f i ClientDOMParserWrapperImpl.obj
 0001:0008c784       ?SetAllowedValueTypesForKeys@ConfigurableImpl@AdobeXMPCore_Int@@$R4GA@CA@PPPPPPPM@FA@EAAXPEAU?$pair@_KW4eDataType@IConfigurable@AdobeXMPCommon@@@std@@_K@Z 000000018008d784 f i ClientDOMParserWrapperImpl.obj
 0001:0008c7a0       ?Clone@DOMParserImpl@AdobeXMPCore_Int@@$R4EI@CM@PPPPPPPM@GA@EBA?AV?$shared_ptr@VIDOMParser_v1@AdobeXMPCore@@@std@@XZ 000000018008d7a0 f i ClientDOMParserWrapperImpl.obj
 0001:0008c7bc       ?getDataType@IConfigurable_I@AdobeXMPCore_Int@@$R2DI@7PPPPPPPM@BI@EBAKAEB_KAEAPEBVIError_v1@AdobeXMPCommon@@@Z 000000018008d7bc f i ClientDOMParserWrapperImpl.obj
 0001:0008c7d8       ?AcquireInternal@SharedObjectImpl@AdobeXMPCore_Int@@$R4HI@CE@PPPPPPPM@DA@EBAXXZ 000000018008d7d8 f i ClientDOMParserWrapperImpl.obj
 0001:0008c7f4       ?GetAllParameters@ConfigurableImpl@AdobeXMPCore_Int@@$R4CI@CA@PPPPPPPM@EA@EBA?AV?$vector@_KV?$allocator@_K@std@@@std@@XZ 000000018008d7f4 f i ClientDOMParserWrapperImpl.obj
 0001:0008c810       ?GetISharedObject_I@IDOMParser_I@AdobeXMPCore_Int@@$4PPPPPPPM@A@EAAPEAVISharedObject_I@AdobeXMPCommon_Int@@XZ 000000018008d810 f i ClientDOMParserWrapperImpl.obj
 0001:0008c810       ?GetISharedObject_I@IDOMSerializer_I@AdobeXMPCore_Int@@$4PPPPPPPM@A@EAAPEAVISharedObject_I@AdobeXMPCommon_Int@@XZ 000000018008d810 f i ClientDOMSerializerWrapperImpl.obj
 0001:0008c81c       ?Clone@DOMParserImpl@AdobeXMPCore_Int@@$4PPPPPPPM@A@EBA?AV?$shared_ptr@VIDOMParser_v1@AdobeXMPCore@@@std@@XZ 000000018008d81c f i ClientDOMParserWrapperImpl.obj
 0001:0008c828       ?setParameter@IConfigurable_I@AdobeXMPCore_Int@@$2PPPPPPPM@A@EAAXAEB_KKAEBTCombinedDataValue@IConfigurable@AdobeXMPCommon@@AEAPEBVIError_v1@5@@Z 000000018008d828 f i ClientDOMParserWrapperImpl.obj
 0001:0008c834       ?setParameter@IConfigurable_I@AdobeXMPCore_Int@@$R2BA@BE@PPPPPPPM@BI@EAAXAEB_KKAEBTCombinedDataValue@IConfigurable@AdobeXMPCommon@@AEAPEBVIError_v1@5@@Z 000000018008d834 f i ClientDOMParserWrapperImpl.obj
 0001:0008c850       ?getInterfacePointer@IDOMParser_I@AdobeXMPCore_Int@@$R2DI@BM@PPPPPPPM@DI@EAAPEAX_KKAEAPEBVIError_v1@AdobeXMPCommon@@@Z 000000018008d850 f i ClientDOMParserWrapperImpl.obj
 0001:0008c868       ?Release@SharedObjectImpl@AdobeXMPCore_Int@@$R4CI@CE@PPPPPPPM@CA@EBAXXZ 000000018008d868 f i ClientDOMParserWrapperImpl.obj
 0001:0008c884       ?GetISharedObject_I@IDOMParser_I@AdobeXMPCore_Int@@$R4DI@BM@PPPPPPPM@CI@EAAPEAVISharedObject_I@AdobeXMPCommon_Int@@XZ 000000018008d884 f i ClientDOMParserWrapperImpl.obj
 0001:0008c8a0       ?getAllParameters@IConfigurable_I@AdobeXMPCore_Int@@$R2DI@7PPPPPPPM@BI@EBAXPEA_K_K@Z 000000018008d8a0 f i ClientDOMParserWrapperImpl.obj
 0001:0008c8bc       ?getDataType@IConfigurable_I@AdobeXMPCore_Int@@$2PPPPPPPM@A@EBAKAEB_KAEAPEBVIError_v1@AdobeXMPCommon@@@Z 000000018008d8bc f i ClientDOMParserWrapperImpl.obj
 0001:0008c8c8       ?getDataType@IConfigurable_I@AdobeXMPCore_Int@@$R2BA@BE@PPPPPPPM@BI@EBAKAEB_KAEAPEBVIError_v1@AdobeXMPCommon@@@Z 000000018008d8c8 f i ClientDOMParserWrapperImpl.obj
 0001:0008c8e4       ?Acquire@SharedObjectImpl@AdobeXMPCore_Int@@$R4DI@CE@PPPPPPPM@CA@EBAXXZ 000000018008d8e4 f i ClientDOMParserWrapperImpl.obj
 0001:0008c900       ?GetParameter@IConfigurable_I@AdobeXMPCore_Int@@$R4CI@BE@PPPPPPPM@BI@EBA_NAEB_KAEA_N@Z 000000018008d900 f i ClientDOMParserWrapperImpl.obj
 0001:0008c91c       ?GetParameter@IConfigurable_I@AdobeXMPCore_Int@@$R4CI@BE@PPPPPPPM@BI@EBA_NAEB_KAEA_K@Z 000000018008d91c f i ClientDOMParserWrapperImpl.obj
 0001:0008c938       ?GetParameter@IConfigurable_I@AdobeXMPCore_Int@@$R4CI@BE@PPPPPPPM@BI@EBA_NAEB_KAEA_J@Z 000000018008d938 f i ClientDOMParserWrapperImpl.obj
 0001:0008c954       ?GetParameter@IConfigurable_I@AdobeXMPCore_Int@@$R4CI@BE@PPPPPPPM@BI@EBA_NAEB_KAEAN@Z 000000018008d954 f i ClientDOMParserWrapperImpl.obj
 0001:0008c970       ?GetParameter@IConfigurable_I@AdobeXMPCore_Int@@$R4CI@BE@PPPPPPPM@BI@EBA_NAEB_KAEAD@Z 000000018008d970 f i ClientDOMParserWrapperImpl.obj
 0001:0008c98c       ?GetParameter@IConfigurable_I@AdobeXMPCore_Int@@$R4CI@BE@PPPPPPPM@BI@EBA_NAEB_KAEAPEBD@Z 000000018008d98c f i ClientDOMParserWrapperImpl.obj
 0001:0008c9a8       ?GetParameter@IConfigurable_I@AdobeXMPCore_Int@@$R4CI@BE@PPPPPPPM@BI@EBA_NAEB_KAEAPEBX@Z 000000018008d9a8 f i ClientDOMParserWrapperImpl.obj
 0001:0008c9c4       ?AllowDifferentValueTypesForExistingEntries@ConfigurableImpl@AdobeXMPCore_Int@@$R4GA@CA@PPPPPPPM@FA@EAAX_N@Z 000000018008d9c4 f i ClientDOMParserWrapperImpl.obj
 0001:0008c9e0       ?removeParameter@IConfigurable_I@AdobeXMPCore_Int@@$R2BI@BE@PPPPPPPM@BI@EAAKAEB_KAEAPEBVIError_v1@AdobeXMPCommon@@@Z 000000018008d9e0 f i ClientDOMParserWrapperImpl.obj
 0001:0008c9f8       ??_EIDOMParser_v1@AdobeXMPCore@@OBA@EAAPEAXI@Z 000000018008d9f8 f i ClientDOMParserWrapperImpl.obj
 0001:0008ca04       ?parse@IDOMParser_I@AdobeXMPCore_Int@@$R2EI@BM@PPPPPPPM@EI@EAAPEAVIMetadata_v1@AdobeXMPCore@@PEBD_KAEAPEBVIError_v1@AdobeXMPCommon@@@Z 000000018008da04 f i ClientDOMParserWrapperImpl.obj
 0001:0008ca1c       ?Size@ConfigurableImpl@AdobeXMPCore_Int@@$R4BI@CA@PPPPPPPM@EA@EBA_KXZ 000000018008da1c f i ClientDOMParserWrapperImpl.obj
 0001:0008ca38       ?TreatKeyAsCaseInsensitive@ConfigurableImpl@AdobeXMPCore_Int@@$R4HA@CA@PPPPPPPM@FA@EAAX_N@Z 000000018008da38 f i ClientDOMParserWrapperImpl.obj
 0001:0008ca54       ?SetParameter@IConfigurable_I@AdobeXMPCore_Int@@$R4CI@BE@PPPPPPPM@BI@EAAXAEB_K_N@Z 000000018008da54 f i ClientDOMParserWrapperImpl.obj
 0001:0008ca70       ?SetParameter@IConfigurable_I@AdobeXMPCore_Int@@$R4CI@BE@PPPPPPPM@BI@EAAXAEB_K_K@Z 000000018008da70 f i ClientDOMParserWrapperImpl.obj
 0001:0008ca8c       ?SetParameter@IConfigurable_I@AdobeXMPCore_Int@@$R4CI@BE@PPPPPPPM@BI@EAAXAEB_K_J@Z 000000018008da8c f i ClientDOMParserWrapperImpl.obj
 0001:0008caa8       ?SetParameter@IConfigurable_I@AdobeXMPCore_Int@@$R4CI@BE@PPPPPPPM@BI@EAAXAEB_KN@Z 000000018008daa8 f i ClientDOMParserWrapperImpl.obj
 0001:0008cac4       ?SetParameter@IConfigurable_I@AdobeXMPCore_Int@@$R4CI@BE@PPPPPPPM@BI@EAAXAEB_KD@Z 000000018008dac4 f i ClientDOMParserWrapperImpl.obj
 0001:0008cae0       ?SetParameter@IConfigurable_I@AdobeXMPCore_Int@@$R4CI@BE@PPPPPPPM@BI@EAAXAEB_KPEBD@Z 000000018008dae0 f i ClientDOMParserWrapperImpl.obj
 0001:0008cafc       ?SetParameter@IConfigurable_I@AdobeXMPCore_Int@@$R4CI@BE@PPPPPPPM@BI@EAAXAEB_KPEBX@Z 000000018008dafc f i ClientDOMParserWrapperImpl.obj
 0001:0008cb18       ?SetAllowedValueTypesForKeys@ConfigurableImpl@AdobeXMPCore_Int@@$4PPPPPPPM@A@EAAXPEAU?$pair@_KW4eDataType@IConfigurable@AdobeXMPCommon@@@std@@_K@Z 000000018008db18 f i ClientDOMParserWrapperImpl.obj
 0001:0008cb24       ?getAllParameters@IConfigurable_I@AdobeXMPCore_Int@@$2PPPPPPPM@A@EBAXPEA_K_K@Z 000000018008db24 f i ClientDOMParserWrapperImpl.obj
 0001:0008cb30       ?getAllParameters@IConfigurable_I@AdobeXMPCore_Int@@$R2BA@BE@PPPPPPPM@BI@EBAXPEA_K_K@Z 000000018008db30 f i ClientDOMParserWrapperImpl.obj
 0001:0008cb4c       ?parseWithSpecificAction@IDOMParser_I@AdobeXMPCore_Int@@$R2EI@BM@PPPPPPPM@EI@EAAXPEBD_KKPEAVINode_v1@AdobeXMPCore@@AEAPEBVIError_v1@AdobeXMPCommon@@@Z 000000018008db4c f i ClientDOMParserWrapperImpl.obj
 0001:0008cb64       ?SetAllowedKeys@ConfigurableImpl@AdobeXMPCore_Int@@$R4HA@CA@PPPPPPPM@FA@EAAXPEA_K_K@Z 000000018008db64 f i ClientDOMParserWrapperImpl.obj
 0001:0008cb80       ?Size@ConfigurableImpl@AdobeXMPCore_Int@@$4PPPPPPPM@A@EBA_KXZ 000000018008db80 f i ClientDOMParserWrapperImpl.obj
 0001:0008cb8c       ?GetInterfacePointer@IDOMParser_I@AdobeXMPCore_Int@@$4PPPPPPPM@A@EAAPEAX_KK@Z 000000018008db8c f i ClientDOMParserWrapperImpl.obj
 0001:0008cb98       ??_EIDOMParser_I@AdobeXMPCore_Int@@$2PPPPPPPM@BA@EAAPEAXI@Z 000000018008db98 f i ClientDOMParserWrapperImpl.obj
 0001:0008cba8       ?clone@IDOMParser_I@AdobeXMPCore_Int@@$R2EI@BM@PPPPPPPM@EI@EBAPEAVIDOMParser_v1@AdobeXMPCore@@AEAPEBVIError_v1@AdobeXMPCommon@@@Z 000000018008dba8 f i ClientDOMParserWrapperImpl.obj
 0001:0008cbc0       ?ParseWithSpecificAction@DOMParserImpl@AdobeXMPCore_Int@@$R4EI@CM@PPPPPPPM@GA@EAAXPEBD_KW4eActionType@IDOMParser_v1@AdobeXMPCore@@AEAV?$shared_ptr@VINode_v1@AdobeXMPCore@@@std@@@Z 000000018008dbc0 f i ClientDOMParserWrapperImpl.obj
 0001:0008cbdc       ?SetErrorCallback@DOMParserImpl@AdobeXMPCore_Int@@$4PPPPPPPM@A@EAAXPEAVErrorCallbackInfo@XMPMeta@@@Z 000000018008dbdc f i ClientDOMParserWrapperImpl.obj
 0001:0008cbdc       ?SetErrorCallback@RDFDOMParserImpl@AdobeXMPCore_Int@@$4PPPPPPPM@A@EAAXPEAVErrorCallbackInfo@XMPMeta@@@Z 000000018008dbdc f i DOMImplementationRegistryImpl.obj
 0001:0008cbe8       ?GetParameter@IConfigurable_I@AdobeXMPCore_Int@@$R4DI@7PPPPPPPM@BI@EBA_NAEB_KAEA_N@Z 000000018008dbe8 f i ClientDOMParserWrapperImpl.obj
 0001:0008cc04       ?GetParameter@IConfigurable_I@AdobeXMPCore_Int@@$R4DI@7PPPPPPPM@BI@EBA_NAEB_KAEA_K@Z 000000018008dc04 f i ClientDOMParserWrapperImpl.obj
 0001:0008cc20       ?GetParameter@IConfigurable_I@AdobeXMPCore_Int@@$R4DI@7PPPPPPPM@BI@EBA_NAEB_KAEA_J@Z 000000018008dc20 f i ClientDOMParserWrapperImpl.obj
 0001:0008cc3c       ?GetParameter@IConfigurable_I@AdobeXMPCore_Int@@$R4DI@7PPPPPPPM@BI@EBA_NAEB_KAEAN@Z 000000018008dc3c f i ClientDOMParserWrapperImpl.obj
 0001:0008cc58       ?GetParameter@IConfigurable_I@AdobeXMPCore_Int@@$R4DI@7PPPPPPPM@BI@EBA_NAEB_KAEAD@Z 000000018008dc58 f i ClientDOMParserWrapperImpl.obj
 0001:0008cc74       ?GetParameter@IConfigurable_I@AdobeXMPCore_Int@@$R4DI@7PPPPPPPM@BI@EBA_NAEB_KAEAPEBD@Z 000000018008dc74 f i ClientDOMParserWrapperImpl.obj
 0001:0008cc90       ?GetParameter@IConfigurable_I@AdobeXMPCore_Int@@$R4DI@7PPPPPPPM@BI@EBA_NAEB_KAEAPEBX@Z 000000018008dc90 f i ClientDOMParserWrapperImpl.obj
 0001:0008ccac       ??_EIConfigurable_I@AdobeXMPCore_Int@@$2PPPPPPPM@A@EAAPEAXI@Z 000000018008dcac f i ClientDOMParserWrapperImpl.obj
 0001:0008ccb8       ?GetActualIDOMParser@IDOMParser_I@AdobeXMPCore_Int@@$4PPPPPPPM@A@EAAPEAVIDOMParser_v1@AdobeXMPCore@@XZ 000000018008dcb8 f i ClientDOMParserWrapperImpl.obj
 0001:0008ccb8       ?GetActualIDOMSerializer@IDOMSerializer_I@AdobeXMPCore_Int@@$4PPPPPPPM@A@EAAPEAVIDOMSerializer_v1@AdobeXMPCore@@XZ 000000018008dcb8 f i ClientDOMSerializerWrapperImpl.obj
 0001:0008ccc4       ?Parse@DOMParserImpl@AdobeXMPCore_Int@@$R4EI@CM@PPPPPPPM@GA@EAA?AV?$shared_ptr@VIMetadata_v1@AdobeXMPCore@@@std@@PEBD_K@Z 000000018008dcc4 f i ClientDOMParserWrapperImpl.obj
 0001:0008cce0       ?GetMutex@DOMParserImpl@AdobeXMPCore_Int@@$R4GA@CM@PPPPPPPM@HI@EBA?AV?$shared_ptr@VISharedMutex@AdobeXMPCore_Int@@@std@@XZ 000000018008dce0 f i ClientDOMParserWrapperImpl.obj
 0001:0008ccfc       ?ParseWithSpecificAction@DOMParserImpl@AdobeXMPCore_Int@@$4PPPPPPPM@A@EAAXPEBD_KW4eActionType@IDOMParser_v1@AdobeXMPCore@@AEAV?$shared_ptr@VINode_v1@AdobeXMPCore@@@std@@@Z 000000018008dcfc f i ClientDOMParserWrapperImpl.obj
 0001:0008cd08       ?GetInterfacePointer@IDOMParser_I@AdobeXMPCore_Int@@$R4EI@BM@PPPPPPPM@DI@EAAPEAX_KK@Z 000000018008dd08 f i ClientDOMParserWrapperImpl.obj
 0001:0008cd24       ??_EDOMParserImpl@AdobeXMPCore_Int@@$2PPPPPPPM@A@EAAPEAXI@Z 000000018008dd24 f i ClientDOMParserWrapperImpl.obj
 0001:0008cd30       ?GetDataType@ConfigurableImpl@AdobeXMPCore_Int@@$R4CI@CA@PPPPPPPM@EA@EBA?AW4eDataType@IConfigurable@AdobeXMPCommon@@AEB_K@Z 000000018008dd30 f i ClientDOMParserWrapperImpl.obj
 0001:0008cd4c       ?SetParameter@IConfigurable_I@AdobeXMPCore_Int@@$R4DI@7PPPPPPPM@BI@EAAXAEB_K_N@Z 000000018008dd4c f i ClientDOMParserWrapperImpl.obj
 0001:0008cd68       ?SetParameter@IConfigurable_I@AdobeXMPCore_Int@@$R4DI@7PPPPPPPM@BI@EAAXAEB_K_K@Z 000000018008dd68 f i ClientDOMParserWrapperImpl.obj
 0001:0008cd84       ?SetParameter@IConfigurable_I@AdobeXMPCore_Int@@$R4DI@7PPPPPPPM@BI@EAAXAEB_K_J@Z 000000018008dd84 f i ClientDOMParserWrapperImpl.obj
 0001:0008cda0       ?SetParameter@IConfigurable_I@AdobeXMPCore_Int@@$R4DI@7PPPPPPPM@BI@EAAXAEB_KN@Z 000000018008dda0 f i ClientDOMParserWrapperImpl.obj
 0001:0008cdbc       ?SetParameter@IConfigurable_I@AdobeXMPCore_Int@@$R4DI@7PPPPPPPM@BI@EAAXAEB_KD@Z 000000018008ddbc f i ClientDOMParserWrapperImpl.obj
 0001:0008cdd8       ?SetParameter@IConfigurable_I@AdobeXMPCore_Int@@$R4DI@7PPPPPPPM@BI@EAAXAEB_KPEBD@Z 000000018008ddd8 f i ClientDOMParserWrapperImpl.obj
 0001:0008cdf4       ?SetParameter@IConfigurable_I@AdobeXMPCore_Int@@$R4DI@7PPPPPPPM@BI@EAAXAEB_KPEBX@Z 000000018008ddf4 f i ClientDOMParserWrapperImpl.obj
 0001:0008ce10       ??_EClientDOMParserWrapperImpl@AdobeXMPCore_Int@@$2PPPPPPPM@BA@EAAPEAXI@Z 000000018008de10 f i ClientDOMParserWrapperImpl.obj
 0001:0008ce20       ?setParameter@IConfigurable_I@AdobeXMPCore_Int@@$R2BI@BE@PPPPPPPM@BI@EAAXAEB_KKAEBTCombinedDataValue@IConfigurable@AdobeXMPCommon@@AEAPEBVIError_v1@5@@Z 000000018008de20 f i ClientDOMParserWrapperImpl.obj
 0001:0008ce38       ?Parse@DOMParserImpl@AdobeXMPCore_Int@@$4PPPPPPPM@A@EAA?AV?$shared_ptr@VIMetadata_v1@AdobeXMPCore@@@std@@PEBD_K@Z 000000018008de38 f i ClientDOMParserWrapperImpl.obj
 0001:0008ce44       ??_EDOMParserImpl@AdobeXMPCore_Int@@$2PPPPPPPM@CA@EAAPEAXI@Z 000000018008de44 f i ClientDOMParserWrapperImpl.obj
 0001:0008ce54       ?getParameter@IConfigurable_I@AdobeXMPCore_Int@@$R2CI@BE@PPPPPPPM@BI@EBAKAEB_KKAEATCombinedDataValue@IConfigurable@AdobeXMPCommon@@AEAPEBVIError_v1@5@@Z 000000018008de54 f i ClientDOMParserWrapperImpl.obj
 0001:0008ce70       ?AllowDifferentValueTypesForExistingEntries@ConfigurableImpl@AdobeXMPCore_Int@@$4PPPPPPPM@A@EAAX_N@Z 000000018008de70 f i ClientDOMParserWrapperImpl.obj
 0001:0008ce7c       ?GetParameter@IConfigurable_I@AdobeXMPCore_Int@@$4PPPPPPPM@A@EBA_NAEB_KAEA_N@Z 000000018008de7c f i ClientDOMParserWrapperImpl.obj
 0001:0008ce88       ?GetParameter@IConfigurable_I@AdobeXMPCore_Int@@$4PPPPPPPM@A@EBA_NAEB_KAEA_K@Z 000000018008de88 f i ClientDOMParserWrapperImpl.obj
 0001:0008ce94       ?GetParameter@IConfigurable_I@AdobeXMPCore_Int@@$4PPPPPPPM@A@EBA_NAEB_KAEA_J@Z 000000018008de94 f i ClientDOMParserWrapperImpl.obj
 0001:0008cea0       ?GetParameter@IConfigurable_I@AdobeXMPCore_Int@@$4PPPPPPPM@A@EBA_NAEB_KAEAN@Z 000000018008dea0 f i ClientDOMParserWrapperImpl.obj
 0001:0008ceac       ?GetParameter@IConfigurable_I@AdobeXMPCore_Int@@$4PPPPPPPM@A@EBA_NAEB_KAEAD@Z 000000018008deac f i ClientDOMParserWrapperImpl.obj
 0001:0008ceb8       ?GetParameter@IConfigurable_I@AdobeXMPCore_Int@@$4PPPPPPPM@A@EBA_NAEB_KAEAPEBD@Z 000000018008deb8 f i ClientDOMParserWrapperImpl.obj
 0001:0008cec4       ?GetParameter@IConfigurable_I@AdobeXMPCore_Int@@$4PPPPPPPM@A@EBA_NAEB_KAEAPEBX@Z 000000018008dec4 f i ClientDOMParserWrapperImpl.obj
 0001:0008ced0       ?GetParameter@IConfigurable_I@AdobeXMPCore_Int@@$R4BA@BE@PPPPPPPM@BI@EBA_NAEB_KAEA_N@Z 000000018008ded0 f i ClientDOMParserWrapperImpl.obj
 0001:0008ceec       ?GetParameter@IConfigurable_I@AdobeXMPCore_Int@@$R4BA@BE@PPPPPPPM@BI@EBA_NAEB_KAEA_K@Z 000000018008deec f i ClientDOMParserWrapperImpl.obj
 0001:0008cf08       ?GetParameter@IConfigurable_I@AdobeXMPCore_Int@@$R4BA@BE@PPPPPPPM@BI@EBA_NAEB_KAEA_J@Z 000000018008df08 f i ClientDOMParserWrapperImpl.obj
 0001:0008cf24       ?GetParameter@IConfigurable_I@AdobeXMPCore_Int@@$R4BA@BE@PPPPPPPM@BI@EBA_NAEB_KAEAN@Z 000000018008df24 f i ClientDOMParserWrapperImpl.obj
 0001:0008cf40       ?GetParameter@IConfigurable_I@AdobeXMPCore_Int@@$R4BA@BE@PPPPPPPM@BI@EBA_NAEB_KAEAD@Z 000000018008df40 f i ClientDOMParserWrapperImpl.obj
 0001:0008cf5c       ?GetParameter@IConfigurable_I@AdobeXMPCore_Int@@$R4BA@BE@PPPPPPPM@BI@EBA_NAEB_KAEAPEBD@Z 000000018008df5c f i ClientDOMParserWrapperImpl.obj
 0001:0008cf78       ?GetParameter@IConfigurable_I@AdobeXMPCore_Int@@$R4BA@BE@PPPPPPPM@BI@EBA_NAEB_KAEAPEBX@Z 000000018008df78 f i ClientDOMParserWrapperImpl.obj
 0001:0008cf94       ?getDataType@IConfigurable_I@AdobeXMPCore_Int@@$R2BI@BE@PPPPPPPM@BI@EBAKAEB_KAEAPEBVIError_v1@AdobeXMPCommon@@@Z 000000018008df94 f i ClientDOMParserWrapperImpl.obj
 0001:0008cfac       ?RemoveParameter@ConfigurableImpl@AdobeXMPCore_Int@@$R4BI@CA@PPPPPPPM@EA@EAA_NAEB_K@Z 000000018008dfac f i ClientDOMParserWrapperImpl.obj
 0001:0008cfc8       ?GetActualIDOMParser@IDOMParser_I@AdobeXMPCore_Int@@$R4FI@BM@PPPPPPPM@EI@EAAPEAVIDOMParser_v1@AdobeXMPCore@@XZ 000000018008dfc8 f i ClientDOMParserWrapperImpl.obj
 0001:0008cfe4       ?GetParameter@ConfigurableImpl@AdobeXMPCore_Int@@$R4GA@CA@PPPPPPPM@FA@EBA_NAEB_KW4eDataType@IConfigurable@AdobeXMPCommon@@AEATCombinedDataValue@45@@Z 000000018008dfe4 f i ClientDOMParserWrapperImpl.obj
 0001:0008d000       ?RemoveParameter@ConfigurableImpl@AdobeXMPCore_Int@@$4PPPPPPPM@A@EAA_NAEB_K@Z 000000018008e000 f i ClientDOMParserWrapperImpl.obj
 0001:0008d00c       ?SetParameter@IConfigurable_I@AdobeXMPCore_Int@@$4PPPPPPPM@A@EAAXAEB_K_N@Z 000000018008e00c f i ClientDOMParserWrapperImpl.obj
 0001:0008d018       ?SetParameter@IConfigurable_I@AdobeXMPCore_Int@@$4PPPPPPPM@A@EAAXAEB_K_K@Z 000000018008e018 f i ClientDOMParserWrapperImpl.obj
 0001:0008d024       ?SetParameter@IConfigurable_I@AdobeXMPCore_Int@@$4PPPPPPPM@A@EAAXAEB_K_J@Z 000000018008e024 f i ClientDOMParserWrapperImpl.obj
 0001:0008d030       ?SetParameter@IConfigurable_I@AdobeXMPCore_Int@@$4PPPPPPPM@A@EAAXAEB_KN@Z 000000018008e030 f i ClientDOMParserWrapperImpl.obj
 0001:0008d03c       ?SetParameter@IConfigurable_I@AdobeXMPCore_Int@@$4PPPPPPPM@A@EAAXAEB_KD@Z 000000018008e03c f i ClientDOMParserWrapperImpl.obj
 0001:0008d048       ?SetParameter@IConfigurable_I@AdobeXMPCore_Int@@$4PPPPPPPM@A@EAAXAEB_KPEBD@Z 000000018008e048 f i ClientDOMParserWrapperImpl.obj
 0001:0008d054       ?SetParameter@IConfigurable_I@AdobeXMPCore_Int@@$4PPPPPPPM@A@EAAXAEB_KPEBX@Z 000000018008e054 f i ClientDOMParserWrapperImpl.obj
 0001:0008d060       ?SetParameter@IConfigurable_I@AdobeXMPCore_Int@@$R4BA@BE@PPPPPPPM@BI@EAAXAEB_K_N@Z 000000018008e060 f i ClientDOMParserWrapperImpl.obj
 0001:0008d07c       ?SetParameter@IConfigurable_I@AdobeXMPCore_Int@@$R4BA@BE@PPPPPPPM@BI@EAAXAEB_K_K@Z 000000018008e07c f i ClientDOMParserWrapperImpl.obj
 0001:0008d098       ?SetParameter@IConfigurable_I@AdobeXMPCore_Int@@$R4BA@BE@PPPPPPPM@BI@EAAXAEB_K_J@Z 000000018008e098 f i ClientDOMParserWrapperImpl.obj
 0001:0008d0b4       ?SetParameter@IConfigurable_I@AdobeXMPCore_Int@@$R4BA@BE@PPPPPPPM@BI@EAAXAEB_KN@Z 000000018008e0b4 f i ClientDOMParserWrapperImpl.obj
 0001:0008d0d0       ?SetParameter@IConfigurable_I@AdobeXMPCore_Int@@$R4BA@BE@PPPPPPPM@BI@EAAXAEB_KD@Z 000000018008e0d0 f i ClientDOMParserWrapperImpl.obj
 0001:0008d0ec       ?SetParameter@IConfigurable_I@AdobeXMPCore_Int@@$R4BA@BE@PPPPPPPM@BI@EAAXAEB_KPEBD@Z 000000018008e0ec f i ClientDOMParserWrapperImpl.obj
 0001:0008d108       ?SetParameter@IConfigurable_I@AdobeXMPCore_Int@@$R4BA@BE@PPPPPPPM@BI@EAAXAEB_KPEBX@Z 000000018008e108 f i ClientDOMParserWrapperImpl.obj
 0001:0008d124       ?ParseAsNode@ClientDOMParserWrapperImpl@AdobeXMPCore_Int@@$4PPPPPPPM@A@EAA?AV?$shared_ptr@VINode_v1@AdobeXMPCore@@@std@@PEBD_K@Z 000000018008e124 f i ClientDOMParserWrapperImpl.obj
 0001:0008d130       ?SetParameter@ConfigurableImpl@AdobeXMPCore_Int@@$R4GA@CA@PPPPPPPM@FA@EAAXAEB_KW4eDataType@IConfigurable@AdobeXMPCommon@@AEBTCombinedDataValue@45@@Z 000000018008e130 f i ClientDOMParserWrapperImpl.obj
 0001:0008d14c       ?GetIDOMParser_I@IDOMParser_I@AdobeXMPCore_Int@@$R4EI@BM@PPPPPPPM@EI@EAAPEAV12@XZ 000000018008e14c f i ClientDOMParserWrapperImpl.obj
 0001:0008d14c       ?GetIDOMSerializer_I@IDOMSerializer_I@AdobeXMPCore_Int@@$R4EI@BM@PPPPPPPM@EI@EAAPEAV12@XZ 000000018008e14c f i ClientDOMSerializerWrapperImpl.obj
 0001:0008d164       ?getAllParameters@IConfigurable_I@AdobeXMPCore_Int@@$R2BI@BE@PPPPPPPM@BI@EBAXPEA_K_K@Z 000000018008e164 f i ClientDOMParserWrapperImpl.obj
 0001:0008d17c       ?SetAllowedValueTypesForKeys@ConfigurableImpl@AdobeXMPCore_Int@@$R4HA@CA@PPPPPPPM@FA@EAAXPEAU?$pair@_KW4eDataType@IConfigurable@AdobeXMPCommon@@@std@@_K@Z 000000018008e17c f i ClientDOMParserWrapperImpl.obj
 0001:0008d198       ?getParameter@IConfigurable_I@AdobeXMPCore_Int@@$R2DI@7PPPPPPPM@BI@EBAKAEB_KKAEATCombinedDataValue@IConfigurable@AdobeXMPCommon@@AEAPEBVIError_v1@5@@Z 000000018008e198 f i ClientDOMParserWrapperImpl.obj
 0001:0008d1b4       ?getInterfacePointer@IDOMParser_I@AdobeXMPCore_Int@@$2PPPPPPPM@A@EAAPEAX_KKAEAPEBVIError_v1@AdobeXMPCommon@@@Z 000000018008e1b4 f i ClientDOMParserWrapperImpl.obj
 0001:0008d1c0       ?AcquireInternal@SharedObjectImpl@AdobeXMPCore_Int@@$R4II@CE@PPPPPPPM@DA@EBAXXZ 000000018008e1c0 f i ClientDOMParserWrapperImpl.obj
 0001:0008d1dc       ??_EConfigurableImpl@AdobeXMPCore_Int@@$4PPPPPPPM@A@EAAPEAXI@Z 000000018008e1dc f i ClientDOMParserWrapperImpl.obj
 0001:0008d1e8       ?GetAllParameters@ConfigurableImpl@AdobeXMPCore_Int@@$R4BI@CA@PPPPPPPM@EA@EBA?AV?$vector@_KV?$allocator@_K@std@@@std@@XZ 000000018008e1e8 f i ClientDOMParserWrapperImpl.obj
 0001:0008d204       ?parse@IDOMParser_I@AdobeXMPCore_Int@@$2PPPPPPPM@A@EAAPEAVIMetadata_v1@AdobeXMPCore@@PEBD_KAEAPEBVIError_v1@AdobeXMPCommon@@@Z 000000018008e204 f i ClientDOMParserWrapperImpl.obj
 0001:0008d210       ?getInterfacePointer@IDOMParser_I@AdobeXMPCore_Int@@$R2EI@BM@PPPPPPPM@DI@EAAPEAX_KKAEAPEBVIError_v1@AdobeXMPCommon@@@Z 000000018008e210 f i ClientDOMParserWrapperImpl.obj
 0001:0008d22c       ?Release@SharedObjectImpl@AdobeXMPCore_Int@@$R4DI@CE@PPPPPPPM@CA@EBAXXZ 000000018008e22c f i ClientDOMParserWrapperImpl.obj
 0001:0008d248       ?GetAllParameters@ConfigurableImpl@AdobeXMPCore_Int@@$4PPPPPPPM@A@EBA?AV?$vector@_KV?$allocator@_K@std@@@std@@XZ 000000018008e248 f i ClientDOMParserWrapperImpl.obj
 0001:0008d254       ?getParameter@IConfigurable_I@AdobeXMPCore_Int@@$2PPPPPPPM@A@EBAKAEB_KKAEATCombinedDataValue@IConfigurable@AdobeXMPCommon@@AEAPEBVIError_v1@5@@Z 000000018008e254 f i ClientDOMParserWrapperImpl.obj
 0001:0008d260       ?parseWithSpecificAction@IDOMParser_I@AdobeXMPCore_Int@@$2PPPPPPPM@A@EAAXPEBD_KKPEAVINode_v1@AdobeXMPCore@@AEAPEBVIError_v1@AdobeXMPCommon@@@Z 000000018008e260 f i ClientDOMParserWrapperImpl.obj
 0001:0008d26c       ?getParameter@IConfigurable_I@AdobeXMPCore_Int@@$R2BA@BE@PPPPPPPM@BI@EBAKAEB_KKAEATCombinedDataValue@IConfigurable@AdobeXMPCommon@@AEAPEBVIError_v1@5@@Z 000000018008e26c f i ClientDOMParserWrapperImpl.obj
 0001:0008d288       ?GetISharedObject_I@IDOMParser_I@AdobeXMPCore_Int@@$R4CI@BM@PPPPPPPM@CI@EAAPEAVISharedObject_I@AdobeXMPCommon_Int@@XZ 000000018008e288 f i ClientDOMParserWrapperImpl.obj
 0001:0008d288       ?GetISharedObject_I@IDOMSerializer_I@AdobeXMPCore_Int@@$R4CI@BM@PPPPPPPM@CI@EAAPEAVISharedObject_I@AdobeXMPCommon_Int@@XZ 000000018008e288 f i ClientDOMSerializerWrapperImpl.obj
 0001:0008d2a0       ?GetParameter@ConfigurableImpl@AdobeXMPCore_Int@@$4PPPPPPPM@A@EBA_NAEB_KW4eDataType@IConfigurable@AdobeXMPCommon@@AEATCombinedDataValue@45@@Z 000000018008e2a0 f i ClientDOMParserWrapperImpl.obj
 0001:0008d2ac       ?clone@IDOMParser_I@AdobeXMPCore_Int@@$2PPPPPPPM@A@EBAPEAVIDOMParser_v1@AdobeXMPCore@@AEAPEBVIError_v1@AdobeXMPCommon@@@Z 000000018008e2ac f i ClientDOMParserWrapperImpl.obj
 0001:0008d2b8       ?Acquire@SharedObjectImpl@AdobeXMPCore_Int@@$R4CI@CE@PPPPPPPM@CA@EBAXXZ 000000018008e2b8 f i ClientDOMParserWrapperImpl.obj
 0001:0008d2d4       ?GetParameter@IConfigurable_I@AdobeXMPCore_Int@@$R4BI@BE@PPPPPPPM@BI@EBA_NAEB_KAEA_N@Z 000000018008e2d4 f i ClientDOMParserWrapperImpl.obj
 0001:0008d2ec       ?GetParameter@IConfigurable_I@AdobeXMPCore_Int@@$R4BI@BE@PPPPPPPM@BI@EBA_NAEB_KAEA_K@Z 000000018008e2ec f i ClientDOMParserWrapperImpl.obj
 0001:0008d304       ?GetParameter@IConfigurable_I@AdobeXMPCore_Int@@$R4BI@BE@PPPPPPPM@BI@EBA_NAEB_KAEA_J@Z 000000018008e304 f i ClientDOMParserWrapperImpl.obj
 0001:0008d31c       ?GetParameter@IConfigurable_I@AdobeXMPCore_Int@@$R4BI@BE@PPPPPPPM@BI@EBA_NAEB_KAEAN@Z 000000018008e31c f i ClientDOMParserWrapperImpl.obj
 0001:0008d334       ?GetParameter@IConfigurable_I@AdobeXMPCore_Int@@$R4BI@BE@PPPPPPPM@BI@EBA_NAEB_KAEAD@Z 000000018008e334 f i ClientDOMParserWrapperImpl.obj
 0001:0008d34c       ?GetParameter@IConfigurable_I@AdobeXMPCore_Int@@$R4BI@BE@PPPPPPPM@BI@EBA_NAEB_KAEAPEBD@Z 000000018008e34c f i ClientDOMParserWrapperImpl.obj
 0001:0008d364       ?GetParameter@IConfigurable_I@AdobeXMPCore_Int@@$R4BI@BE@PPPPPPPM@BI@EBA_NAEB_KAEAPEBX@Z 000000018008e364 f i ClientDOMParserWrapperImpl.obj
 0001:0008d37c       ?AllowDifferentValueTypesForExistingEntries@ConfigurableImpl@AdobeXMPCore_Int@@$R4HA@CA@PPPPPPPM@FA@EAAX_N@Z 000000018008e37c f i ClientDOMParserWrapperImpl.obj
 0001:0008d398       ?removeParameter@IConfigurable_I@AdobeXMPCore_Int@@$R2CI@BE@PPPPPPPM@BI@EAAKAEB_KAEAPEBVIError_v1@AdobeXMPCommon@@@Z 000000018008e398 f i ClientDOMParserWrapperImpl.obj
 0001:0008d3b4       ?parse@IDOMParser_I@AdobeXMPCore_Int@@$R2FI@BM@PPPPPPPM@EI@EAAPEAVIMetadata_v1@AdobeXMPCore@@PEBD_KAEAPEBVIError_v1@AdobeXMPCommon@@@Z 000000018008e3b4 f i ClientDOMParserWrapperImpl.obj
 0001:0008d3d0       ?Size@ConfigurableImpl@AdobeXMPCore_Int@@$R4CI@CA@PPPPPPPM@EA@EBA_KXZ 000000018008e3d0 f i ClientDOMParserWrapperImpl.obj
 0001:0008d3ec       ?SetParameter@ConfigurableImpl@AdobeXMPCore_Int@@$4PPPPPPPM@A@EAAXAEB_KW4eDataType@IConfigurable@AdobeXMPCommon@@AEBTCombinedDataValue@45@@Z 000000018008e3ec f i ClientDOMParserWrapperImpl.obj
 0001:0008d3f8       ?TreatKeyAsCaseInsensitive@ConfigurableImpl@AdobeXMPCore_Int@@$R4GA@CA@PPPPPPPM@FA@EAAX_N@Z 000000018008e3f8 f i ClientDOMParserWrapperImpl.obj
 0001:0008d414       ?SetParameter@IConfigurable_I@AdobeXMPCore_Int@@$R4BI@BE@PPPPPPPM@BI@EAAXAEB_K_N@Z 000000018008e414 f i ClientDOMParserWrapperImpl.obj
 0001:0008d42c       ?SetParameter@IConfigurable_I@AdobeXMPCore_Int@@$R4BI@BE@PPPPPPPM@BI@EAAXAEB_K_K@Z 000000018008e42c f i ClientDOMParserWrapperImpl.obj
 0001:0008d444       ?SetParameter@IConfigurable_I@AdobeXMPCore_Int@@$R4BI@BE@PPPPPPPM@BI@EAAXAEB_K_J@Z 000000018008e444 f i ClientDOMParserWrapperImpl.obj
 0001:0008d45c       ?SetParameter@IConfigurable_I@AdobeXMPCore_Int@@$R4BI@BE@PPPPPPPM@BI@EAAXAEB_KN@Z 000000018008e45c f i ClientDOMParserWrapperImpl.obj
 0001:0008d474       ?SetParameter@IConfigurable_I@AdobeXMPCore_Int@@$R4BI@BE@PPPPPPPM@BI@EAAXAEB_KD@Z 000000018008e474 f i ClientDOMParserWrapperImpl.obj
 0001:0008d48c       ?SetParameter@IConfigurable_I@AdobeXMPCore_Int@@$R4BI@BE@PPPPPPPM@BI@EAAXAEB_KPEBD@Z 000000018008e48c f i ClientDOMParserWrapperImpl.obj
 0001:0008d4a4       ?SetParameter@IConfigurable_I@AdobeXMPCore_Int@@$R4BI@BE@PPPPPPPM@BI@EAAXAEB_KPEBX@Z 000000018008e4a4 f i ClientDOMParserWrapperImpl.obj
 0001:0008d4bc       ?parseWithSpecificAction@IDOMParser_I@AdobeXMPCore_Int@@$R2FI@BM@PPPPPPPM@EI@EAAXPEBD_KKPEAVINode_v1@AdobeXMPCore@@AEAPEBVIError_v1@AdobeXMPCommon@@@Z 000000018008e4bc f i ClientDOMParserWrapperImpl.obj
 0001:0008d4d8       ??_EIDOMParser_I@AdobeXMPCore_Int@@$2PPPPPPPM@A@EAAPEAXI@Z 000000018008e4d8 f i ClientDOMParserWrapperImpl.obj
 0001:0008d4e4       ?SetAllowedKeys@ConfigurableImpl@AdobeXMPCore_Int@@$R4GA@CA@PPPPPPPM@FA@EAAXPEA_K_K@Z 000000018008e4e4 f i ClientDOMParserWrapperImpl.obj
 0001:0008d500       ?clone@IDOMParser_I@AdobeXMPCore_Int@@$R2FI@BM@PPPPPPPM@EI@EBAPEAVIDOMParser_v1@AdobeXMPCore@@AEAPEBVIError_v1@AdobeXMPCommon@@@Z 000000018008e500 f i ClientDOMParserWrapperImpl.obj
 0001:0008d51c       ??_EIDOMParser_I@AdobeXMPCore_Int@@$2PPPPPPPM@CA@EAAPEAXI@Z 000000018008e51c f i ClientDOMParserWrapperImpl.obj
 0001:0008d52c       ?removeParameter@IConfigurable_I@AdobeXMPCore_Int@@$R2DI@7PPPPPPPM@BI@EAAKAEB_KAEAPEBVIError_v1@AdobeXMPCommon@@@Z 000000018008e52c f i ClientDOMParserWrapperImpl.obj
 0001:0008d548       ?SetErrorCallback@DOMParserImpl@AdobeXMPCore_Int@@$R4JA@CM@PPPPPPPM@KI@EAAXPEAVErrorCallbackInfo@XMPMeta@@@Z 000000018008e548 f i ClientDOMParserWrapperImpl.obj
 0001:0008d564       ?GetInterfacePointer@IDOMParser_I@AdobeXMPCore_Int@@$R4DI@BM@PPPPPPPM@DI@EAAPEAX_KK@Z 000000018008e564 f i ClientDOMParserWrapperImpl.obj
 0001:0008d57c       ??_EClientDOMParserWrapperImpl@AdobeXMPCore_Int@@$2PPPPPPPM@A@EAAPEAXI@Z 000000018008e57c f i ClientDOMParserWrapperImpl.obj
 0001:0008d588       ?GetDataType@ConfigurableImpl@AdobeXMPCore_Int@@$R4BI@CA@PPPPPPPM@EA@EBA?AW4eDataType@IConfigurable@AdobeXMPCommon@@AEB_K@Z 000000018008e588 f i ClientDOMParserWrapperImpl.obj
 0001:0008d5a4       ?GetMutex@DOMParserImpl@AdobeXMPCore_Int@@$4PPPPPPPM@A@EBA?AV?$shared_ptr@VISharedMutex@AdobeXMPCore_Int@@@std@@XZ 000000018008e5a4 f i ClientDOMParserWrapperImpl.obj
 0001:0008d5a4       ?GetLocation@ErrorImpl@AdobeXMPCore_Int@@$4PPPPPPPM@A@EBA?AV?$shared_ptr@$$CBVIUTF8String_v1@AdobeXMPCommon@@@std@@XZ 000000018008e5a4 f i ErrorImpl.obj
 0001:0008d5a4       ?GetNameSpace@PathSegmentImpl@AdobeXMPCore_Int@@$4PPPPPPPM@A@EBA?AV?$shared_ptr@$$CBVIUTF8String_v1@AdobeXMPCommon@@@std@@XZ 000000018008e5a4 f i PathSegmentImpl.obj
 0001:0008d5b0       ??_EDOMParserImpl@AdobeXMPCore_Int@@$2PPPPPPPM@BA@EAAPEAXI@Z 000000018008e5b0 f i ClientDOMParserWrapperImpl.obj
 0001:0008d5c0       ?setParameter@IConfigurable_I@AdobeXMPCore_Int@@$R2CI@BE@PPPPPPPM@BI@EAAXAEB_KKAEBTCombinedDataValue@IConfigurable@AdobeXMPCommon@@AEAPEBVIError_v1@5@@Z 000000018008e5c0 f i ClientDOMParserWrapperImpl.obj
 0001:0008d5dc       ?clone@ClientDOMParserWrapperImpl@AdobeXMPCore_Int@@$4PPPPPPPM@A@EBAPEAVDOMParserImpl@2@XZ 000000018008e5dc f i ClientDOMParserWrapperImpl.obj
 0001:0008d5e8       ??_EClientDOMParserWrapperImpl@AdobeXMPCore_Int@@$2PPPPPPPM@CA@EAAPEAXI@Z 000000018008e5e8 f i ClientDOMParserWrapperImpl.obj
 0001:0008d5f8       ?getParameter@IConfigurable_I@AdobeXMPCore_Int@@$R2BI@BE@PPPPPPPM@BI@EBAKAEB_KKAEATCombinedDataValue@IConfigurable@AdobeXMPCommon@@AEAPEBVIError_v1@5@@Z 000000018008e5f8 f i ClientDOMParserWrapperImpl.obj
 0001:0008d610       ?getDataType@IConfigurable_I@AdobeXMPCore_Int@@$R2CI@BE@PPPPPPPM@BI@EBAKAEB_KAEAPEBVIError_v1@AdobeXMPCommon@@@Z 000000018008e610 f i ClientDOMParserWrapperImpl.obj
 0001:0008d62c       ?RemoveParameter@ConfigurableImpl@AdobeXMPCore_Int@@$R4CI@CA@PPPPPPPM@EA@EAA_NAEB_K@Z 000000018008e62c f i ClientDOMParserWrapperImpl.obj
 0001:0008d648       ?GetDataType@ConfigurableImpl@AdobeXMPCore_Int@@$4PPPPPPPM@A@EBA?AW4eDataType@IConfigurable@AdobeXMPCommon@@AEB_K@Z 000000018008e648 f i ClientDOMParserWrapperImpl.obj
 0001:0008d654       ?removeParameter@IConfigurable_I@AdobeXMPCore_Int@@$2PPPPPPPM@A@EAAKAEB_KAEAPEBVIError_v1@AdobeXMPCommon@@@Z 000000018008e654 f i ClientDOMParserWrapperImpl.obj
 0001:0008d660       ?removeParameter@IConfigurable_I@AdobeXMPCore_Int@@$R2BA@BE@PPPPPPPM@BI@EAAKAEB_KAEAPEBVIError_v1@AdobeXMPCommon@@@Z 000000018008e660 f i ClientDOMParserWrapperImpl.obj
 0001:0008d67c       ?GetActualIDOMSerializer@IDOMSerializer_I@AdobeXMPCore_Int@@$R4EI@BM@PPPPPPPM@EI@EAAPEAVIDOMSerializer_v1@AdobeXMPCore@@XZ 000000018008e67c f i ClientDOMSerializerWrapperImpl.obj
 0001:0008d67c       ?GetActualIDOMParser@IDOMParser_I@AdobeXMPCore_Int@@$R4EI@BM@PPPPPPPM@EI@EAAPEAVIDOMParser_v1@AdobeXMPCore@@XZ 000000018008e67c f i ClientDOMParserWrapperImpl.obj
 0001:0008d694       ??1IDOMSerializer_v1@AdobeXMPCore@@MEAA@XZ 000000018008e694 f i ClientDOMSerializerWrapperImpl.obj
 0001:0008d6dc       ??_GIDOMSerializer_v1@AdobeXMPCore@@MEAAPEAXI@Z 000000018008e6dc f i ClientDOMSerializerWrapperImpl.obj
 0001:0008d6dc       ??_EIDOMSerializer_v1@AdobeXMPCore@@MEAAPEAXI@Z 000000018008e6dc f i * CIL library *:* CIL module *
 0001:0008d76c       ??1IDOMSerializer_I@AdobeXMPCore_Int@@MEAA@XZ 000000018008e76c f i ClientDOMSerializerWrapperImpl.obj
 0001:0008d834       ??_EIDOMSerializer_I@AdobeXMPCore_Int@@MEAAPEAXI@Z 000000018008e834 f i * CIL library *:* CIL module *
 0001:0008d834       ??_GIDOMSerializer_I@AdobeXMPCore_Int@@MEAAPEAXI@Z 000000018008e834 f i ClientDOMSerializerWrapperImpl.obj
 0001:0008d910       ??1DOMSerializerImpl@AdobeXMPCore_Int@@MEAA@XZ 000000018008e910 f i ClientDOMSerializerWrapperImpl.obj
 0001:0008da50       ??_GDOMSerializerImpl@AdobeXMPCore_Int@@MEAAPEAXI@Z 000000018008ea50 f i ClientDOMSerializerWrapperImpl.obj
 0001:0008da50       ??_EDOMSerializerImpl@AdobeXMPCore_Int@@MEAAPEAXI@Z 000000018008ea50 f i * CIL library *:* CIL module *
 0001:0008dbb4       ??0ClientDOMSerializerWrapperImpl@AdobeXMPCore_Int@@QEAA@PEAVIClientDOMSerializer_v1@AdobeXMPCore@@@Z 000000018008ebb4 f   ClientDOMSerializerWrapperImpl.obj
 0001:0008e044       ??_EClientDOMSerializerWrapperImpl@AdobeXMPCore_Int@@MEAAPEAXI@Z 000000018008f044 f i * CIL library *:* CIL module *
 0001:0008e044       ??_GClientDOMSerializerWrapperImpl@AdobeXMPCore_Int@@MEAAPEAXI@Z 000000018008f044 f i ClientDOMSerializerWrapperImpl.obj
 0001:0008e1b4       ??0IDOMSerializer_I@AdobeXMPCore_Int@@QEAA@XZ 000000018008f1b4 f i ClientDOMSerializerWrapperImpl.obj
 0001:0008e27c       ??1ClientDOMSerializerWrapperImpl@AdobeXMPCore_Int@@MEAA@XZ 000000018008f27c f   ClientDOMSerializerWrapperImpl.obj
 0001:0008e3d4       ?clone@ClientDOMSerializerWrapperImpl@AdobeXMPCore_Int@@MEBAPEAVDOMSerializerImpl@2@XZ 000000018008f3d4 f   ClientDOMSerializerWrapperImpl.obj
 0001:0008e43c       ?Serialize@ClientDOMSerializerWrapperImpl@AdobeXMPCore_Int@@UEAA?AV?$shared_ptr@VIUTF8String_v1@AdobeXMPCommon@@@std@@AEBV?$shared_ptr@VINode_v1@AdobeXMPCore@@@4@AEBV?$shared_ptr@$$CBVINameSpacePrefixMap_v1@AdobeXMPCore@@@4@@Z 000000018008f43c f   ClientDOMSerializerWrapperImpl.obj
 0001:0008e73c       ?ValidateValue@ClientDOMSerializerWrapperImpl@AdobeXMPCore_Int@@UEBA?AW4eConfigurableErrorCode@AdobeXMPCommon@@AEB_KW4eDataType@IConfigurable@4@AEBTCombinedDataValue@64@@Z 000000018008f73c f   ClientDOMSerializerWrapperImpl.obj
 0001:0008e890       ?ConvertToStructureNode@NodeImpl@AdobeXMPCore_Int@@UEAA?AV?$shared_ptr@VIStructureNode_v1@AdobeXMPCore@@@std@@XZ 000000018008f890 f   NodeImpl.obj
 0001:0008e890       ?ConvertToMetadata@NodeImpl@AdobeXMPCore_Int@@UEAA?AV?$shared_ptr@VIMetadata_v1@AdobeXMPCore@@@std@@XZ 000000018008f890 f   NodeImpl.obj
 0001:0008e890       ?SerializeInternal@ClientDOMSerializerWrapperImpl@AdobeXMPCore_Int@@UEBA?AV?$shared_ptr@VIUTF8String_v1@AdobeXMPCommon@@@std@@AEBV?$shared_ptr@VINode_v1@AdobeXMPCore@@@4@K_KPEBD21AEBV?$shared_ptr@$$CBVINameSpacePrefixMap_v1@AdobeXMPCore@@@4@@Z 000000018008f890 f   ClientDOMSerializerWrapperImpl.obj
 0001:0008e890       ?GetParent@MetadataImpl@AdobeXMPCore_Int@@MEAA?AV?$shared_ptr@VINode_v1@AdobeXMPCore@@@std@@XZ 000000018008f890 f   MetadataImpl.obj
 0001:0008e890       ?ConvertToArrayNode@NodeImpl@AdobeXMPCore_Int@@UEAA?AV?$shared_ptr@VIArrayNode_v1@AdobeXMPCore@@@std@@XZ 000000018008f890 f   NodeImpl.obj
 0001:0008e890       ?ConvertToSimpleNode@NodeImpl@AdobeXMPCore_Int@@UEAA?AV?$shared_ptr@VISimpleNode_v1@AdobeXMPCore@@@std@@XZ 000000018008f890 f   NodeImpl.obj
 0001:0008e8a0       ?GetMutex@DOMSerializerImpl@AdobeXMPCore_Int@@$4PPPPPPPM@A@EBA?AV?$shared_ptr@VISharedMutex@AdobeXMPCore_Int@@@std@@XZ 000000018008f8a0 f i ClientDOMSerializerWrapperImpl.obj
 0001:0008e8ac       ?TreatKeyAsCaseInsensitive@ConfigurableImpl@AdobeXMPCore_Int@@$R4GI@CA@PPPPPPPM@FA@EAAX_N@Z 000000018008f8ac f i ClientDOMSerializerWrapperImpl.obj
 0001:0008e8c8       ?clone@IDOMSerializer_I@AdobeXMPCore_Int@@$R2FA@BM@PPPPPPPM@EI@EBAPEAVIDOMSerializer_v1@AdobeXMPCore@@AEAPEBVIError_v1@AdobeXMPCommon@@@Z 000000018008f8c8 f i ClientDOMSerializerWrapperImpl.obj
 0001:0008e8e4       ?SetParameter@IConfigurable_I@AdobeXMPCore_Int@@$R4CA@BE@PPPPPPPM@BI@EAAXAEB_K_N@Z 000000018008f8e4 f i ClientDOMSerializerWrapperImpl.obj
 0001:0008e900       ?SetParameter@IConfigurable_I@AdobeXMPCore_Int@@$R4CA@BE@PPPPPPPM@BI@EAAXAEB_K_K@Z 000000018008f900 f i ClientDOMSerializerWrapperImpl.obj
 0001:0008e91c       ?SetParameter@IConfigurable_I@AdobeXMPCore_Int@@$R4CA@BE@PPPPPPPM@BI@EAAXAEB_K_J@Z 000000018008f91c f i ClientDOMSerializerWrapperImpl.obj
 0001:0008e938       ?SetParameter@IConfigurable_I@AdobeXMPCore_Int@@$R4CA@BE@PPPPPPPM@BI@EAAXAEB_KN@Z 000000018008f938 f i ClientDOMSerializerWrapperImpl.obj
 0001:0008e954       ?SetParameter@IConfigurable_I@AdobeXMPCore_Int@@$R4CA@BE@PPPPPPPM@BI@EAAXAEB_KD@Z 000000018008f954 f i ClientDOMSerializerWrapperImpl.obj
 0001:0008e970       ?SetParameter@IConfigurable_I@AdobeXMPCore_Int@@$R4CA@BE@PPPPPPPM@BI@EAAXAEB_KPEBD@Z 000000018008f970 f i ClientDOMSerializerWrapperImpl.obj
 0001:0008e98c       ?SetParameter@IConfigurable_I@AdobeXMPCore_Int@@$R4CA@BE@PPPPPPPM@BI@EAAXAEB_KPEBX@Z 000000018008f98c f i ClientDOMSerializerWrapperImpl.obj
 0001:0008e9a8       ?getInterfacePointer@IDOMSerializer_I@AdobeXMPCore_Int@@$2PPPPPPPM@A@EAAPEAX_KKAEAPEBVIError_v1@AdobeXMPCommon@@@Z 000000018008f9a8 f i ClientDOMSerializerWrapperImpl.obj
 0001:0008e9b4       ?SetAllowedKeys@ConfigurableImpl@AdobeXMPCore_Int@@$R4GI@CA@PPPPPPPM@FA@EAAXPEA_K_K@Z 000000018008f9b4 f i ClientDOMSerializerWrapperImpl.obj
 0001:0008e9d0       ?serialize@IDOMSerializer_I@AdobeXMPCore_Int@@$R2FA@BM@PPPPPPPM@EI@EAAPEAVIUTF8String_v1@AdobeXMPCommon@@PEAVINode_v1@AdobeXMPCore@@PEBVINameSpacePrefixMap_v1@6@AEAPEBVIError_v1@4@@Z 000000018008f9d0 f i ClientDOMSerializerWrapperImpl.obj
 0001:0008e9ec       ??_EDOMSerializerImpl@AdobeXMPCore_Int@@$2PPPPPPPM@BA@EAAPEAXI@Z 000000018008f9ec f i ClientDOMSerializerWrapperImpl.obj
 0001:0008e9fc       ??_EIDOMSerializer_I@AdobeXMPCore_Int@@$2PPPPPPPM@A@EAAPEAXI@Z 000000018008f9fc f i ClientDOMSerializerWrapperImpl.obj
 0001:0008ea08       ??_EIDOMSerializer_v1@AdobeXMPCore@@OBA@EAAPEAXI@Z 000000018008fa08 f i ClientDOMSerializerWrapperImpl.obj
 0001:0008ea14       ?GetDataType@ConfigurableImpl@AdobeXMPCore_Int@@$R4CA@CA@PPPPPPPM@EA@EBA?AW4eDataType@IConfigurable@AdobeXMPCommon@@AEB_K@Z 000000018008fa14 f i ClientDOMSerializerWrapperImpl.obj
 0001:0008ea30       ?clone@IDOMSerializer_I@AdobeXMPCore_Int@@$2PPPPPPPM@A@EBAPEAVIDOMSerializer_v1@AdobeXMPCore@@AEAPEBVIError_v1@AdobeXMPCommon@@@Z 000000018008fa30 f i ClientDOMSerializerWrapperImpl.obj
 0001:0008ea3c       ??_EIDOMSerializer_I@AdobeXMPCore_Int@@$2PPPPPPPM@CA@EAAPEAXI@Z 000000018008fa3c f i ClientDOMSerializerWrapperImpl.obj
 0001:0008ea4c       ?getParameter@IConfigurable_I@AdobeXMPCore_Int@@$R2CA@BE@PPPPPPPM@BI@EBAKAEB_KKAEATCombinedDataValue@IConfigurable@AdobeXMPCommon@@AEAPEBVIError_v1@5@@Z 000000018008fa4c f i ClientDOMSerializerWrapperImpl.obj
 0001:0008ea68       ?serialize@IDOMSerializer_I@AdobeXMPCore_Int@@$2PPPPPPPM@A@EAAPEAVIUTF8String_v1@AdobeXMPCommon@@PEAVINode_v1@AdobeXMPCore@@PEBVINameSpacePrefixMap_v1@6@AEAPEBVIError_v1@4@@Z 000000018008fa68 f i ClientDOMSerializerWrapperImpl.obj
 0001:0008ea74       ?GetMutex@DOMSerializerImpl@AdobeXMPCore_Int@@$R4GA@CM@PPPPPPPM@HA@EBA?AV?$shared_ptr@VISharedMutex@AdobeXMPCore_Int@@@std@@XZ 000000018008fa74 f i ClientDOMSerializerWrapperImpl.obj
 0001:0008ea90       ?Clone@DOMSerializerImpl@AdobeXMPCore_Int@@$4PPPPPPPM@A@EBA?AV?$shared_ptr@VIDOMSerializer_v1@AdobeXMPCore@@@std@@XZ 000000018008fa90 f i ClientDOMSerializerWrapperImpl.obj
 0001:0008ea9c       ?SetAllowedValueTypesForKeys@ConfigurableImpl@AdobeXMPCore_Int@@$R4GI@CA@PPPPPPPM@FA@EAAXPEAU?$pair@_KW4eDataType@IConfigurable@AdobeXMPCommon@@@std@@_K@Z 000000018008fa9c f i ClientDOMSerializerWrapperImpl.obj
 0001:0008eab8       ?AcquireInternal@SharedObjectImpl@AdobeXMPCore_Int@@$R4IA@CE@PPPPPPPM@DA@EBAXXZ 000000018008fab8 f i ClientDOMSerializerWrapperImpl.obj
 0001:0008ead4       ?GetInterfacePointer@IDOMSerializer_I@AdobeXMPCore_Int@@$R4DI@BM@PPPPPPPM@DI@EAAPEAX_KK@Z 000000018008fad4 f i ClientDOMSerializerWrapperImpl.obj
 0001:0008eaec       ?GetISharedObject_I@IDOMSerializer_I@AdobeXMPCore_Int@@$R4DA@BM@PPPPPPPM@CI@EAAPEAVISharedObject_I@AdobeXMPCommon_Int@@XZ 000000018008faec f i ClientDOMSerializerWrapperImpl.obj
 0001:0008eb08       ??_EClientDOMSerializerWrapperImpl@AdobeXMPCore_Int@@$2PPPPPPPM@BA@EAAPEAXI@Z 000000018008fb08 f i ClientDOMSerializerWrapperImpl.obj
 0001:0008eb18       ?Release@SharedObjectImpl@AdobeXMPCore_Int@@$R4DA@CE@PPPPPPPM@CA@EBAXXZ 000000018008fb18 f i ClientDOMSerializerWrapperImpl.obj
 0001:0008eb34       ?Serialize@ClientDOMSerializerWrapperImpl@AdobeXMPCore_Int@@$4PPPPPPPM@A@EAA?AV?$shared_ptr@VIUTF8String_v1@AdobeXMPCommon@@@std@@AEBV?$shared_ptr@VINode_v1@AdobeXMPCore@@@4@AEBV?$shared_ptr@$$CBVINameSpacePrefixMap_v1@AdobeXMPCore@@@4@@Z 000000018008fb34 f i ClientDOMSerializerWrapperImpl.obj
 0001:0008eb40       ?AllowDifferentValueTypesForExistingEntries@ConfigurableImpl@AdobeXMPCore_Int@@$R4GI@CA@PPPPPPPM@FA@EAAX_N@Z 000000018008fb40 f i ClientDOMSerializerWrapperImpl.obj
 0001:0008eb5c       ?removeParameter@IConfigurable_I@AdobeXMPCore_Int@@$R2CA@BE@PPPPPPPM@BI@EAAKAEB_KAEAPEBVIError_v1@AdobeXMPCommon@@@Z 000000018008fb5c f i ClientDOMSerializerWrapperImpl.obj
 0001:0008eb78       ?Size@ConfigurableImpl@AdobeXMPCore_Int@@$R4CA@CA@PPPPPPPM@EA@EBA_KXZ 000000018008fb78 f i ClientDOMSerializerWrapperImpl.obj
 0001:0008eb94       ?GetInterfacePointer@IDOMSerializer_I@AdobeXMPCore_Int@@$R4EA@BM@PPPPPPPM@DI@EAAPEAX_KK@Z 000000018008fb94 f i ClientDOMSerializerWrapperImpl.obj
 0001:0008ebb0       ??_EDOMSerializerImpl@AdobeXMPCore_Int@@$2PPPPPPPM@A@EAAPEAXI@Z 000000018008fbb0 f i ClientDOMSerializerWrapperImpl.obj
 0001:0008ebbc       ?getInterfacePointer@IDOMSerializer_I@AdobeXMPCore_Int@@$R2DI@BM@PPPPPPPM@DI@EAAPEAX_KKAEAPEBVIError_v1@AdobeXMPCommon@@@Z 000000018008fbbc f i ClientDOMSerializerWrapperImpl.obj
 0001:0008ebd4       ??_EDOMSerializerImpl@AdobeXMPCore_Int@@$2PPPPPPPM@CA@EAAPEAXI@Z 000000018008fbd4 f i ClientDOMSerializerWrapperImpl.obj
 0001:0008ebe4       ??_EIDOMSerializer_I@AdobeXMPCore_Int@@$2PPPPPPPM@BA@EAAPEAXI@Z 000000018008fbe4 f i ClientDOMSerializerWrapperImpl.obj
 0001:0008ebf4       ?GetIDOMSerializer_I@IDOMSerializer_I@AdobeXMPCore_Int@@$R4FA@BM@PPPPPPPM@EI@EAAPEAV12@XZ 000000018008fbf4 f i ClientDOMSerializerWrapperImpl.obj
 0001:0008ec10       ?setParameter@IConfigurable_I@AdobeXMPCore_Int@@$R2CA@BE@PPPPPPPM@BI@EAAXAEB_KKAEBTCombinedDataValue@IConfigurable@AdobeXMPCommon@@AEAPEBVIError_v1@5@@Z 000000018008fc10 f i ClientDOMSerializerWrapperImpl.obj
 0001:0008ec2c       ?GetActualIDOMSerializer@IDOMSerializer_I@AdobeXMPCore_Int@@$R4FA@BM@PPPPPPPM@EI@EAAPEAVIDOMSerializer_v1@AdobeXMPCore@@XZ 000000018008fc2c f i ClientDOMSerializerWrapperImpl.obj
 0001:0008ec48       ?getDataType@IConfigurable_I@AdobeXMPCore_Int@@$R2CA@BE@PPPPPPPM@BI@EBAKAEB_KAEAPEBVIError_v1@AdobeXMPCommon@@@Z 000000018008fc48 f i ClientDOMSerializerWrapperImpl.obj
 0001:0008ec64       ?RemoveParameter@ConfigurableImpl@AdobeXMPCore_Int@@$R4CA@CA@PPPPPPPM@EA@EAA_NAEB_K@Z 000000018008fc64 f i ClientDOMSerializerWrapperImpl.obj
 0001:0008ec80       ?GetParameter@ConfigurableImpl@AdobeXMPCore_Int@@$R4GI@CA@PPPPPPPM@FA@EBA_NAEB_KW4eDataType@IConfigurable@AdobeXMPCommon@@AEATCombinedDataValue@45@@Z 000000018008fc80 f i ClientDOMSerializerWrapperImpl.obj
 0001:0008ec9c       ?GetInterfacePointer@IDOMSerializer_I@AdobeXMPCore_Int@@$4PPPPPPPM@A@EAAPEAX_KK@Z 000000018008fc9c f i ClientDOMSerializerWrapperImpl.obj
 0001:0008eca8       ?clone@ClientDOMSerializerWrapperImpl@AdobeXMPCore_Int@@$2PPPPPPPM@A@EBAPEAVDOMSerializerImpl@2@XZ 000000018008fca8 f i ClientDOMSerializerWrapperImpl.obj
 0001:0008ecb4       ?clone@IDOMSerializer_I@AdobeXMPCore_Int@@$R2EI@BM@PPPPPPPM@EI@EBAPEAVIDOMSerializer_v1@AdobeXMPCore@@AEAPEBVIError_v1@AdobeXMPCommon@@@Z 000000018008fcb4 f i ClientDOMSerializerWrapperImpl.obj
 0001:0008eccc       ?SetParameter@ConfigurableImpl@AdobeXMPCore_Int@@$R4GI@CA@PPPPPPPM@FA@EAAXAEB_KW4eDataType@IConfigurable@AdobeXMPCommon@@AEBTCombinedDataValue@45@@Z 000000018008fccc f i ClientDOMSerializerWrapperImpl.obj
 0001:0008ece8       ?getAllParameters@IConfigurable_I@AdobeXMPCore_Int@@$R2CA@BE@PPPPPPPM@BI@EBAXPEA_K_K@Z 000000018008fce8 f i ClientDOMSerializerWrapperImpl.obj
 0001:0008ed04       ?serialize@IDOMSerializer_I@AdobeXMPCore_Int@@$R2EI@BM@PPPPPPPM@EI@EAAPEAVIUTF8String_v1@AdobeXMPCommon@@PEAVINode_v1@AdobeXMPCore@@PEBVINameSpacePrefixMap_v1@6@AEAPEBVIError_v1@4@@Z 000000018008fd04 f i ClientDOMSerializerWrapperImpl.obj
 0001:0008ed1c       ?getInterfacePointer@IDOMSerializer_I@AdobeXMPCore_Int@@$R2EA@BM@PPPPPPPM@DI@EAAPEAX_KKAEAPEBVIError_v1@AdobeXMPCommon@@@Z 000000018008fd1c f i ClientDOMSerializerWrapperImpl.obj
 0001:0008ed38       ?GetAllParameters@ConfigurableImpl@AdobeXMPCore_Int@@$R4CA@CA@PPPPPPPM@EA@EBA?AV?$vector@_KV?$allocator@_K@std@@@std@@XZ 000000018008fd38 f i ClientDOMSerializerWrapperImpl.obj
 0001:0008ed54       ??_EIDOMSerializer_v1@AdobeXMPCore@@O7EAAPEAXI@Z 000000018008fd54 f i ClientDOMSerializerWrapperImpl.obj
 0001:0008ed60       ?ValidateValue@ClientDOMSerializerWrapperImpl@AdobeXMPCore_Int@@$4PPPPPPPM@A@EBA?AW4eConfigurableErrorCode@AdobeXMPCommon@@AEB_KW4eDataType@IConfigurable@4@AEBTCombinedDataValue@64@@Z 000000018008fd60 f i ClientDOMSerializerWrapperImpl.obj
 0001:0008ed6c       ?Clone@DOMSerializerImpl@AdobeXMPCore_Int@@$R4EI@CM@PPPPPPPM@FI@EBA?AV?$shared_ptr@VIDOMSerializer_v1@AdobeXMPCore@@@std@@XZ 000000018008fd6c f i ClientDOMSerializerWrapperImpl.obj
 0001:0008ed88       ??_EClientDOMSerializerWrapperImpl@AdobeXMPCore_Int@@$2PPPPPPPM@A@EAAPEAXI@Z 000000018008fd88 f i ClientDOMSerializerWrapperImpl.obj
 0001:0008ed94       ??_EClientDOMSerializerWrapperImpl@AdobeXMPCore_Int@@$2PPPPPPPM@CA@EAAPEAXI@Z 000000018008fd94 f i ClientDOMSerializerWrapperImpl.obj
 0001:0008eda4       ?Acquire@SharedObjectImpl@AdobeXMPCore_Int@@$R4DA@CE@PPPPPPPM@CA@EBAXXZ 000000018008fda4 f i ClientDOMSerializerWrapperImpl.obj
 0001:0008edc0       ?GetParameter@IConfigurable_I@AdobeXMPCore_Int@@$R4CA@BE@PPPPPPPM@BI@EBA_NAEB_KAEA_N@Z 000000018008fdc0 f i ClientDOMSerializerWrapperImpl.obj
 0001:0008eddc       ?GetParameter@IConfigurable_I@AdobeXMPCore_Int@@$R4CA@BE@PPPPPPPM@BI@EBA_NAEB_KAEA_K@Z 000000018008fddc f i ClientDOMSerializerWrapperImpl.obj
 0001:0008edf8       ?GetParameter@IConfigurable_I@AdobeXMPCore_Int@@$R4CA@BE@PPPPPPPM@BI@EBA_NAEB_KAEA_J@Z 000000018008fdf8 f i ClientDOMSerializerWrapperImpl.obj
 0001:0008ee14       ?GetParameter@IConfigurable_I@AdobeXMPCore_Int@@$R4CA@BE@PPPPPPPM@BI@EBA_NAEB_KAEAN@Z 000000018008fe14 f i ClientDOMSerializerWrapperImpl.obj
 0001:0008ee30       ?GetParameter@IConfigurable_I@AdobeXMPCore_Int@@$R4CA@BE@PPPPPPPM@BI@EBA_NAEB_KAEAD@Z 000000018008fe30 f i ClientDOMSerializerWrapperImpl.obj
 0001:0008ee4c       ?GetParameter@IConfigurable_I@AdobeXMPCore_Int@@$R4CA@BE@PPPPPPPM@BI@EBA_NAEB_KAEAPEBD@Z 000000018008fe4c f i ClientDOMSerializerWrapperImpl.obj
 0001:0008ee68       ?GetParameter@IConfigurable_I@AdobeXMPCore_Int@@$R4CA@BE@PPPPPPPM@BI@EBA_NAEB_KAEAPEBX@Z 000000018008fe68 f i ClientDOMSerializerWrapperImpl.obj
 0001:0008ee84       ?GetSimpleQualifier@INode_I@AdobeXMPCore_Int@@QEAA?AV?$shared_ptr@VISimpleNode_v1@AdobeXMPCore@@@std@@AEBV?$shared_ptr@$$CBVIUTF8String_v1@AdobeXMPCommon@@@4@0@Z 000000018008fe84 f i CompositeNodeImpl.obj
 0001:0008f1f4       ?GetNodeTypeAtPath@CompositeNodeImpl@AdobeXMPCore_Int@@UEBA?AW4eNodeType@INode_v1@AdobeXMPCore@@AEBV?$shared_ptr@$$CBVIPath_v1@AdobeXMPCore@@@std@@@Z 00000001800901f4 f   CompositeNodeImpl.obj
 0001:0008f270       ?GetNodeAtPath@CompositeNodeImpl@AdobeXMPCore_Int@@UEAA?AV?$shared_ptr@VINode_v1@AdobeXMPCore@@@std@@AEBV?$shared_ptr@$$CBVIPath_v1@AdobeXMPCore@@@4@@Z 0000000180090270 f   CompositeNodeImpl.obj
 0001:0008fbe0       ?InsertNodeAtPath@CompositeNodeImpl@AdobeXMPCore_Int@@UEAAXAEBV?$shared_ptr@VINode_v1@AdobeXMPCore@@@std@@AEBV?$shared_ptr@$$CBVIPath_v1@AdobeXMPCore@@@4@@Z 0000000180090be0 f   CompositeNodeImpl.obj
 0001:0008fcb0       ?ReplaceNodeAtPath@CompositeNodeImpl@AdobeXMPCore_Int@@UEAA?AV?$shared_ptr@VINode_v1@AdobeXMPCore@@@std@@AEBV34@AEBV?$shared_ptr@$$CBVIPath_v1@AdobeXMPCore@@@4@@Z 0000000180090cb0 f   CompositeNodeImpl.obj
 0001:0008fd80       ?RemoveNodeAtPath@CompositeNodeImpl@AdobeXMPCore_Int@@UEAA?AV?$shared_ptr@VINode_v1@AdobeXMPCore@@@std@@AEBV?$shared_ptr@$$CBVIPath_v1@AdobeXMPCore@@@4@@Z 0000000180090d80 f   CompositeNodeImpl.obj
 0001:000900f4       ?CheckSuitabilityToBeUsedAsChildNode@CompositeNodeImpl@AdobeXMPCore_Int@@UEBA_NAEBV?$shared_ptr@$$CBVINode_v1@AdobeXMPCore@@@std@@@Z 00000001800910f4 f   CompositeNodeImpl.obj
 0001:00090298       ??$MakeUncheckedSharedPointer@VCompositeNodeImpl@AdobeXMPCore_Int@@@AdobeXMPCore_Int@@YA?AV?$shared_ptr@VCompositeNodeImpl@AdobeXMPCore_Int@@@std@@PEAVCompositeNodeImpl@0@PEBD_K_N@Z 0000000180091298 f i CompositeNodeImpl.obj
 0001:0009030c       ??$_Resetp@VCompositeNodeImpl@AdobeXMPCore_Int@@V?$_Mem_fn_wrap@XP8NodeImpl@AdobeXMPCore_Int@@EBAXXZ$$CBV12@$$$V@std@@V?$TAllocator@VCompositeNodeImpl@AdobeXMPCore_Int@@@2@@?$shared_ptr@VCompositeNodeImpl@AdobeXMPCore_Int@@@std@@AEAAXPEAVCompositeNodeImpl@AdobeXMPCore_Int@@V?$_Mem_fn_wrap@XP8NodeImpl@AdobeXMPCore_Int@@EBAXXZ$$CBV12@$$$V@1@V?$TAllocator@VCompositeNodeImpl@AdobeXMPCore_Int@@@3@@Z 000000018009130c f i CompositeNodeImpl.obj
 0001:000903bc       ?_Destroy@?$_Ref_count_del_alloc@VCompositeNodeImpl@AdobeXMPCore_Int@@V?$_Mem_fn_wrap@XP8NodeImpl@AdobeXMPCore_Int@@EBAXXZ$$CBV12@$$$V@std@@V?$TAllocator@VCompositeNodeImpl@AdobeXMPCore_Int@@@2@@std@@EEAAXXZ 00000001800913bc f i CompositeNodeImpl.obj
 0001:00090430       ??_GIConfigurationManager_v1@AdobeXMPCommon@@UEAAPEAXI@Z 0000000180091430 f i CoreConfigurationManagerImpl.obj
 0001:00090430       ??_EIConfigurationManager_v1@AdobeXMPCommon@@UEAAPEAXI@Z 0000000180091430 f i * CIL library *:* CIL module *
 0001:0009046c       ??_EICoreConfigurationManager_v1@AdobeXMPCore@@MEAAPEAXI@Z 000000018009146c f i * CIL library *:* CIL module *
 0001:0009046c       ??_GICoreConfigurationManager_v1@AdobeXMPCore@@MEAAPEAXI@Z 000000018009146c f i CoreConfigurationManagerImpl.obj
 0001:000904f0       ?GetActualIUTF8String@IUTF8String_I@AdobeXMPCore_Int@@UEAAPEAVIUTF8String_v1@AdobeXMPCommon@@XZ 00000001800914f0 f i UTF8StringImpl.obj
 0001:000904f0       ?GetActualIConfigurationManager@IConfigurationManager_I@AdobeXMPCore_Int@@UEAAPEAVIConfigurationManager_v1@AdobeXMPCommon@@XZ 00000001800914f0 f i CoreConfigurationManagerImpl.obj
 0001:0009050c       ?GetActualICoreConfigurationManager@ICoreConfigurationManager_I@AdobeXMPCore_Int@@UEAAPEAVICoreConfigurationManager_v1@AdobeXMPCore@@XZ 000000018009150c f i CoreConfigurationManagerImpl.obj
 0001:00090528       ?GetISharedObject_I@ICoreConfigurationManager_I@AdobeXMPCore_Int@@UEAAPEAVISharedObject_I@AdobeXMPCommon_Int@@XZ 0000000180091528 f i CoreConfigurationManagerImpl.obj
 0001:00090544       ?GetICoreConfigurationManager_I@ICoreConfigurationManager_I@AdobeXMPCore_Int@@UEAAPEAV12@XZ 0000000180091544 f i CoreConfigurationManagerImpl.obj
 0001:0009054c       ??_EICoreConfigurationManager_I@AdobeXMPCore_Int@@MEAAPEAXI@Z 000000018009154c f i * CIL library *:* CIL module *
 0001:0009054c       ??_GICoreConfigurationManager_I@AdobeXMPCore_Int@@MEAAPEAXI@Z 000000018009154c f i CoreConfigurationManagerImpl.obj
 0001:00090654       ??_EConfigurationManagerImpl@AdobeXMPCore_Int@@MEAAPEAXI@Z 0000000180091654 f i * CIL library *:* CIL module *
 0001:00090654       ??_GConfigurationManagerImpl@AdobeXMPCore_Int@@MEAAPEAXI@Z 0000000180091654 f i CoreConfigurationManagerImpl.obj
 0001:0009075c       ??_EIConfigurationManager_I@AdobeXMPCore_Int@@UEAAPEAXI@Z 000000018009175c f i * CIL library *:* CIL module *
 0001:0009075c       ??_GIConfigurationManager_I@AdobeXMPCore_Int@@UEAAPEAXI@Z 000000018009175c f i CoreConfigurationManagerImpl.obj
 0001:00090798       ??1CoreConfigurationManagerImpl@AdobeXMPCore_Int@@MEAA@XZ 0000000180091798 f i CoreConfigurationManagerImpl.obj
 0001:00090850       ??_ECoreConfigurationManagerImpl@AdobeXMPCore_Int@@MEAAPEAXI@Z 0000000180091850 f i * CIL library *:* CIL module *
 0001:00090850       ??_GCoreConfigurationManagerImpl@AdobeXMPCore_Int@@MEAAPEAXI@Z 0000000180091850 f i CoreConfigurationManagerImpl.obj
 0001:0009089c       ??_DCoreConfigurationManagerImpl@AdobeXMPCore_Int@@IEAAXXZ 000000018009189c f i CoreConfigurationManagerImpl.obj
 0001:00090aac       ??0CoreConfigurationManagerImpl@AdobeXMPCore_Int@@QEAA@XZ 0000000180091aac f   CoreConfigurationManagerImpl.obj
 0001:00091084       ?GetCoreConfigurationManager@ICoreConfigurationManager_v1@AdobeXMPCore@@SA?AV?$shared_ptr@VICoreConfigurationManager_v1@AdobeXMPCore@@@std@@XZ 0000000180092084 f   CoreConfigurationManagerImpl.obj
 0001:000910a4       ??$MakeUncheckedSharedPointer@VCoreConfigurationManagerImpl@AdobeXMPCore_Int@@@AdobeXMPCore_Int@@YA?AV?$shared_ptr@VCoreConfigurationManagerImpl@AdobeXMPCore_Int@@@std@@PEAVCoreConfigurationManagerImpl@0@PEBD_K_N@Z 00000001800920a4 f i CoreConfigurationManagerImpl.obj
 0001:000911a0       ??$_Resetp@VCoreConfigurationManagerImpl@AdobeXMPCore_Int@@V?$_Mem_fn_wrap@XP8SharedObjectImpl@AdobeXMPCore_Int@@EBAXXZ$$CBV12@$$$V@std@@V?$TAllocator@VCoreConfigurationManagerImpl@AdobeXMPCore_Int@@@2@@?$shared_ptr@VCoreConfigurationManagerImpl@AdobeXMPCore_Int@@@std@@AEAAXPEAVCoreConfigurationManagerImpl@AdobeXMPCore_Int@@V?$_Mem_fn_wrap@XP8SharedObjectImpl@AdobeXMPCore_Int@@EBAXXZ$$CBV12@$$$V@1@V?$TAllocator@VCoreConfigurationManagerImpl@AdobeXMPCore_Int@@@3@@Z 00000001800921a0 f i CoreConfigurationManagerImpl.obj
 0001:00091250       ?_Destroy@?$_Ref_count_del_alloc@VCoreConfigurationManagerImpl@AdobeXMPCore_Int@@V?$_Mem_fn_wrap@XP8SharedObjectImpl@AdobeXMPCore_Int@@EBAXXZ$$CBV12@$$$V@std@@V?$TAllocator@VCoreConfigurationManagerImpl@AdobeXMPCore_Int@@@2@@std@@EEAAXXZ 0000000180092250 f i CoreConfigurationManagerImpl.obj
 0001:00091250       ?_Destroy@?$_Ref_count_del_alloc@VNameSpacePrefixMapImpl@AdobeXMPCore_Int@@V?$_Mem_fn_wrap@XP8SharedObjectImpl@AdobeXMPCore_Int@@EBAXXZ$$CBV12@$$$V@std@@V?$TAllocator@VNameSpacePrefixMapImpl@AdobeXMPCore_Int@@@2@@std@@EEAAXXZ 0000000180092250 f i NameSpacePrefixMapImpl.obj
 0001:000912b4       ?GetISharedObject_I@ICoreConfigurationManager_I@AdobeXMPCore_Int@@$R4BA@BM@PPPPPPPM@BA@EAAPEAVISharedObject_I@AdobeXMPCommon_Int@@XZ 00000001800922b4 f i CoreConfigurationManagerImpl.obj
 0001:000912cc       ?disableMultiThreading@IConfigurationManager_I@AdobeXMPCore_Int@@$R2DA@BE@PPPPPPPM@BI@EAAKAEAPEBVIError_v1@AdobeXMPCommon@@@Z 00000001800922cc f i CoreConfigurationManagerImpl.obj
 0001:000912e8       ?GetISharedObject_I@ICoreConfigurationManager_I@AdobeXMPCore_Int@@$4PPPPPPPM@A@EAAPEAVISharedObject_I@AdobeXMPCommon_Int@@XZ 00000001800922e8 f i CoreConfigurationManagerImpl.obj
 0001:000912f4       ??_EIConfigurationManager_v1@AdobeXMPCommon@@W7EAAPEAXI@Z 00000001800922f4 f i CoreConfigurationManagerImpl.obj
 0001:00091300       ?RegisterMemoryAllocator@ConfigurationManagerImpl@AdobeXMPCore_Int@@$4PPPPPPPM@A@EAA_NPEAVIMemoryAllocator_v1@AdobeXMPCommon@@@Z 0000000180092300 f i CoreConfigurationManagerImpl.obj
 0001:0009130c       ?GetISharedObject_I@ISharedObject_I@AdobeXMPCommon_Int@@WPPPPPPNA@EAAPEAV12@XZ 000000018009230c f i CoreConfigurationManagerImpl.obj
 0001:00091318       ??_EICoreConfigurationManager_I@AdobeXMPCore_Int@@$2PPPPPPPM@BA@EAAPEAXI@Z 0000000180092318 f i CoreConfigurationManagerImpl.obj
 0001:00091328       ?disableMultiThreading@IConfigurationManager_I@AdobeXMPCore_Int@@$R2DA@BI@PPPPPPPM@BI@EAAKAEAPEBVIError_v1@AdobeXMPCommon@@@Z 0000000180092328 f i CoreConfigurationManagerImpl.obj
 0001:00091344       ?registerMemoryAllocator@IConfigurationManager_I@AdobeXMPCore_Int@@$R2DA@BE@PPPPPPPM@BI@EAAKPEAVIMemoryAllocator_v1@AdobeXMPCommon@@AEAPEBVIError_v1@4@@Z 0000000180092344 f i CoreConfigurationManagerImpl.obj
 0001:00091360       ?IsMultiThreaded@ConfigurationManagerImpl@AdobeXMPCore_Int@@$4PPPPPPPM@A@EBA_NXZ 0000000180092360 f i CoreConfigurationManagerImpl.obj
 0001:0009136c       ?AcquireInternal@SharedObjectImpl@AdobeXMPCore_Int@@$R4EI@BI@PPPPPPPM@DA@EBAXXZ 000000018009236c f i CoreConfigurationManagerImpl.obj
 0001:00091388       ?GetActualIConfigurationManager@IConfigurationManager_I@AdobeXMPCore_Int@@WPPPPPPLA@EAAPEAVIConfigurationManager_v1@AdobeXMPCommon@@XZ 0000000180092388 f i CoreConfigurationManagerImpl.obj
 0001:00091394       ?AcquireInternal@SharedObjectImpl@AdobeXMPCore_Int@@$R4GA@CA@PPPPPPPM@DA@EBAXXZ 0000000180092394 f i CoreConfigurationManagerImpl.obj
 0001:000913b0       ?getInterfacePointer@IConfigurationManager_I@AdobeXMPCore_Int@@OPPPPPPLI@EAAPEAX_KKAEAPEBVIError_v1@AdobeXMPCommon@@@Z 00000001800923b0 f i CoreConfigurationManagerImpl.obj
 0001:000913bc       ??_EConfigurationManagerImpl@AdobeXMPCore_Int@@O7EAAPEAXI@Z 00000001800923bc f i CoreConfigurationManagerImpl.obj
 0001:000913c8       ?isMultiThreaded@IConfigurationManager_I@AdobeXMPCore_Int@@OPPPPPPLA@EBAKAEAPEBVIError_v1@AdobeXMPCommon@@@Z 00000001800923c8 f i CoreConfigurationManagerImpl.obj
 0001:000913d4       ?GetInterfacePointer@ICoreConfigurationManager_I@AdobeXMPCore_Int@@$4PPPPPPPM@A@EAAPEAX_KK@Z 00000001800923d4 f i CoreConfigurationManagerImpl.obj
 0001:000913e0       ?RegisterErrorNotifier@ConfigurationManagerImpl@AdobeXMPCore_Int@@$R4DA@CI@PPPPPPPM@DA@EAA_NPEAVIErrorNotifier_v1@AdobeXMPCommon@@@Z 00000001800923e0 f i CoreConfigurationManagerImpl.obj
 0001:000913f8       ?GetInterfacePointer@ICoreConfigurationManager_I@AdobeXMPCore_Int@@$R4CA@BM@PPPPPPPM@CA@EAAPEAX_KK@Z 00000001800923f8 f i CoreConfigurationManagerImpl.obj
 0001:00091410       ?registerMemoryAllocator@IConfigurationManager_I@AdobeXMPCore_Int@@$R2DA@BI@PPPPPPPM@BI@EAAKPEAVIMemoryAllocator_v1@AdobeXMPCommon@@AEAPEBVIError_v1@4@@Z 0000000180092410 f i CoreConfigurationManagerImpl.obj
 0001:0009142c       ?Release@SharedObjectImpl@AdobeXMPCore_Int@@$R4BA@CA@PPPPPPPM@CA@EBAXXZ 000000018009242c f i CoreConfigurationManagerImpl.obj
 0001:00091448       ?Release@SharedObjectImpl@AdobeXMPCore_Int@@$R4BI@BI@PPPPPPPM@CA@EBAXXZ 0000000180092448 f i CoreConfigurationManagerImpl.obj
 0001:00091464       ?GetICoreConfigurationManager_I@ICoreConfigurationManager_I@AdobeXMPCore_Int@@$4PPPPPPPM@A@EAAPEAV12@XZ 0000000180092464 f i CoreConfigurationManagerImpl.obj
 0001:00091470       ??_ECoreConfigurationManagerImpl@AdobeXMPCore_Int@@$2PPPPPPPM@A@EAAPEAXI@Z 0000000180092470 f i CoreConfigurationManagerImpl.obj
 0001:0009147c       ?DisableMultiThreading@ConfigurationManagerImpl@AdobeXMPCore_Int@@$4PPPPPPPM@A@EAA_NXZ 000000018009247c f i CoreConfigurationManagerImpl.obj
 0001:00091488       ?GetISharedObject_I@ISharedObject_I@AdobeXMPCommon_Int@@$R4BI@BA@PPPPPPPM@BA@EAAPEAV12@XZ 0000000180092488 f i CoreConfigurationManagerImpl.obj
 0001:000914a4       ?disableMultiThreading@IConfigurationManager_I@AdobeXMPCore_Int@@OPPPPPPLA@EAAKAEAPEBVIError_v1@AdobeXMPCommon@@@Z 00000001800924a4 f i CoreConfigurationManagerImpl.obj
 0001:000914b0       ?getInterfacePointer@ICoreConfigurationManager_I@AdobeXMPCore_Int@@$2PPPPPPPM@A@EAAPEAX_KKAEAPEBVIError_v1@AdobeXMPCommon@@@Z 00000001800924b0 f i CoreConfigurationManagerImpl.obj
 0001:000914bc       ?RegisterMemoryAllocator@ConfigurationManagerImpl@AdobeXMPCore_Int@@$R4DA@CI@PPPPPPPM@DA@EAA_NPEAVIMemoryAllocator_v1@AdobeXMPCommon@@@Z 00000001800924bc f i CoreConfigurationManagerImpl.obj
 0001:000914d4       ?getInterfacePointer@ICoreConfigurationManager_I@AdobeXMPCore_Int@@$R2CA@BM@PPPPPPPM@CA@EAAPEAX_KKAEAPEBVIError_v1@AdobeXMPCommon@@@Z 00000001800924d4 f i CoreConfigurationManagerImpl.obj
 0001:000914ec       ?GetActualICoreConfigurationManager@ICoreConfigurationManager_I@AdobeXMPCore_Int@@$4PPPPPPPM@A@EAAPEAVICoreConfigurationManager_v1@AdobeXMPCore@@XZ 00000001800924ec f i CoreConfigurationManagerImpl.obj
 0001:000914f8       ??_EICoreConfigurationManager_v1@AdobeXMPCore@@O7EAAPEAXI@Z 00000001800924f8 f i CoreConfigurationManagerImpl.obj
 0001:00091504       ?registerErrorNotifier@IConfigurationManager_I@AdobeXMPCore_Int@@$R2DA@BE@PPPPPPPM@BI@EAAKPEAVIErrorNotifier_v1@AdobeXMPCommon@@AEAPEBVIError_v1@4@@Z 0000000180092504 f i CoreConfigurationManagerImpl.obj
 0001:00091520       ?registerMemoryAllocator@IConfigurationManager_I@AdobeXMPCore_Int@@OPPPPPPLA@EAAKPEAVIMemoryAllocator_v1@AdobeXMPCommon@@AEAPEBVIError_v1@4@@Z 0000000180092520 f i CoreConfigurationManagerImpl.obj
 0001:0009152c       ??_EICoreConfigurationManager_I@AdobeXMPCore_Int@@$2PPPPPPPM@A@EAAPEAXI@Z 000000018009252c f i CoreConfigurationManagerImpl.obj
 0001:00091538       ?IsMultiThreaded@ConfigurationManagerImpl@AdobeXMPCore_Int@@$R4DA@CI@PPPPPPPM@DA@EBA_NXZ 0000000180092538 f i CoreConfigurationManagerImpl.obj
 0001:00091550       ?GetICoreConfigurationManager_I@ICoreConfigurationManager_I@AdobeXMPCore_Int@@$R4EI@BM@PPPPPPPM@EA@EAAPEAV12@XZ 0000000180092550 f i CoreConfigurationManagerImpl.obj
 0001:0009156c       ?registerErrorNotifier@IConfigurationManager_I@AdobeXMPCore_Int@@$R2DA@BI@PPPPPPPM@BI@EAAKPEAVIErrorNotifier_v1@AdobeXMPCommon@@AEAPEBVIError_v1@4@@Z 000000018009256c f i CoreConfigurationManagerImpl.obj
 0001:00091588       ?GetActualIConfigurationManager@IConfigurationManager_I@AdobeXMPCore_Int@@$R4DA@BE@PPPPPPPM@BI@EAAPEAVIConfigurationManager_v1@AdobeXMPCommon@@XZ 0000000180092588 f i CoreConfigurationManagerImpl.obj
 0001:000915a4       ?isMultiThreaded@IConfigurationManager_I@AdobeXMPCore_Int@@$R2DA@BE@PPPPPPPM@BI@EBAKAEAPEBVIError_v1@AdobeXMPCommon@@@Z 00000001800925a4 f i CoreConfigurationManagerImpl.obj
 0001:000915c0       ?RegisterErrorNotifier@ConfigurationManagerImpl@AdobeXMPCore_Int@@$4PPPPPPPM@A@EAA_NPEAVIErrorNotifier_v1@AdobeXMPCommon@@@Z 00000001800925c0 f i CoreConfigurationManagerImpl.obj
 0001:000915cc       ?DisableMultiThreading@ConfigurationManagerImpl@AdobeXMPCore_Int@@$R4DA@CI@PPPPPPPM@DA@EAA_NXZ 00000001800925cc f i CoreConfigurationManagerImpl.obj
 0001:000915e4       ??_ECoreConfigurationManagerImpl@AdobeXMPCore_Int@@$2PPPPPPPM@BA@EAAPEAXI@Z 00000001800925e4 f i CoreConfigurationManagerImpl.obj
 0001:000915f4       ?Acquire@SharedObjectImpl@AdobeXMPCore_Int@@$R4BA@CA@PPPPPPPM@CA@EBAXXZ 00000001800925f4 f i CoreConfigurationManagerImpl.obj
 0001:00091610       ?Acquire@SharedObjectImpl@AdobeXMPCore_Int@@$R4BI@BI@PPPPPPPM@CA@EBAXXZ 0000000180092610 f i CoreConfigurationManagerImpl.obj
 0001:0009162c       ?GetActualICoreConfigurationManager@ICoreConfigurationManager_I@AdobeXMPCore_Int@@$R4EI@BM@PPPPPPPM@EA@EAAPEAVICoreConfigurationManager_v1@AdobeXMPCore@@XZ 000000018009262c f i CoreConfigurationManagerImpl.obj
 0001:00091648       ?GetActualIConfigurationManager@IConfigurationManager_I@AdobeXMPCore_Int@@$R4DA@BI@PPPPPPPM@BI@EAAPEAVIConfigurationManager_v1@AdobeXMPCommon@@XZ 0000000180092648 f i CoreConfigurationManagerImpl.obj
 0001:00091664       ??_EIConfigurationManager_I@AdobeXMPCore_Int@@W7EAAPEAXI@Z 0000000180092664 f i CoreConfigurationManagerImpl.obj
 0001:00091670       ?isMultiThreaded@IConfigurationManager_I@AdobeXMPCore_Int@@$R2DA@BI@PPPPPPPM@BI@EBAKAEAPEBVIError_v1@AdobeXMPCommon@@@Z 0000000180092670 f i CoreConfigurationManagerImpl.obj
 0001:0009168c       ??_EConfigurationManagerImpl@AdobeXMPCore_Int@@$2PPPPPPPM@A@EAAPEAXI@Z 000000018009268c f i CoreConfigurationManagerImpl.obj
 0001:00091698       ?GetInterfacePointer@IConfigurationManager_I@AdobeXMPCore_Int@@WPPPPPPLI@EAAPEAX_KK@Z 0000000180092698 f i CoreConfigurationManagerImpl.obj
 0001:000916a4       ?registerErrorNotifier@IConfigurationManager_I@AdobeXMPCore_Int@@OPPPPPPLA@EAAKPEAVIErrorNotifier_v1@AdobeXMPCommon@@AEAPEBVIError_v1@4@@Z 00000001800926a4 f i CoreConfigurationManagerImpl.obj
 0001:000916b0       ??_EICoreObjectFactory_v1@AdobeXMPCore@@MEAAPEAXI@Z 00000001800926b0 f i * CIL library *:* CIL module *
 0001:000916b0       ??_GICoreObjectFactory_v1@AdobeXMPCore@@MEAAPEAXI@Z 00000001800926b0 f i CoreObjectFactoryImpl.obj
 0001:00091700       ?GetActualICoreObjectFactory@ICoreObjectFactory_I@AdobeXMPCore_Int@@UEAAPEAVICoreObjectFactory_v1@AdobeXMPCore@@XZ 0000000180092700 f i CoreObjectFactoryImpl.obj
 0001:0009171c       ?GetICoreObjectFactory_I@ICoreObjectFactory_I@AdobeXMPCore_Int@@UEAAPEAV12@XZ 000000018009271c f i CoreObjectFactoryImpl.obj
 0001:00091724       ??_GICoreObjectFactory_I@AdobeXMPCore_Int@@MEAAPEAXI@Z 0000000180092724 f i CoreObjectFactoryImpl.obj
 0001:00091724       ??_EICoreObjectFactory_I@AdobeXMPCore_Int@@MEAAPEAXI@Z 0000000180092724 f i * CIL library *:* CIL module *
 0001:000917b4       ??_GCoreObjectFactoryImpl@AdobeXMPCore_Int@@UEAAPEAXI@Z 00000001800927b4 f i CoreObjectFactoryImpl.obj
 0001:000917b4       ??_ECoreObjectFactoryImpl@AdobeXMPCore_Int@@UEAAPEAXI@Z 00000001800927b4 f i * CIL library *:* CIL module *
 0001:0009188c       ?CreateArrayIndexPathSegment@CoreObjectFactoryImpl@AdobeXMPCore_Int@@UEAAPEBVIPathSegment_v1@AdobeXMPCore@@PEBD_K1AEAPEBVIError_v1@AdobeXMPCommon@@@Z 000000018009288c f   CoreObjectFactoryImpl.obj
 0001:000918b0       ?CreateArrayNode@CoreObjectFactoryImpl@AdobeXMPCore_Int@@UEAAPEAVIArrayNode_v1@AdobeXMPCore@@KPEBD_K01AEAPEBVIError_v1@AdobeXMPCommon@@@Z 00000001800928b0 f   CoreObjectFactoryImpl.obj
 0001:00091958       ?CreateMetadata@CoreObjectFactoryImpl@AdobeXMPCore_Int@@UEAAPEAVIMetadata_v1@AdobeXMPCore@@AEAPEBVIError_v1@AdobeXMPCommon@@@Z 0000000180092958 f   CoreObjectFactoryImpl.obj
 0001:00091960       ?CreateNameSpacePrefixMap@CoreObjectFactoryImpl@AdobeXMPCore_Int@@UEAAPEAVINameSpacePrefixMap_v1@AdobeXMPCore@@AEAPEBVIError_v1@AdobeXMPCommon@@@Z 0000000180092960 f   CoreObjectFactoryImpl.obj
 0001:00091968       ?CreatePath@CoreObjectFactoryImpl@AdobeXMPCore_Int@@UEAAPEAVIPath_v1@AdobeXMPCore@@AEAPEBVIError_v1@AdobeXMPCommon@@@Z 0000000180092968 f   CoreObjectFactoryImpl.obj
 0001:00091970       ?CreatePropertyPathSegment@CoreObjectFactoryImpl@AdobeXMPCore_Int@@UEAAPEBVIPathSegment_v1@AdobeXMPCore@@PEBD_K01AEAPEBVIError_v1@AdobeXMPCommon@@@Z 0000000180092970 f   CoreObjectFactoryImpl.obj
 0001:000919a8       ?CreateQualifierPathSegment@CoreObjectFactoryImpl@AdobeXMPCore_Int@@UEAAPEBVIPathSegment_v1@AdobeXMPCore@@PEBD_K01AEAPEBVIError_v1@AdobeXMPCommon@@@Z 00000001800929a8 f   CoreObjectFactoryImpl.obj
 0001:000919e0       ?CreateQualifierSelectorPathSegment@CoreObjectFactoryImpl@AdobeXMPCore_Int@@UEAAPEBVIPathSegment_v1@AdobeXMPCore@@PEBD_K0101AEAPEBVIError_v1@AdobeXMPCommon@@@Z 00000001800929e0 f   CoreObjectFactoryImpl.obj
 0001:00091a2c       ?CreateSimpleNode@CoreObjectFactoryImpl@AdobeXMPCore_Int@@UEAAPEAVISimpleNode_v1@AdobeXMPCore@@PEBD_K0101AEAPEBVIError_v1@AdobeXMPCommon@@@Z 0000000180092a2c f   CoreObjectFactoryImpl.obj
 0001:00091a78       ?CreateStructureNode@CoreObjectFactoryImpl@AdobeXMPCore_Int@@UEAAPEAVIStructureNode_v1@AdobeXMPCore@@PEBD_K01AEAPEBVIError_v1@AdobeXMPCommon@@@Z 0000000180092a78 f   CoreObjectFactoryImpl.obj
 0001:00091aa4       ?GetCoreConfigurationManager@CoreObjectFactoryImpl@AdobeXMPCore_Int@@UEAAPEAVICoreConfigurationManager_v1@AdobeXMPCore@@AEAPEBVIError_v1@AdobeXMPCommon@@@Z 0000000180092aa4 f   CoreObjectFactoryImpl.obj
 0001:00091aac       ?GetDOMImplementationRegistry@CoreObjectFactoryImpl@AdobeXMPCore_Int@@UEAAPEAVIDOMImplementationRegistry_v1@AdobeXMPCore@@AEAPEBVIError_v1@AdobeXMPCommon@@@Z 0000000180092aac f   CoreObjectFactoryImpl.obj
 0001:00091ab4       ?GetDefaultNameSpacePrefixMap@CoreObjectFactoryImpl@AdobeXMPCore_Int@@UEAAPEBVINameSpacePrefixMap_v1@AdobeXMPCore@@AEAPEBVIError_v1@AdobeXMPCommon@@@Z 0000000180092ab4 f   CoreObjectFactoryImpl.obj
 0001:00091abc       ?ParsePath@CoreObjectFactoryImpl@AdobeXMPCore_Int@@UEAAPEAVIPath_v1@AdobeXMPCore@@PEBD_KPEBVINameSpacePrefixMap_v1@4@AEAPEBVIError_v1@AdobeXMPCommon@@@Z 0000000180092abc f   CoreObjectFactoryImpl.obj
 0001:00091b30       ?CreateError@CoreObjectFactoryImpl@AdobeXMPCore_Int@@UEAAPEAVIError_v1@AdobeXMPCommon@@KKKAEAPEBV34@@Z 0000000180092b30 f   CoreObjectFactoryImpl.obj
 0001:00091b54       ?CreateUTF8String@CoreObjectFactoryImpl@AdobeXMPCore_Int@@UEAAPEAVIUTF8String_v1@AdobeXMPCommon@@PEBD_KAEAPEBVIError_v1@4@@Z 0000000180092b54 f   CoreObjectFactoryImpl.obj
 0001:00091c08       WXMPMeta_GetXMPDOMFactoryInstance_1 0000000180092c08 f   CoreObjectFactoryImpl.obj
 0001:00091c10       ??$ReturnRawPointerFromSharedPointer@$$CBVIPathSegment_v1@AdobeXMPCore@@PEBV12@PEBD_K_K@AdobeXMPCore_Int@@YAPEBVIPathSegment_v1@AdobeXMPCore@@P6A?AV?$shared_ptr@$$CBVIPathSegment_v1@AdobeXMPCore@@@std@@PEBD_K1@ZAEAPEBVIError_v1@AdobeXMPCommon@@01011@Z 0000000180092c10 f i CoreObjectFactoryImpl.obj
 0001:00091d24       ??$ReturnRawPointerFromSharedPointer@VIArrayNode_v1@AdobeXMPCore@@PEAV12@PEBD_KPEBD_K@AdobeXMPCore_Int@@YAPEAVIArrayNode_v1@AdobeXMPCore@@P6A?AV?$shared_ptr@VIArrayNode_v1@AdobeXMPCore@@@std@@PEBD_K01@ZAEAPEBVIError_v1@AdobeXMPCommon@@010101@Z 0000000180092d24 f i CoreObjectFactoryImpl.obj
 0001:00091d24       ??$ReturnRawPointerFromSharedPointer@$$CBVIPathSegment_v1@AdobeXMPCore@@PEBV12@PEBD_KPEBD_K@AdobeXMPCore_Int@@YAPEBVIPathSegment_v1@AdobeXMPCore@@P6A?AV?$shared_ptr@$$CBVIPathSegment_v1@AdobeXMPCore@@@std@@PEBD_K01@ZAEAPEBVIError_v1@AdobeXMPCommon@@010101@Z 0000000180092d24 f i CoreObjectFactoryImpl.obj
 0001:00091e50       ??$ReturnRawPointerFromSharedPointer@VIMetadata_v1@AdobeXMPCore@@PEAV12@@AdobeXMPCore_Int@@YAPEAVIMetadata_v1@AdobeXMPCore@@P6A?AV?$shared_ptr@VIMetadata_v1@AdobeXMPCore@@@std@@XZAEAPEBVIError_v1@AdobeXMPCommon@@PEBD_K@Z 0000000180092e50 f i CoreObjectFactoryImpl.obj
 0001:00091f4c       ??$ReturnRawPointerFromSharedPointer@VINameSpacePrefixMap_v1@AdobeXMPCore@@PEAV12@@AdobeXMPCore_Int@@YAPEAVINameSpacePrefixMap_v1@AdobeXMPCore@@P6A?AV?$shared_ptr@VINameSpacePrefixMap_v1@AdobeXMPCore@@@std@@XZAEAPEBVIError_v1@AdobeXMPCommon@@PEBD_K@Z 0000000180092f4c f i CoreObjectFactoryImpl.obj
 0001:00092048       ??$ReturnRawPointerFromSharedPointer@VIPath_v1@AdobeXMPCore@@PEAV12@@AdobeXMPCore_Int@@YAPEAVIPath_v1@AdobeXMPCore@@P6A?AV?$shared_ptr@VIPath_v1@AdobeXMPCore@@@std@@XZAEAPEBVIError_v1@AdobeXMPCommon@@PEBD_K@Z 0000000180093048 f i CoreObjectFactoryImpl.obj
 0001:00092144       ??$ReturnRawPointerFromSharedPointer@$$CBVIPathSegment_v1@AdobeXMPCore@@PEBV12@PEBD_KPEBD_KPEBD_K@AdobeXMPCore_Int@@YAPEBVIPathSegment_v1@AdobeXMPCore@@P6A?AV?$shared_ptr@$$CBVIPathSegment_v1@AdobeXMPCore@@@std@@PEBD_K0101@ZAEAPEBVIError_v1@AdobeXMPCommon@@01010101@Z 0000000180093144 f i CoreObjectFactoryImpl.obj
 0001:00092284       ??$ReturnRawPointerFromSharedPointer@VISimpleNode_v1@AdobeXMPCore@@PEAV12@PEBD_KPEBD_KPEBD_K@AdobeXMPCore_Int@@YAPEAVISimpleNode_v1@AdobeXMPCore@@P6A?AV?$shared_ptr@VISimpleNode_v1@AdobeXMPCore@@@std@@PEBD_K0101@ZAEAPEBVIError_v1@AdobeXMPCommon@@01010101@Z 0000000180093284 f i CoreObjectFactoryImpl.obj
 0001:000923c4       ??$ReturnRawPointerFromSharedPointer@VIStructureNode_v1@AdobeXMPCore@@PEAV12@PEBD_KPEBD_K@AdobeXMPCore_Int@@YAPEAVIStructureNode_v1@AdobeXMPCore@@P6A?AV?$shared_ptr@VIStructureNode_v1@AdobeXMPCore@@@std@@PEBD_K01@ZAEAPEBVIError_v1@AdobeXMPCommon@@010101@Z 00000001800933c4 f i CoreObjectFactoryImpl.obj
 0001:000924ec       ??$ReturnRawPointerFromSharedPointer@VICoreConfigurationManager_v1@AdobeXMPCore@@PEAV12@@AdobeXMPCore_Int@@YAPEAVICoreConfigurationManager_v1@AdobeXMPCore@@P6A?AV?$shared_ptr@VICoreConfigurationManager_v1@AdobeXMPCore@@@std@@XZAEAPEBVIError_v1@AdobeXMPCommon@@PEBD_K@Z 00000001800934ec f i CoreObjectFactoryImpl.obj
 0001:000925e8       ??$ReturnRawPointerFromSharedPointer@VIDOMImplementationRegistry_v1@AdobeXMPCore@@PEAV12@@AdobeXMPCore_Int@@YAPEAVIDOMImplementationRegistry_v1@AdobeXMPCore@@P6A?AV?$shared_ptr@VIDOMImplementationRegistry_v1@AdobeXMPCore@@@std@@XZAEAPEBVIError_v1@AdobeXMPCommon@@PEBD_K@Z 00000001800935e8 f i CoreObjectFactoryImpl.obj
 0001:000926e4       ??$ReturnRawPointerFromSharedPointer@$$CBVINameSpacePrefixMap_v1@AdobeXMPCore@@PEBV12@@AdobeXMPCore_Int@@YAPEBVINameSpacePrefixMap_v1@AdobeXMPCore@@P6A?AV?$shared_ptr@$$CBVINameSpacePrefixMap_v1@AdobeXMPCore@@@std@@XZAEAPEBVIError_v1@AdobeXMPCommon@@PEBD_K@Z 00000001800936e4 f i CoreObjectFactoryImpl.obj
 0001:000927e0       ??$ReturnRawPointerFromSharedPointer@VIPath_v1@AdobeXMPCore@@PEAV12@PEBD_KAEBV?$shared_ptr@$$CBVINameSpacePrefixMap_v1@AdobeXMPCore@@@std@@@AdobeXMPCore_Int@@YAPEAVIPath_v1@AdobeXMPCore@@P6A?AV?$shared_ptr@VIPath_v1@AdobeXMPCore@@@std@@PEBD_KAEBV?$shared_ptr@$$CBVINameSpacePrefixMap_v1@AdobeXMPCore@@@4@@ZAEAPEBVIError_v1@AdobeXMPCommon@@01012@Z 00000001800937e0 f i CoreObjectFactoryImpl.obj
 0001:000928f4       ??$ReturnRawPointerFromSharedPointer@VIError_I@AdobeXMPCore_Int@@PEAVIError_v1@AdobeXMPCommon@@W4eErrorDomain@34@KW4eErrorSeverity@34@@AdobeXMPCore_Int@@YAPEAVIError_v1@AdobeXMPCommon@@P6A?AV?$shared_ptr@VIError_I@AdobeXMPCore_Int@@@std@@W4eErrorDomain@12@KW4eErrorSeverity@12@@ZAEAPEBV12@PEBD_K0K1@Z 00000001800938f4 f i CoreObjectFactoryImpl.obj
 0001:00092a1c       ??$ReturnRawPointerFromSharedPointer@VIUTF8String_v1@AdobeXMPCommon@@PEAV12@PEBD_K@AdobeXMPCore_Int@@YAPEAVIUTF8String_v1@AdobeXMPCommon@@P6A?AV?$shared_ptr@VIUTF8String_v1@AdobeXMPCommon@@@std@@PEBD_K@ZAEAPEBVIError_v1@2@0101@Z 0000000180093a1c f i CoreObjectFactoryImpl.obj
 0001:00092b28       ?CreateError@CoreObjectFactoryImpl@AdobeXMPCore_Int@@$4PPPPPPPM@A@EAAPEAVIError_v1@AdobeXMPCommon@@KKKAEAPEBV34@@Z 0000000180093b28 f i CoreObjectFactoryImpl.obj
 0001:00092b34       ?GetICoreObjectFactory_I@ICoreObjectFactory_I@AdobeXMPCore_Int@@$R4CA@M@PPPPPPPM@CA@EAAPEAV12@XZ 0000000180093b34 f i CoreObjectFactoryImpl.obj
 0001:00092b4c       ?GetActualICoreObjectFactory@ICoreObjectFactory_I@AdobeXMPCore_Int@@$R4CA@M@PPPPPPPM@CA@EAAPEAVICoreObjectFactory_v1@AdobeXMPCore@@XZ 0000000180093b4c f i CoreObjectFactoryImpl.obj
 0001:00092b64       ?GetDOMImplementationRegistry@CoreObjectFactoryImpl@AdobeXMPCore_Int@@$4PPPPPPPM@A@EAAPEAVIDOMImplementationRegistry_v1@AdobeXMPCore@@AEAPEBVIError_v1@AdobeXMPCommon@@@Z 0000000180093b64 f i CoreObjectFactoryImpl.obj
 0001:00092b70       ?CreateMetadata@CoreObjectFactoryImpl@AdobeXMPCore_Int@@$4PPPPPPPM@A@EAAPEAVIMetadata_v1@AdobeXMPCore@@AEAPEBVIError_v1@AdobeXMPCommon@@@Z 0000000180093b70 f i CoreObjectFactoryImpl.obj
 0001:00092b7c       ?CreateStructureNode@CoreObjectFactoryImpl@AdobeXMPCore_Int@@$4PPPPPPPM@A@EAAPEAVIStructureNode_v1@AdobeXMPCore@@PEBD_K01AEAPEBVIError_v1@AdobeXMPCommon@@@Z 0000000180093b7c f i CoreObjectFactoryImpl.obj
 0001:00092b88       ?getInterfacePointer@ICoreObjectFactory_I@AdobeXMPCore_Int@@$2PPPPPPPM@A@EAAPEAX_KKAEAPEBVIError_v1@AdobeXMPCommon@@@Z 0000000180093b88 f i CoreObjectFactoryImpl.obj
 0001:00092b94       ?CreatePropertyPathSegment@CoreObjectFactoryImpl@AdobeXMPCore_Int@@$4PPPPPPPM@A@EAAPEBVIPathSegment_v1@AdobeXMPCore@@PEBD_K01AEAPEBVIError_v1@AdobeXMPCommon@@@Z 0000000180093b94 f i CoreObjectFactoryImpl.obj
 0001:00092ba0       ?CreateNameSpacePrefixMap@CoreObjectFactoryImpl@AdobeXMPCore_Int@@$4PPPPPPPM@A@EAAPEAVINameSpacePrefixMap_v1@AdobeXMPCore@@AEAPEBVIError_v1@AdobeXMPCommon@@@Z 0000000180093ba0 f i CoreObjectFactoryImpl.obj
 0001:00092bac       ??_EICoreObjectFactory_I@AdobeXMPCore_Int@@$2PPPPPPPM@A@EAAPEAXI@Z 0000000180093bac f i CoreObjectFactoryImpl.obj
 0001:00092bb8       ?CreateQualifierSelectorPathSegment@CoreObjectFactoryImpl@AdobeXMPCore_Int@@$4PPPPPPPM@A@EAAPEBVIPathSegment_v1@AdobeXMPCore@@PEBD_K0101AEAPEBVIError_v1@AdobeXMPCommon@@@Z 0000000180093bb8 f i CoreObjectFactoryImpl.obj
 0001:00092bc4       ?CreateUTF8String@CoreObjectFactoryImpl@AdobeXMPCore_Int@@$4PPPPPPPM@A@EAAPEAVIUTF8String_v1@AdobeXMPCommon@@PEBD_KAEAPEBVIError_v1@4@@Z 0000000180093bc4 f i CoreObjectFactoryImpl.obj
 0001:00092bd0       ?GetInterfacePointer@ICoreObjectFactory_I@AdobeXMPCore_Int@@$4PPPPPPPM@PPPPPPNA@EAAPEAX_KK@Z 0000000180093bd0 f i CoreObjectFactoryImpl.obj
 0001:00092be0       ?CreatePath@CoreObjectFactoryImpl@AdobeXMPCore_Int@@$4PPPPPPPM@A@EAAPEAVIPath_v1@AdobeXMPCore@@AEAPEBVIError_v1@AdobeXMPCommon@@@Z 0000000180093be0 f i CoreObjectFactoryImpl.obj
 0001:00092bec       ?CreateQualifierPathSegment@CoreObjectFactoryImpl@AdobeXMPCore_Int@@$4PPPPPPPM@A@EAAPEBVIPathSegment_v1@AdobeXMPCore@@PEBD_K01AEAPEBVIError_v1@AdobeXMPCommon@@@Z 0000000180093bec f i CoreObjectFactoryImpl.obj
 0001:00092bf8       ??_ECoreObjectFactoryImpl@AdobeXMPCore_Int@@$4PPPPPPPM@A@EAAPEAXI@Z 0000000180093bf8 f i CoreObjectFactoryImpl.obj
 0001:00092c04       ?CreateSimpleNode@CoreObjectFactoryImpl@AdobeXMPCore_Int@@$4PPPPPPPM@A@EAAPEAVISimpleNode_v1@AdobeXMPCore@@PEBD_K0101AEAPEBVIError_v1@AdobeXMPCommon@@@Z 0000000180093c04 f i CoreObjectFactoryImpl.obj
 0001:00092c10       ?GetICoreObjectFactory_I@ICoreObjectFactory_I@AdobeXMPCore_Int@@$4PPPPPPPM@A@EAAPEAV12@XZ 0000000180093c10 f i CoreObjectFactoryImpl.obj
 0001:00092c1c       ?GetActualICoreObjectFactory@ICoreObjectFactory_I@AdobeXMPCore_Int@@$4PPPPPPPM@A@EAAPEAVICoreObjectFactory_v1@AdobeXMPCore@@XZ 0000000180093c1c f i CoreObjectFactoryImpl.obj
 0001:00092c28       ?GetCoreConfigurationManager@CoreObjectFactoryImpl@AdobeXMPCore_Int@@$4PPPPPPPM@A@EAAPEAVICoreConfigurationManager_v1@AdobeXMPCore@@AEAPEBVIError_v1@AdobeXMPCommon@@@Z 0000000180093c28 f i CoreObjectFactoryImpl.obj
 0001:00092c34       ?getInterfacePointer@ICoreObjectFactory_I@AdobeXMPCore_Int@@$2PPPPPPPM@PPPPPPNA@EAAPEAX_KKAEAPEBVIError_v1@AdobeXMPCommon@@@Z 0000000180093c34 f i CoreObjectFactoryImpl.obj
 0001:00092c44       ?ParsePath@CoreObjectFactoryImpl@AdobeXMPCore_Int@@$4PPPPPPPM@A@EAAPEAVIPath_v1@AdobeXMPCore@@PEBD_KPEBVINameSpacePrefixMap_v1@4@AEAPEBVIError_v1@AdobeXMPCommon@@@Z 0000000180093c44 f i CoreObjectFactoryImpl.obj
 0001:00092c50       ?CreateArrayIndexPathSegment@CoreObjectFactoryImpl@AdobeXMPCore_Int@@$4PPPPPPPM@A@EAAPEBVIPathSegment_v1@AdobeXMPCore@@PEBD_K1AEAPEBVIError_v1@AdobeXMPCommon@@@Z 0000000180093c50 f i CoreObjectFactoryImpl.obj
 0001:00092c5c       ?GetInterfacePointer@ICoreObjectFactory_I@AdobeXMPCore_Int@@$4PPPPPPPM@A@EAAPEAX_KK@Z 0000000180093c5c f i CoreObjectFactoryImpl.obj
 0001:00092c68       ?CreateArrayNode@CoreObjectFactoryImpl@AdobeXMPCore_Int@@$4PPPPPPPM@A@EAAPEAVIArrayNode_v1@AdobeXMPCore@@KPEBD_K01AEAPEBVIError_v1@AdobeXMPCommon@@@Z 0000000180093c68 f i CoreObjectFactoryImpl.obj
 0001:00092c74       ?GetDefaultNameSpacePrefixMap@CoreObjectFactoryImpl@AdobeXMPCore_Int@@$4PPPPPPPM@A@EAAPEBVINameSpacePrefixMap_v1@AdobeXMPCore@@AEAPEBVIError_v1@AdobeXMPCommon@@@Z 0000000180093c74 f i CoreObjectFactoryImpl.obj
 0001:00092c80       ??1IDOMImplementationRegistry_v1@AdobeXMPCore@@MEAA@XZ 0000000180093c80 f i DOMImplementationRegistryImpl.obj
 0001:00092cb4       ??_GIDOMImplementationRegistry_v1@AdobeXMPCore@@MEAAPEAXI@Z 0000000180093cb4 f i DOMImplementationRegistryImpl.obj
 0001:00092cb4       ??_EIDOMImplementationRegistry_v1@AdobeXMPCore@@MEAAPEAXI@Z 0000000180093cb4 f i * CIL library *:* CIL module *
 0001:00092d24       ?GetActualIDOMImplementationRegistry@IDOMImplementationRegistry_I@AdobeXMPCore_Int@@UEAAPEAVIDOMImplementationRegistry_v1@AdobeXMPCore@@XZ 0000000180093d24 f i DOMImplementationRegistryImpl.obj
 0001:00092d48       ?GetISharedObject_I@IDOMImplementationRegistry_I@AdobeXMPCore_Int@@UEAAPEAVISharedObject_I@AdobeXMPCommon_Int@@XZ 0000000180093d48 f i DOMImplementationRegistryImpl.obj
 0001:00092d6c       ??1IDOMImplementationRegistry_I@AdobeXMPCore_Int@@MEAA@XZ 0000000180093d6c f i DOMImplementationRegistryImpl.obj
 0001:00092dfc       ??_EIDOMImplementationRegistry_I@AdobeXMPCore_Int@@MEAAPEAXI@Z 0000000180093dfc f i * CIL library *:* CIL module *
 0001:00092dfc       ??_GIDOMImplementationRegistry_I@AdobeXMPCore_Int@@MEAAPEAXI@Z 0000000180093dfc f i DOMImplementationRegistryImpl.obj
 0001:00092ef4       ??0DOMImplementationRegistryImpl@AdobeXMPCore_Int@@QEAA@XZ 0000000180093ef4 f i DOMImplementationRegistryImpl.obj
 0001:000931ac       ??1DOMImplementationRegistryImpl@AdobeXMPCore_Int@@MEAA@XZ 00000001800941ac f i DOMImplementationRegistryImpl.obj
 0001:0009327c       ??_GDOMImplementationRegistryImpl@AdobeXMPCore_Int@@MEAAPEAXI@Z 000000018009427c f i DOMImplementationRegistryImpl.obj
 0001:0009327c       ??_EDOMImplementationRegistryImpl@AdobeXMPCore_Int@@MEAAPEAXI@Z 000000018009427c f i * CIL library *:* CIL module *
 0001:00093430       ??1?$map@V?$shared_ptr@$$CBVIUTF8String_v1@AdobeXMPCommon@@@std@@V?$shared_ptr@$$CBVIDOMParser_v1@AdobeXMPCore@@@2@UIUTF8StringComparator@AdobeXMPCore_Int@@V?$TAllocator@V?$shared_ptr@$$CBVIUTF8String_v1@AdobeXMPCommon@@@std@@@5@@std@@QEAA@XZ 0000000180094430 f i DOMImplementationRegistryImpl.obj
 0001:00093438       ??0RDFDOMParserImpl@AdobeXMPCore_Int@@QEAA@XZ 0000000180094438 f i DOMImplementationRegistryImpl.obj
 0001:00093744       ??1RDFDOMParserImpl@AdobeXMPCore_Int@@MEAA@XZ 0000000180094744 f i DOMImplementationRegistryImpl.obj
 0001:00093884       ??_GRDFDOMParserImpl@AdobeXMPCore_Int@@MEAAPEAXI@Z 0000000180094884 f i DOMImplementationRegistryImpl.obj
 0001:00093884       ??_ERDFDOMParserImpl@AdobeXMPCore_Int@@MEAAPEAXI@Z 0000000180094884 f i * CIL library *:* CIL module *
 0001:000939f4       ??0RDFDOMSerializerImpl@AdobeXMPCore_Int@@QEAA@XZ 00000001800949f4 f i DOMImplementationRegistryImpl.obj
 0001:00093cf8       ??1RDFDOMSerializerImpl@AdobeXMPCore_Int@@MEAA@XZ 0000000180094cf8 f i DOMImplementationRegistryImpl.obj
 0001:00093e38       ??_ERDFDOMSerializerImpl@AdobeXMPCore_Int@@MEAAPEAXI@Z 0000000180094e38 f i * CIL library *:* CIL module *
 0001:00093e38       ??_GRDFDOMSerializerImpl@AdobeXMPCore_Int@@MEAAPEAXI@Z 0000000180094e38 f i DOMImplementationRegistryImpl.obj
 0001:00093fa8       ?RegisterParser@DOMImplementationRegistryImpl@AdobeXMPCore_Int@@UEAA_NPEBDAEBV?$shared_ptr@$$CBVIDOMParser_v1@AdobeXMPCore@@@std@@@Z 0000000180094fa8 f   DOMImplementationRegistryImpl.obj
 0001:00094148       ??1?$pair@V?$shared_ptr@$$CBVIUTF8String_v1@AdobeXMPCommon@@@std@@V?$shared_ptr@$$CBVIDOMParser_v1@AdobeXMPCore@@@2@@std@@QEAA@XZ 0000000180095148 f i DOMImplementationRegistryImpl.obj
 0001:00094148       ??1QualifiedName@StructureNodeImpl@AdobeXMPCore_Int@@QEAA@XZ 0000000180095148 f i MetadataImpl.obj
 0001:00094148       ??1?$pair@$$CBV?$shared_ptr@$$CBVIUTF8String_v1@AdobeXMPCommon@@@std@@V12@@std@@QEAA@XZ 0000000180095148 f i NameSpacePrefixMapImpl.obj
 0001:00094148       ??1?$pair@V?$shared_ptr@$$CBVIUTF8String_v1@AdobeXMPCommon@@@std@@V?$shared_ptr@$$CBVIDOMSerializer_v1@AdobeXMPCore@@@2@@std@@QEAA@XZ 0000000180095148 f i DOMImplementationRegistryImpl.obj
 0001:000941d0       ?RegisterSerializer@DOMImplementationRegistryImpl@AdobeXMPCore_Int@@UEAA_NPEBDAEBV?$shared_ptr@$$CBVIDOMSerializer_v1@AdobeXMPCore@@@std@@@Z 00000001800951d0 f   DOMImplementationRegistryImpl.obj
 0001:00094370       ?GetParser@DOMImplementationRegistryImpl@AdobeXMPCore_Int@@UEBA?AV?$shared_ptr@VIDOMParser_v1@AdobeXMPCore@@@std@@PEBD@Z 0000000180095370 f   DOMImplementationRegistryImpl.obj
 0001:000944d0       ?GetSerializer@DOMImplementationRegistryImpl@AdobeXMPCore_Int@@UEBA?AV?$shared_ptr@VIDOMSerializer_v1@AdobeXMPCore@@@std@@PEBD@Z 00000001800954d0 f   DOMImplementationRegistryImpl.obj
 0001:000949fc       ?GetDOMImplementationRegistry@IDOMImplementationRegistry_v1@AdobeXMPCore@@SA?AV?$shared_ptr@VIDOMImplementationRegistry_v1@AdobeXMPCore@@@std@@XZ 00000001800959fc f   DOMImplementationRegistryImpl.obj
 0001:00094a1c       ??1?$_Tree@V?$_Tmap_traits@V?$shared_ptr@$$CBVIUTF8String_v1@AdobeXMPCommon@@@std@@V?$shared_ptr@$$CBVIDOMSerializer_v1@AdobeXMPCore@@@2@UIUTF8StringComparator@AdobeXMPCore_Int@@V?$TAllocator@V?$shared_ptr@$$CBVIUTF8String_v1@AdobeXMPCommon@@@std@@@5@$0A@@std@@@std@@QEAA@XZ 0000000180095a1c f i DOMImplementationRegistryImpl.obj
 0001:00094a1c       ??1?$_Tree@V?$_Tmap_traits@V?$shared_ptr@$$CBVIUTF8String_v1@AdobeXMPCommon@@@std@@V?$shared_ptr@$$CBVIDOMParser_v1@AdobeXMPCore@@@2@UIUTF8StringComparator@AdobeXMPCore_Int@@V?$TAllocator@V?$shared_ptr@$$CBVIUTF8String_v1@AdobeXMPCommon@@@std@@@5@$0A@@std@@@std@@QEAA@XZ 0000000180095a1c f i DOMImplementationRegistryImpl.obj
 0001:00094acc       ?_Erase@?$_Tree@V?$_Tmap_traits@V?$shared_ptr@$$CBVIUTF8String_v1@AdobeXMPCommon@@@std@@V?$shared_ptr@$$CBVIDOMSerializer_v1@AdobeXMPCore@@@2@UIUTF8StringComparator@AdobeXMPCore_Int@@V?$TAllocator@V?$shared_ptr@$$CBVIUTF8String_v1@AdobeXMPCommon@@@std@@@5@$0A@@std@@@std@@IEAAXPEAU?$_Tree_node@U?$pair@$$CBV?$shared_ptr@$$CBVIUTF8String_v1@AdobeXMPCommon@@@std@@V?$shared_ptr@$$CBVIDOMSerializer_v1@AdobeXMPCore@@@2@@std@@PEAX@2@@Z 0000000180095acc f i DOMImplementationRegistryImpl.obj
 0001:00094acc       ?_Erase@?$_Tree@V?$_Tmap_traits@V?$shared_ptr@$$CBVIUTF8String_v1@AdobeXMPCommon@@@std@@V?$shared_ptr@$$CBVIDOMParser_v1@AdobeXMPCore@@@2@UIUTF8StringComparator@AdobeXMPCore_Int@@V?$TAllocator@V?$shared_ptr@$$CBVIUTF8String_v1@AdobeXMPCommon@@@std@@@5@$0A@@std@@@std@@IEAAXPEAU?$_Tree_node@U?$pair@$$CBV?$shared_ptr@$$CBVIUTF8String_v1@AdobeXMPCommon@@@std@@V?$shared_ptr@$$CBVIDOMParser_v1@AdobeXMPCore@@@2@@std@@PEAX@2@@Z 0000000180095acc f i DOMImplementationRegistryImpl.obj
 0001:00094b3c       ?_Buyheadnode@?$_Tree_alloc@$0A@U?$_Tree_base_types@U?$pair@$$CBV?$shared_ptr@$$CBVIUTF8String_v1@AdobeXMPCommon@@@std@@V?$shared_ptr@$$CBVIDOMParser_v1@AdobeXMPCore@@@2@@std@@V?$TAllocator@V?$shared_ptr@$$CBVIUTF8String_v1@AdobeXMPCommon@@@std@@@AdobeXMPCore_Int@@@std@@@std@@QEAAPEAU?$_Tree_node@U?$pair@$$CBV?$shared_ptr@$$CBVIUTF8String_v1@AdobeXMPCommon@@@std@@V?$shared_ptr@$$CBVIDOMParser_v1@AdobeXMPCore@@@2@@std@@PEAX@2@XZ 0000000180095b3c f i DOMImplementationRegistryImpl.obj
 0001:00094b3c       ?_Buyheadnode@?$_Tree_alloc@$0A@U?$_Tree_base_types@U?$pair@$$CBV?$shared_ptr@$$CBVIUTF8String_v1@AdobeXMPCommon@@@std@@V12@@std@@V?$TAllocator@V?$shared_ptr@$$CBVIUTF8String_v1@AdobeXMPCommon@@@std@@@AdobeXMPCore_Int@@@std@@@std@@QEAAPEAU?$_Tree_node@U?$pair@$$CBV?$shared_ptr@$$CBVIUTF8String_v1@AdobeXMPCommon@@@std@@V12@@std@@PEAX@2@XZ 0000000180095b3c f i NameSpacePrefixMapImpl.obj
 0001:00094b3c       ?_Buyheadnode@?$_Tree_alloc@$0A@U?$_Tree_base_types@U?$pair@$$CBV?$shared_ptr@$$CBVIUTF8String_v1@AdobeXMPCommon@@@std@@V?$shared_ptr@$$CBVIDOMSerializer_v1@AdobeXMPCore@@@2@@std@@V?$TAllocator@V?$shared_ptr@$$CBVIUTF8String_v1@AdobeXMPCommon@@@std@@@AdobeXMPCore_Int@@@std@@@std@@QEAAPEAU?$_Tree_node@U?$pair@$$CBV?$shared_ptr@$$CBVIUTF8String_v1@AdobeXMPCommon@@@std@@V?$shared_ptr@$$CBVIDOMSerializer_v1@AdobeXMPCore@@@2@@std@@PEAX@2@XZ 0000000180095b3c f i DOMImplementationRegistryImpl.obj
 0001:00094b8c       ??$MakeUncheckedSharedPointer@VRDFDOMParserImpl@AdobeXMPCore_Int@@@AdobeXMPCore_Int@@YA?AV?$shared_ptr@VRDFDOMParserImpl@AdobeXMPCore_Int@@@std@@PEAVRDFDOMParserImpl@0@PEBD_K_N@Z 0000000180095b8c f i DOMImplementationRegistryImpl.obj
 0001:00094c88       ??$MakeUncheckedSharedPointer@VRDFDOMSerializerImpl@AdobeXMPCore_Int@@@AdobeXMPCore_Int@@YA?AV?$shared_ptr@VRDFDOMSerializerImpl@AdobeXMPCore_Int@@@std@@PEAVRDFDOMSerializerImpl@0@PEBD_K_N@Z 0000000180095c88 f i DOMImplementationRegistryImpl.obj
 0001:00094d84       ??$MakeUncheckedSharedPointer@VDOMImplementationRegistryImpl@AdobeXMPCore_Int@@@AdobeXMPCore_Int@@YA?AV?$shared_ptr@VDOMImplementationRegistryImpl@AdobeXMPCore_Int@@@std@@PEAVDOMImplementationRegistryImpl@0@PEBD_K_N@Z 0000000180095d84 f i DOMImplementationRegistryImpl.obj
 0001:00094e80       ??$destroy@U?$pair@$$CBV?$shared_ptr@$$CBVIUTF8String_v1@AdobeXMPCommon@@@std@@V?$shared_ptr@$$CBVIDOMParser_v1@AdobeXMPCore@@@2@@std@@@?$_Wrap_alloc@V?$TAllocator@U?$_Tree_node@U?$pair@$$CBV?$shared_ptr@$$CBVIUTF8String_v1@AdobeXMPCommon@@@std@@V?$shared_ptr@$$CBVIDOMParser_v1@AdobeXMPCore@@@2@@std@@PEAX@std@@@AdobeXMPCore_Int@@@std@@QEAAXPEAU?$pair@$$CBV?$shared_ptr@$$CBVIUTF8String_v1@AdobeXMPCommon@@@std@@V?$shared_ptr@$$CBVIDOMParser_v1@AdobeXMPCore@@@2@@1@@Z 0000000180095e80 f i DOMImplementationRegistryImpl.obj
 0001:00094e80       ??$destroy@U?$pair@$$CBV?$shared_ptr@$$CBVIUTF8String_v1@AdobeXMPCommon@@@std@@V?$shared_ptr@$$CBVIDOMSerializer_v1@AdobeXMPCore@@@2@@std@@@?$_Wrap_alloc@V?$TAllocator@U?$_Tree_node@U?$pair@$$CBV?$shared_ptr@$$CBVIUTF8String_v1@AdobeXMPCommon@@@std@@V?$shared_ptr@$$CBVIDOMSerializer_v1@AdobeXMPCore@@@2@@std@@PEAX@std@@@AdobeXMPCore_Int@@@std@@QEAAXPEAU?$pair@$$CBV?$shared_ptr@$$CBVIUTF8String_v1@AdobeXMPCommon@@@std@@V?$shared_ptr@$$CBVIDOMSerializer_v1@AdobeXMPCore@@@2@@1@@Z 0000000180095e80 f i DOMImplementationRegistryImpl.obj
 0001:00094f08       ??$_Buynode@U?$pair@V?$shared_ptr@$$CBVIUTF8String_v1@AdobeXMPCommon@@@std@@V?$shared_ptr@$$CBVIDOMSerializer_v1@AdobeXMPCore@@@2@@std@@@?$_Tree_buy@U?$pair@$$CBV?$shared_ptr@$$CBVIUTF8String_v1@AdobeXMPCommon@@@std@@V?$shared_ptr@$$CBVIDOMSerializer_v1@AdobeXMPCore@@@2@@std@@V?$TAllocator@V?$shared_ptr@$$CBVIUTF8String_v1@AdobeXMPCommon@@@std@@@AdobeXMPCore_Int@@@std@@QEAAPEAU?$_Tree_node@U?$pair@$$CBV?$shared_ptr@$$CBVIUTF8String_v1@AdobeXMPCommon@@@std@@V?$shared_ptr@$$CBVIDOMSerializer_v1@AdobeXMPCore@@@2@@std@@PEAX@1@$$QEAU?$pair@V?$shared_ptr@$$CBVIUTF8String_v1@AdobeXMPCommon@@@std@@V?$shared_ptr@$$CBVIDOMSerializer_v1@AdobeXMPCore@@@2@@1@@Z 0000000180095f08 f i DOMImplementationRegistryImpl.obj
 0001:00094f08       ??$_Buynode@U?$pair@V?$shared_ptr@$$CBVIUTF8String_v1@AdobeXMPCommon@@@std@@V?$shared_ptr@$$CBVIDOMParser_v1@AdobeXMPCore@@@2@@std@@@?$_Tree_buy@U?$pair@$$CBV?$shared_ptr@$$CBVIUTF8String_v1@AdobeXMPCommon@@@std@@V?$shared_ptr@$$CBVIDOMParser_v1@AdobeXMPCore@@@2@@std@@V?$TAllocator@V?$shared_ptr@$$CBVIUTF8String_v1@AdobeXMPCommon@@@std@@@AdobeXMPCore_Int@@@std@@QEAAPEAU?$_Tree_node@U?$pair@$$CBV?$shared_ptr@$$CBVIUTF8String_v1@AdobeXMPCommon@@@std@@V?$shared_ptr@$$CBVIDOMParser_v1@AdobeXMPCore@@@2@@std@@PEAX@1@$$QEAU?$pair@V?$shared_ptr@$$CBVIUTF8String_v1@AdobeXMPCommon@@@std@@V?$shared_ptr@$$CBVIDOMParser_v1@AdobeXMPCore@@@2@@1@@Z 0000000180095f08 f i DOMImplementationRegistryImpl.obj
 0001:00094f84       ??$_Insert_nohint@AEAU?$pair@$$CBV?$shared_ptr@$$CBVIUTF8String_v1@AdobeXMPCommon@@@std@@V?$shared_ptr@$$CBVIDOMSerializer_v1@AdobeXMPCore@@@2@@std@@PEAU?$_Tree_node@U?$pair@$$CBV?$shared_ptr@$$CBVIUTF8String_v1@AdobeXMPCommon@@@std@@V?$shared_ptr@$$CBVIDOMSerializer_v1@AdobeXMPCore@@@2@@std@@PEAX@2@@?$_Tree@V?$_Tmap_traits@V?$shared_ptr@$$CBVIUTF8String_v1@AdobeXMPCommon@@@std@@V?$shared_ptr@$$CBVIDOMSerializer_v1@AdobeXMPCore@@@2@UIUTF8StringComparator@AdobeXMPCore_Int@@V?$TAllocator@V?$shared_ptr@$$CBVIUTF8String_v1@AdobeXMPCommon@@@std@@@5@$0A@@std@@@std@@IEAA?AU?$pair@V?$_Tree_iterator@V?$_Tree_val@U?$_Tree_simple_types@U?$pair@$$CBV?$shared_ptr@$$CBVIUTF8String_v1@AdobeXMPCommon@@@std@@V?$shared_ptr@$$CBVIDOMSerializer_v1@AdobeXMPCore@@@2@@std@@@std@@@std@@@std@@_N@1@_NAEAU?$pair@$$CBV?$shared_ptr@$$CBVIUTF8String_v1@AdobeXMPCommon@@@std@@V?$shared_ptr@$$CBVIDOMSerializer_v1@AdobeXMPCore@@@2@@1@PEAU?$_Tree_node@U?$pair@$$CBV?$shared_ptr@$$CBVIUTF8String_v1@AdobeXMPCommon@@@std@@V?$shared_ptr@$$CBVIDOMSerializer_v1@AdobeXMPCore@@@2@@std@@PEAX@1@@Z 0000000180095f84 f i DOMImplementationRegistryImpl.obj
 0001:00094f84       ??$_Insert_nohint@AEAU?$pair@$$CBV?$shared_ptr@$$CBVIUTF8String_v1@AdobeXMPCommon@@@std@@V?$shared_ptr@$$CBVIDOMParser_v1@AdobeXMPCore@@@2@@std@@PEAU?$_Tree_node@U?$pair@$$CBV?$shared_ptr@$$CBVIUTF8String_v1@AdobeXMPCommon@@@std@@V?$shared_ptr@$$CBVIDOMParser_v1@AdobeXMPCore@@@2@@std@@PEAX@2@@?$_Tree@V?$_Tmap_traits@V?$shared_ptr@$$CBVIUTF8String_v1@AdobeXMPCommon@@@std@@V?$shared_ptr@$$CBVIDOMParser_v1@AdobeXMPCore@@@2@UIUTF8StringComparator@AdobeXMPCore_Int@@V?$TAllocator@V?$shared_ptr@$$CBVIUTF8String_v1@AdobeXMPCommon@@@std@@@5@$0A@@std@@@std@@IEAA?AU?$pair@V?$_Tree_iterator@V?$_Tree_val@U?$_Tree_simple_types@U?$pair@$$CBV?$shared_ptr@$$CBVIUTF8String_v1@AdobeXMPCommon@@@std@@V?$shared_ptr@$$CBVIDOMParser_v1@AdobeXMPCore@@@2@@std@@@std@@@std@@@std@@_N@1@_NAEAU?$pair@$$CBV?$shared_ptr@$$CBVIUTF8String_v1@AdobeXMPCommon@@@std@@V?$shared_ptr@$$CBVIDOMParser_v1@AdobeXMPCore@@@2@@1@PEAU?$_Tree_node@U?$pair@$$CBV?$shared_ptr@$$CBVIUTF8String_v1@AdobeXMPCommon@@@std@@V?$shared_ptr@$$CBVIDOMParser_v1@AdobeXMPCore@@@2@@std@@PEAX@1@@Z 0000000180095f84 f i DOMImplementationRegistryImpl.obj
 0001:00095118       ?_Buynode0@?$_Tree_buy@U?$pair@$$CBV?$shared_ptr@$$CBVIUTF8String_v1@AdobeXMPCommon@@@std@@V?$shared_ptr@$$CBVIDOMParser_v1@AdobeXMPCore@@@2@@std@@V?$TAllocator@V?$shared_ptr@$$CBVIUTF8String_v1@AdobeXMPCommon@@@std@@@AdobeXMPCore_Int@@@std@@QEAAPEAU?$_Tree_node@U?$pair@$$CBV?$shared_ptr@$$CBVIUTF8String_v1@AdobeXMPCommon@@@std@@V?$shared_ptr@$$CBVIDOMParser_v1@AdobeXMPCore@@@2@@std@@PEAX@2@XZ 0000000180096118 f i DOMImplementationRegistryImpl.obj
 0001:00095118       ?_Buynode0@?$_Tree_buy@U?$pair@$$CBV?$shared_ptr@$$CBVIUTF8String_v1@AdobeXMPCommon@@@std@@V?$shared_ptr@$$CBVIDOMSerializer_v1@AdobeXMPCore@@@2@@std@@V?$TAllocator@V?$shared_ptr@$$CBVIUTF8String_v1@AdobeXMPCommon@@@std@@@AdobeXMPCore_Int@@@std@@QEAAPEAU?$_Tree_node@U?$pair@$$CBV?$shared_ptr@$$CBVIUTF8String_v1@AdobeXMPCommon@@@std@@V?$shared_ptr@$$CBVIDOMSerializer_v1@AdobeXMPCore@@@2@@std@@PEAX@2@XZ 0000000180096118 f i DOMImplementationRegistryImpl.obj
 0001:00095118       ?_Buynode0@?$_Tree_buy@U?$pair@$$CBV?$shared_ptr@$$CBVIUTF8String_v1@AdobeXMPCommon@@@std@@V12@@std@@V?$TAllocator@V?$shared_ptr@$$CBVIUTF8String_v1@AdobeXMPCommon@@@std@@@AdobeXMPCore_Int@@@std@@QEAAPEAU?$_Tree_node@U?$pair@$$CBV?$shared_ptr@$$CBVIUTF8String_v1@AdobeXMPCommon@@@std@@V12@@std@@PEAX@2@XZ 0000000180096118 f i NameSpacePrefixMapImpl.obj
 0001:00095174       ??$_Insert_at@AEAU?$pair@$$CBV?$shared_ptr@$$CBVIUTF8String_v1@AdobeXMPCommon@@@std@@V?$shared_ptr@$$CBVIDOMSerializer_v1@AdobeXMPCore@@@2@@std@@PEAU?$_Tree_node@U?$pair@$$CBV?$shared_ptr@$$CBVIUTF8String_v1@AdobeXMPCommon@@@std@@V?$shared_ptr@$$CBVIDOMSerializer_v1@AdobeXMPCore@@@2@@std@@PEAX@2@@?$_Tree@V?$_Tmap_traits@V?$shared_ptr@$$CBVIUTF8String_v1@AdobeXMPCommon@@@std@@V?$shared_ptr@$$CBVIDOMSerializer_v1@AdobeXMPCore@@@2@UIUTF8StringComparator@AdobeXMPCore_Int@@V?$TAllocator@V?$shared_ptr@$$CBVIUTF8String_v1@AdobeXMPCommon@@@std@@@5@$0A@@std@@@std@@IEAA?AV?$_Tree_iterator@V?$_Tree_val@U?$_Tree_simple_types@U?$pair@$$CBV?$shared_ptr@$$CBVIUTF8String_v1@AdobeXMPCommon@@@std@@V?$shared_ptr@$$CBVIDOMSerializer_v1@AdobeXMPCore@@@2@@std@@@std@@@std@@@1@_NPEAU?$_Tree_node@U?$pair@$$CBV?$shared_ptr@$$CBVIUTF8String_v1@AdobeXMPCommon@@@std@@V?$shared_ptr@$$CBVIDOMSerializer_v1@AdobeXMPCore@@@2@@std@@PEAX@1@AEAU?$pair@$$CBV?$shared_ptr@$$CBVIUTF8String_v1@AdobeXMPCommon@@@std@@V?$shared_ptr@$$CBVIDOMSerializer_v1@AdobeXMPCore@@@2@@1@1@Z 0000000180096174 f i DOMImplementationRegistryImpl.obj
 0001:00095174       ??$_Insert_at@AEAU?$pair@$$CBV?$shared_ptr@$$CBVIUTF8String_v1@AdobeXMPCommon@@@std@@V?$shared_ptr@$$CBVIDOMParser_v1@AdobeXMPCore@@@2@@std@@PEAU?$_Tree_node@U?$pair@$$CBV?$shared_ptr@$$CBVIUTF8String_v1@AdobeXMPCommon@@@std@@V?$shared_ptr@$$CBVIDOMParser_v1@AdobeXMPCore@@@2@@std@@PEAX@2@@?$_Tree@V?$_Tmap_traits@V?$shared_ptr@$$CBVIUTF8String_v1@AdobeXMPCommon@@@std@@V?$shared_ptr@$$CBVIDOMParser_v1@AdobeXMPCore@@@2@UIUTF8StringComparator@AdobeXMPCore_Int@@V?$TAllocator@V?$shared_ptr@$$CBVIUTF8String_v1@AdobeXMPCommon@@@std@@@5@$0A@@std@@@std@@IEAA?AV?$_Tree_iterator@V?$_Tree_val@U?$_Tree_simple_types@U?$pair@$$CBV?$shared_ptr@$$CBVIUTF8String_v1@AdobeXMPCommon@@@std@@V?$shared_ptr@$$CBVIDOMParser_v1@AdobeXMPCore@@@2@@std@@@std@@@std@@@1@_NPEAU?$_Tree_node@U?$pair@$$CBV?$shared_ptr@$$CBVIUTF8String_v1@AdobeXMPCommon@@@std@@V?$shared_ptr@$$CBVIDOMParser_v1@AdobeXMPCore@@@2@@std@@PEAX@1@AEAU?$pair@$$CBV?$shared_ptr@$$CBVIUTF8String_v1@AdobeXMPCommon@@@std@@V?$shared_ptr@$$CBVIDOMParser_v1@AdobeXMPCore@@@2@@1@1@Z 0000000180096174 f i DOMImplementationRegistryImpl.obj
 0001:00095410       ??$_Resetp@VRDFDOMParserImpl@AdobeXMPCore_Int@@V?$_Mem_fn_wrap@XP8SharedObjectImpl@AdobeXMPCore_Int@@EBAXXZ$$CBV12@$$$V@std@@V?$TAllocator@VRDFDOMParserImpl@AdobeXMPCore_Int@@@2@@?$shared_ptr@VRDFDOMParserImpl@AdobeXMPCore_Int@@@std@@AEAAXPEAVRDFDOMParserImpl@AdobeXMPCore_Int@@V?$_Mem_fn_wrap@XP8SharedObjectImpl@AdobeXMPCore_Int@@EBAXXZ$$CBV12@$$$V@1@V?$TAllocator@VRDFDOMParserImpl@AdobeXMPCore_Int@@@3@@Z 0000000180096410 f i DOMImplementationRegistryImpl.obj
 0001:000954c0       ??$_Resetp@VRDFDOMSerializerImpl@AdobeXMPCore_Int@@V?$_Mem_fn_wrap@XP8SharedObjectImpl@AdobeXMPCore_Int@@EBAXXZ$$CBV12@$$$V@std@@V?$TAllocator@VRDFDOMSerializerImpl@AdobeXMPCore_Int@@@2@@?$shared_ptr@VRDFDOMSerializerImpl@AdobeXMPCore_Int@@@std@@AEAAXPEAVRDFDOMSerializerImpl@AdobeXMPCore_Int@@V?$_Mem_fn_wrap@XP8SharedObjectImpl@AdobeXMPCore_Int@@EBAXXZ$$CBV12@$$$V@1@V?$TAllocator@VRDFDOMSerializerImpl@AdobeXMPCore_Int@@@3@@Z 00000001800964c0 f i DOMImplementationRegistryImpl.obj
 0001:00095570       ??$_Resetp@VDOMImplementationRegistryImpl@AdobeXMPCore_Int@@V?$_Mem_fn_wrap@XP8SharedObjectImpl@AdobeXMPCore_Int@@EBAXXZ$$CBV12@$$$V@std@@V?$TAllocator@VDOMImplementationRegistryImpl@AdobeXMPCore_Int@@@2@@?$shared_ptr@VDOMImplementationRegistryImpl@AdobeXMPCore_Int@@@std@@AEAAXPEAVDOMImplementationRegistryImpl@AdobeXMPCore_Int@@V?$_Mem_fn_wrap@XP8SharedObjectImpl@AdobeXMPCore_Int@@EBAXXZ$$CBV12@$$$V@1@V?$TAllocator@VDOMImplementationRegistryImpl@AdobeXMPCore_Int@@@3@@Z 0000000180096570 f i DOMImplementationRegistryImpl.obj
 0001:00095620       ?_Destroy@?$_Ref_count_del_alloc@VRDFDOMParserImpl@AdobeXMPCore_Int@@V?$_Mem_fn_wrap@XP8SharedObjectImpl@AdobeXMPCore_Int@@EBAXXZ$$CBV12@$$$V@std@@V?$TAllocator@VRDFDOMParserImpl@AdobeXMPCore_Int@@@2@@std@@EEAAXXZ 0000000180096620 f i DOMImplementationRegistryImpl.obj
 0001:00095620       ?_Destroy@?$_Ref_count_del_alloc@VRDFDOMSerializerImpl@AdobeXMPCore_Int@@V?$_Mem_fn_wrap@XP8SharedObjectImpl@AdobeXMPCore_Int@@EBAXXZ$$CBV12@$$$V@std@@V?$TAllocator@VRDFDOMSerializerImpl@AdobeXMPCore_Int@@@2@@std@@EEAAXXZ 0000000180096620 f i DOMImplementationRegistryImpl.obj
 0001:00095620       ?_Destroy@?$_Ref_count_del_alloc@VClientDOMSerializerWrapperImpl@AdobeXMPCore_Int@@V?$_Mem_fn_wrap@XP8SharedObjectImpl@AdobeXMPCore_Int@@EBAXXZ$$CBV12@$$$V@std@@V?$TAllocator@VClientDOMSerializerWrapperImpl@AdobeXMPCore_Int@@@2@@std@@EEAAXXZ 0000000180096620 f i DOMSerializerImpl.obj
 0001:00095620       ?_Destroy@?$_Ref_count_del_alloc@VClientDOMParserWrapperImpl@AdobeXMPCore_Int@@V?$_Mem_fn_wrap@XP8SharedObjectImpl@AdobeXMPCore_Int@@EBAXXZ$$CBV12@$$$V@std@@V?$TAllocator@VClientDOMParserWrapperImpl@AdobeXMPCore_Int@@@2@@std@@EEAAXXZ 0000000180096620 f i DOMParserImpl.obj
 0001:00095684       ?Size@ConfigurableImpl@AdobeXMPCore_Int@@$R4BA@CA@PPPPPPPM@EA@EBA_KXZ 0000000180096684 f i DOMImplementationRegistryImpl.obj
 0001:000956a0       ?GetIDOMImplementationRegistry_I@IDOMImplementationRegistry_I@AdobeXMPCore_Int@@$R4FA@BE@PPPPPPPM@DI@EAAPEAV12@XZ 00000001800966a0 f i DOMImplementationRegistryImpl.obj
 0001:000956bc       ??_EIDOMImplementationRegistry_I@AdobeXMPCore_Int@@$2PPPPPPPM@BA@EAAPEAXI@Z 00000001800966bc f i DOMImplementationRegistryImpl.obj
 0001:000956cc       ?GetActualIDOMImplementationRegistry@IDOMImplementationRegistry_I@AdobeXMPCore_Int@@$R4FA@BE@PPPPPPPM@DI@EAAPEAVIDOMImplementationRegistry_v1@AdobeXMPCore@@XZ 00000001800966cc f i DOMImplementationRegistryImpl.obj
 0001:000956e8       ?Release@SharedObjectImpl@AdobeXMPCore_Int@@$R4DA@BI@PPPPPPPM@CA@EBAXXZ 00000001800966e8 f i DOMImplementationRegistryImpl.obj
 0001:00095704       ?getSerializer@IDOMImplementationRegistry_I@AdobeXMPCore_Int@@$2PPPPPPPM@A@EBAPEAVIDOMSerializer_v1@AdobeXMPCore@@PEBDAEAPEBVIError_v1@AdobeXMPCommon@@@Z 0000000180096704 f i DOMImplementationRegistryImpl.obj
 0001:00095710       ?GetInterfacePointer@IDOMSerializer_I@AdobeXMPCore_Int@@$R4DA@BM@PPPPPPPM@DI@EAAPEAX_KK@Z 0000000180096710 f i DOMImplementationRegistryImpl.obj
 0001:0009572c       ?registerSerializer@IDOMImplementationRegistry_I@AdobeXMPCore_Int@@$2PPPPPPPM@A@EAAKPEBDPEAVIClientDOMSerializer_v1@AdobeXMPCore@@AEAPEBVIError_v1@AdobeXMPCommon@@@Z 000000018009672c f i DOMImplementationRegistryImpl.obj
 0001:00095738       ?SerializeInternal@RDFDOMSerializerImpl@AdobeXMPCore_Int@@$4PPPPPPPM@A@EBA?AV?$shared_ptr@VIUTF8String_v1@AdobeXMPCommon@@@std@@AEBV?$shared_ptr@VINode_v1@AdobeXMPCore@@@4@K_KPEBD21AEBV?$shared_ptr@$$CBVINameSpacePrefixMap_v1@AdobeXMPCore@@@4@@Z 0000000180096738 f i DOMImplementationRegistryImpl.obj
 0001:00095744       ?getSerializer@IDOMImplementationRegistry_I@AdobeXMPCore_Int@@$R2FA@BE@PPPPPPPM@DI@EBAPEAVIDOMSerializer_v1@AdobeXMPCore@@PEBDAEAPEBVIError_v1@AdobeXMPCommon@@@Z 0000000180096744 f i DOMImplementationRegistryImpl.obj
 0001:00095760       ?getParser@IDOMImplementationRegistry_I@AdobeXMPCore_Int@@$2PPPPPPPM@A@EBAPEAVIDOMParser_v1@AdobeXMPCore@@PEBDAEAPEBVIError_v1@AdobeXMPCommon@@@Z 0000000180096760 f i DOMImplementationRegistryImpl.obj
 0001:0009576c       ?GetInterfacePointer@IDOMImplementationRegistry_I@AdobeXMPCore_Int@@$4PPPPPPPM@A@EAAPEAX_KK@Z 000000018009676c f i DOMImplementationRegistryImpl.obj
 0001:00095778       ?GetIDOMSerializer_I@IDOMSerializer_I@AdobeXMPCore_Int@@$R4EA@BM@PPPPPPPM@EI@EAAPEAV12@XZ 0000000180096778 f i DOMImplementationRegistryImpl.obj
 0001:00095794       ?TryLockShared@SharedMutexImpl@AdobeXMPCore_Int@@$4PPPPPPPM@A@EAA?AW4eMultiThreadingErrorCode@AdobeXMPCommon_Int@@XZ 0000000180096794 f i SharedMutexImpl.obj
 0001:00095794       ?ValidateValue@RDFDOMParserImpl@AdobeXMPCore_Int@@$4PPPPPPPM@A@EBA?AW4eConfigurableErrorCode@AdobeXMPCommon@@AEB_KW4eDataType@IConfigurable@4@AEBTCombinedDataValue@64@@Z 0000000180096794 f i DOMImplementationRegistryImpl.obj
 0001:00095794       ?GetParentNodeType@MetadataImpl@AdobeXMPCore_Int@@$2PPPPPPPM@A@EBA?AW4eNodeType@INode_v1@AdobeXMPCore@@XZ 0000000180096794 f i MetadataImpl.obj
 0001:00095794       ?LockShared@SharedMutexImpl@AdobeXMPCore_Int@@$4PPPPPPPM@A@EAA?AW4eMultiThreadingErrorCode@AdobeXMPCommon_Int@@XZ 0000000180096794 f i SharedMutexImpl.obj
 0001:00095794       ?TryLock@SharedMutexImpl@AdobeXMPCore_Int@@$4PPPPPPPM@A@EAA?AW4eMultiThreadingErrorCode@AdobeXMPCommon_Int@@XZ 0000000180096794 f i SharedMutexImpl.obj
 0001:00095794       ?Lock@SharedMutexImpl@AdobeXMPCore_Int@@$4PPPPPPPM@A@EAA?AW4eMultiThreadingErrorCode@AdobeXMPCommon_Int@@XZ 0000000180096794 f i SharedMutexImpl.obj
 0001:00095794       ?UnlockShared@SharedMutexImpl@AdobeXMPCore_Int@@$4PPPPPPPM@A@EAA?AW4eMultiThreadingErrorCode@AdobeXMPCommon_Int@@XZ 0000000180096794 f i SharedMutexImpl.obj
 0001:00095794       ?Unlock@SharedMutexImpl@AdobeXMPCore_Int@@$4PPPPPPPM@A@EAA?AW4eMultiThreadingErrorCode@AdobeXMPCommon_Int@@XZ 0000000180096794 f i SharedMutexImpl.obj
 0001:000957a0       ??_ERDFDOMParserImpl@AdobeXMPCore_Int@@$2PPPPPPPM@A@EAAPEAXI@Z 00000001800967a0 f i DOMImplementationRegistryImpl.obj
 0001:000957ac       ?RegisterParser@DOMImplementationRegistryImpl@AdobeXMPCore_Int@@$4PPPPPPPM@A@EAA_NPEBDAEBV?$shared_ptr@$$CBVIDOMParser_v1@AdobeXMPCore@@@std@@@Z 00000001800967ac f i DOMImplementationRegistryImpl.obj
 0001:000957b8       ?GetActualIDOMSerializer@IDOMSerializer_I@AdobeXMPCore_Int@@$R4EA@BM@PPPPPPPM@EI@EAAPEAVIDOMSerializer_v1@AdobeXMPCore@@XZ 00000001800967b8 f i DOMImplementationRegistryImpl.obj
 0001:000957d4       ?RemoveParameter@ConfigurableImpl@AdobeXMPCore_Int@@$R4BA@CA@PPPPPPPM@EA@EAA_NAEB_K@Z 00000001800967d4 f i DOMImplementationRegistryImpl.obj
 0001:000957f0       ?clone@RDFDOMParserImpl@AdobeXMPCore_Int@@$2PPPPPPPM@A@EBAPEAVDOMParserImpl@2@XZ 00000001800967f0 f i DOMImplementationRegistryImpl.obj
 0001:000957fc       ??_ERDFDOMParserImpl@AdobeXMPCore_Int@@$2PPPPPPPM@CA@EAAPEAXI@Z 00000001800967fc f i DOMImplementationRegistryImpl.obj
 0001:0009580c       ?AcquireInternal@SharedObjectImpl@AdobeXMPCore_Int@@$R4GI@BI@PPPPPPPM@DA@EBAXXZ 000000018009680c f i DOMImplementationRegistryImpl.obj
 0001:00095828       ?registerSerializer@IDOMImplementationRegistry_I@AdobeXMPCore_Int@@$R2FA@BE@PPPPPPPM@DI@EAAKPEBDPEAVIClientDOMSerializer_v1@AdobeXMPCore@@AEAPEBVIError_v1@AdobeXMPCommon@@@Z 0000000180096828 f i DOMImplementationRegistryImpl.obj
 0001:00095844       ?GetInterfacePointer@IDOMImplementationRegistry_I@AdobeXMPCore_Int@@$R4EA@BE@PPPPPPPM@CI@EAAPEAX_KK@Z 0000000180096844 f i DOMImplementationRegistryImpl.obj
 0001:00095860       ?GetParameter@ConfigurableImpl@AdobeXMPCore_Int@@$R4FI@CA@PPPPPPPM@FA@EBA_NAEB_KW4eDataType@IConfigurable@AdobeXMPCommon@@AEATCombinedDataValue@45@@Z 0000000180096860 f i DOMImplementationRegistryImpl.obj
 0001:0009587c       ?getParser@IDOMImplementationRegistry_I@AdobeXMPCore_Int@@$R2FA@BE@PPPPPPPM@DI@EBAPEAVIDOMParser_v1@AdobeXMPCore@@PEBDAEAPEBVIError_v1@AdobeXMPCommon@@@Z 000000018009687c f i DOMImplementationRegistryImpl.obj
 0001:00095898       ??_EDOMImplementationRegistryImpl@AdobeXMPCore_Int@@$2PPPPPPPM@A@EAAPEAXI@Z 0000000180096898 f i DOMImplementationRegistryImpl.obj
 0001:000958a4       ?SetParameter@ConfigurableImpl@AdobeXMPCore_Int@@$R4FI@CA@PPPPPPPM@FA@EAAXAEB_KW4eDataType@IConfigurable@AdobeXMPCommon@@AEBTCombinedDataValue@45@@Z 00000001800968a4 f i DOMImplementationRegistryImpl.obj
 0001:000958c0       ?ValidateValue@RDFDOMSerializerImpl@AdobeXMPCore_Int@@$4PPPPPPPM@A@EBA?AW4eConfigurableErrorCode@AdobeXMPCommon@@AEB_KW4eDataType@IConfigurable@4@AEBTCombinedDataValue@64@@Z 00000001800968c0 f i DOMImplementationRegistryImpl.obj
 0001:000958cc       ??_ERDFDOMSerializerImpl@AdobeXMPCore_Int@@$2PPPPPPPM@A@EAAPEAXI@Z 00000001800968cc f i DOMImplementationRegistryImpl.obj
 0001:000958d8       ?clone@RDFDOMSerializerImpl@AdobeXMPCore_Int@@$2PPPPPPPM@A@EBAPEAVDOMSerializerImpl@2@XZ 00000001800968d8 f i DOMImplementationRegistryImpl.obj
 0001:000958e4       ?getInterfacePointer@IDOMSerializer_I@AdobeXMPCore_Int@@$R2DA@BM@PPPPPPPM@DI@EAAPEAX_KKAEAPEBVIError_v1@AdobeXMPCommon@@@Z 00000001800968e4 f i DOMImplementationRegistryImpl.obj
 0001:00095900       ??_ERDFDOMSerializerImpl@AdobeXMPCore_Int@@$2PPPPPPPM@CA@EAAPEAXI@Z 0000000180096900 f i DOMImplementationRegistryImpl.obj
 0001:00095910       ?GetAllParameters@ConfigurableImpl@AdobeXMPCore_Int@@$R4BA@CA@PPPPPPPM@EA@EBA?AV?$vector@_KV?$allocator@_K@std@@@std@@XZ 0000000180096910 f i DOMImplementationRegistryImpl.obj
 0001:0009592c       ?GetParser@DOMImplementationRegistryImpl@AdobeXMPCore_Int@@$4PPPPPPPM@A@EBA?AV?$shared_ptr@VIDOMParser_v1@AdobeXMPCore@@@std@@PEBD@Z 000000018009692c f i DOMImplementationRegistryImpl.obj
 0001:00095938       ?RegisterSerializer@DOMImplementationRegistryImpl@AdobeXMPCore_Int@@$4PPPPPPPM@A@EAA_NPEBDAEBV?$shared_ptr@$$CBVIDOMSerializer_v1@AdobeXMPCore@@@std@@@Z 0000000180096938 f i DOMImplementationRegistryImpl.obj
 0001:00095944       ?RegisterParser@IDOMImplementationRegistry_I@AdobeXMPCore_Int@@$4PPPPPPPM@A@EAA_NPEBDPEAVIClientDOMParser_v1@AdobeXMPCore@@@Z 0000000180096944 f i DOMImplementationRegistryImpl.obj
 0001:00095944       ?RegisterSerializer@IDOMImplementationRegistry_I@AdobeXMPCore_Int@@$4PPPPPPPM@A@EAA_NPEBDPEAVIClientDOMSerializer_v1@AdobeXMPCore@@@Z 0000000180096944 f i DOMImplementationRegistryImpl.obj
 0001:00095950       ?getInterfacePointer@IDOMImplementationRegistry_I@AdobeXMPCore_Int@@$2PPPPPPPM@A@EAAPEAX_KKAEAPEBVIError_v1@AdobeXMPCommon@@@Z 0000000180096950 f i DOMImplementationRegistryImpl.obj
 0001:0009595c       ?Acquire@SharedObjectImpl@AdobeXMPCore_Int@@$R4CA@CE@PPPPPPPM@CA@EBAXXZ 000000018009695c f i DOMImplementationRegistryImpl.obj
 0001:00095974       ?getInterfacePointer@IDOMImplementationRegistry_I@AdobeXMPCore_Int@@$R2EA@BE@PPPPPPPM@CI@EAAPEAX_KKAEAPEBVIError_v1@AdobeXMPCommon@@@Z 0000000180096974 f i DOMImplementationRegistryImpl.obj
 0001:00095990       ?RegisterParser@IDOMImplementationRegistry_I@AdobeXMPCore_Int@@$R4FA@BE@PPPPPPPM@DI@EAA_NPEBDPEAVIClientDOMParser_v1@AdobeXMPCore@@@Z 0000000180096990 f i DOMImplementationRegistryImpl.obj
 0001:00095990       ?RegisterSerializer@IDOMImplementationRegistry_I@AdobeXMPCore_Int@@$R4FA@BE@PPPPPPPM@DI@EAA_NPEBDPEAVIClientDOMSerializer_v1@AdobeXMPCore@@@Z 0000000180096990 f i DOMImplementationRegistryImpl.obj
 0001:000959ac       ??_EIDOMImplementationRegistry_I@AdobeXMPCore_Int@@$2PPPPPPPM@A@EAAPEAXI@Z 00000001800969ac f i DOMImplementationRegistryImpl.obj
 0001:000959b8       ?TreatKeyAsCaseInsensitive@ConfigurableImpl@AdobeXMPCore_Int@@$R4FI@CA@PPPPPPPM@FA@EAAX_N@Z 00000001800969b8 f i DOMImplementationRegistryImpl.obj
 0001:000959d4       ?clone@IDOMSerializer_I@AdobeXMPCore_Int@@$R2EA@BM@PPPPPPPM@EI@EBAPEAVIDOMSerializer_v1@AdobeXMPCore@@AEAPEBVIError_v1@AdobeXMPCommon@@@Z 00000001800969d4 f i DOMImplementationRegistryImpl.obj
 0001:000959f0       ?GetSerializer@DOMImplementationRegistryImpl@AdobeXMPCore_Int@@$4PPPPPPPM@A@EBA?AV?$shared_ptr@VIDOMSerializer_v1@AdobeXMPCore@@@std@@PEBD@Z 00000001800969f0 f i DOMImplementationRegistryImpl.obj
 0001:000959fc       ?SetAllowedKeys@ConfigurableImpl@AdobeXMPCore_Int@@$R4FI@CA@PPPPPPPM@FA@EAAXPEA_K_K@Z 00000001800969fc f i DOMImplementationRegistryImpl.obj
 0001:00095a18       ?serialize@IDOMSerializer_I@AdobeXMPCore_Int@@$R2EA@BM@PPPPPPPM@EI@EAAPEAVIUTF8String_v1@AdobeXMPCommon@@PEAVINode_v1@AdobeXMPCore@@PEBVINameSpacePrefixMap_v1@6@AEAPEBVIError_v1@4@@Z 0000000180096a18 f i DOMImplementationRegistryImpl.obj
 0001:00095a34       ?Acquire@SharedObjectImpl@AdobeXMPCore_Int@@$R4DA@BI@PPPPPPPM@CA@EBAXXZ 0000000180096a34 f i DOMImplementationRegistryImpl.obj
 0001:00095a50       ?Clone@DOMSerializerImpl@AdobeXMPCore_Int@@$R4EA@CM@PPPPPPPM@FI@EBA?AV?$shared_ptr@VIDOMSerializer_v1@AdobeXMPCore@@@std@@XZ 0000000180096a50 f i DOMImplementationRegistryImpl.obj
 0001:00095a6c       ?registerParser@IDOMImplementationRegistry_I@AdobeXMPCore_Int@@$2PPPPPPPM@A@EAAKPEBDPEAVIClientDOMParser_v1@AdobeXMPCore@@AEAPEBVIError_v1@AdobeXMPCommon@@@Z 0000000180096a6c f i DOMImplementationRegistryImpl.obj
 0001:00095a78       ?GetDataType@ConfigurableImpl@AdobeXMPCore_Int@@$R4BA@CA@PPPPPPPM@EA@EBA?AW4eDataType@IConfigurable@AdobeXMPCommon@@AEB_K@Z 0000000180096a78 f i DOMImplementationRegistryImpl.obj
 0001:00095a94       ??_ERDFDOMParserImpl@AdobeXMPCore_Int@@$2PPPPPPPM@BA@EAAPEAXI@Z 0000000180096a94 f i DOMImplementationRegistryImpl.obj
 0001:00095aa4       ?registerParser@IDOMImplementationRegistry_I@AdobeXMPCore_Int@@$R2FA@BE@PPPPPPPM@DI@EAAKPEBDPEAVIClientDOMParser_v1@AdobeXMPCore@@AEAPEBVIError_v1@AdobeXMPCommon@@@Z 0000000180096aa4 f i DOMImplementationRegistryImpl.obj
 0001:00095ac0       ??_EDOMImplementationRegistryImpl@AdobeXMPCore_Int@@$2PPPPPPPM@BA@EAAPEAXI@Z 0000000180096ac0 f i DOMImplementationRegistryImpl.obj
 0001:00095ad0       ?SetAllowedValueTypesForKeys@ConfigurableImpl@AdobeXMPCore_Int@@$R4FI@CA@PPPPPPPM@FA@EAAXPEAU?$pair@_KW4eDataType@IConfigurable@AdobeXMPCommon@@@std@@_K@Z 0000000180096ad0 f i DOMImplementationRegistryImpl.obj
 0001:00095aec       ?ParseAsNode@RDFDOMParserImpl@AdobeXMPCore_Int@@$4PPPPPPPM@A@EAA?AV?$shared_ptr@VINode_v1@AdobeXMPCore@@@std@@PEBD_K@Z 0000000180096aec f i DOMImplementationRegistryImpl.obj
 0001:00095af8       ?AcquireInternal@SharedObjectImpl@AdobeXMPCore_Int@@$R4HA@CE@PPPPPPPM@DA@EBAXXZ 0000000180096af8 f i DOMImplementationRegistryImpl.obj
 0001:00095b14       ??_ERDFDOMSerializerImpl@AdobeXMPCore_Int@@$2PPPPPPPM@BA@EAAPEAXI@Z 0000000180096b14 f i DOMImplementationRegistryImpl.obj
 0001:00095b24       ?Serialize@RDFDOMSerializerImpl@AdobeXMPCore_Int@@$4PPPPPPPM@A@EAA?AV?$shared_ptr@VIUTF8String_v1@AdobeXMPCommon@@@std@@AEBV?$shared_ptr@VINode_v1@AdobeXMPCore@@@4@AEBV?$shared_ptr@$$CBVINameSpacePrefixMap_v1@AdobeXMPCore@@@4@@Z 0000000180096b24 f i DOMImplementationRegistryImpl.obj
 0001:00095b30       ?GetISharedObject_I@IDOMSerializer_I@AdobeXMPCore_Int@@$R4CA@BM@PPPPPPPM@CI@EAAPEAVISharedObject_I@AdobeXMPCommon_Int@@XZ 0000000180096b30 f i DOMImplementationRegistryImpl.obj
 0001:00095b4c       ?Release@SharedObjectImpl@AdobeXMPCore_Int@@$R4CA@CE@PPPPPPPM@CA@EBAXXZ 0000000180096b4c f i DOMImplementationRegistryImpl.obj
 0001:00095b64       ?GetMutex@DOMSerializerImpl@AdobeXMPCore_Int@@$R4FI@CM@PPPPPPPM@HA@EBA?AV?$shared_ptr@VISharedMutex@AdobeXMPCore_Int@@@std@@XZ 0000000180096b64 f i DOMImplementationRegistryImpl.obj
 0001:00095b80       ?GetActualIDOMImplementationRegistry@IDOMImplementationRegistry_I@AdobeXMPCore_Int@@$4PPPPPPPM@A@EAAPEAVIDOMImplementationRegistry_v1@AdobeXMPCore@@XZ 0000000180096b80 f i DOMImplementationRegistryImpl.obj
 0001:00095b8c       ?GetISharedObject_I@IDOMImplementationRegistry_I@AdobeXMPCore_Int@@$4PPPPPPPM@A@EAAPEAVISharedObject_I@AdobeXMPCommon_Int@@XZ 0000000180096b8c f i DOMImplementationRegistryImpl.obj
 0001:00095b98       ?AllowDifferentValueTypesForExistingEntries@ConfigurableImpl@AdobeXMPCore_Int@@$R4FI@CA@PPPPPPPM@FA@EAAX_N@Z 0000000180096b98 f i DOMImplementationRegistryImpl.obj
 0001:00095bb4       ?GetISharedObject_I@IDOMImplementationRegistry_I@AdobeXMPCore_Int@@$R4DA@BE@PPPPPPPM@BI@EAAPEAVISharedObject_I@AdobeXMPCommon_Int@@XZ 0000000180096bb4 f i DOMImplementationRegistryImpl.obj
 0001:00095bd0       ??_EIDOMImplementationRegistry_v1@AdobeXMPCore@@O7EAAPEAXI@Z 0000000180096bd0 f i DOMImplementationRegistryImpl.obj
 0001:00095bdc       ??0DOMParserImpl@AdobeXMPCore_Int@@QEAA@XZ 0000000180096bdc f   DOMParserImpl.obj
 0001:00095d24       ?Clone@DOMParserImpl@AdobeXMPCore_Int@@UEBA?AV?$shared_ptr@VIDOMParser_v1@AdobeXMPCore@@@std@@XZ 0000000180096d24 f   DOMParserImpl.obj
 0001:00095f64       ?Parse@DOMParserImpl@AdobeXMPCore_Int@@UEAA?AV?$shared_ptr@VIMetadata_v1@AdobeXMPCore@@@std@@PEBD_K@Z 0000000180096f64 f   DOMParserImpl.obj
 0001:00097284       ?ParseWithSpecificAction@DOMParserImpl@AdobeXMPCore_Int@@UEAAXPEBD_KW4eActionType@IDOMParser_v1@AdobeXMPCore@@AEAV?$shared_ptr@VINode_v1@AdobeXMPCore@@@std@@@Z 0000000180098284 f   DOMParserImpl.obj
 0001:00097460       ?GetMutex@DOMParserImpl@AdobeXMPCore_Int@@UEBA?AV?$shared_ptr@VISharedMutex@AdobeXMPCore_Int@@@std@@XZ 0000000180098460 f   DOMParserImpl.obj
 0001:00097460       ?GetLocation@ErrorImpl@AdobeXMPCore_Int@@UEBA?AV?$shared_ptr@$$CBVIUTF8String_v1@AdobeXMPCommon@@@std@@XZ 0000000180098460 f   ErrorImpl.obj
 0001:00097460       ?GetNameSpace@PathSegmentImpl@AdobeXMPCore_Int@@UEBA?AV?$shared_ptr@$$CBVIUTF8String_v1@AdobeXMPCommon@@@std@@XZ 0000000180098460 f   PathSegmentImpl.obj
 0001:00097480       ?CreateDOMParser@IDOMParser_I@AdobeXMPCore_Int@@SA?AV?$shared_ptr@VIDOMParser_v1@AdobeXMPCore@@@std@@PEAVIClientDOMParser_v1@AdobeXMPCore@@@Z 0000000180098480 f   DOMParserImpl.obj
 0001:00097530       ?SetErrorCallback@DOMParserImpl@AdobeXMPCore_Int@@UEAAXPEAVErrorCallbackInfo@XMPMeta@@@Z 0000000180098530 f   DOMParserImpl.obj
 0001:00097530       ?SetErrorCallback@RDFDOMParserImpl@AdobeXMPCore_Int@@UEAAXPEAVErrorCallbackInfo@XMPMeta@@@Z 0000000180098530 f   RDFDOMParserImpl.obj
 0001:00097538       ??A?$map@_KU?$pair@W4eDataType@IConfigurable@AdobeXMPCommon@@TCombinedDataValue@23@@std@@U?$less@_K@2@V?$TAllocator@U?$pair@_KU?$pair@W4eDataType@IConfigurable@AdobeXMPCommon@@TCombinedDataValue@23@@std@@@std@@@AdobeXMPCore_Int@@@std@@QEAAAEAU?$pair@W4eDataType@IConfigurable@AdobeXMPCommon@@TCombinedDataValue@23@@1@AEB_K@Z 0000000180098538 f i DOMParserImpl.obj
 0001:000975c0       ??$?0V?$_Tree_const_iterator@V?$_Tree_val@U?$_Tree_simple_types@_K@std@@@std@@@std@@@?$set@_KU?$less@_K@std@@V?$TAllocator@_K@AdobeXMPCore_Int@@@std@@QEAA@V?$_Tree_const_iterator@V?$_Tree_val@U?$_Tree_simple_types@_K@std@@@std@@@1@0@Z 00000001800985c0 f i DOMParserImpl.obj
 0001:00097670       ??$?0V?$_Tree_iterator@V?$_Tree_val@U?$_Tree_simple_types@U?$pair@$$CB_KW4eDataType@IConfigurable@AdobeXMPCommon@@@std@@@std@@@std@@@std@@@?$map@_KW4eDataType@IConfigurable@AdobeXMPCommon@@U?$less@_K@std@@V?$TAllocator@U?$pair@_KW4eDataType@IConfigurable@AdobeXMPCommon@@@std@@@AdobeXMPCore_Int@@@std@@QEAA@V?$_Tree_iterator@V?$_Tree_val@U?$_Tree_simple_types@U?$pair@$$CB_KW4eDataType@IConfigurable@AdobeXMPCommon@@@std@@@std@@@std@@@1@0@Z 0000000180098670 f i DOMParserImpl.obj
 0001:0009772c       ??$MakeUncheckedSharedPointer@VDOMParserImpl@AdobeXMPCore_Int@@@AdobeXMPCore_Int@@YA?AV?$shared_ptr@VDOMParserImpl@AdobeXMPCore_Int@@@std@@PEAVDOMParserImpl@0@PEBD_K_N@Z 000000018009872c f i DOMParserImpl.obj
 0001:00097830       ??$MakeUncheckedSharedPointer@VIMetadata_v1@AdobeXMPCore@@@AdobeXMPCore_Int@@YA?AV?$shared_ptr@VIMetadata_v1@AdobeXMPCore@@@std@@PEAVIMetadata_v1@AdobeXMPCore@@PEBD_K_N@Z 0000000180098830 f i DOMParserImpl.obj
 0001:00097894       ??$MakeUncheckedSharedPointer@VClientDOMParserWrapperImpl@AdobeXMPCore_Int@@@AdobeXMPCore_Int@@YA?AV?$shared_ptr@VClientDOMParserWrapperImpl@AdobeXMPCore_Int@@@std@@PEAVClientDOMParserWrapperImpl@0@PEBD_K_N@Z 0000000180098894 f i DOMParserImpl.obj
 0001:00097990       ??1?$_Tree@V?$_Tset_traits@_KU?$less@_K@std@@V?$TAllocator@_K@AdobeXMPCore_Int@@$0A@@std@@@std@@QEAA@XZ 0000000180098990 f i DOMParserImpl.obj
 0001:00097990       ??1?$_Tree@V?$_Tmap_traits@_KW4eDataType@IConfigurable@AdobeXMPCommon@@U?$less@_K@std@@V?$TAllocator@U?$pair@_KW4eDataType@IConfigurable@AdobeXMPCommon@@@std@@@AdobeXMPCore_Int@@$0A@@std@@@std@@QEAA@XZ 0000000180098990 f i DOMParserImpl.obj
 0001:00097a34       ?_Buyheadnode@?$_Tree_alloc@$0A@U?$_Tree_base_types@_KV?$TAllocator@_K@AdobeXMPCore_Int@@@std@@@std@@QEAAPEAU?$_Tree_node@_KPEAX@2@XZ 0000000180098a34 f i DOMParserImpl.obj
 0001:00097a84       ?_Buyheadnode@?$_Tree_alloc@$0A@U?$_Tree_base_types@U?$pair@$$CB_KW4eDataType@IConfigurable@AdobeXMPCommon@@@std@@V?$TAllocator@U?$pair@_KW4eDataType@IConfigurable@AdobeXMPCommon@@@std@@@AdobeXMPCore_Int@@@std@@@std@@QEAAPEAU?$_Tree_node@U?$pair@$$CB_KW4eDataType@IConfigurable@AdobeXMPCommon@@@std@@PEAX@2@XZ 0000000180098a84 f i DOMParserImpl.obj
 0001:00097ad4       ??$_Buynode@AEBUpiecewise_construct_t@std@@V?$tuple@AEB_K@2@V?$tuple@$$$V@2@@?$_Tree_buy@U?$pair@$$CB_KU?$pair@W4eDataType@IConfigurable@AdobeXMPCommon@@TCombinedDataValue@23@@std@@@std@@V?$TAllocator@U?$pair@_KU?$pair@W4eDataType@IConfigurable@AdobeXMPCommon@@TCombinedDataValue@23@@std@@@std@@@AdobeXMPCore_Int@@@std@@QEAAPEAU?$_Tree_node@U?$pair@$$CB_KU?$pair@W4eDataType@IConfigurable@AdobeXMPCommon@@TCombinedDataValue@23@@std@@@std@@PEAX@1@AEBUpiecewise_construct_t@1@$$QEAV?$tuple@AEB_K@1@$$QEAV?$tuple@$$$V@1@@Z 0000000180098ad4 f i DOMParserImpl.obj
 0001:00097b0c       ??$_Insert_hint@AEAU?$pair@$$CB_KU?$pair@W4eDataType@IConfigurable@AdobeXMPCommon@@TCombinedDataValue@23@@std@@@std@@PEAU?$_Tree_node@U?$pair@$$CB_KU?$pair@W4eDataType@IConfigurable@AdobeXMPCommon@@TCombinedDataValue@23@@std@@@std@@PEAX@2@@?$_Tree@V?$_Tmap_traits@_KU?$pair@W4eDataType@IConfigurable@AdobeXMPCommon@@TCombinedDataValue@23@@std@@U?$less@_K@2@V?$TAllocator@U?$pair@_KU?$pair@W4eDataType@IConfigurable@AdobeXMPCommon@@TCombinedDataValue@23@@std@@@std@@@AdobeXMPCore_Int@@$0A@@std@@@std@@IEAA?AV?$_Tree_iterator@V?$_Tree_val@U?$_Tree_simple_types@U?$pair@$$CB_KU?$pair@W4eDataType@IConfigurable@AdobeXMPCommon@@TCombinedDataValue@23@@std@@@std@@@std@@@std@@@1@V?$_Tree_const_iterator@V?$_Tree_val@U?$_Tree_simple_types@U?$pair@$$CB_KU?$pair@W4eDataType@IConfigurable@AdobeXMPCommon@@TCombinedDataValue@23@@std@@@std@@@std@@@std@@@1@AEAU?$pair@$$CB_KU?$pair@W4eDataType@IConfigurable@AdobeXMPCommon@@TCombinedDataValue@23@@std@@@1@PEAU?$_Tree_node@U?$pair@$$CB_KU?$pair@W4eDataType@IConfigurable@AdobeXMPCommon@@TCombinedDataValue@23@@std@@@std@@PEAX@1@@Z 0000000180098b0c f i DOMParserImpl.obj
 0001:00097d28       ?_Buynode0@?$_Tree_buy@U?$pair@$$CB_KU?$pair@W4eDataType@IConfigurable@AdobeXMPCommon@@TCombinedDataValue@23@@std@@@std@@V?$TAllocator@U?$pair@_KU?$pair@W4eDataType@IConfigurable@AdobeXMPCommon@@TCombinedDataValue@23@@std@@@std@@@AdobeXMPCore_Int@@@std@@QEAAPEAU?$_Tree_node@U?$pair@$$CB_KU?$pair@W4eDataType@IConfigurable@AdobeXMPCommon@@TCombinedDataValue@23@@std@@@std@@PEAX@2@XZ 0000000180098d28 f i DOMParserImpl.obj
 0001:00097d84       ??$_Resetp@VDOMParserImpl@AdobeXMPCore_Int@@V?$_Mem_fn_wrap@XP8SharedObjectImpl@AdobeXMPCore_Int@@EBAXXZ$$CBV12@$$$V@std@@V?$TAllocator@VDOMParserImpl@AdobeXMPCore_Int@@@2@@?$shared_ptr@VDOMParserImpl@AdobeXMPCore_Int@@@std@@AEAAXPEAVDOMParserImpl@AdobeXMPCore_Int@@V?$_Mem_fn_wrap@XP8SharedObjectImpl@AdobeXMPCore_Int@@EBAXXZ$$CBV12@$$$V@1@V?$TAllocator@VDOMParserImpl@AdobeXMPCore_Int@@@3@@Z 0000000180098d84 f i DOMParserImpl.obj
 0001:00097e34       ??$_Resetp@VIMetadata_v1@AdobeXMPCore@@V?$_Mem_fn_wrap@XP8ISharedObject@AdobeXMPCommon@@EBAXXZ$$CBV12@$$$V@std@@V?$TAllocator@VIMetadata_v1@AdobeXMPCore@@@AdobeXMPCore_Int@@@?$shared_ptr@VIMetadata_v1@AdobeXMPCore@@@std@@AEAAXPEAVIMetadata_v1@AdobeXMPCore@@V?$_Mem_fn_wrap@XP8ISharedObject@AdobeXMPCommon@@EBAXXZ$$CBV12@$$$V@1@V?$TAllocator@VIMetadata_v1@AdobeXMPCore@@@AdobeXMPCore_Int@@@Z 0000000180098e34 f i DOMParserImpl.obj
 0001:00097ee8       ??$_Resetp@VClientDOMParserWrapperImpl@AdobeXMPCore_Int@@V?$_Mem_fn_wrap@XP8SharedObjectImpl@AdobeXMPCore_Int@@EBAXXZ$$CBV12@$$$V@std@@V?$TAllocator@VClientDOMParserWrapperImpl@AdobeXMPCore_Int@@@2@@?$shared_ptr@VClientDOMParserWrapperImpl@AdobeXMPCore_Int@@@std@@AEAAXPEAVClientDOMParserWrapperImpl@AdobeXMPCore_Int@@V?$_Mem_fn_wrap@XP8SharedObjectImpl@AdobeXMPCore_Int@@EBAXXZ$$CBV12@$$$V@1@V?$TAllocator@VClientDOMParserWrapperImpl@AdobeXMPCore_Int@@@3@@Z 0000000180098ee8 f i DOMParserImpl.obj
 0001:00097f98       ??$_Insert_at@AEAU?$pair@$$CB_KU?$pair@W4eDataType@IConfigurable@AdobeXMPCommon@@TCombinedDataValue@23@@std@@@std@@PEAU?$_Tree_node@U?$pair@$$CB_KU?$pair@W4eDataType@IConfigurable@AdobeXMPCommon@@TCombinedDataValue@23@@std@@@std@@PEAX@2@@?$_Tree@V?$_Tmap_traits@_KU?$pair@W4eDataType@IConfigurable@AdobeXMPCommon@@TCombinedDataValue@23@@std@@U?$less@_K@2@V?$TAllocator@U?$pair@_KU?$pair@W4eDataType@IConfigurable@AdobeXMPCommon@@TCombinedDataValue@23@@std@@@std@@@AdobeXMPCore_Int@@$0A@@std@@@std@@IEAA?AV?$_Tree_iterator@V?$_Tree_val@U?$_Tree_simple_types@U?$pair@$$CB_KU?$pair@W4eDataType@IConfigurable@AdobeXMPCommon@@TCombinedDataValue@23@@std@@@std@@@std@@@std@@@1@_NPEAU?$_Tree_node@U?$pair@$$CB_KU?$pair@W4eDataType@IConfigurable@AdobeXMPCommon@@TCombinedDataValue@23@@std@@@std@@PEAX@1@AEAU?$pair@$$CB_KU?$pair@W4eDataType@IConfigurable@AdobeXMPCommon@@TCombinedDataValue@23@@std@@@1@1@Z 0000000180098f98 f i DOMParserImpl.obj
 0001:00098228       ??$_Insert_nohint@AEAU?$pair@$$CB_KU?$pair@W4eDataType@IConfigurable@AdobeXMPCommon@@TCombinedDataValue@23@@std@@@std@@PEAU?$_Tree_node@U?$pair@$$CB_KU?$pair@W4eDataType@IConfigurable@AdobeXMPCommon@@TCombinedDataValue@23@@std@@@std@@PEAX@2@@?$_Tree@V?$_Tmap_traits@_KU?$pair@W4eDataType@IConfigurable@AdobeXMPCommon@@TCombinedDataValue@23@@std@@U?$less@_K@2@V?$TAllocator@U?$pair@_KU?$pair@W4eDataType@IConfigurable@AdobeXMPCommon@@TCombinedDataValue@23@@std@@@std@@@AdobeXMPCore_Int@@$0A@@std@@@std@@IEAA?AU?$pair@V?$_Tree_iterator@V?$_Tree_val@U?$_Tree_simple_types@U?$pair@$$CB_KU?$pair@W4eDataType@IConfigurable@AdobeXMPCommon@@TCombinedDataValue@23@@std@@@std@@@std@@@std@@@std@@_N@1@_NAEAU?$pair@$$CB_KU?$pair@W4eDataType@IConfigurable@AdobeXMPCommon@@TCombinedDataValue@23@@std@@@1@PEAU?$_Tree_node@U?$pair@$$CB_KU?$pair@W4eDataType@IConfigurable@AdobeXMPCommon@@TCombinedDataValue@23@@std@@@std@@PEAX@1@@Z 0000000180099228 f i DOMParserImpl.obj
 0001:00098358       ?_Destroy@?$_Ref_count_del_alloc@VDOMSerializerImpl@AdobeXMPCore_Int@@V?$_Mem_fn_wrap@XP8SharedObjectImpl@AdobeXMPCore_Int@@EBAXXZ$$CBV12@$$$V@std@@V?$TAllocator@VDOMSerializerImpl@AdobeXMPCore_Int@@@2@@std@@EEAAXXZ 0000000180099358 f i DOMSerializerImpl.obj
 0001:00098358       ?_Destroy@?$_Ref_count_del_alloc@VDOMParserImpl@AdobeXMPCore_Int@@V?$_Mem_fn_wrap@XP8SharedObjectImpl@AdobeXMPCore_Int@@EBAXXZ$$CBV12@$$$V@std@@V?$TAllocator@VDOMParserImpl@AdobeXMPCore_Int@@@2@@std@@EEAAXXZ 0000000180099358 f i DOMParserImpl.obj
 0001:000983c4       ??$_Buynode@AEB_K@?$_Tree_buy@_KV?$TAllocator@_K@AdobeXMPCore_Int@@@std@@QEAAPEAU?$_Tree_node@_KPEAX@1@AEB_K@Z 00000001800993c4 f i DOMParserImpl.obj
 0001:000983f0       ??$_Insert_nohint@AEA_KPEAU?$_Tree_node@_KPEAX@std@@@?$_Tree@V?$_Tset_traits@_KU?$less@_K@std@@V?$TAllocator@_K@AdobeXMPCore_Int@@$0A@@std@@@std@@IEAA?AU?$pair@V?$_Tree_const_iterator@V?$_Tree_val@U?$_Tree_simple_types@_K@std@@@std@@@std@@_N@1@_NAEA_KPEAU?$_Tree_node@_KPEAX@1@@Z 00000001800993f0 f i DOMParserImpl.obj
 0001:00098520       ??$_Buynode@AEAU?$pair@$$CB_KW4eDataType@IConfigurable@AdobeXMPCommon@@@std@@@?$_Tree_buy@U?$pair@$$CB_KW4eDataType@IConfigurable@AdobeXMPCommon@@@std@@V?$TAllocator@U?$pair@_KW4eDataType@IConfigurable@AdobeXMPCommon@@@std@@@AdobeXMPCore_Int@@@std@@QEAAPEAU?$_Tree_node@U?$pair@$$CB_KW4eDataType@IConfigurable@AdobeXMPCommon@@@std@@PEAX@1@AEAU?$pair@$$CB_KW4eDataType@IConfigurable@AdobeXMPCommon@@@1@@Z 0000000180099520 f i DOMParserImpl.obj
 0001:0009854c       ??$_Insert_hint@AEAU?$pair@$$CB_KW4eDataType@IConfigurable@AdobeXMPCommon@@@std@@PEAU?$_Tree_node@U?$pair@$$CB_KW4eDataType@IConfigurable@AdobeXMPCommon@@@std@@PEAX@2@@?$_Tree@V?$_Tmap_traits@_KW4eDataType@IConfigurable@AdobeXMPCommon@@U?$less@_K@std@@V?$TAllocator@U?$pair@_KW4eDataType@IConfigurable@AdobeXMPCommon@@@std@@@AdobeXMPCore_Int@@$0A@@std@@@std@@IEAA?AV?$_Tree_iterator@V?$_Tree_val@U?$_Tree_simple_types@U?$pair@$$CB_KW4eDataType@IConfigurable@AdobeXMPCommon@@@std@@@std@@@std@@@1@V?$_Tree_const_iterator@V?$_Tree_val@U?$_Tree_simple_types@U?$pair@$$CB_KW4eDataType@IConfigurable@AdobeXMPCommon@@@std@@@std@@@std@@@1@AEAU?$pair@$$CB_KW4eDataType@IConfigurable@AdobeXMPCommon@@@1@PEAU?$_Tree_node@U?$pair@$$CB_KW4eDataType@IConfigurable@AdobeXMPCommon@@@std@@PEAX@1@@Z 000000018009954c f i DOMParserImpl.obj
 0001:00098768       ?_Buynode0@?$_Tree_buy@_KV?$TAllocator@_K@AdobeXMPCore_Int@@@std@@QEAAPEAU?$_Tree_node@_KPEAX@2@XZ 0000000180099768 f i DOMParserImpl.obj
 0001:000987c4       ?_Buynode0@?$_Tree_buy@U?$pair@$$CB_KW4eDataType@IConfigurable@AdobeXMPCommon@@@std@@V?$TAllocator@U?$pair@_KW4eDataType@IConfigurable@AdobeXMPCommon@@@std@@@AdobeXMPCore_Int@@@std@@QEAAPEAU?$_Tree_node@U?$pair@$$CB_KW4eDataType@IConfigurable@AdobeXMPCommon@@@std@@PEAX@2@XZ 00000001800997c4 f i DOMParserImpl.obj
 0001:00098820       ??$_Insert_at@AEA_KPEAU?$_Tree_node@_KPEAX@std@@@?$_Tree@V?$_Tset_traits@_KU?$less@_K@std@@V?$TAllocator@_K@AdobeXMPCore_Int@@$0A@@std@@@std@@IEAA?AV?$_Tree_const_iterator@V?$_Tree_val@U?$_Tree_simple_types@_K@std@@@std@@@1@_NPEAU?$_Tree_node@_KPEAX@1@AEA_K1@Z 0000000180099820 f i DOMParserImpl.obj
 0001:00098ab0       ??$_Insert_at@AEAU?$pair@$$CB_KW4eDataType@IConfigurable@AdobeXMPCommon@@@std@@PEAU?$_Tree_node@U?$pair@$$CB_KW4eDataType@IConfigurable@AdobeXMPCommon@@@std@@PEAX@2@@?$_Tree@V?$_Tmap_traits@_KW4eDataType@IConfigurable@AdobeXMPCommon@@U?$less@_K@std@@V?$TAllocator@U?$pair@_KW4eDataType@IConfigurable@AdobeXMPCommon@@@std@@@AdobeXMPCore_Int@@$0A@@std@@@std@@IEAA?AV?$_Tree_iterator@V?$_Tree_val@U?$_Tree_simple_types@U?$pair@$$CB_KW4eDataType@IConfigurable@AdobeXMPCommon@@@std@@@std@@@std@@@1@_NPEAU?$_Tree_node@U?$pair@$$CB_KW4eDataType@IConfigurable@AdobeXMPCommon@@@std@@PEAX@1@AEAU?$pair@$$CB_KW4eDataType@IConfigurable@AdobeXMPCommon@@@1@1@Z 0000000180099ab0 f i DOMParserImpl.obj
 0001:00098d40       ??$_Insert_nohint@AEAU?$pair@$$CB_KW4eDataType@IConfigurable@AdobeXMPCommon@@@std@@PEAU?$_Tree_node@U?$pair@$$CB_KW4eDataType@IConfigurable@AdobeXMPCommon@@@std@@PEAX@2@@?$_Tree@V?$_Tmap_traits@_KW4eDataType@IConfigurable@AdobeXMPCommon@@U?$less@_K@std@@V?$TAllocator@U?$pair@_KW4eDataType@IConfigurable@AdobeXMPCommon@@@std@@@AdobeXMPCore_Int@@$0A@@std@@@std@@IEAA?AU?$pair@V?$_Tree_iterator@V?$_Tree_val@U?$_Tree_simple_types@U?$pair@$$CB_KW4eDataType@IConfigurable@AdobeXMPCommon@@@std@@@std@@@std@@@std@@_N@1@_NAEAU?$pair@$$CB_KW4eDataType@IConfigurable@AdobeXMPCommon@@@1@PEAU?$_Tree_node@U?$pair@$$CB_KW4eDataType@IConfigurable@AdobeXMPCommon@@@std@@PEAX@1@@Z 0000000180099d40 f i DOMParserImpl.obj
 0001:00098e70       ??0DOMSerializerImpl@AdobeXMPCore_Int@@QEAA@XZ 0000000180099e70 f   DOMSerializerImpl.obj
 0001:00098fa0       ?GetMutex@DOMSerializerImpl@AdobeXMPCore_Int@@UEBA?AV?$shared_ptr@VISharedMutex@AdobeXMPCore_Int@@@std@@XZ 0000000180099fa0 f   DOMSerializerImpl.obj
 0001:00098fc0       ?Clone@DOMSerializerImpl@AdobeXMPCore_Int@@UEBA?AV?$shared_ptr@VIDOMSerializer_v1@AdobeXMPCore@@@std@@XZ 0000000180099fc0 f   DOMSerializerImpl.obj
 0001:00099200       ?CreateDOMSerializer@IDOMSerializer_I@AdobeXMPCore_Int@@SA?AV?$shared_ptr@VIDOMSerializer_v1@AdobeXMPCore@@@std@@PEAVIClientDOMSerializer_v1@AdobeXMPCore@@@Z 000000018009a200 f   DOMSerializerImpl.obj
 0001:000992b0       ??$MakeUncheckedSharedPointer@VDOMSerializerImpl@AdobeXMPCore_Int@@@AdobeXMPCore_Int@@YA?AV?$shared_ptr@VDOMSerializerImpl@AdobeXMPCore_Int@@@std@@PEAVDOMSerializerImpl@0@PEBD_K_N@Z 000000018009a2b0 f i DOMSerializerImpl.obj
 0001:000993b4       ??$MakeUncheckedSharedPointer@VClientDOMSerializerWrapperImpl@AdobeXMPCore_Int@@@AdobeXMPCore_Int@@YA?AV?$shared_ptr@VClientDOMSerializerWrapperImpl@AdobeXMPCore_Int@@@std@@PEAVClientDOMSerializerWrapperImpl@0@PEBD_K_N@Z 000000018009a3b4 f i DOMSerializerImpl.obj
 0001:000994b0       ??$_Resetp@VDOMSerializerImpl@AdobeXMPCore_Int@@V?$_Mem_fn_wrap@XP8SharedObjectImpl@AdobeXMPCore_Int@@EBAXXZ$$CBV12@$$$V@std@@V?$TAllocator@VDOMSerializerImpl@AdobeXMPCore_Int@@@2@@?$shared_ptr@VDOMSerializerImpl@AdobeXMPCore_Int@@@std@@AEAAXPEAVDOMSerializerImpl@AdobeXMPCore_Int@@V?$_Mem_fn_wrap@XP8SharedObjectImpl@AdobeXMPCore_Int@@EBAXXZ$$CBV12@$$$V@1@V?$TAllocator@VDOMSerializerImpl@AdobeXMPCore_Int@@@3@@Z 000000018009a4b0 f i DOMSerializerImpl.obj
 0001:00099560       ??$_Resetp@VClientDOMSerializerWrapperImpl@AdobeXMPCore_Int@@V?$_Mem_fn_wrap@XP8SharedObjectImpl@AdobeXMPCore_Int@@EBAXXZ$$CBV12@$$$V@std@@V?$TAllocator@VClientDOMSerializerWrapperImpl@AdobeXMPCore_Int@@@2@@?$shared_ptr@VClientDOMSerializerWrapperImpl@AdobeXMPCore_Int@@@std@@AEAAXPEAVClientDOMSerializerWrapperImpl@AdobeXMPCore_Int@@V?$_Mem_fn_wrap@XP8SharedObjectImpl@AdobeXMPCore_Int@@EBAXXZ$$CBV12@$$$V@1@V?$TAllocator@VClientDOMSerializerWrapperImpl@AdobeXMPCore_Int@@@3@@Z 000000018009a560 f i DOMSerializerImpl.obj
 0001:00099610       ?GetSimpleQualifier@INode_v1@AdobeXMPCore@@QEAA?AV?$shared_ptr@VISimpleNode_v1@AdobeXMPCore@@@std@@PEBD_K01@Z 000000018009a610 f i MetadataImpl.obj
 0001:000996c0       ??1IStructureNode_v1@AdobeXMPCore@@MEAA@XZ 000000018009a6c0 f i MetadataImpl.obj
 0001:00099734       ??_EIStructureNode_v1@AdobeXMPCore@@MEAAPEAXI@Z 000000018009a734 f i * CIL library *:* CIL module *
 0001:00099734       ??_GIStructureNode_v1@AdobeXMPCore@@MEAAPEAXI@Z 000000018009a734 f i MetadataImpl.obj
 0001:00099880       ??1IMetadata_v1@AdobeXMPCore@@MEAA@XZ 000000018009a880 f i MetadataImpl.obj
 0001:00099908       ??_GIMetadata_v1@AdobeXMPCore@@MEAAPEAXI@Z 000000018009a908 f i MetadataImpl.obj
 0001:00099908       ??_EIMetadata_v1@AdobeXMPCore@@MEAAPEAXI@Z 000000018009a908 f i * CIL library *:* CIL module *
 0001:00099ad8       ?GetActualIStructureNode@IStructureNode_I@AdobeXMPCore_Int@@UEAAPEAVIStructureNode_v1@AdobeXMPCore@@XZ 000000018009aad8 f i MetadataImpl.obj
 0001:00099afc       ??1IStructureNode_I@AdobeXMPCore_Int@@MEAA@XZ 000000018009aafc f i MetadataImpl.obj
 0001:00099c00       ??_EIStructureNode_I@AdobeXMPCore_Int@@MEAAPEAXI@Z 000000018009ac00 f i * CIL library *:* CIL module *
 0001:00099c00       ??_GIStructureNode_I@AdobeXMPCore_Int@@MEAAPEAXI@Z 000000018009ac00 f i MetadataImpl.obj
 0001:00099d84       ?GetActualIMetadata@IMetadata_I@AdobeXMPCore_Int@@UEAAPEAVIMetadata_v1@AdobeXMPCore@@XZ 000000018009ad84 f i MetadataImpl.obj
 0001:00099da0       ?GetISharedObject_I@IMetadata_I@AdobeXMPCore_Int@@UEAAPEAVISharedObject_I@AdobeXMPCommon_Int@@XZ 000000018009ada0 f i MetadataImpl.obj
 0001:00099dbc       ?GetIMetadata_I@IMetadata_I@AdobeXMPCore_Int@@UEAAPEAV12@XZ 000000018009adbc f i MetadataImpl.obj
 0001:00099dc4       ??1IMetadata_I@AdobeXMPCore_Int@@MEAA@XZ 000000018009adc4 f i MetadataImpl.obj
 0001:00099f04       ??_GIMetadata_I@AdobeXMPCore_Int@@MEAAPEAXI@Z 000000018009af04 f i MetadataImpl.obj
 0001:00099f04       ??_EIMetadata_I@AdobeXMPCore_Int@@MEAAPEAXI@Z 000000018009af04 f i * CIL library *:* CIL module *
 0001:00099f40       ??_DIMetadata_I@AdobeXMPCore_Int@@IEAAXXZ 000000018009af40 f i MetadataImpl.obj
 0001:0009a158       ??1StructureNodeImpl@AdobeXMPCore_Int@@MEAA@XZ 000000018009b158 f i MetadataImpl.obj
 0001:0009a36c       ??_GStructureNodeImpl@AdobeXMPCore_Int@@MEAAPEAXI@Z 000000018009b36c f i MetadataImpl.obj
 0001:0009a36c       ??_EStructureNodeImpl@AdobeXMPCore_Int@@MEAAPEAXI@Z 000000018009b36c f i * CIL library *:* CIL module *
 0001:0009a3b8       ??_DStructureNodeImpl@AdobeXMPCore_Int@@IEAAXXZ 000000018009b3b8 f i MetadataImpl.obj
 0001:0009a5c8       ??1MetadataImpl@AdobeXMPCore_Int@@MEAA@XZ 000000018009b5c8 f i MetadataImpl.obj
 0001:0009a7ec       ??_GMetadataImpl@AdobeXMPCore_Int@@MEAAPEAXI@Z 000000018009b7ec f i MetadataImpl.obj
 0001:0009a7ec       ??_EMetadataImpl@AdobeXMPCore_Int@@MEAAPEAXI@Z 000000018009b7ec f i * CIL library *:* CIL module *
 0001:0009a838       ??_DMetadataImpl@AdobeXMPCore_Int@@IEAAXXZ 000000018009b838 f i MetadataImpl.obj
 0001:0009ab0c       ??0MetadataImpl@AdobeXMPCore_Int@@QEAA@XZ 000000018009bb0c f   MetadataImpl.obj
 0001:0009b1dc       ??0IStructureNode_I@AdobeXMPCore_Int@@QEAA@XZ 000000018009c1dc f i MetadataImpl.obj
 0001:0009b2e0       ??0IMetadata_I@AdobeXMPCore_Int@@QEAA@XZ 000000018009c2e0 f i MetadataImpl.obj
 0001:0009b404       ?GetAboutURI@MetadataImpl@AdobeXMPCore_Int@@MEBA?AV?$shared_ptr@$$CBVIUTF8String_v1@AdobeXMPCommon@@@std@@XZ 000000018009c404 f   MetadataImpl.obj
 0001:0009b47c       ?SetAboutURI@MetadataImpl@AdobeXMPCore_Int@@MEAAXPEBD_K@Z 000000018009c47c f   MetadataImpl.obj
 0001:0009b51c       ?GetNameSpace@MetadataImpl@AdobeXMPCore_Int@@MEBA?AV?$shared_ptr@$$CBVIUTF8String_v1@AdobeXMPCommon@@@std@@XZ 000000018009c51c f   MetadataImpl.obj
 0001:0009b51c       ?GetName@MetadataImpl@AdobeXMPCore_Int@@MEBA?AV?$shared_ptr@$$CBVIUTF8String_v1@AdobeXMPCommon@@@std@@XZ 000000018009c51c f   MetadataImpl.obj
 0001:0009b58c       ?ClearContents@MetadataImpl@AdobeXMPCore_Int@@MEAAXXZ 000000018009c58c f   MetadataImpl.obj
 0001:0009b5fc       ?CloneContents@MetadataImpl@AdobeXMPCore_Int@@MEBA?AV?$shared_ptr@VINode_v1@AdobeXMPCore@@@std@@_N0_K@Z 000000018009c5fc f   MetadataImpl.obj
 0001:0009b7b4       ?ConvertToMetadata@MetadataImpl@AdobeXMPCore_Int@@MEAA?AV?$shared_ptr@VIMetadata_v1@AdobeXMPCore@@@std@@XZ 000000018009c7b4 f   MetadataImpl.obj
 0001:0009b844       ?EnableFeature@MetadataImpl@AdobeXMPCore_Int@@MEBAXPEBD_K@Z 000000018009c844 f   MetadataImpl.obj
 0001:0009b930       ?DisableFeature@MetadataImpl@AdobeXMPCore_Int@@MEBAXPEBD_K@Z 000000018009c930 f   MetadataImpl.obj
 0001:0009ba1c       ?IsNodeAlias@AdobeXMPCore_Int@@YA_NPEBD0AEAV?$vector@VXPathStepInfo@@V?$allocator@VXPathStepInfo@@@std@@@std@@@Z 000000018009ca1c f   MetadataImpl.obj
 0001:0009bd9c       ?HandleConstAlias@AdobeXMPCore_Int@@YA_NAEBV?$shared_ptr@VIMetadata_v1@AdobeXMPCore@@@std@@AEAV?$shared_ptr@VINode_v1@AdobeXMPCore@@@3@AEBV?$vector@VXPathStepInfo@@V?$allocator@VXPathStepInfo@@@std@@@3@AEA_K@Z 000000018009cd9c f   MetadataImpl.obj
 0001:0009c5f8       ?CreateTerminalNode@AdobeXMPCore_Int@@YA?AV?$shared_ptr@VINode_v1@AdobeXMPCore@@@std@@PEBD0KAEBV?$shared_ptr@$$CBVINode_v1@AdobeXMPCore@@@3@@Z 000000018009d5f8 f   MetadataImpl.obj
 0001:0009c814       ?HandleNonConstAlias@AdobeXMPCore_Int@@YA_NAEBV?$shared_ptr@VIMetadata_v1@AdobeXMPCore@@@std@@AEAV?$vector@VXPathStepInfo@@V?$allocator@VXPathStepInfo@@@std@@@3@_NKAEAV?$shared_ptr@VINode_v1@AdobeXMPCore@@@3@AEA_K2AEBV53@@Z 000000018009d814 f   MetadataImpl.obj
 0001:0009e240       ?ReplaceNode@MetadataImpl@AdobeXMPCore_Int@@MEAA?AV?$shared_ptr@VINode_v1@AdobeXMPCore@@@std@@AEBV34@@Z 000000018009f240 f   MetadataImpl.obj
 0001:0009ebc8       ?InsertNode@MetadataImpl@AdobeXMPCore_Int@@MEAAXAEBV?$shared_ptr@VINode_v1@AdobeXMPCore@@@std@@@Z 000000018009fbc8 f   MetadataImpl.obj
 0001:0009ee68       ?RemoveNode@MetadataImpl@AdobeXMPCore_Int@@MEAA?AV?$shared_ptr@VINode_v1@AdobeXMPCore@@@std@@AEBV?$shared_ptr@$$CBVIUTF8String_v1@AdobeXMPCommon@@@4@0@Z 000000018009fe68 f   MetadataImpl.obj
 0001:0009f1c8       ?GetNode@MetadataImpl@AdobeXMPCore_Int@@MEAA?AV?$shared_ptr@VINode_v1@AdobeXMPCore@@@std@@AEBV?$shared_ptr@$$CBVIUTF8String_v1@AdobeXMPCommon@@@4@0@Z 00000001800a01c8 f   MetadataImpl.obj
 0001:0009f464       ?CreateMetadata@IMetadata_v1@AdobeXMPCore@@SA?AV?$shared_ptr@VIMetadata_v1@AdobeXMPCore@@@std@@XZ 00000001800a0464 f   MetadataImpl.obj
 0001:0009f518       ?count@?$_Tree@V?$_Tmap_traits@V?$basic_string@DU?$char_traits@D@std@@V?$allocator@D@2@@std@@V?$vector@VXPathStepInfo@@V?$allocator@VXPathStepInfo@@@std@@@2@U?$less@V?$basic_string@DU?$char_traits@D@std@@V?$allocator@D@2@@std@@@2@V?$allocator@U?$pair@$$CBV?$basic_string@DU?$char_traits@D@std@@V?$allocator@D@2@@std@@V?$vector@VXPathStepInfo@@V?$allocator@VXPathStepInfo@@@std@@@2@@std@@@2@$0A@@std@@@std@@QEBA_KAEBV?$basic_string@DU?$char_traits@D@std@@V?$allocator@D@2@@2@@Z 00000001800a0518 f i MetadataImpl.obj
 0001:0009f628       ?assign@?$basic_string@DU?$char_traits@D@std@@V?$TAllocator@D@AdobeXMPCore_Int@@@std@@QEAAAEAV12@PEBD_K@Z 00000001800a0628 f i MetadataImpl.obj
 0001:0009f72c       ?assign@?$basic_string@DU?$char_traits@D@std@@V?$TAllocator@D@AdobeXMPCore_Int@@@std@@QEAAAEAV12@AEBV12@_K1@Z 00000001800a072c f i MetadataImpl.obj
 0001:0009f84c       ?erase@?$_Tree@V?$_Tmap_traits@UQualifiedName@StructureNodeImpl@AdobeXMPCore_Int@@V?$shared_ptr@VINode_v1@AdobeXMPCore@@@std@@UCompareQualifiedName@23@V?$TAllocator@V?$shared_ptr@VINode_v1@AdobeXMPCore@@@std@@@3@$0A@@std@@@std@@QEAA?AV?$_Tree_iterator@V?$_Tree_val@U?$_Tree_simple_types@U?$pair@$$CBUQualifiedName@StructureNodeImpl@AdobeXMPCore_Int@@V?$shared_ptr@VINode_v1@AdobeXMPCore@@@std@@@std@@@std@@@std@@@2@V?$_Tree_const_iterator@V?$_Tree_val@U?$_Tree_simple_types@U?$pair@$$CBUQualifiedName@StructureNodeImpl@AdobeXMPCore_Int@@V?$shared_ptr@VINode_v1@AdobeXMPCore@@@std@@@std@@@std@@@std@@@2@@Z 00000001800a084c f i MetadataImpl.obj
 0001:0009fd24       ?_Copy@?$basic_string@DU?$char_traits@D@std@@V?$TAllocator@D@AdobeXMPCore_Int@@@std@@QEAAX_K0@Z 00000001800a0d24 f i MetadataImpl.obj
 0001:0009fe40       ?_Erase@?$_Tree@V?$_Tmap_traits@UQualifiedName@StructureNodeImpl@AdobeXMPCore_Int@@V?$shared_ptr@VINode_v1@AdobeXMPCore@@@std@@UCompareQualifiedName@23@V?$TAllocator@V?$shared_ptr@VINode_v1@AdobeXMPCore@@@std@@@3@$0A@@std@@@std@@IEAAXPEAU?$_Tree_node@U?$pair@$$CBUQualifiedName@StructureNodeImpl@AdobeXMPCore_Int@@V?$shared_ptr@VINode_v1@AdobeXMPCore@@@std@@@std@@PEAX@2@@Z 00000001800a0e40 f i MetadataImpl.obj
 0001:0009fee8       ??$MakeUncheckedSharedPointer@VMetadataImpl@AdobeXMPCore_Int@@@AdobeXMPCore_Int@@YA?AV?$shared_ptr@VMetadataImpl@AdobeXMPCore_Int@@@std@@PEAVMetadataImpl@0@PEBD_K_N@Z 00000001800a0ee8 f i MetadataImpl.obj
 0001:0009fff8       ??$?0VMetadataImpl@AdobeXMPCore_Int@@X@?$shared_ptr@VIMetadata_v1@AdobeXMPCore@@@std@@QEAA@AEBV?$shared_ptr@VMetadataImpl@AdobeXMPCore_Int@@@1@@Z 00000001800a0ff8 f i MetadataImpl.obj
 0001:000a0080       ??$_Insert_hint@AEAU?$pair@$$CBV?$basic_string@DU?$char_traits@D@std@@V?$allocator@D@2@@std@@V?$vector@VXPathStepInfo@@V?$allocator@VXPathStepInfo@@@std@@@2@@std@@PEAU?$_Tree_node@U?$pair@$$CBV?$basic_string@DU?$char_traits@D@std@@V?$allocator@D@2@@std@@V?$vector@VXPathStepInfo@@V?$allocator@VXPathStepInfo@@@std@@@2@@std@@PEAX@2@@?$_Tree@V?$_Tmap_traits@V?$basic_string@DU?$char_traits@D@std@@V?$allocator@D@2@@std@@V?$vector@VXPathStepInfo@@V?$allocator@VXPathStepInfo@@@std@@@2@U?$less@V?$basic_string@DU?$char_traits@D@std@@V?$allocator@D@2@@std@@@2@V?$allocator@U?$pair@$$CBV?$basic_string@DU?$char_traits@D@std@@V?$allocator@D@2@@std@@V?$vector@VXPathStepInfo@@V?$allocator@VXPathStepInfo@@@std@@@2@@std@@@2@$0A@@std@@@std@@IEAA?AV?$_Tree_iterator@V?$_Tree_val@U?$_Tree_simple_types@U?$pair@$$CBV?$basic_string@DU?$char_traits@D@std@@V?$allocator@D@2@@std@@V?$vector@VXPathStepInfo@@V?$allocator@VXPathStepInfo@@@std@@@2@@std@@@std@@@std@@@1@V?$_Tree_const_iterator@V?$_Tree_val@U?$_Tree_simple_types@U?$pair@$$CBV?$basic_string@DU?$char_traits@D@std@@V?$allocator@D@2@@std@@V?$vector@VXPathStepInfo@@V?$allocator@VXPathStepInfo@@@std@@@2@@std@@@std@@@std@@@1@AEAU?$pair@$$CBV?$basic_string@DU?$char_traits@D@std@@V?$allocator@D@2@@std@@V?$vector@VXPathStepInfo@@V?$allocator@VXPathStepInfo@@@std@@@2@@1@PEAU?$_Tree_node@U?$pair@$$CBV?$basic_string@DU?$char_traits@D@std@@V?$allocator@D@2@@std@@V?$vector@VXPathStepInfo@@V?$allocator@VXPathStepInfo@@@std@@@2@@std@@PEAX@1@@Z 00000001800a1080 f i MetadataImpl.obj
 0001:000a0314       ??$_Resetp@VMetadataImpl@AdobeXMPCore_Int@@V?$_Mem_fn_wrap@XP8NodeImpl@AdobeXMPCore_Int@@EBAXXZ$$CBV12@$$$V@std@@V?$TAllocator@VMetadataImpl@AdobeXMPCore_Int@@@2@@?$shared_ptr@VMetadataImpl@AdobeXMPCore_Int@@@std@@AEAAXPEAVMetadataImpl@AdobeXMPCore_Int@@V?$_Mem_fn_wrap@XP8NodeImpl@AdobeXMPCore_Int@@EBAXXZ$$CBV12@$$$V@1@V?$TAllocator@VMetadataImpl@AdobeXMPCore_Int@@@3@@Z 00000001800a1314 f i MetadataImpl.obj
 0001:000a03c4       ??$_Insert_at@AEAU?$pair@$$CBV?$basic_string@DU?$char_traits@D@std@@V?$allocator@D@2@@std@@V?$vector@VXPathStepInfo@@V?$allocator@VXPathStepInfo@@@std@@@2@@std@@PEAU?$_Tree_node@U?$pair@$$CBV?$basic_string@DU?$char_traits@D@std@@V?$allocator@D@2@@std@@V?$vector@VXPathStepInfo@@V?$allocator@VXPathStepInfo@@@std@@@2@@std@@PEAX@2@@?$_Tree@V?$_Tmap_traits@V?$basic_string@DU?$char_traits@D@std@@V?$allocator@D@2@@std@@V?$vector@VXPathStepInfo@@V?$allocator@VXPathStepInfo@@@std@@@2@U?$less@V?$basic_string@DU?$char_traits@D@std@@V?$allocator@D@2@@std@@@2@V?$allocator@U?$pair@$$CBV?$basic_string@DU?$char_traits@D@std@@V?$allocator@D@2@@std@@V?$vector@VXPathStepInfo@@V?$allocator@VXPathStepInfo@@@std@@@2@@std@@@2@$0A@@std@@@std@@IEAA?AV?$_Tree_iterator@V?$_Tree_val@U?$_Tree_simple_types@U?$pair@$$CBV?$basic_string@DU?$char_traits@D@std@@V?$allocator@D@2@@std@@V?$vector@VXPathStepInfo@@V?$allocator@VXPathStepInfo@@@std@@@2@@std@@@std@@@std@@@1@_NPEAU?$_Tree_node@U?$pair@$$CBV?$basic_string@DU?$char_traits@D@std@@V?$allocator@D@2@@std@@V?$vector@VXPathStepInfo@@V?$allocator@VXPathStepInfo@@@std@@@2@@std@@PEAX@1@AEAU?$pair@$$CBV?$basic_string@DU?$char_traits@D@std@@V?$allocator@D@2@@std@@V?$vector@VXPathStepInfo@@V?$allocator@VXPathStepInfo@@@std@@@2@@1@1@Z 00000001800a13c4 f i MetadataImpl.obj
 0001:000a0670       ??$_Insert_nohint@AEAU?$pair@$$CBV?$basic_string@DU?$char_traits@D@std@@V?$allocator@D@2@@std@@V?$vector@VXPathStepInfo@@V?$allocator@VXPathStepInfo@@@std@@@2@@std@@PEAU?$_Tree_node@U?$pair@$$CBV?$basic_string@DU?$char_traits@D@std@@V?$allocator@D@2@@std@@V?$vector@VXPathStepInfo@@V?$allocator@VXPathStepInfo@@@std@@@2@@std@@PEAX@2@@?$_Tree@V?$_Tmap_traits@V?$basic_string@DU?$char_traits@D@std@@V?$allocator@D@2@@std@@V?$vector@VXPathStepInfo@@V?$allocator@VXPathStepInfo@@@std@@@2@U?$less@V?$basic_string@DU?$char_traits@D@std@@V?$allocator@D@2@@std@@@2@V?$allocator@U?$pair@$$CBV?$basic_string@DU?$char_traits@D@std@@V?$allocator@D@2@@std@@V?$vector@VXPathStepInfo@@V?$allocator@VXPathStepInfo@@@std@@@2@@std@@@2@$0A@@std@@@std@@IEAA?AU?$pair@V?$_Tree_iterator@V?$_Tree_val@U?$_Tree_simple_types@U?$pair@$$CBV?$basic_string@DU?$char_traits@D@std@@V?$allocator@D@2@@std@@V?$vector@VXPathStepInfo@@V?$allocator@VXPathStepInfo@@@std@@@2@@std@@@std@@@std@@@std@@_N@1@_NAEAU?$pair@$$CBV?$basic_string@DU?$char_traits@D@std@@V?$allocator@D@2@@std@@V?$vector@VXPathStepInfo@@V?$allocator@VXPathStepInfo@@@std@@@2@@1@PEAU?$_Tree_node@U?$pair@$$CBV?$basic_string@DU?$char_traits@D@std@@V?$allocator@D@2@@std@@V?$vector@VXPathStepInfo@@V?$allocator@VXPathStepInfo@@@std@@@2@@std@@PEAX@1@@Z 00000001800a1670 f i MetadataImpl.obj
 0001:000a07fc       ?_Destroy@?$_Ref_count_del_alloc@VMetadataImpl@AdobeXMPCore_Int@@V?$_Mem_fn_wrap@XP8NodeImpl@AdobeXMPCore_Int@@EBAXXZ$$CBV12@$$$V@std@@V?$TAllocator@VMetadataImpl@AdobeXMPCore_Int@@@2@@std@@EEAAXXZ 00000001800a17fc f i MetadataImpl.obj
 0001:000a0864       ?RemoveQualifier@NodeImpl@AdobeXMPCore_Int@@$R4OI@EE@PPPPPPPM@PA@EAA?AV?$shared_ptr@VINode_v1@AdobeXMPCore@@@std@@AEBV?$shared_ptr@$$CBVIUTF8String_v1@AdobeXMPCommon@@@4@0@Z 00000001800a1864 f i MetadataImpl.obj
 0001:000a0880       ?SetAboutURI@MetadataImpl@AdobeXMPCore_Int@@$2PPPPPPPM@A@EAAXPEBD_K@Z 00000001800a1880 f i MetadataImpl.obj
 0001:000a088c       ?getChildNodeType@IStructureNode_I@AdobeXMPCore_Int@@$R2II@DA@PPPPPPPM@GI@EBAKPEBD_K01AEAPEBVIError_v1@AdobeXMPCommon@@@Z 00000001800a188c f i MetadataImpl.obj
 0001:000a08a8       ?RemoveNode@StructureNodeImpl@AdobeXMPCore_Int@@$R4II@EM@PPPPPPPM@IA@EAA?AV?$shared_ptr@VINode_v1@AdobeXMPCore@@@std@@PEBD_K01@Z 00000001800a18a8 f i MetadataImpl.obj
 0001:000a08c4       ?HasContent@StructureNodeImpl@AdobeXMPCore_Int@@$R4FI@EM@PPPPPPPM@FA@EBA_NXZ 00000001800a18c4 f i MetadataImpl.obj
 0001:000a08e0       ?convertToArrayNode@INode_I@AdobeXMPCore_Int@@$R2DI@CI@PPPPPPPM@DI@EAAPEAVIArrayNode_v1@AdobeXMPCore@@AEAPEBVIError_v1@AdobeXMPCommon@@@Z 00000001800a18e0 f i MetadataImpl.obj
 0001:000a08f8       ?isThreadSafe@IThreadSafe_I@AdobeXMPCommon_Int@@WPPPPPPHI@EBAKXZ 00000001800a18f8 f i MetadataImpl.obj
 0001:000a0904       ?hasChanged@INode_I@AdobeXMPCore_Int@@$R2DA@CE@PPPPPPPM@DI@EBAKAEAPEBVIError_v1@AdobeXMPCommon@@@Z 00000001800a1904 f i MetadataImpl.obj
 0001:000a0920       ?ClearContents@MetadataImpl@AdobeXMPCore_Int@@$2PPPPPPPM@A@EAAXXZ 00000001800a1920 f i MetadataImpl.obj
 0001:000a092c       ?convertToArrayNode@INode_I@AdobeXMPCore_Int@@$R2FI@CI@PPPPPPPM@DI@EAAPEAVIArrayNode_v1@AdobeXMPCore@@AEAPEBVIError_v1@AdobeXMPCommon@@@Z 00000001800a192c f i MetadataImpl.obj
 0001:000a0948       ?RemoveQualifier@NodeImpl@AdobeXMPCore_Int@@$R4FI@EE@PPPPPPPM@KI@EAA?AV?$shared_ptr@VINode_v1@AdobeXMPCore@@@std@@PEBD_K01@Z 00000001800a1948 f i MetadataImpl.obj
 0001:000a0964       ?SetIsQualifierNode@NodeImpl@AdobeXMPCore_Int@@$R4MI@DM@PPPPPPPM@PA@EAAX_N@Z 00000001800a1964 f i MetadataImpl.obj
 0001:000a0980       ?GetQualifier@NodeImpl@AdobeXMPCore_Int@@$R4MI@DM@PPPPPPPM@PA@EAA?AV?$shared_ptr@VINode_v1@AdobeXMPCore@@@std@@AEBV?$shared_ptr@$$CBVIUTF8String_v1@AdobeXMPCommon@@@4@0@Z 00000001800a1980 f i MetadataImpl.obj
 0001:000a099c       ?removeNode@IStructureNode_I@AdobeXMPCore_Int@@$R2IA@CM@PPPPPPPM@GI@EAAPEAVINode_v1@AdobeXMPCore@@PEBD_K01AEAPEBVIError_v1@AdobeXMPCommon@@@Z 00000001800a199c f i MetadataImpl.obj
 0001:000a09b8       ?GetNodeTypeAtPath@CompositeNodeImpl@AdobeXMPCore_Int@@$R4GI@EA@PPPPPPPM@GA@EBA?AW4eNodeType@INode_v1@AdobeXMPCore@@AEBV?$shared_ptr@$$CBVIPath_v1@AdobeXMPCore@@@std@@@Z 00000001800a19b8 f i MetadataImpl.obj
 0001:000a09d4       ?hasChanged@INode_I@AdobeXMPCore_Int@@$R2FA@CE@PPPPPPPM@DI@EBAKAEAPEBVIError_v1@AdobeXMPCommon@@@Z 00000001800a19d4 f i MetadataImpl.obj
 0001:000a09f0       ?Clear@NodeImpl@AdobeXMPCore_Int@@$R4FA@DM@PPPPPPPM@KI@EAAX_N0@Z 00000001800a19f0 f i MetadataImpl.obj
 0001:000a0a0c       ?IsEmpty@NodeImpl@AdobeXMPCore_Int@@$R4FA@DM@PPPPPPPM@KI@EBA_NXZ 00000001800a1a0c f i MetadataImpl.obj
 0001:000a0a28       ?isThreadSafe@IThreadSafe_I@AdobeXMPCommon_Int@@$R4EA@CA@PPPPPPPM@BA@EBAKXZ 00000001800a1a28 f i MetadataImpl.obj
 0001:000a0a44       ??_EStructureNodeImpl@AdobeXMPCore_Int@@$2PPPPPPPM@BA@EAAPEAXI@Z 00000001800a1a44 f i MetadataImpl.obj
 0001:000a0a54       ?removeNodeAtPath@ICompositeNode_I@AdobeXMPCore_Int@@$R2EI@CI@PPPPPPPM@EI@EAAPEAVINode_v1@AdobeXMPCore@@PEBVIPath_v1@4@AEAPEBVIError_v1@AdobeXMPCommon@@@Z 00000001800a1a54 f i MetadataImpl.obj
 0001:000a0a6c       ?removeQualifier@INode_I@AdobeXMPCore_Int@@$R2DA@CE@PPPPPPPM@DI@EAAPEAVINode_v1@AdobeXMPCore@@PEBD_K01AEAPEBVIError_v1@AdobeXMPCommon@@@Z 00000001800a1a6c f i MetadataImpl.obj
 0001:000a0a88       ?UnRegisterChange@NodeImpl@AdobeXMPCore_Int@@$R4OI@EE@PPPPPPPM@PA@EAAXXZ 00000001800a1a88 f i MetadataImpl.obj
 0001:000a0aa4       ?ReplaceNode@MetadataImpl@AdobeXMPCore_Int@@$2PPPPPPPM@A@EAA?AV?$shared_ptr@VINode_v1@AdobeXMPCore@@@std@@AEBV34@@Z 00000001800a1aa4 f i MetadataImpl.obj
 0001:000a0ab0       ?AcknowledgeChanges@NodeImpl@AdobeXMPCore_Int@@$R4FI@EE@PPPPPPPM@KI@EBAXXZ 00000001800a1ab0 f i MetadataImpl.obj
 0001:000a0acc       ?UnShareMutex@ThreadSafeImpl@AdobeXMPCore_Int@@$R2LA@DI@PPPPPPPM@DI@EAAXXZ 00000001800a1acc f i MetadataImpl.obj
 0001:000a0ae8       ?removeNodeAtPath@ICompositeNode_I@AdobeXMPCore_Int@@$R2GI@CI@PPPPPPPM@EI@EAAPEAVINode_v1@AdobeXMPCore@@PEBVIPath_v1@4@AEAPEBVIError_v1@AdobeXMPCommon@@@Z 00000001800a1ae8 f i MetadataImpl.obj
 0001:000a0b04       ?removeQualifier@INode_I@AdobeXMPCore_Int@@$R2FA@CE@PPPPPPPM@DI@EAAPEAVINode_v1@AdobeXMPCore@@PEBD_K01AEAPEBVIError_v1@AdobeXMPCommon@@@Z 00000001800a1b04 f i MetadataImpl.obj
 0001:000a0b20       ?HasContent@StructureNodeImpl@AdobeXMPCore_Int@@$4PPPPPPPM@A@EBA_NXZ 00000001800a1b20 f i MetadataImpl.obj
 0001:000a0b2c       ?GetQualifierNodeType@NodeImpl@AdobeXMPCore_Int@@$R4FA@DM@PPPPPPPM@KI@EBA?AW4eNodeType@INode_v1@AdobeXMPCore@@PEBD_K01@Z 00000001800a1b2c f i MetadataImpl.obj
 0001:000a0b48       ?GetISharedObject_I@ISharedObject_I@AdobeXMPCommon_Int@@$R4CA@BM@PPPPPPPM@BA@EAAPEAV12@XZ 00000001800a1b48 f i MetadataImpl.obj
 0001:000a0b64       ?GetIStructureNode_I@IStructureNode_I@AdobeXMPCore_Int@@$R4GI@DA@PPPPPPPM@GI@EAAPEAV12@XZ 00000001800a1b64 f i MetadataImpl.obj
 0001:000a0b7c       ?removeNode@IStructureNode_I@AdobeXMPCore_Int@@$2PPPPPPPM@A@EAAPEAVINode_v1@AdobeXMPCore@@PEBD_K01AEAPEBVIError_v1@AdobeXMPCommon@@@Z 00000001800a1b7c f i MetadataImpl.obj
 0001:000a0b88       ?convertToSimpleNode@INode_I@AdobeXMPCore_Int@@$R2DA@CE@PPPPPPPM@DI@EAAPEAVISimpleNode_v1@AdobeXMPCore@@AEAPEBVIError_v1@AdobeXMPCommon@@@Z 00000001800a1b88 f i MetadataImpl.obj
 0001:000a0ba4       ?getIndex@INode_I@AdobeXMPCore_Int@@$R2DA@CE@PPPPPPPM@DI@EBA_KAEAPEBVIError_v1@AdobeXMPCommon@@@Z 00000001800a1ba4 f i MetadataImpl.obj
 0001:000a0bc0       ??_EIMetadata_v1@AdobeXMPCore@@O7EAAPEAXI@Z 00000001800a1bc0 f i MetadataImpl.obj
 0001:000a0bcc       ?GetIStructureNode_I@IStructureNode_I@AdobeXMPCore_Int@@$R4II@DA@PPPPPPPM@GI@EAAPEAV12@XZ 00000001800a1bcc f i MetadataImpl.obj
 0001:000a0be8       ?GetIndex@NodeImpl@AdobeXMPCore_Int@@$R4FI@EE@PPPPPPPM@KI@EBA_KXZ 00000001800a1be8 f i MetadataImpl.obj
 0001:000a0c04       ?EnableThreadSafety@ThreadSafeImpl@AdobeXMPCore_Int@@$R2EI@EA@PPPPPPPM@CI@EBAXXZ 00000001800a1c04 f i MetadataImpl.obj
 0001:000a0c20       ?InsertNodeAtPath@CompositeNodeImpl@AdobeXMPCore_Int@@$R4GI@EA@PPPPPPPM@GA@EAAXAEBV?$shared_ptr@VINode_v1@AdobeXMPCore@@@std@@AEBV?$shared_ptr@$$CBVIPath_v1@AdobeXMPCore@@@4@@Z 00000001800a1c20 f i MetadataImpl.obj
 0001:000a0c3c       ?convertToSimpleNode@INode_I@AdobeXMPCore_Int@@$R2FA@CE@PPPPPPPM@DI@EAAPEAVISimpleNode_v1@AdobeXMPCore@@AEAPEBVIError_v1@AdobeXMPCommon@@@Z 00000001800a1c3c f i MetadataImpl.obj
 0001:000a0c58       ?getIndex@INode_I@AdobeXMPCore_Int@@$R2FA@CE@PPPPPPPM@DI@EBA_KAEAPEBVIError_v1@AdobeXMPCommon@@@Z 00000001800a1c58 f i MetadataImpl.obj
 0001:000a0c74       ?GetNameSpace@NodeImpl@AdobeXMPCore_Int@@$R4FA@DM@PPPPPPPM@KI@EBA?AV?$shared_ptr@$$CBVIUTF8String_v1@AdobeXMPCommon@@@std@@XZ 00000001800a1c74 f i MetadataImpl.obj
 0001:000a0c90       ?getNode@IStructureNode_I@AdobeXMPCore_Int@@$R2GI@DA@PPPPPPPM@GI@EAAPEAVINode_v1@AdobeXMPCore@@PEBD_K01AEAPEBVIError_v1@AdobeXMPCommon@@@Z 00000001800a1c90 f i MetadataImpl.obj
 0001:000a0ca8       ?getPath@INode_I@AdobeXMPCore_Int@@$R2DI@CI@PPPPPPPM@DI@EBAPEAVIPath_v1@AdobeXMPCore@@AEAPEBVIError_v1@AdobeXMPCommon@@@Z 00000001800a1ca8 f i MetadataImpl.obj
 0001:000a0cc0       ?getNode@IStructureNode_I@AdobeXMPCore_Int@@$R2II@DA@PPPPPPPM@GI@EAAPEAVINode_v1@AdobeXMPCore@@PEBD_K01AEAPEBVIError_v1@AdobeXMPCommon@@@Z 00000001800a1cc0 f i MetadataImpl.obj
 0001:000a0cdc       ?getPath@INode_I@AdobeXMPCore_Int@@$R2FI@CI@PPPPPPPM@DI@EBAPEAVIPath_v1@AdobeXMPCore@@AEAPEBVIError_v1@AdobeXMPCommon@@@Z 00000001800a1cdc f i MetadataImpl.obj
 0001:000a0cf8       ?GetNodeType@StructureNodeImpl@AdobeXMPCore_Int@@$R4FI@EM@PPPPPPPM@FA@EBA?AW4eNodeType@INode_v1@AdobeXMPCore@@XZ 00000001800a1cf8 f i MetadataImpl.obj
 0001:000a0d14       ?AcquireInternal@NodeImpl@AdobeXMPCore_Int@@$R4JI@DM@PPPPPPPM@MA@EBAXXZ 00000001800a1d14 f i MetadataImpl.obj
 0001:000a0d30       ?HasQualifiers@NodeImpl@AdobeXMPCore_Int@@$R4FA@DM@PPPPPPPM@KI@EBA_NXZ 00000001800a1d30 f i MetadataImpl.obj
 0001:000a0d4c       ?GetISharedObject_I@IMetadata_I@AdobeXMPCore_Int@@$4PPPPPPPM@A@EAAPEAVISharedObject_I@AdobeXMPCommon_Int@@XZ 00000001800a1d4c f i MetadataImpl.obj
 0001:000a0d58       ?insertNodeAtPath@ICompositeNode_I@AdobeXMPCore_Int@@$R2EI@CI@PPPPPPPM@EI@EAAXPEAVINode_v1@AdobeXMPCore@@PEBVIPath_v1@4@AEAPEBVIError_v1@AdobeXMPCommon@@@Z 00000001800a1d58 f i MetadataImpl.obj
 0001:000a0d70       ?RemoveNode@MetadataImpl@AdobeXMPCore_Int@@$2PPPPPPPM@A@EAA?AV?$shared_ptr@VINode_v1@AdobeXMPCore@@@std@@AEBV?$shared_ptr@$$CBVIUTF8String_v1@AdobeXMPCommon@@@4@0@Z 00000001800a1d70 f i MetadataImpl.obj
 0001:000a0d7c       ?GetIThreadSafe_I@IThreadSafe_I@AdobeXMPCommon_Int@@$R4EI@CE@PPPPPPPM@BA@EAAPEAV12@XZ 00000001800a1d7c f i MetadataImpl.obj
 0001:000a0d98       ?DisableThreadSafety@ThreadSafeImpl@AdobeXMPCore_Int@@$R2EI@EA@PPPPPPPM@CI@EBAXXZ 00000001800a1d98 f i MetadataImpl.obj
 0001:000a0db4       ?getInterfacePointer@IMetadata_I@AdobeXMPCore_Int@@$R2DI@DE@PPPPPPPM@CA@EAAPEAX_KKAEAPEBVIError_v1@AdobeXMPCommon@@@Z 00000001800a1db4 f i MetadataImpl.obj
 0001:000a0dd0       ?Acquire@NodeImpl@AdobeXMPCore_Int@@$R4CI@EE@PPPPPPPM@HI@EBAXXZ 00000001800a1dd0 f i MetadataImpl.obj
 0001:000a0dec       ?insertNodeAtPath@ICompositeNode_I@AdobeXMPCore_Int@@$R2GI@CI@PPPPPPPM@EI@EAAXPEAVINode_v1@AdobeXMPCore@@PEBVIPath_v1@4@AEAPEBVIError_v1@AdobeXMPCommon@@@Z 00000001800a1dec f i MetadataImpl.obj
 0001:000a0e08       ?iterator@ICompositeNode_I@AdobeXMPCore_Int@@$R2FA@CM@PPPPPPPM@EI@EAAPEAVINodeIterator_v1@AdobeXMPCore@@AEAPEBVIError_v1@AdobeXMPCommon@@@Z 00000001800a1e08 f i MetadataImpl.obj
 0001:000a0e24       ?replaceNodeAtPath@ICompositeNode_I@AdobeXMPCore_Int@@$R2FA@CM@PPPPPPPM@EI@EAAPEAVINode_v1@AdobeXMPCore@@PEAV34@PEBVIPath_v1@4@AEAPEBVIError_v1@AdobeXMPCommon@@@Z 00000001800a1e24 f i MetadataImpl.obj
 0001:000a0e40       ?clone@INode_I@AdobeXMPCore_Int@@$R2DI@CI@PPPPPPPM@DI@EBAPEAVINode_v1@AdobeXMPCore@@KKAEAPEBVIError_v1@AdobeXMPCommon@@@Z 00000001800a1e40 f i MetadataImpl.obj
 0001:000a0e58       ?qualifiersIterator@INode_I@AdobeXMPCore_Int@@$R2DI@CI@PPPPPPPM@DI@EAAPEAVINodeIterator_v1@AdobeXMPCore@@AEAPEBVIError_v1@AdobeXMPCommon@@@Z 00000001800a1e58 f i MetadataImpl.obj
 0001:000a0e70       ?isEmpty@INode_I@AdobeXMPCore_Int@@$R2DA@CE@PPPPPPPM@DI@EBAKAEAPEBVIError_v1@AdobeXMPCommon@@@Z 00000001800a1e70 f i MetadataImpl.obj
 0001:000a0e8c       ?hasContent@INode_I@AdobeXMPCore_Int@@$R2DA@CE@PPPPPPPM@DI@EBAKAEAPEBVIError_v1@AdobeXMPCommon@@@Z 00000001800a1e8c f i MetadataImpl.obj
 0001:000a0ea8       ?iterator@ICompositeNode_I@AdobeXMPCore_Int@@$R2HA@CM@PPPPPPPM@EI@EAAPEAVINodeIterator_v1@AdobeXMPCore@@AEAPEBVIError_v1@AdobeXMPCommon@@@Z 00000001800a1ea8 f i MetadataImpl.obj
 0001:000a0ec4       ?replaceNodeAtPath@ICompositeNode_I@AdobeXMPCore_Int@@$R2HA@CM@PPPPPPPM@EI@EAAPEAVINode_v1@AdobeXMPCore@@PEAV34@PEBVIPath_v1@4@AEAPEBVIError_v1@AdobeXMPCommon@@@Z 00000001800a1ec4 f i MetadataImpl.obj
 0001:000a0ee0       ?clone@INode_I@AdobeXMPCore_Int@@$R2FI@CI@PPPPPPPM@DI@EBAPEAVINode_v1@AdobeXMPCore@@KKAEAPEBVIError_v1@AdobeXMPCommon@@@Z 00000001800a1ee0 f i MetadataImpl.obj
