 XMPCore

 Timestamp is 5743faa2 (Tue May 24 12:24:26 2016)

 Preferred load address is 0000000180000000

 Start         Length     Name                   Class
 0001:00000000 00000409H .text$di                CODE
 0001:00000410 0009ccf4H .text$mn                CODE
 0001:0009d110 00000012H .text$mn$00             CODE
 0001:0009d122 00015374H .text$x                 CODE
 0001:000b2498 000002efH .text$yd                CODE
 0002:00000000 000003d8H .idata$5                DATA
 0002:000003d8 00000010H .00cfg                  DATA
 0002:000003e8 00000008H .CRT$XCA                DATA
 0002:000003f0 00000050H .CRT$XCU                DATA
 0002:00000440 00000008H .CRT$XCZ                DATA
 0002:00000448 00000008H .CRT$XIA                DATA
 0002:00000450 00000010H .CRT$XIC                DATA
 0002:00000460 00000008H .CRT$XIZ                DATA
 0002:00000468 00000008H .CRT$XLA                DATA
 0002:00000470 00000008H .CRT$XLZ                DATA
 0002:00000478 00000008H .CRT$XPA                DATA
 0002:00000480 00000008H .CRT$XPZ                DATA
 0002:00000488 00000008H .CRT$XTA                DATA
 0002:00000490 00000008H .CRT$XTZ                DATA
 0002:000004a0 00017f44H .rdata                  DATA
 0002:000183e8 00000028H .rdata$T                DATA
 0002:00018410 0000a2a4H .rdata$r                DATA
 0002:000226b4 00000384H .rdata$zzzdbg           DATA
 0002:00022a38 00000008H .rtc$IAA                DATA
 0002:00022a40 00000008H .rtc$IZZ                DATA
 0002:00022a48 00000008H .rtc$TAA                DATA
 0002:00022a50 00000008H .rtc$TZZ                DATA
 0002:00022a60 0001ebb8H .xdata                  DATA
 0002:00041618 0000024cH .xdata$x                DATA
 0002:00041870 00000e65H .edata                  DATA
 0002:000426d8 000000dcH .idata$2                DATA
 0002:000427b4 00000014H .idata$3                DATA
 0002:000427c8 000003d8H .idata$4                DATA
 0002:00042ba0 00001056H .idata$6                DATA
 0003:00000000 00000354H .data                   DATA
 0003:00000360 000035f6H .data$r                 DATA
 0003:00003960 00000850H .bss                    DATA
 0004:00000000 000072e4H .pdata                  DATA
 0005:00000000 00000020H .gfids$y                DATA
 0006:00000000 00000001H .tls                    DATA
 0006:00000004 00000004H .tls$                   DATA
 0006:00000008 00000001H .tls$ZZZ                DATA
 0007:00000000 000000a0H .rsrc$01                DATA
 0007:000000a0 00000470H .rsrc$02                DATA

  Address         Publics by Value              Rva+Base               Lib:Object

 0000:00000000       ___safe_se_handler_table   0000000000000000     <absolute>
 0000:00000000       __guard_longjmp_table      0000000000000000     <absolute>
 0000:00000000       __guard_iat_table          0000000000000000     <absolute>
 0000:00000000       __guard_longjmp_count      0000000000000000     <absolute>
 0000:00000000       __guard_fids_count         0000000000000000     <absolute>
 0000:00000000       __guard_iat_count          0000000000000000     <absolute>
 0000:00000000       ___safe_se_handler_count   0000000000000000     <absolute>
 0000:00000000       __guard_fids_table         0000000000000000     <absolute>
 0000:00000100       __guard_flags              0000000000000100     <absolute>
 0000:00000000       __ImageBase                0000000180000000     <linker-defined>
 0001:00000410       ??0XMP_AutoLock@@QEAA@PEBVXMP_ReadWriteLock@@_N1@Z 0000000180001410 f i WXMPIterator.obj
 0001:000004d0       ??1XMP_AutoLock@@QEAA@XZ   00000001800014d0 f i WXMPIterator.obj
 0001:000004f4       ?Release@XMP_AutoLock@@QEAAXXZ 00000001800014f4 f i WXMPIterator.obj
 0001:000005fc       WXMPIterator_PropCTor_1    00000001800015fc f   WXMPIterator.obj
 0001:000006b4       WXMPIterator_TableCTor_1   00000001800016b4 f   WXMPIterator.obj
 0001:0000073c       WXMPIterator_IncrementRefCount_1 000000018000173c f   WXMPIterator.obj
 0001:0000073c       WXMPMeta_IncrementRefCount_1 000000018000173c f   WXMPMeta.obj
 0001:0000078c       WXMPIterator_DecrementRefCount_1 000000018000178c f   WXMPIterator.obj
 0001:0000078c       WXMPMeta_DecrementRefCount_1 000000018000178c f   WXMPMeta.obj
 0001:00000808       WXMPIterator_Next_1        0000000180001808 f   WXMPIterator.obj
 0001:000009a0       WXMPIterator_Skip_1        00000001800019a0 f   WXMPIterator.obj
 0001:00000a38       ?_Deallocate@std@@YAXPEAX_K1@Z 0000000180001a38 f i WXMPMeta.obj
 0001:00000ab0       WXMPMeta_GetVersionInfo_1  0000000180001ab0 f   WXMPMeta.obj
 0001:00000ae8       WXMPMeta_Initialize_1      0000000180001ae8 f   WXMPMeta.obj
 0001:00000b14       WXMPMeta_Terminate_1       0000000180001b14 f   WXMPMeta.obj
 0001:00000b2c       WXMPMeta_CTor_1            0000000180001b2c f   WXMPMeta.obj
 0001:00000ba8       WXMPMeta_GetGlobalOptions_1 0000000180001ba8 f   WXMPMeta.obj
 0001:00000bb4       WXMPMeta_SetGlobalOptions_1 0000000180001bb4 f   WXMPMeta.obj
 0001:00000bfc       WXMPMeta_DumpNamespaces_1  0000000180001bfc f   WXMPMeta.obj
 0001:00000c58       WXMPMeta_RegisterNamespace_1 0000000180001c58 f   WXMPMeta.obj
 0001:00000d34       WXMPMeta_GetNamespacePrefix_1 0000000180001d34 f   WXMPMeta.obj
 0001:00000de4       WXMPMeta_GetNamespaceURI_1 0000000180001de4 f   WXMPMeta.obj
 0001:00000e90       WXMPMeta_DeleteNamespace_1 0000000180001e90 f   WXMPMeta.obj
 0001:00000f0c       WXMPMeta_GetProperty_1     0000000180001f0c f   WXMPMeta.obj
 0001:00001070       WXMPMeta_GetArrayItem_1    0000000180002070 f   WXMPMeta.obj
 0001:000011ec       WXMPMeta_GetStructField_1  00000001800021ec f   WXMPMeta.obj
 0001:000013fc       WXMPMeta_GetQualifier_1    00000001800023fc f   WXMPMeta.obj
 0001:0000160c       WXMPMeta_SetProperty_1     000000018000260c f   WXMPMeta.obj
 0001:00001718       WXMPMeta_SetArrayItem_1    0000000180002718 f   WXMPMeta.obj
 0001:00001830       WXMPMeta_AppendArrayItem_1 0000000180002830 f   WXMPMeta.obj
 0001:00001948       WXMPMeta_SetStructField_1  0000000180002948 f   WXMPMeta.obj
 0001:00001af0       WXMPMeta_SetQualifier_1    0000000180002af0 f   WXMPMeta.obj
 0001:00001c98       WXMPMeta_DeleteProperty_1  0000000180002c98 f   WXMPMeta.obj
 0001:00001d80       WXMPMeta_DeleteArrayItem_1 0000000180002d80 f   WXMPMeta.obj
 0001:00001e78       WXMPMeta_DeleteStructField_1 0000000180002e78 f   WXMPMeta.obj
 0001:00002000       WXMPMeta_DeleteQualifier_1 0000000180003000 f   WXMPMeta.obj
 0001:00002188       WXMPMeta_DoesPropertyExist_1 0000000180003188 f   WXMPMeta.obj
 0001:00002274       WXMPMeta_DoesArrayItemExist_1 0000000180003274 f   WXMPMeta.obj
 0001:000023f0       WXMPMeta_DoesStructFieldExist_1 00000001800033f0 f   WXMPMeta.obj
 0001:00002624       WXMPMeta_DoesQualifierExist_1 0000000180003624 f   WXMPMeta.obj
 0001:00002858       WXMPMeta_GetLocalizedText_1 0000000180003858 f   WXMPMeta.obj
 0001:00002a7c       WXMPMeta_SetLocalizedText_1 0000000180003a7c f   WXMPMeta.obj
 0001:00002bfc       WXMPMeta_DeleteLocalizedText_1 0000000180003bfc f   WXMPMeta.obj
 0001:00002d4c       WXMPMeta_GetProperty_Bool_1 0000000180003d4c f   WXMPMeta.obj
 0001:00002ef8       WXMPMeta_GetProperty_Int_1 0000000180003ef8 f   WXMPMeta.obj
 0001:00003098       WXMPMeta_GetProperty_Int64_1 0000000180004098 f   WXMPMeta.obj
 0001:000031c4       WXMPMeta_GetProperty_Float_1 00000001800041c4 f   WXMPMeta.obj
 0001:000032f0       WXMPMeta_GetProperty_Date_1 00000001800042f0 f   WXMPMeta.obj
 0001:0000348c       WXMPMeta_SetProperty_Bool_1 000000018000448c f   WXMPMeta.obj
 0001:00003598       WXMPMeta_SetProperty_Int_1 0000000180004598 f   WXMPMeta.obj
 0001:00003730       WXMPMeta_SetProperty_Int64_1 0000000180004730 f   WXMPMeta.obj
 0001:000038c8       WXMPMeta_SetProperty_Float_1 00000001800048c8 f   WXMPMeta.obj
 0001:00003a6c       WXMPMeta_SetProperty_Date_1 0000000180004a6c f   WXMPMeta.obj
 0001:00003c00       WXMPMeta_DumpObject_1      0000000180004c00 f   WXMPMeta.obj
 0001:00003ca8       WXMPMeta_Sort_1            0000000180004ca8 f   WXMPMeta.obj
 0001:00003d0c       WXMPMeta_Erase_1           0000000180004d0c f   WXMPMeta.obj
 0001:00003d70       WXMPMeta_Clone_1           0000000180004d70 f   WXMPMeta.obj
 0001:00003e80       WXMPMeta_CountArrayItems_1 0000000180004e80 f   WXMPMeta.obj
 0001:00003f6c       WXMPMeta_GetObjectName_1   0000000180004f6c f   WXMPMeta.obj
 0001:00004008       WXMPMeta_SetObjectName_1   0000000180005008 f   WXMPMeta.obj
 0001:00004088       WXMPMeta_GetObjectOptions_1 0000000180005088 f   WXMPMeta.obj
 0001:000040d4       WXMPMeta_SetObjectOptions_1 00000001800050d4 f   WXMPMeta.obj
 0001:0000414c       WXMPMeta_ParseFromBuffer_1 000000018000514c f   WXMPMeta.obj
 0001:000041d4       WXMPMeta_SerializeToBuffer_1 00000001800051d4 f   WXMPMeta.obj
 0001:00004334       WXMPMeta_SetDefaultErrorCallback_1 0000000180005334 f   WXMPMeta.obj
 0001:0000435c       WXMPMeta_SetErrorCallback_1 000000018000535c f   WXMPMeta.obj
 0001:000043f4       WXMPMeta_ResetErrorCallbackLimit_1 00000001800053f4 f   WXMPMeta.obj
 0001:00004464       ??1?$basic_string@DU?$char_traits@D@std@@V?$allocator@D@2@@std@@QEAA@XZ 0000000180005464 f i WXMPMeta.obj
 0001:00004464       ??1XPathStepInfo@@QEAA@XZ  0000000180005464 f i XMPIterator.obj
 0001:000044a8       ?_Tidy@?$basic_string@DU?$char_traits@D@std@@V?$allocator@D@2@@std@@QEAAX_N_K@Z 00000001800054a8 f i WXMPMeta.obj
 0001:00004518       WXMPUtils_ComposeArrayItemPath_1 0000000180005518 f   WXMPUtils.obj
 0001:0000464c       WXMPUtils_ComposeStructFieldPath_1 000000018000564c f   WXMPUtils.obj
 0001:0000481c       WXMPUtils_ComposeQualifierPath_1 000000018000581c f   WXMPUtils.obj
 0001:000049ec       WXMPUtils_ComposeLangSelector_1 00000001800059ec f   WXMPUtils.obj
 0001:00004b64       WXMPUtils_ComposeFieldSelector_1 0000000180005b64 f   WXMPUtils.obj
 0001:00004d58       WXMPUtils_ConvertFromBool_1 0000000180005d58 f   WXMPUtils.obj
 0001:00004e40       WXMPUtils_ConvertFromInt_1 0000000180005e40 f   WXMPUtils.obj
 0001:00004f04       WXMPUtils_ConvertFromInt64_1 0000000180005f04 f   WXMPUtils.obj
 0001:00004fc8       WXMPUtils_ConvertFromFloat_1 0000000180005fc8 f   WXMPUtils.obj
 0001:0000508c       WXMPUtils_ConvertFromDate_1 000000018000608c f   WXMPUtils.obj
 0001:0000512c       WXMPUtils_ConvertToBool_1  000000018000612c f   WXMPUtils.obj
 0001:00005190       WXMPUtils_ConvertToInt_1   0000000180006190 f   WXMPUtils.obj
 0001:000051f0       WXMPUtils_ConvertToInt64_1 00000001800061f0 f   WXMPUtils.obj
 0001:00005250       WXMPUtils_ConvertToFloat_1 0000000180006250 f   WXMPUtils.obj
 0001:000052b0       WXMPUtils_ConvertToDate_1  00000001800062b0 f   WXMPUtils.obj
 0001:00005300       WXMPUtils_CurrentDateTime_1 0000000180006300 f   WXMPUtils.obj
 0001:00005350       WXMPUtils_SetTimeZone_1    0000000180006350 f   WXMPUtils.obj
 0001:000053a0       WXMPUtils_ConvertToUTCTime_1 00000001800063a0 f   WXMPUtils.obj
 0001:000053f0       WXMPUtils_ConvertToLocalTime_1 00000001800063f0 f   WXMPUtils.obj
 0001:00005488       WXMPUtils_CompareDateTime_1 0000000180006488 f   WXMPUtils.obj
 0001:00005594       WXMPUtils_EncodeToBase64_1 0000000180006594 f   WXMPUtils.obj
 0001:0000563c       WXMPUtils_DecodeFromBase64_1 000000018000663c f   WXMPUtils.obj
 0001:000056e4       WXMPUtils_PackageForJPEG_1 00000001800066e4 f   WXMPUtils.obj
 0001:000058c8       WXMPUtils_MergeFromJPEG_1  00000001800068c8 f   WXMPUtils.obj
 0001:000059f4       WXMPUtils_CatenateArrayItems_1 00000001800069f4 f   WXMPUtils.obj
 0001:00005bd0       WXMPUtils_SeparateArrayItems_1 0000000180006bd0 f   WXMPUtils.obj
 0001:00005d24       WXMPUtils_ApplyTemplate_1  0000000180006d24 f   WXMPUtils.obj
 0001:00005dc8       WXMPUtils_RemoveProperties_1 0000000180006dc8 f   WXMPUtils.obj
 0001:00005e90       WXMPUtils_DuplicateSubtree_1 0000000180006e90 f   WXMPUtils.obj
 0001:00006050       __local_stdio_printf_options 0000000180007050 f i XMPIterator.obj
 0001:00006058       _snprintf                  0000000180007058 f i XMPIterator.obj
 0001:000060b0       ?_Allocate@std@@YAPEAX_K0_N@Z 00000001800070b0 f i XMPIterator.obj
 0001:0000612c       ??0XMP_Node@@QEAA@PEAV0@PEBDK@Z 000000018000712c f i XMPIterator.obj
 0001:000061d8       ??1XMP_Node@@UEAA@XZ       00000001800071d8 f i XMPIterator.obj
 0001:0000634c       ??_EXMP_Node@@UEAAPEAXI@Z  000000018000734c f i * CIL library *:* CIL module *
 0001:0000634c       ??_GXMP_Node@@UEAAPEAXI@Z  000000018000734c f i XMPIterator.obj
 0001:00006380       ??0IterNode@@QEAA@KAEBV?$basic_string@DU?$char_traits@D@std@@V?$allocator@D@2@@std@@_K@Z 0000000180007380 f i XMPIterator.obj
 0001:000063ec       ??1IterNode@@QEAA@XZ       00000001800073ec f i XMPIterator.obj
 0001:00006448       ??_EXMPIterator@@UEAAPEAXI@Z 0000000180007448 f i * CIL library *:* CIL module *
 0001:00006448       ??_GXMPIterator@@UEAAPEAXI@Z 0000000180007448 f i XMPIterator.obj
 0001:0000647c       ??1IterInfo@@QEAA@XZ       000000018000747c f i XMPIterator.obj
 0001:00006d30       ??0XMPIterator@@QEAA@AEBVXMPMeta@@PEBD1K@Z 0000000180007d30 f   XMPIterator.obj
 0001:000072bc       ??0XMPIterator@@QEAA@PEBD0K@Z 00000001800082bc f   XMPIterator.obj
 0001:000073c4       ??1XMPIterator@@UEAA@XZ    00000001800083c4 f   XMPIterator.obj
 0001:000073f0       ?Next@XMPIterator@@UEAA_NPEAPEBDPEAK01011@Z 00000001800083f0 f   XMPIterator.obj
 0001:0000758c       ?Skip@XMPIterator@@UEAAXK@Z 000000018000858c f   XMPIterator.obj
 0001:00007628       ?push_back@?$vector@U?$pair@V?$_Vector_iterator@V?$_Vector_val@U?$_Simple_types@UIterNode@@@std@@@std@@@std@@V12@@std@@V?$allocator@U?$pair@V?$_Vector_iterator@V?$_Vector_val@U?$_Simple_types@UIterNode@@@std@@@std@@@std@@V12@@std@@@2@@std@@QEAAX$$QEAU?$pair@V?$_Vector_iterator@V?$_Vector_val@U?$_Simple_types@UIterNode@@@std@@@std@@@std@@V12@@2@@Z 0000000180008628 f i XMPIterator.obj
 0001:00007778       ??1?$vector@UIterNode@@V?$allocator@UIterNode@@@std@@@std@@QEAA@XZ 0000000180008778 f i XMPIterator.obj
 0001:000077f8       ?push_back@?$vector@UIterNode@@V?$allocator@UIterNode@@@std@@@std@@QEAAX$$QEAUIterNode@@@Z 00000001800087f8 f i XMPIterator.obj
 0001:00007878       ??1?$vector@VXPathStepInfo@@V?$allocator@VXPathStepInfo@@@std@@@std@@QEAA@XZ 0000000180008878 f i XMPIterator.obj
 0001:00007880       ??1?$vector@PEAVXMP_Node@@V?$allocator@PEAVXMP_Node@@@std@@@std@@QEAA@XZ 0000000180008880 f i XMPIterator.obj
 0001:00007880       ??1?$vector@_KV?$allocator@_K@std@@@std@@QEAA@XZ 0000000180008880 f i ConfigurableImpl.obj
 0001:000078bc       ??0?$basic_string@DU?$char_traits@D@std@@V?$allocator@D@2@@std@@QEAA@$$QEAV01@@Z 00000001800088bc f i XMPIterator.obj
 0001:00007938       ??0?$basic_string@DU?$char_traits@D@std@@V?$allocator@D@2@@std@@QEAA@PEBD@Z 0000000180008938 f i XMPIterator.obj
 0001:00007984       ?_Reserve@?$vector@UIterNode@@V?$allocator@UIterNode@@@std@@@std@@IEAAX_K@Z 0000000180008984 f i XMPIterator.obj
 0001:00007a38       ?_Tidy@?$vector@VXPathStepInfo@@V?$allocator@VXPathStepInfo@@@std@@@std@@IEAAXXZ 0000000180008a38 f i XMPIterator.obj
 0001:00007af0       ?assign@?$basic_string@DU?$char_traits@D@std@@V?$allocator@D@2@@std@@QEAAAEAV12@PEBD_K@Z 0000000180008af0 f i XMPIterator.obj
 0001:00007bf4       ?assign@?$basic_string@DU?$char_traits@D@std@@V?$allocator@D@2@@std@@QEAAAEAV12@AEBV12@_K1@Z 0000000180008bf4 f i XMPIterator.obj
 0001:00007d14       ?append@?$basic_string@DU?$char_traits@D@std@@V?$allocator@D@2@@std@@QEAAAEAV12@_KD@Z 0000000180008d14 f i XMPIterator.obj
 0001:00007e10       ?append@?$basic_string@DU?$char_traits@D@std@@V?$allocator@D@2@@std@@QEAAAEAV12@PEBD_K@Z 0000000180008e10 f i XMPIterator.obj
 0001:00007f48       ?append@?$basic_string@DU?$char_traits@D@std@@V?$allocator@D@2@@std@@QEAAAEAV12@AEBV12@_K1@Z 0000000180008f48 f i XMPIterator.obj
 0001:00008064       ?_Reallocate@?$vector@U?$pair@V?$_Vector_iterator@V?$_Vector_val@U?$_Simple_types@UIterNode@@@std@@@std@@@std@@V12@@std@@V?$allocator@U?$pair@V?$_Vector_iterator@V?$_Vector_val@U?$_Simple_types@UIterNode@@@std@@@std@@@std@@V12@@std@@@2@@std@@IEAAX_K@Z 0000000180009064 f i XMPIterator.obj
 0001:000080f0       ?_Reallocate@?$vector@UIterNode@@V?$allocator@UIterNode@@@std@@@std@@IEAAX_K@Z 00000001800090f0 f i XMPIterator.obj
 0001:000081dc       ?_Destroy@?$vector@VXPathStepInfo@@V?$allocator@VXPathStepInfo@@@std@@@std@@IEAAXPEAVXPathStepInfo@@0@Z 00000001800091dc f i XMPIterator.obj
 0001:00008244       ?_Grow@?$basic_string@DU?$char_traits@D@std@@V?$allocator@D@2@@std@@QEAA_N_K_N@Z 0000000180009244 f i XMPIterator.obj
 0001:00008324       ?erase@?$basic_string@DU?$char_traits@D@std@@V?$allocator@D@2@@std@@QEAAAEAV12@_K0@Z 0000000180009324 f i XMPIterator.obj
 0001:00008324       ?erase@?$basic_string@DU?$char_traits@D@std@@V?$TAllocator@D@AdobeXMPCore_Int@@@std@@QEAAAEAV12@_K0@Z 0000000180009324 f i MetadataImpl.obj
 0001:000083c4       ?_Copy@?$basic_string@DU?$char_traits@D@std@@V?$allocator@D@2@@std@@QEAAX_K0@Z 00000001800093c4 f i XMPIterator.obj
 0001:000084dc       ??$construct@UIterNode@@U1@@?$_Wrap_alloc@V?$allocator@UIterNode@@@std@@@std@@QEAAXPEAUIterNode@@$$QEAU2@@Z 00000001800094dc f i XMPIterator.obj
 0001:0000858c       ??$_Uninit_move@PEAU?$pair@V?$_Vector_iterator@V?$_Vector_val@U?$_Simple_types@UIterNode@@@std@@@std@@@std@@V12@@std@@PEAU12@V?$allocator@U?$pair@V?$_Vector_iterator@V?$_Vector_val@U?$_Simple_types@UIterNode@@@std@@@std@@@std@@V12@@std@@@2@U12@@std@@YAPEAU?$pair@V?$_Vector_iterator@V?$_Vector_val@U?$_Simple_types@UIterNode@@@std@@@std@@@std@@V12@@0@PEAU10@00AEAU?$_Wrap_alloc@V?$allocator@U?$pair@V?$_Vector_iterator@V?$_Vector_val@U?$_Simple_types@UIterNode@@@std@@@std@@@std@@V12@@std@@@std@@@0@0U_Nonscalar_ptr_iterator_tag@0@@Z 000000018000958c f i XMPIterator.obj
 0001:000085ac       ??$_Uninit_move@PEAUIterNode@@PEAU1@V?$allocator@UIterNode@@@std@@U1@@std@@YAPEAUIterNode@@PEAU1@00AEAU?$_Wrap_alloc@V?$allocator@UIterNode@@@std@@@0@0U_Nonscalar_ptr_iterator_tag@0@@Z 00000001800095ac f i XMPIterator.obj
 0001:000085f4       ?Acquire@IErrorProxy@AdobeXMPCommon@@UEBAXXZ 00000001800095f4 f i IError.obj
 0001:000085f4       _guard_check_icall_nop     00000001800095f4 f i MSVCRT:guard_support.obj
 0001:000085f4       ?__global_delete@@YAXPEAX_K@Z 00000001800095f4 f i * CIL library *:* CIL module *
 0001:000085f4       ?__empty_global_delete@@YAXPEAX_K@Z 00000001800095f4 f i ArrayNodeImpl.obj
 0001:000085f4       ?Sort@XMPMeta2@@UEAAXXZ    00000001800095f4 f i XMPMeta2-GetSet.obj
 0001:000085f4       ?SetName@MetadataImpl@AdobeXMPCore_Int@@MEAAXPEBD_K@Z 00000001800095f4 f i MetadataImpl.obj
 0001:000085f4       ?Release@IErrorProxy@AdobeXMPCommon@@UEBAXXZ 00000001800095f4 f i IError.obj
 0001:000085f4       ?Acquire@IUTF8StringProxy@AdobeXMPCommon@@UEBAXXZ 00000001800095f4 f i IUTF8String.obj
 0001:000085f4       ?Release@IUTF8StringProxy@AdobeXMPCommon@@UEBAXXZ 00000001800095f4 f i IUTF8String.obj
 0001:000085f4       ?resetChangesForChildren@SimpleNodeImpl@AdobeXMPCore_Int@@MEBAXXZ 00000001800095f4 f i SimpleNodeImpl.obj
 0001:000085f4       ??3@YAXPEAX0@Z             00000001800095f4 f i XMPIterator2.obj
 0001:000085f4       ?SetNameSpace@MetadataImpl@AdobeXMPCore_Int@@MEAAXPEBD_K@Z 00000001800095f4 f i MetadataImpl.obj
 0001:000085f8       ?ConvertToSimpleNode@INode_v1@AdobeXMPCore@@QEBA?AV?$shared_ptr@$$CBVISimpleNode_v1@AdobeXMPCore@@@std@@XZ 00000001800095f8 f i XMPIterator2.obj
 0001:00008674       ?GetNode@INodeIterator_v1@AdobeXMPCore@@QEBA?AV?$shared_ptr@$$CBVINode_v1@AdobeXMPCore@@@std@@XZ 0000000180009674 f i XMPIterator2.obj
 0001:000086ec       ?Next@INodeIterator_v1@AdobeXMPCore@@QEBA?AV?$shared_ptr@$$CBVINodeIterator_v1@AdobeXMPCore@@@std@@XZ 00000001800096ec f i XMPIterator2.obj
 0001:000086ec       ?GetNodeAtIndex@IArrayNode_v1@AdobeXMPCore@@QEBA?AV?$shared_ptr@$$CBVINode_v1@AdobeXMPCore@@@std@@_K@Z 00000001800096ec f i XMPUtils.obj
 0001:000086ec       ?GetParent@INode_v1@AdobeXMPCore@@QEBA?AV?$shared_ptr@$$CBVINode_v1@AdobeXMPCore@@@std@@XZ 00000001800096ec f i XMPMeta2-GetSet.obj
 0001:00008764       ??1?$map@V?$basic_string@DU?$char_traits@D@std@@V?$allocator@D@2@@std@@_NU?$less@V?$basic_string@DU?$char_traits@D@std@@V?$allocator@D@2@@std@@@2@V?$allocator@U?$pair@$$CBV?$basic_string@DU?$char_traits@D@std@@V?$allocator@D@2@@std@@_N@std@@@2@@std@@QEAA@XZ 0000000180009764 f i XMPIterator2.obj
 0001:0000876c       ??1?$_Tree@V?$_Tmap_traits@V?$basic_string@DU?$char_traits@D@std@@V?$allocator@D@2@@std@@_NU?$less@V?$basic_string@DU?$char_traits@D@std@@V?$allocator@D@2@@std@@@2@V?$allocator@U?$pair@$$CBV?$basic_string@DU?$char_traits@D@std@@V?$allocator@D@2@@std@@_N@std@@@2@$0A@@std@@@std@@QEAA@XZ 000000018000976c f i XMPIterator2.obj
 0001:00008830       ??A?$map@V?$basic_string@DU?$char_traits@D@std@@V?$allocator@D@2@@std@@_NU?$less@V?$basic_string@DU?$char_traits@D@std@@V?$allocator@D@2@@std@@@2@V?$allocator@U?$pair@$$CBV?$basic_string@DU?$char_traits@D@std@@V?$allocator@D@2@@std@@_N@std@@@2@@std@@QEAAAEA_N$$QEAV?$basic_string@DU?$char_traits@D@std@@V?$allocator@D@2@@1@@Z 0000000180009830 f i XMPIterator2.obj
 0001:000088d4       ??1?$shared_ptr@VMetadataImpl@AdobeXMPCore_Int@@@std@@QEAA@XZ 00000001800098d4 f i MetadataImpl.obj
 0001:000088d4       ??1?$shared_ptr@VRDFDOMSerializerImpl@AdobeXMPCore_Int@@@std@@QEAA@XZ 00000001800098d4 f i DOMImplementationRegistryImpl.obj
 0001:000088d4       ??1?$shared_ptr@VIError_v1@AdobeXMPCommon@@@std@@QEAA@XZ 00000001800098d4 f i ClientDOMParserWrapperImpl.obj
 0001:000088d4       ??1?$shared_ptr@VIPath_v1@AdobeXMPCore@@@std@@QEAA@XZ 00000001800098d4 f i ICompositeNode_I.obj
 0001:000088d4       ??1?$shared_ptr@VXMPMeta@@@std@@QEAA@XZ 00000001800098d4 f i RDFDOMParserImpl.obj
 0001:000088d4       ??1?$shared_ptr@VICoreConfigurationManager_v1@AdobeXMPCore@@@std@@QEAA@XZ 00000001800098d4 f i CoreConfigurationManagerImpl.obj
 0001:000088d4       ??1?$shared_ptr@$$CBVIUTF8String_v1@AdobeXMPCommon@@@std@@QEAA@XZ 00000001800098d4 f i XMPIterator2.obj
 0001:000088d4       ??1?$shared_ptr@$$CBVISimpleNode_v1@AdobeXMPCore@@@std@@QEAA@XZ 00000001800098d4 f i XMPIterator2.obj
 0001:000088d4       ??1?$shared_ptr@VIDOMImplementationRegistry_v1@AdobeXMPCore@@@std@@QEAA@XZ 00000001800098d4 f i XMPMeta2-GetSet.obj
 0001:000088d4       ??1?$shared_ptr@VIError_I@AdobeXMPCore_Int@@@std@@QEAA@XZ 00000001800098d4 f i IArrayNode_I.obj
 0001:000088d4       ??1?$shared_ptr@VINodeIterator_v1@AdobeXMPCore@@@std@@QEAA@XZ 00000001800098d4 f i XMPIterator2.obj
 0001:000088d4       ??1?$shared_ptr@$$CBVIPathSegment_v1@AdobeXMPCore@@@std@@QEAA@XZ 00000001800098d4 f i IPath_I.obj
 0001:000088d4       ??1?$shared_ptr@$$CBVIArrayNode_v1@AdobeXMPCore@@@std@@QEAA@XZ 00000001800098d4 f i XMPMeta2-GetSet.obj
 0001:000088d4       ??1?$shared_ptr@$$CBVIDOMSerializer_v1@AdobeXMPCore@@@std@@QEAA@XZ 00000001800098d4 f i IDOMImplementationRegistry_I.obj
 0001:000088d4       ??1?$shared_ptr@VIDOMParser_v1@AdobeXMPCore@@@std@@QEAA@XZ 00000001800098d4 f i XMPMeta2-GetSet.obj
 0001:000088d4       ??1?$shared_ptr@VIStructureNode_v1@AdobeXMPCore@@@std@@QEAA@XZ 00000001800098d4 f i XMPMeta2-GetSet.obj
 0001:000088d4       ??1?$shared_ptr@VIMetadata_v1@AdobeXMPCore@@@std@@QEAA@XZ 00000001800098d4 f i XMPIterator2.obj
 0001:000088d4       ??1?$shared_ptr@VISharedMutex@AdobeXMPCore_Int@@@std@@QEAA@XZ 00000001800098d4 f i ArrayNodeImpl.obj
 0001:000088d4       ??1?$shared_ptr@VRDFDOMParserImpl@AdobeXMPCore_Int@@@std@@QEAA@XZ 00000001800098d4 f i DOMImplementationRegistryImpl.obj
 0001:000088d4       ??1?$shared_ptr@VINameSpacePrefixMap_v1@AdobeXMPCore@@@std@@QEAA@XZ 00000001800098d4 f i IDOMSerializer_I.obj
 0001:000088d4       ??1?$shared_ptr@$$CBVINodeIterator_v1@AdobeXMPCore@@@std@@QEAA@XZ 00000001800098d4 f i XMPIterator2.obj
 0001:000088d4       ??1?$shared_ptr@$$CBVINameSpacePrefixMap_I@AdobeXMPCore_Int@@@std@@QEAA@XZ 00000001800098d4 f i RDFDOMSerializerImpl.obj
 0001:000088d4       ??1?$shared_ptr@VINode_v1@AdobeXMPCore@@@std@@QEAA@XZ 00000001800098d4 f i XMPIterator2.obj
 0001:000088d4       ??1?$shared_ptr@VIArrayNode_v1@AdobeXMPCore@@@std@@QEAA@XZ 00000001800098d4 f i XMPMeta2-GetSet.obj
 0001:000088d4       ??1?$shared_ptr@VISimpleNode_v1@AdobeXMPCore@@@std@@QEAA@XZ 00000001800098d4 f i XMPIterator2.obj
 0001:000088d4       ??1?$shared_ptr@$$CBVINode_v1@AdobeXMPCore@@@std@@QEAA@XZ 00000001800098d4 f i XMPIterator2.obj
 0001:000088d4       ??1?$shared_ptr@VIUTF8String_v1@AdobeXMPCommon@@@std@@QEAA@XZ 00000001800098d4 f i XMPMeta2-GetSet.obj
 0001:000088d4       ??1?$shared_ptr@$$CBVIError_v1@AdobeXMPCommon@@@std@@QEAA@XZ 00000001800098d4 f i IArrayNode_I.obj
 0001:000088d4       ??1?$shared_ptr@VINameSpacePrefixMap_I@AdobeXMPCore_Int@@@std@@QEAA@XZ 00000001800098d4 f i RDFDOMSerializerImpl.obj
 0001:000088d4       ??1?$shared_ptr@$$CBVINameSpacePrefixMap_v1@AdobeXMPCore@@@std@@QEAA@XZ 00000001800098d4 f i XMPIterator2.obj
 0001:000088d4       ??1?$shared_ptr@$$CBVIStructureNode_v1@AdobeXMPCore@@@std@@QEAA@XZ 00000001800098d4 f i XMPMeta2-GetSet.obj
 0001:000088d4       ??1?$shared_ptr@VUTF8StringImpl@AdobeXMPCore_Int@@@std@@QEAA@XZ 00000001800098d4 f i UTF8StringImpl.obj
 0001:000088d4       ??1?$shared_ptr@VIDOMSerializer_v1@AdobeXMPCore@@@std@@QEAA@XZ 00000001800098d4 f i XMPMeta2-GetSet.obj
 0001:000088d4       ??1?$shared_ptr@$$CBVIDOMParser_v1@AdobeXMPCore@@@std@@QEAA@XZ 00000001800098d4 f i IDOMImplementationRegistry_I.obj
 0001:00008914       ??4?$shared_ptr@$$CBVINodeIterator_v1@AdobeXMPCore@@@std@@QEAAAEAV01@$$QEAV01@@Z 0000000180009914 f i XMPIterator2.obj
 0001:00008914       ??4?$shared_ptr@VINode_v1@AdobeXMPCore@@@std@@QEAAAEAV01@$$QEAV01@@Z 0000000180009914 f i XMPMeta2-GetSet.obj
 0001:00008914       ??4?$shared_ptr@VINodeIterator_v1@AdobeXMPCore@@@std@@QEAAAEAV01@$$QEAV01@@Z 0000000180009914 f i XMPIterator2.obj
 0001:00008914       ??4?$shared_ptr@VISimpleNode_v1@AdobeXMPCore@@@std@@QEAAAEAV01@$$QEAV01@@Z 0000000180009914 f i XMPMeta2-GetSet.obj
 0001:00008914       ??4?$shared_ptr@VIMetadata_v1@AdobeXMPCore@@@std@@QEAAAEAV01@$$QEAV01@@Z 0000000180009914 f i XMPMeta2-GetSet.obj
 0001:00008914       ??4?$shared_ptr@VIArrayNode_v1@AdobeXMPCore@@@std@@QEAAAEAV01@$$QEAV01@@Z 0000000180009914 f i XMPMeta2-GetSet.obj
 0001:00008914       ??4?$shared_ptr@$$CBVIUTF8String_v1@AdobeXMPCommon@@@std@@QEAAAEAV01@$$QEAV01@@Z 0000000180009914 f i XMPMeta2-GetSet.obj
 0001:00008990       ?erase@?$_Tree@V?$_Tmap_traits@V?$basic_string@DU?$char_traits@D@std@@V?$allocator@D@2@@std@@_NU?$less@V?$basic_string@DU?$char_traits@D@std@@V?$allocator@D@2@@std@@@2@V?$allocator@U?$pair@$$CBV?$basic_string@DU?$char_traits@D@std@@V?$allocator@D@2@@std@@_N@std@@@2@$0A@@std@@@std@@QEAA?AV?$_Tree_iterator@V?$_Tree_val@U?$_Tree_simple_types@U?$pair@$$CBV?$basic_string@DU?$char_traits@D@std@@V?$allocator@D@2@@std@@_N@std@@@std@@@std@@@2@V?$_Tree_const_iterator@V?$_Tree_val@U?$_Tree_simple_types@U?$pair@$$CBV?$basic_string@DU?$char_traits@D@std@@V?$allocator@D@2@@std@@_N@std@@@std@@@std@@@2@@Z 0000000180009990 f i XMPIterator2.obj
 0001:00008e64       ?_Buyheadnode@?$_Tree_comp_alloc@V?$_Tmap_traits@V?$basic_string@DU?$char_traits@D@std@@V?$allocator@D@2@@std@@_NU?$less@V?$basic_string@DU?$char_traits@D@std@@V?$allocator@D@2@@std@@@2@V?$allocator@U?$pair@$$CBV?$basic_string@DU?$char_traits@D@std@@V?$allocator@D@2@@std@@_N@std@@@2@$0A@@std@@@std@@QEAAPEAU?$_Tree_node@U?$pair@$$CBV?$basic_string@DU?$char_traits@D@std@@V?$allocator@D@2@@std@@_N@std@@PEAX@2@XZ 0000000180009e64 f i XMPIterator2.obj
 0001:00008ea0       ?_Erase@?$_Tree@V?$_Tmap_traits@V?$basic_string@DU?$char_traits@D@std@@V?$allocator@D@2@@std@@_NU?$less@V?$basic_string@DU?$char_traits@D@std@@V?$allocator@D@2@@std@@@2@V?$allocator@U?$pair@$$CBV?$basic_string@DU?$char_traits@D@std@@V?$allocator@D@2@@std@@_N@std@@@2@$0A@@std@@@std@@IEAAXPEAU?$_Tree_node@U?$pair@$$CBV?$basic_string@DU?$char_traits@D@std@@V?$allocator@D@2@@std@@_N@std@@PEAX@2@@Z 0000000180009ea0 f i XMPIterator2.obj
 0001:00008f3c       ??$?HDU?$char_traits@D@std@@V?$allocator@D@1@@std@@YA?AV?$basic_string@DU?$char_traits@D@std@@V?$allocator@D@2@@0@$$QEAV10@PEBD@Z 0000000180009f3c f i XMPIterator2.obj
 0001:00008f94       ??$?MDU?$char_traits@D@std@@V?$allocator@D@1@@std@@YA_NAEBV?$basic_string@DU?$char_traits@D@std@@V?$allocator@D@2@@0@0@Z 0000000180009f94 f i XMPIterator2.obj
 0001:00009014       ??$_Buynode@AEBUpiecewise_construct_t@std@@V?$tuple@$$QEAV?$basic_string@DU?$char_traits@D@std@@V?$allocator@D@2@@std@@@2@V?$tuple@$$V@2@@?$_Tree_comp_alloc@V?$_Tmap_traits@V?$basic_string@DU?$char_traits@D@std@@V?$allocator@D@2@@std@@_NU?$less@V?$basic_string@DU?$char_traits@D@std@@V?$allocator@D@2@@std@@@2@V?$allocator@U?$pair@$$CBV?$basic_string@DU?$char_traits@D@std@@V?$allocator@D@2@@std@@_N@std@@@2@$0A@@std@@@std@@QEAAPEAU?$_Tree_node@U?$pair@$$CBV?$basic_string@DU?$char_traits@D@std@@V?$allocator@D@2@@std@@_N@std@@PEAX@1@AEBUpiecewise_construct_t@1@$$QEAV?$tuple@$$QEAV?$basic_string@DU?$char_traits@D@std@@V?$allocator@D@2@@std@@@1@$$QEAV?$tuple@$$V@1@@Z 000000018000a014 f i XMPIterator2.obj
 0001:00009060       ??$_Insert_hint@AEAU?$pair@$$CBV?$basic_string@DU?$char_traits@D@std@@V?$allocator@D@2@@std@@_N@std@@PEAU?$_Tree_node@U?$pair@$$CBV?$basic_string@DU?$char_traits@D@std@@V?$allocator@D@2@@std@@_N@std@@PEAX@2@@?$_Tree@V?$_Tmap_traits@V?$basic_string@DU?$char_traits@D@std@@V?$allocator@D@2@@std@@_NU?$less@V?$basic_string@DU?$char_traits@D@std@@V?$allocator@D@2@@std@@@2@V?$allocator@U?$pair@$$CBV?$basic_string@DU?$char_traits@D@std@@V?$allocator@D@2@@std@@_N@std@@@2@$0A@@std@@@std@@IEAA?AV?$_Tree_iterator@V?$_Tree_val@U?$_Tree_simple_types@U?$pair@$$CBV?$basic_string@DU?$char_traits@D@std@@V?$allocator@D@2@@std@@_N@std@@@std@@@std@@@1@V?$_Tree_const_iterator@V?$_Tree_val@U?$_Tree_simple_types@U?$pair@$$CBV?$basic_string@DU?$char_traits@D@std@@V?$allocator@D@2@@std@@_N@std@@@std@@@std@@@1@AEAU?$pair@$$CBV?$basic_string@DU?$char_traits@D@std@@V?$allocator@D@2@@std@@_N@1@PEAU?$_Tree_node@U?$pair@$$CBV?$basic_string@DU?$char_traits@D@std@@V?$allocator@D@2@@std@@_N@std@@PEAX@1@@Z 000000018000a060 f i XMPIterator2.obj
 0001:000092f4       ?_Buynode0@?$_Tree_comp_alloc@V?$_Tmap_traits@V?$basic_string@DU?$char_traits@D@std@@V?$allocator@D@2@@std@@_NU?$less@V?$basic_string@DU?$char_traits@D@std@@V?$allocator@D@2@@std@@@2@V?$allocator@U?$pair@$$CBV?$basic_string@DU?$char_traits@D@std@@V?$allocator@D@2@@std@@_N@std@@@2@$0A@@std@@@std@@QEAAPEAU?$_Tree_node@U?$pair@$$CBV?$basic_string@DU?$char_traits@D@std@@V?$allocator@D@2@@std@@_N@std@@PEAX@2@XZ 000000018000a2f4 f i XMPIterator2.obj
 0001:0000933c       ?_Reset@?$_Ptr_base@$$CBVINode_v1@AdobeXMPCore@@@std@@QEAAXPEBVINode_v1@AdobeXMPCore@@PEAV_Ref_count_base@2@@Z 000000018000a33c f i XMPIterator2.obj
 0001:0000933c       ?_Reset@?$_Ptr_base@VINode_v1@AdobeXMPCore@@@std@@QEAAXPEAVINode_v1@AdobeXMPCore@@PEAV_Ref_count_base@2@@Z 000000018000a33c f i XMPMeta2-GetSet.obj
 0001:000093b4       ??$_Insert_at@AEAU?$pair@$$CBV?$basic_string@DU?$char_traits@D@std@@V?$allocator@D@2@@std@@_N@std@@PEAU?$_Tree_node@U?$pair@$$CBV?$basic_string@DU?$char_traits@D@std@@V?$allocator@D@2@@std@@_N@std@@PEAX@2@@?$_Tree@V?$_Tmap_traits@V?$basic_string@DU?$char_traits@D@std@@V?$allocator@D@2@@std@@_NU?$less@V?$basic_string@DU?$char_traits@D@std@@V?$allocator@D@2@@std@@@2@V?$allocator@U?$pair@$$CBV?$basic_string@DU?$char_traits@D@std@@V?$allocator@D@2@@std@@_N@std@@@2@$0A@@std@@@std@@IEAA?AV?$_Tree_iterator@V?$_Tree_val@U?$_Tree_simple_types@U?$pair@$$CBV?$basic_string@DU?$char_traits@D@std@@V?$allocator@D@2@@std@@_N@std@@@std@@@std@@@1@_NPEAU?$_Tree_node@U?$pair@$$CBV?$basic_string@DU?$char_traits@D@std@@V?$allocator@D@2@@std@@_N@std@@PEAX@1@AEAU?$pair@$$CBV?$basic_string@DU?$char_traits@D@std@@V?$allocator@D@2@@std@@_N@1@1@Z 000000018000a3b4 f i XMPIterator2.obj
 0001:00009678       ??$_Insert_nohint@AEAU?$pair@$$CBV?$basic_string@DU?$char_traits@D@std@@V?$allocator@D@2@@std@@_N@std@@PEAU?$_Tree_node@U?$pair@$$CBV?$basic_string@DU?$char_traits@D@std@@V?$allocator@D@2@@std@@_N@std@@PEAX@2@@?$_Tree@V?$_Tmap_traits@V?$basic_string@DU?$char_traits@D@std@@V?$allocator@D@2@@std@@_NU?$less@V?$basic_string@DU?$char_traits@D@std@@V?$allocator@D@2@@std@@@2@V?$allocator@U?$pair@$$CBV?$basic_string@DU?$char_traits@D@std@@V?$allocator@D@2@@std@@_N@std@@@2@$0A@@std@@@std@@IEAA?AU?$pair@V?$_Tree_iterator@V?$_Tree_val@U?$_Tree_simple_types@U?$pair@$$CBV?$basic_string@DU?$char_traits@D@std@@V?$allocator@D@2@@std@@_N@std@@@std@@@std@@@std@@_N@1@_NAEAU?$pair@$$CBV?$basic_string@DU?$char_traits@D@std@@V?$allocator@D@2@@std@@_N@1@PEAU?$_Tree_node@U?$pair@$$CBV?$basic_string@DU?$char_traits@D@std@@V?$allocator@D@2@@std@@_N@std@@PEAX@1@@Z 000000018000a678 f i XMPIterator2.obj
 0001:0000a12c       ?GetProperty@XMPMeta@@UEBA_NPEBD0PEAPEBDPEAK2@Z 000000018000b12c f   XMPMeta-GetSet.obj
 0001:0000a1e0       ?GetArrayItem@XMPMeta@@UEBA_NPEBD0JPEAPEBDPEAK2@Z 000000018000b1e0 f   XMPMeta-GetSet.obj
 0001:0000a2dc       ?GetStructField@XMPMeta@@UEBA_NPEBD000PEAPEBDPEAK2@Z 000000018000b2dc f   XMPMeta-GetSet.obj
 0001:0000a3b8       ?GetQualifier@XMPMeta@@UEBA_NPEBD000PEAPEBDPEAK2@Z 000000018000b3b8 f   XMPMeta-GetSet.obj
 0001:0000a494       ?SetProperty@XMPMeta@@UEAAXPEBD00K@Z 000000018000b494 f   XMPMeta-GetSet.obj
 0001:0000a570       ?SetArrayItem@XMPMeta@@UEAAXPEBD0J0K@Z 000000018000b570 f   XMPMeta-GetSet.obj
 0001:0000a62c       ?AppendArrayItem@XMPMeta@@UEAAXPEBD0K0K@Z 000000018000b62c f   XMPMeta-GetSet.obj
 0001:0000a7ac       ?SetStructField@XMPMeta@@QEAAXPEBD0000K@Z 000000018000b7ac f   XMPMeta-GetSet.obj
 0001:0000a874       ?SetQualifier@XMPMeta@@UEAAXPEBD0000K@Z 000000018000b874 f   XMPMeta-GetSet.obj
 0001:0000a9bc       ?DeleteProperty@XMPMeta@@UEAAXPEBD0@Z 000000018000b9bc f   XMPMeta-GetSet.obj
 0001:0000aaec       ?DeleteArrayItem@XMPMeta@@UEAAXPEBD0J@Z 000000018000baec f   XMPMeta-GetSet.obj
 0001:0000ab8c       ?DeleteStructField@XMPMeta@@UEAAXPEBD000@Z 000000018000bb8c f   XMPMeta-GetSet.obj
 0001:0000ac38       ?DeleteQualifier@XMPMeta@@UEAAXPEBD000@Z 000000018000bc38 f   XMPMeta-GetSet.obj
 0001:0000ace4       ?DoesPropertyExist@XMPMeta@@UEBA_NPEBD0@Z 000000018000bce4 f   XMPMeta-GetSet.obj
 0001:0000ad50       ?GetLocalizedText@XMPMeta@@UEBA_NPEBD000PEAPEBDPEAK122@Z 000000018000bd50 f   XMPMeta-GetSet.obj
 0001:0000af5c       ?SetLocalizedText@XMPMeta@@UEAAXPEBD0000K@Z 000000018000bf5c f   XMPMeta-GetSet.obj
 0001:0000b3c8       ?DeleteLocalizedText@XMPMeta@@UEAAXPEBD000@Z 000000018000c3c8 f   XMPMeta-GetSet.obj
 0001:0000b7a8       ?GetProperty_Int64@XMPMeta@@QEBA_NPEBD0PEA_JPEAK@Z 000000018000c7a8 f   XMPMeta-GetSet.obj
 0001:0000b8a0       ?GetProperty_Float@XMPMeta@@QEBA_NPEBD0PEANPEAK@Z 000000018000c8a0 f   XMPMeta-GetSet.obj
 0001:0000b998       ?SetProperty_Bool@XMPMeta@@QEAAXPEBD0_NK@Z 000000018000c998 f   XMPMeta-GetSet.obj
 0001:0000ba74       ?push_back@?$vector@PEAVXMP_Node@@V?$allocator@PEAVXMP_Node@@@std@@@std@@QEAAXAEBQEAVXMP_Node@@@Z 000000018000ca74 f i XMPMeta-GetSet.obj
 0001:0000bbc0       ?swap@?$basic_string@DU?$char_traits@D@std@@V?$allocator@D@2@@std@@QEAAXAEAV12@@Z 000000018000cbc0 f i XMPMeta-GetSet.obj
 0001:0000bc10       ?_Insert_n@?$vector@PEAVXMP_Node@@V?$allocator@PEAVXMP_Node@@@std@@@std@@IEAA?AV?$_Vector_iterator@V?$_Vector_val@U?$_Simple_types@PEAVXMP_Node@@@std@@@std@@@2@V?$_Vector_const_iterator@V?$_Vector_val@U?$_Simple_types@PEAVXMP_Node@@@std@@@std@@@2@_KAEBQEAVXMP_Node@@@Z 000000018000cc10 f i XMPMeta-GetSet.obj
 0001:0000be6c       ?_Swap_bx@?$basic_string@DU?$char_traits@D@std@@V?$allocator@D@2@@std@@QEAAXAEAV12@@Z 000000018000ce6c f i XMPMeta-GetSet.obj
 0001:0000bf28       ?_Reallocate@?$vector@_KV?$allocator@_K@std@@@std@@IEAAX_K@Z 000000018000cf28 f i ConfigurableImpl.obj
 0001:0000bf28       ?_Reallocate@?$vector@PEAVXMP_Node@@V?$allocator@PEAVXMP_Node@@@std@@@std@@IEAAX_K@Z 000000018000cf28 f i XMPMeta-GetSet.obj
 0001:0000bf28       ?_Reallocate@?$vector@PEAVXML_Node@@V?$allocator@PEAVXML_Node@@@std@@@std@@IEAAX_K@Z 000000018000cf28 f i ExpatAdapter.obj
 0001:0000bfbc       ??$?8DU?$char_traits@D@std@@V?$allocator@D@1@@std@@YA_NAEBV?$basic_string@DU?$char_traits@D@std@@V?$allocator@D@2@@0@PEBD@Z 000000018000cfbc f i XMPMeta-GetSet.obj
 0001:0000c058       ??$?8DU?$char_traits@D@std@@V?$allocator@D@1@@std@@YA_NAEBV?$basic_string@DU?$char_traits@D@std@@V?$allocator@D@2@@0@0@Z 000000018000d058 f i XMPMeta-GetSet.obj
 0001:0000c0d8       ?NotifyClient@GenericErrorCallback@@QEBAXEAEAVXMP_Error@@PEBD@Z 000000018000d0d8 f i XMPMeta-Parse.obj
 0001:0000c19c       ??0XMP_Node@@QEAA@PEAV0@PEBD1K@Z 000000018000d19c f i XMPMeta-Parse.obj
 0001:0000c2a4       ?ClearNode@XMP_Node@@QEAAXXZ 000000018000d2a4 f i XMPMeta-Parse.obj
 0001:0000c494       ?NormalizeDCArrays@@YAXPEAVXMP_Node@@@Z 000000018000d494 f   XMPMeta-Parse.obj
 0001:0000c9f4       ?MoveExplicitAliases@@YAXPEAVXMP_Node@@KAEAVErrorCallbackInfo@XMPMeta@@@Z 000000018000d9f4 f   XMPMeta-Parse.obj
 0001:0000d2fc       ?TouchUpDataModel@@YAXPEAVXMPMeta@@AEAVErrorCallbackInfo@1@@Z 000000018000e2fc f   XMPMeta-Parse.obj
 0001:0000db70       ?ProcessXMLBuffer@XMPMeta@@AEAA_NPEBDK_N@Z 000000018000eb70 f   XMPMeta-Parse.obj
 0001:0000ddb4       ?ProcessXMLTree@XMPMeta@@AEAAXK@Z 000000018000edb4 f   XMPMeta-Parse.obj
 0001:0000df0c       ?ParseFromBuffer@XMPMeta@@UEAAXPEBDKK@Z 000000018000ef0c f   XMPMeta-Parse.obj
 0001:0000e028       ?find@?$_Tree@V?$_Tmap_traits@V?$basic_string@DU?$char_traits@D@std@@V?$allocator@D@2@@std@@V?$vector@VXPathStepInfo@@V?$allocator@VXPathStepInfo@@@std@@@2@U?$less@V?$basic_string@DU?$char_traits@D@std@@V?$allocator@D@2@@std@@@2@V?$allocator@U?$pair@$$CBV?$basic_string@DU?$char_traits@D@std@@V?$allocator@D@2@@std@@V?$vector@VXPathStepInfo@@V?$allocator@VXPathStepInfo@@@std@@@2@@std@@@2@$0A@@std@@@std@@QEAA?AV?$_Tree_iterator@V?$_Tree_val@U?$_Tree_simple_types@U?$pair@$$CBV?$basic_string@DU?$char_traits@D@std@@V?$allocator@D@2@@std@@V?$vector@VXPathStepInfo@@V?$allocator@VXPathStepInfo@@@std@@@2@@std@@@std@@@std@@@2@AEBV?$basic_string@DU?$char_traits@D@std@@V?$allocator@D@2@@2@@Z 000000018000f028 f i XMPMeta-Parse.obj
 0001:0000e0b4       ?insert@?$basic_string@DU?$char_traits@D@std@@V?$allocator@D@2@@std@@QEAAAEAV12@_KPEBD@Z 000000018000f0b4 f i XMPMeta-Parse.obj
 0001:0000e238       ?find@?$basic_string@DU?$char_traits@D@std@@V?$allocator@D@2@@std@@QEBA_KPEBD_K1@Z 000000018000f238 f i XMPMeta-Parse.obj
 0001:0000e2f8       ?replace@?$basic_string@DU?$char_traits@D@std@@V?$allocator@D@2@@std@@QEAAAEAV12@_K0AEBV12@00@Z 000000018000f2f8 f i XMPMeta-Parse.obj
 0001:0000e694       ?insert@?$basic_string@DU?$char_traits@D@std@@V?$allocator@D@2@@std@@QEAAAEAV12@_KAEBV12@00@Z 000000018000f694 f i XMPMeta-Parse.obj
 0001:000113f4       ?SerializeToBuffer@XMPMeta@@UEBAXPEAV?$basic_string@DU?$char_traits@D@std@@V?$allocator@D@2@@std@@KKPEBD1J@Z 00000001800123f4 f   XMPMeta-Serialize.obj
 0001:00011cb4       ?substr@?$basic_string@DU?$char_traits@D@std@@V?$allocator@D@2@@std@@QEBA?AV12@_K0@Z 0000000180012cb4 f i XMPMeta-Serialize.obj
 0001:00011ce8       ??$?HDU?$char_traits@D@std@@V?$allocator@D@1@@std@@YA?AV?$basic_string@DU?$char_traits@D@std@@V?$allocator@D@2@@0@AEBV10@PEBD@Z 0000000180012ce8 f i XMPMeta-Serialize.obj
 0001:00011dd4       ??_GGenericErrorCallback@@UEAAPEAXI@Z 0000000180012dd4 f i XMPMeta.obj
 0001:00011dd4       ??_EGenericErrorCallback@@UEAAPEAXI@Z 0000000180012dd4 f i * CIL library *:* CIL module *
 0001:00011e00       ??_GXMP_NamespaceTable@@UEAAPEAXI@Z 0000000180012e00 f i XMPMeta.obj
 0001:00011e00       ??_EXMP_NamespaceTable@@UEAAPEAXI@Z 0000000180012e00 f i * CIL library *:* CIL module *
 0001:00011e54       ??1?$map@V?$basic_string@DU?$char_traits@D@std@@V?$allocator@D@2@@std@@V12@U?$less@V?$basic_string@DU?$char_traits@D@std@@V?$allocator@D@2@@std@@@2@V?$allocator@U?$pair@$$CBV?$basic_string@DU?$char_traits@D@std@@V?$allocator@D@2@@std@@V12@@std@@@2@@std@@QEAA@XZ 0000000180012e54 f i XMPMeta.obj
 0001:00011e5c       ??_GErrorCallbackInfo@XMPMeta@@UEAAPEAXI@Z 0000000180012e5c f i XMPMeta.obj
 0001:00011e5c       ??_EErrorCallbackInfo@XMPMeta@@UEAAPEAXI@Z 0000000180012e5c f i * CIL library *:* CIL module *
 0001:00011e88       ??_GXMPMeta@@UEAAPEAXI@Z   0000000180012e88 f i XMPMeta.obj
 0001:00011e88       ??_EXMPMeta@@UEAAPEAXI@Z   0000000180012e88 f i * CIL library *:* CIL module *
 0001:00011ebc       ?DumpNodeOptions@@YAXKP6AJPEAXPEBDK@Z0@Z 0000000180012ebc f   XMPMeta.obj
 0001:00012e2c       ??1?$pair@$$CBV?$basic_string@DU?$char_traits@D@std@@V?$allocator@D@2@@std@@V?$vector@VXPathStepInfo@@V?$allocator@VXPathStepInfo@@@std@@@2@@std@@QEAA@XZ 0000000180013e2c f i XMPMeta.obj
 0001:00013348       ??0XMPMeta@@QEAA@XZ        0000000180014348 f   XMPMeta.obj
 0001:0001341c       ??1XMPMeta@@UEAA@XZ        000000018001441c f   XMPMeta.obj
 0001:00013474       ?Initialize@XMPMeta@@SA_NXZ 0000000180014474 f   XMPMeta.obj
 0001:00013cd4       ?Terminate@XMPMeta@@SAXXZ  0000000180014cd4 f   XMPMeta.obj
 0001:00013f68       ?RegisterNamespace@XMPMeta@@SA_NPEBD0PEAPEBDPEAK@Z 0000000180014f68 f   XMPMeta.obj
 0001:000140c8       ?DumpObject@XMPMeta@@UEBAXP6AJPEAXPEBDK@Z0@Z 00000001800150c8 f   XMPMeta.obj
 0001:00014474       ?CountArrayItems@XMPMeta@@UEBAJPEBD0@Z 0000000180015474 f   XMPMeta.obj
 0001:0001452c       ?GetObjectName@XMPMeta@@UEBAXPEAPEBDPEAK@Z 000000018001552c f   XMPMeta.obj
 0001:0001454c       ?SetObjectName@XMPMeta@@UEAAXPEBD@Z 000000018001554c f   XMPMeta.obj
 0001:000145d0       ?Sort@XMPMeta@@UEAAXXZ     00000001800155d0 f   XMPMeta.obj
 0001:00014658       ?Erase@XMPMeta@@UEAAXXZ    0000000180015658 f   XMPMeta.obj
 0001:00014690       ?Clone@XMPMeta@@UEBAXPEAV1@K@Z 0000000180015690 f   XMPMeta.obj
 0001:000147c8       ?GetLocalURI@XMP_Node@@QEBAXPEAPEBDPEAK@Z 00000001800157c8 f   XMPMeta.obj
 0001:000148e0       ?SetErrorCallback@XMPMeta@@UEAAXP6AEP6A_NPEAXEJPEBD@Z0EJ1@Z20K@Z 00000001800158e0 f   XMPMeta.obj
 0001:00014914       ?ResetErrorCallbackLimit@XMPMeta@@UEAAXK@Z 0000000180015914 f   XMPMeta.obj
 0001:0001492c       ?CanNotify@ErrorCallbackInfo@XMPMeta@@UEBA_NXZ 000000018001592c f   XMPMeta.obj
 0001:00014938       ?ClientCallbackWrapper@ErrorCallbackInfo@XMPMeta@@UEBA_NPEBDEJ0@Z 0000000180015938 f   XMPMeta.obj
 0001:00014960       ??1?$_Tree@V?$_Tmap_traits@V?$basic_string@DU?$char_traits@D@std@@V?$allocator@D@2@@std@@V?$vector@VXPathStepInfo@@V?$allocator@VXPathStepInfo@@@std@@@2@U?$less@V?$basic_string@DU?$char_traits@D@std@@V?$allocator@D@2@@std@@@2@V?$allocator@U?$pair@$$CBV?$basic_string@DU?$char_traits@D@std@@V?$allocator@D@2@@std@@V?$vector@VXPathStepInfo@@V?$allocator@VXPathStepInfo@@@std@@@2@@std@@@2@$0A@@std@@@std@@QEAA@XZ 0000000180015960 f i XMPMeta.obj
 0001:00014a24       ??4?$vector@VXPathStepInfo@@V?$allocator@VXPathStepInfo@@@std@@@std@@QEAAAEAV01@AEBV01@@Z 0000000180015a24 f i XMPMeta.obj
 0001:00014cb8       ?push_back@?$vector@VXPathStepInfo@@V?$allocator@VXPathStepInfo@@@std@@@std@@QEAAX$$QEAVXPathStepInfo@@@Z 0000000180015cb8 f i XMPMeta.obj
 0001:00014d60       ??1?$_Tree@V?$_Tmap_traits@V?$basic_string@DU?$char_traits@D@std@@V?$allocator@D@2@@std@@V12@U?$less@V?$basic_string@DU?$char_traits@D@std@@V?$allocator@D@2@@std@@@2@V?$allocator@U?$pair@$$CBV?$basic_string@DU?$char_traits@D@std@@V?$allocator@D@2@@std@@V12@@std@@@2@$0A@@std@@@std@@QEAA@XZ 0000000180015d60 f i XMPMeta.obj
 0001:00014df8       ?_Reserve@?$vector@VXPathStepInfo@@V?$allocator@VXPathStepInfo@@@std@@@std@@IEAAX_K@Z 0000000180015df8 f i XMPMeta.obj
 0001:00014eac       ?_Buy@?$vector@VXPathStepInfo@@V?$allocator@VXPathStepInfo@@@std@@@std@@IEAA_N_K@Z 0000000180015eac f i XMPMeta.obj
 0001:00014f1c       ?_Reallocate@?$vector@VXPathStepInfo@@V?$allocator@VXPathStepInfo@@@std@@@std@@IEAAX_K@Z 0000000180015f1c f i XMPMeta.obj
 0001:0001503c       ?erase@?$_Tree@V?$_Tmap_traits@V?$basic_string@DU?$char_traits@D@std@@V?$allocator@D@2@@std@@V?$vector@VXPathStepInfo@@V?$allocator@VXPathStepInfo@@@std@@@2@U?$less@V?$basic_string@DU?$char_traits@D@std@@V?$allocator@D@2@@std@@@2@V?$allocator@U?$pair@$$CBV?$basic_string@DU?$char_traits@D@std@@V?$allocator@D@2@@std@@V?$vector@VXPathStepInfo@@V?$allocator@VXPathStepInfo@@@std@@@2@@std@@@2@$0A@@std@@@std@@QEAA?AV?$_Tree_iterator@V?$_Tree_val@U?$_Tree_simple_types@U?$pair@$$CBV?$basic_string@DU?$char_traits@D@std@@V?$allocator@D@2@@std@@V?$vector@VXPathStepInfo@@V?$allocator@VXPathStepInfo@@@std@@@2@@std@@@std@@@std@@@2@V?$_Tree_const_iterator@V?$_Tree_val@U?$_Tree_simple_types@U?$pair@$$CBV?$basic_string@DU?$char_traits@D@std@@V?$allocator@D@2@@std@@V?$vector@VXPathStepInfo@@V?$allocator@VXPathStepInfo@@@std@@@2@@std@@@std@@@std@@@2@@Z 000000018001603c f i XMPMeta.obj
 0001:00015518       ?clear@?$_Tree@V?$_Tmap_traits@V?$basic_string@DU?$char_traits@D@std@@V?$allocator@D@2@@std@@V12@U?$less@V?$basic_string@DU?$char_traits@D@std@@V?$allocator@D@2@@std@@@2@V?$allocator@U?$pair@$$CBV?$basic_string@DU?$char_traits@D@std@@V?$allocator@D@2@@std@@V12@@std@@@2@$0A@@std@@@std@@QEAAXXZ 0000000180016518 f i XMPMeta.obj
 0001:000155a4       ?erase@?$_Tree@V?$_Tmap_traits@V?$basic_string@DU?$char_traits@D@std@@V?$allocator@D@2@@std@@V12@U?$less@V?$basic_string@DU?$char_traits@D@std@@V?$allocator@D@2@@std@@@2@V?$allocator@U?$pair@$$CBV?$basic_string@DU?$char_traits@D@std@@V?$allocator@D@2@@std@@V12@@std@@@2@$0A@@std@@@std@@QEAA?AV?$_Tree_iterator@V?$_Tree_val@U?$_Tree_simple_types@U?$pair@$$CBV?$basic_string@DU?$char_traits@D@std@@V?$allocator@D@2@@std@@V12@@std@@@std@@@std@@@2@V?$_Tree_const_iterator@V?$_Tree_val@U?$_Tree_simple_types@U?$pair@$$CBV?$basic_string@DU?$char_traits@D@std@@V?$allocator@D@2@@std@@V12@@std@@@std@@@std@@@2@@Z 00000001800165a4 f i XMPMeta.obj
 0001:00015a40       ?_Buyheadnode@?$_Tree_comp_alloc@V?$_Tmap_traits@V?$basic_string@DU?$char_traits@D@std@@V?$allocator@D@2@@std@@V?$vector@VXPathStepInfo@@V?$allocator@VXPathStepInfo@@@std@@@2@U?$less@V?$basic_string@DU?$char_traits@D@std@@V?$allocator@D@2@@std@@@2@V?$allocator@U?$pair@$$CBV?$basic_string@DU?$char_traits@D@std@@V?$allocator@D@2@@std@@V?$vector@VXPathStepInfo@@V?$allocator@VXPathStepInfo@@@std@@@2@@std@@@2@$0A@@std@@@std@@QEAAPEAU?$_Tree_node@U?$pair@$$CBV?$basic_string@DU?$char_traits@D@std@@V?$allocator@D@2@@std@@V?$vector@VXPathStepInfo@@V?$allocator@VXPathStepInfo@@@std@@@2@@std@@PEAX@2@XZ 0000000180016a40 f i XMPMeta.obj
 0001:00015a7c       ?_Erase@?$_Tree@V?$_Tmap_traits@V?$basic_string@DU?$char_traits@D@std@@V?$allocator@D@2@@std@@V?$vector@VXPathStepInfo@@V?$allocator@VXPathStepInfo@@@std@@@2@U?$less@V?$basic_string@DU?$char_traits@D@std@@V?$allocator@D@2@@std@@@2@V?$allocator@U?$pair@$$CBV?$basic_string@DU?$char_traits@D@std@@V?$allocator@D@2@@std@@V?$vector@VXPathStepInfo@@V?$allocator@VXPathStepInfo@@@std@@@2@@std@@@2@$0A@@std@@@std@@IEAAXPEAU?$_Tree_node@U?$pair@$$CBV?$basic_string@DU?$char_traits@D@std@@V?$allocator@D@2@@std@@V?$vector@VXPathStepInfo@@V?$allocator@VXPathStepInfo@@@std@@@2@@std@@PEAX@2@@Z 0000000180016a7c f i XMPMeta.obj
 0001:00015b20       ?_Buyheadnode@?$_Tree_comp_alloc@V?$_Tmap_traits@V?$basic_string@DU?$char_traits@D@std@@V?$allocator@D@2@@std@@V12@U?$less@V?$basic_string@DU?$char_traits@D@std@@V?$allocator@D@2@@std@@@2@V?$allocator@U?$pair@$$CBV?$basic_string@DU?$char_traits@D@std@@V?$allocator@D@2@@std@@V12@@std@@@2@$0A@@std@@@std@@QEAAPEAU?$_Tree_node@U?$pair@$$CBV?$basic_string@DU?$char_traits@D@std@@V?$allocator@D@2@@std@@V12@@std@@PEAX@2@XZ 0000000180016b20 f i XMPMeta.obj
 0001:00015b5c       ?_Erase@?$_Tree@V?$_Tmap_traits@V?$basic_string@DU?$char_traits@D@std@@V?$allocator@D@2@@std@@V12@U?$less@V?$basic_string@DU?$char_traits@D@std@@V?$allocator@D@2@@std@@@2@V?$allocator@U?$pair@$$CBV?$basic_string@DU?$char_traits@D@std@@V?$allocator@D@2@@std@@V12@@std@@@2@$0A@@std@@@std@@IEAAXPEAU?$_Tree_node@U?$pair@$$CBV?$basic_string@DU?$char_traits@D@std@@V?$allocator@D@2@@std@@V12@@std@@PEAX@2@@Z 0000000180016b5c f i XMPMeta.obj
 0001:00015bbc       ??$_Insert_nohint@U?$pair@$$CBV?$basic_string@DU?$char_traits@D@std@@V?$allocator@D@2@@std@@V?$vector@VXPathStepInfo@@V?$allocator@VXPathStepInfo@@@std@@@2@@std@@U_Nil@2@@?$_Tree@V?$_Tmap_traits@V?$basic_string@DU?$char_traits@D@std@@V?$allocator@D@2@@std@@V?$vector@VXPathStepInfo@@V?$allocator@VXPathStepInfo@@@std@@@2@U?$less@V?$basic_string@DU?$char_traits@D@std@@V?$allocator@D@2@@std@@@2@V?$allocator@U?$pair@$$CBV?$basic_string@DU?$char_traits@D@std@@V?$allocator@D@2@@std@@V?$vector@VXPathStepInfo@@V?$allocator@VXPathStepInfo@@@std@@@2@@std@@@2@$0A@@std@@@std@@IEAA?AU?$pair@V?$_Tree_iterator@V?$_Tree_val@U?$_Tree_simple_types@U?$pair@$$CBV?$basic_string@DU?$char_traits@D@std@@V?$allocator@D@2@@std@@V?$vector@VXPathStepInfo@@V?$allocator@VXPathStepInfo@@@std@@@2@@std@@@std@@@std@@@std@@_N@1@_N$$QEAU?$pair@$$CBV?$basic_string@DU?$char_traits@D@std@@V?$allocator@D@2@@std@@V?$vector@VXPathStepInfo@@V?$allocator@VXPathStepInfo@@@std@@@2@@1@U_Nil@1@@Z 0000000180016bbc f i XMPMeta.obj
 0001:00015d0c       ??0?$vector@VXPathStepInfo@@V?$allocator@VXPathStepInfo@@@std@@@std@@QEAA@AEBV01@@Z 0000000180016d0c f i XMPMeta.obj
 0001:00015dd4       ??$_Sort@PEAPEAVXMP_Node@@_JP6A_NPEAV1@0@Z@std@@YAXPEAPEAVXMP_Node@@0_JP6A_NPEAV1@2@Z@Z 0000000180016dd4 f i XMPMeta.obj
 0001:00015f8c       ??$_Insert_at@U?$pair@$$CBV?$basic_string@DU?$char_traits@D@std@@V?$allocator@D@2@@std@@V?$vector@VXPathStepInfo@@V?$allocator@VXPathStepInfo@@@std@@@2@@std@@U_Nil@2@@?$_Tree@V?$_Tmap_traits@V?$basic_string@DU?$char_traits@D@std@@V?$allocator@D@2@@std@@V?$vector@VXPathStepInfo@@V?$allocator@VXPathStepInfo@@@std@@@2@U?$less@V?$basic_string@DU?$char_traits@D@std@@V?$allocator@D@2@@std@@@2@V?$allocator@U?$pair@$$CBV?$basic_string@DU?$char_traits@D@std@@V?$allocator@D@2@@std@@V?$vector@VXPathStepInfo@@V?$allocator@VXPathStepInfo@@@std@@@2@@std@@@2@$0A@@std@@@std@@IEAA?AV?$_Tree_iterator@V?$_Tree_val@U?$_Tree_simple_types@U?$pair@$$CBV?$basic_string@DU?$char_traits@D@std@@V?$allocator@D@2@@std@@V?$vector@VXPathStepInfo@@V?$allocator@VXPathStepInfo@@@std@@@2@@std@@@std@@@std@@@1@_NPEAU?$_Tree_node@U?$pair@$$CBV?$basic_string@DU?$char_traits@D@std@@V?$allocator@D@2@@std@@V?$vector@VXPathStepInfo@@V?$allocator@VXPathStepInfo@@@std@@@2@@std@@PEAX@1@$$QEAU?$pair@$$CBV?$basic_string@DU?$char_traits@D@std@@V?$allocator@D@2@@std@@V?$vector@VXPathStepInfo@@V?$allocator@VXPathStepInfo@@@std@@@2@@1@U_Nil@1@@Z 0000000180016f8c f i XMPMeta.obj
 0001:0001621c       ??1?$_Temp_iterator@PEAVXMP_Node@@@std@@QEAA@XZ 000000018001721c f i XMPMeta.obj
 0001:00016240       ??$_Unguarded_partition@PEAPEAVXMP_Node@@P6A_NPEAV1@0@Z@std@@YA?AU?$pair@PEAPEAVXMP_Node@@PEAPEAV1@@0@PEAPEAVXMP_Node@@0P6A_NPEAV2@1@Z@Z 0000000180017240 f i XMPMeta.obj
 0001:0001648c       ??$_Insertion_sort@PEAPEAVXMP_Node@@P6A_NPEAV1@0@Z@std@@YAXPEAPEAVXMP_Node@@0P6A_NPEAV1@1@Z@Z 000000018001748c f i XMPMeta.obj
 0001:00016548       ??$_Stable_sort@PEAPEAVXMP_Node@@_JPEAV1@P6A_NPEAV1@0@Z@std@@YAXPEAPEAVXMP_Node@@0_JAEAV?$_Temp_iterator@PEAVXMP_Node@@@0@P6A_NPEAV1@3@Z@Z 0000000180017548 f i XMPMeta.obj
 0001:000166b8       ??1?$pair@V?$basic_string@DU?$char_traits@D@std@@V?$allocator@D@2@@std@@V12@@std@@QEAA@XZ 00000001800176b8 f i XMP_LibUtils.obj
 0001:000166b8       ??1?$pair@$$CBV?$basic_string@DU?$char_traits@D@std@@V?$allocator@D@2@@std@@V12@@std@@QEAA@XZ 00000001800176b8 f i XMPMeta.obj
 0001:00016740       ??$_Buffered_merge_sort@PEAPEAVXMP_Node@@_JPEAV1@P6A_NPEAV1@0@Z@std@@YAXPEAPEAVXMP_Node@@0_JAEAV?$_Temp_iterator@PEAVXMP_Node@@@0@P6A_NPEAV1@3@Z@Z 0000000180017740 f i XMPMeta.obj
 0001:000169bc       ??$_Buffered_merge@PEAPEAVXMP_Node@@_JPEAV1@P6A_NPEAV1@0@Z@std@@YAXPEAPEAVXMP_Node@@00_J1AEAV?$_Temp_iterator@PEAVXMP_Node@@@0@P6A_NPEAV1@3@Z@Z 00000001800179bc f i XMPMeta.obj
 0001:00016e14       ??$_Buynode@U?$pair@$$CBV?$basic_string@DU?$char_traits@D@std@@V?$allocator@D@2@@std@@V?$vector@VXPathStepInfo@@V?$allocator@VXPathStepInfo@@@std@@@2@@std@@@?$_Tree_comp_alloc@V?$_Tmap_traits@V?$basic_string@DU?$char_traits@D@std@@V?$allocator@D@2@@std@@V?$vector@VXPathStepInfo@@V?$allocator@VXPathStepInfo@@@std@@@2@U?$less@V?$basic_string@DU?$char_traits@D@std@@V?$allocator@D@2@@std@@@2@V?$allocator@U?$pair@$$CBV?$basic_string@DU?$char_traits@D@std@@V?$allocator@D@2@@std@@V?$vector@VXPathStepInfo@@V?$allocator@VXPathStepInfo@@@std@@@2@@std@@@2@$0A@@std@@@std@@QEAAPEAU?$_Tree_node@U?$pair@$$CBV?$basic_string@DU?$char_traits@D@std@@V?$allocator@D@2@@std@@V?$vector@VXPathStepInfo@@V?$allocator@VXPathStepInfo@@@std@@@2@@std@@PEAX@1@$$QEAU?$pair@$$CBV?$basic_string@DU?$char_traits@D@std@@V?$allocator@D@2@@std@@V?$vector@VXPathStepInfo@@V?$allocator@VXPathStepInfo@@@std@@@2@@1@@Z 0000000180017e14 f i XMPMeta.obj
 0001:00016ec0       ??$_Uninit_copy@PEBVXPathStepInfo@@PEAV1@V?$allocator@VXPathStepInfo@@@std@@@std@@YAPEAVXPathStepInfo@@PEBV1@0PEAV1@AEAU?$_Wrap_alloc@V?$allocator@VXPathStepInfo@@@std@@@0@U_Nonscalar_ptr_iterator_tag@0@@Z 0000000180017ec0 f i XMPMeta.obj
 0001:00016ec0       ??$_Uninit_copy@PEAVXPathStepInfo@@PEAV1@V?$allocator@VXPathStepInfo@@@std@@@std@@YAPEAVXPathStepInfo@@PEAV1@00AEAU?$_Wrap_alloc@V?$allocator@VXPathStepInfo@@@std@@@0@U_Nonscalar_ptr_iterator_tag@0@@Z 0000000180017ec0 f i XMPMeta.obj
 0001:00016f50       ??$_Uninit_move@PEAVXPathStepInfo@@PEAV1@V?$allocator@VXPathStepInfo@@@std@@V1@@std@@YAPEAVXPathStepInfo@@PEAV1@00AEAU?$_Wrap_alloc@V?$allocator@VXPathStepInfo@@@std@@@0@0U_Nonscalar_ptr_iterator_tag@0@@Z 0000000180017f50 f i XMPMeta.obj
 0001:00016fa4       ??$get_temporary_buffer@PEAVXMP_Node@@@std@@YA?AU?$pair@PEAPEAVXMP_Node@@_J@0@_J@Z 0000000180017fa4 f i XMPMeta.obj
 0001:00017028       ?_Buynode0@?$_Tree_comp_alloc@V?$_Tmap_traits@V?$basic_string@DU?$char_traits@D@std@@V?$allocator@D@2@@std@@V?$vector@VXPathStepInfo@@V?$allocator@VXPathStepInfo@@@std@@@2@U?$less@V?$basic_string@DU?$char_traits@D@std@@V?$allocator@D@2@@std@@@2@V?$allocator@U?$pair@$$CBV?$basic_string@DU?$char_traits@D@std@@V?$allocator@D@2@@std@@V?$vector@VXPathStepInfo@@V?$allocator@VXPathStepInfo@@@std@@@2@@std@@@2@$0A@@std@@@std@@QEAAPEAU?$_Tree_node@U?$pair@$$CBV?$basic_string@DU?$char_traits@D@std@@V?$allocator@D@2@@std@@V?$vector@VXPathStepInfo@@V?$allocator@VXPathStepInfo@@@std@@@2@@std@@PEAX@2@XZ 0000000180018028 f i XMPMeta.obj
 0001:00017070       ??$_Med3@PEAPEAVXMP_Node@@P6A_NPEAV1@0@Z@std@@YAXPEAPEAVXMP_Node@@00P6A_NPEAV1@1@Z@Z 0000000180018070 f i XMPMeta.obj
 0001:000170ec       ??$_Adjust_heap@PEAPEAVXMP_Node@@_JPEAV1@P6A_NPEAV1@0@Z@std@@YAXPEAPEAVXMP_Node@@_J1$$QEAPEAV1@P6A_NPEAV1@3@Z@Z 00000001800180ec f i XMPMeta.obj
 0001:000171b4       ??$_Move@PEAPEAVXMP_Node@@V?$_Temp_iterator@PEAVXMP_Node@@@std@@@std@@YA?AV?$_Temp_iterator@PEAVXMP_Node@@@0@PEAPEAVXMP_Node@@0V10@@Z 00000001800181b4 f i XMPMeta.obj
 0001:00017210       ??$_Merge@PEAPEAVXMP_Node@@PEAPEAV1@PEAPEAV1@P6A_NPEAV1@0@Z@std@@YAPEAPEAVXMP_Node@@PEAPEAV1@0000P6A_NPEAV1@1@Z_N@Z 0000000180018210 f i XMPMeta.obj
 0001:000172e0       ??$_Buffered_rotate@PEAPEAVXMP_Node@@_JPEAV1@@std@@YAPEAPEAVXMP_Node@@PEAPEAV1@00_J1AEAV?$_Temp_iterator@PEAVXMP_Node@@@0@@Z 00000001800182e0 f i XMPMeta.obj
 0001:0001759c       ??$_Merge@PEAPEAVXMP_Node@@PEAPEAV1@V?$_Temp_iterator@PEAVXMP_Node@@@std@@P6A_NPEAV1@0@Z@std@@YA?AV?$_Temp_iterator@PEAVXMP_Node@@@0@PEAPEAVXMP_Node@@000V10@P6A_NPEAV2@2@Z_N@Z 000000018001859c f i XMPMeta.obj
 0001:00017758       ??$_Move@PEAPEAVXMP_Node@@V?$_Temp_iterator@PEAVXMP_Node@@@std@@@std@@YA?AV?$_Temp_iterator@PEAVXMP_Node@@@0@PEAPEAVXMP_Node@@0V10@U_Nonscalar_ptr_iterator_tag@0@@Z 0000000180018758 f i XMPMeta.obj
 0001:000177e4       ??_EXMPMeta2@@UEAAPEAXI@Z  00000001800187e4 f i * CIL library *:* CIL module *
 0001:000177e4       ??_GXMPMeta2@@UEAAPEAXI@Z  00000001800187e4 f i XMPMeta2-GetSet.obj
 0001:00017818       ?QualifiersIterator@INode_v1@AdobeXMPCore@@QEBA?AV?$shared_ptr@$$CBVINodeIterator_v1@AdobeXMPCore@@@std@@XZ 0000000180018818 f i XMPMeta2-GetSet.obj
 0001:00017890       ?ConvertToStructureNode@INode_v1@AdobeXMPCore@@QEBA?AV?$shared_ptr@$$CBVIStructureNode_v1@AdobeXMPCore@@@std@@XZ 0000000180018890 f i XMPMeta2-GetSet.obj
 0001:0001790c       ?ConvertToArrayNode@INode_v1@AdobeXMPCore@@QEBA?AV?$shared_ptr@$$CBVIArrayNode_v1@AdobeXMPCore@@@std@@XZ 000000018001890c f i XMPMeta2-GetSet.obj
 0001:00017988       ?Iterator@ICompositeNode_v1@AdobeXMPCore@@QEBA?AV?$shared_ptr@$$CBVINodeIterator_v1@AdobeXMPCore@@@std@@XZ 0000000180018988 f i XMPMeta2-GetSet.obj
 0001:0001801c       ??0XMPMeta2@@QEAA@XZ       000000018001901c f   XMPMeta2-GetSet.obj
 0001:00018260       ??1XMPMeta2@@UEAA@XZ       0000000180019260 f   XMPMeta2-GetSet.obj
 0001:00018364       ?GetProperty@XMPMeta2@@UEBA_NPEBD0PEAPEBDPEAK2@Z 0000000180019364 f   XMPMeta2-GetSet.obj
 0001:0001977c       ?CountArrayItems@XMPMeta2@@UEBAJPEBD0@Z 000000018001a77c f   XMPMeta2-GetSet.obj
 0001:00019928       ?ParseFromBuffer@XMPMeta2@@UEAAXPEBDKK@Z 000000018001a928 f   XMPMeta2-GetSet.obj
 0001:00019b44       ?SerializeToBuffer@XMPMeta2@@UEBAXPEAV?$basic_string@DU?$char_traits@D@std@@V?$allocator@D@2@@std@@KKPEBD1J@Z 000000018001ab44 f   XMPMeta2-GetSet.obj
 0001:00019d88       ?Erase@XMPMeta2@@UEAAXXZ   000000018001ad88 f   XMPMeta2-GetSet.obj
 0001:00019ddc       ?DoesPropertyExist@XMPMeta2@@UEBA_NPEBD0@Z 000000018001addc f   XMPMeta2-GetSet.obj
 0001:00019e98       ?SetProperty@XMPMeta2@@UEAAXPEBD00K@Z 000000018001ae98 f   XMPMeta2-GetSet.obj
 0001:00019fc4       ?SetArrayItem@XMPMeta2@@UEAAXPEBD0J0K@Z 000000018001afc4 f   XMPMeta2-GetSet.obj
 0001:0001a158       ?AppendArrayItem@XMPMeta2@@UEAAXPEBD0K0K@Z 000000018001b158 f   XMPMeta2-GetSet.obj
 0001:0001a4a4       ?SetQualifier@XMPMeta2@@UEAAXPEBD0000K@Z 000000018001b4a4 f   XMPMeta2-GetSet.obj
 0001:0001a630       ?Clone@XMPMeta2@@UEBAXPEAVXMPMeta@@K@Z 000000018001b630 f   XMPMeta2-GetSet.obj
 0001:0001a7b4       ?DeleteProperty@XMPMeta2@@UEAAXPEBD0@Z 000000018001b7b4 f   XMPMeta2-GetSet.obj
 0001:0001ad08       ?GetObjectName@XMPMeta2@@UEBAXPEAPEBDPEAK@Z 000000018001bd08 f   XMPMeta2-GetSet.obj
 0001:0001ade8       ?SetObjectName@XMPMeta2@@UEAAXPEBD@Z 000000018001bde8 f   XMPMeta2-GetSet.obj
 0001:0001bdf4       ?GetLocalizedText@XMPMeta2@@UEBA_NPEBD000PEAPEBDPEAK122@Z 000000018001cdf4 f   XMPMeta2-GetSet.obj
 0001:0001c304       ?DeleteLocalizedText@XMPMeta2@@UEAAXPEBD000@Z 000000018001d304 f   XMPMeta2-GetSet.obj
 0001:0001d030       ?SetLocalizedText@XMPMeta2@@UEAAXPEBD0000K@Z 000000018001e030 f   XMPMeta2-GetSet.obj
 0001:0001ef38       ?DumpObject@XMPMeta2@@UEBAXP6AJPEAXPEBDK@Z0@Z 000000018001ff38 f   XMPMeta2-GetSet.obj
 0001:0001f880       ?SetErrorCallback@XMPMeta2@@UEAAXP6AEP6A_NPEAXEJPEBD@Z0EJ1@Z20K@Z 0000000180020880 f   XMPMeta2-GetSet.obj
 0001:0001f8e4       ?ResetErrorCallbackLimit@XMPMeta2@@UEAAXK@Z 00000001800208e4 f   XMPMeta2-GetSet.obj
 0001:0001f924       ?count@?$_Tree@V?$_Tmap_traits@V?$basic_string@DU?$char_traits@D@std@@V?$allocator@D@2@@std@@_NU?$less@V?$basic_string@DU?$char_traits@D@std@@V?$allocator@D@2@@std@@@2@V?$allocator@U?$pair@$$CBV?$basic_string@DU?$char_traits@D@std@@V?$allocator@D@2@@std@@_N@std@@@2@$0A@@std@@@std@@QEBA_KAEBV?$basic_string@DU?$char_traits@D@std@@V?$allocator@D@2@@2@@Z 0000000180020924 f i XMPMeta2-GetSet.obj
 0001:0001fa30       ??4?$shared_ptr@VINode_v1@AdobeXMPCore@@@std@@QEAAAEAV01@AEBV01@@Z 0000000180020a30 f i XMPMeta2-GetSet.obj
 0001:0001fabc       ??4?$basic_string@DU?$char_traits@D@std@@V?$allocator@D@2@@std@@QEAAAEAV01@$$QEAV01@@Z 0000000180020abc f i XMPMeta2-GetSet.obj
 0001:0001fb7c       ??$?0VIArrayNode_v1@AdobeXMPCore@@X@?$shared_ptr@VINode_v1@AdobeXMPCore@@@std@@QEAA@AEBV?$shared_ptr@VIArrayNode_v1@AdobeXMPCore@@@1@@Z 0000000180020b7c f i XMPUtils.obj
 0001:0001fb7c       ??$?0VISimpleNode_v1@AdobeXMPCore@@X@?$shared_ptr@VINode_v1@AdobeXMPCore@@@std@@QEAA@AEBV?$shared_ptr@VISimpleNode_v1@AdobeXMPCore@@@1@@Z 0000000180020b7c f i XMPMeta2-GetSet.obj
 0001:0001fb7c       ??$?0VIStructureNode_v1@AdobeXMPCore@@X@?$shared_ptr@VINode_v1@AdobeXMPCore@@@std@@QEAA@AEBV?$shared_ptr@VIStructureNode_v1@AdobeXMPCore@@@1@@Z 0000000180020b7c f i XMPUtils.obj
 0001:0001fbc0       ??0XMP_Node@@QEAA@PEAV0@AEBV?$basic_string@DU?$char_traits@D@std@@V?$allocator@D@2@@std@@1K@Z 0000000180020bc0 f i XMPUtils-FileInfo.obj
 0001:0002029c       ?IsInternalProperty@@YA_NAEBV?$basic_string@DU?$char_traits@D@std@@V?$allocator@D@2@@std@@0@Z 000000018002129c f   XMPUtils-FileInfo.obj
 0001:00020ef8       ?CatenateArrayItems_v2@XMPUtils@@SAXAEBVXMPMeta@@PEBD111KPEAV?$basic_string@DU?$char_traits@D@std@@V?$allocator@D@2@@std@@@Z 0000000180021ef8 f   XMPUtils-FileInfo.obj
 0001:0002178c       ?CatenateArrayItems@XMPUtils@@SAXAEBVXMPMeta@@PEBD111KPEAV?$basic_string@DU?$char_traits@D@std@@V?$allocator@D@2@@std@@@Z 000000018002278c f   XMPUtils-FileInfo.obj
 0001:00021d40       ?SeparateArrayItems_v2@XMPUtils@@SAXPEAVXMPMeta@@PEBD1K1@Z 0000000180022d40 f   XMPUtils-FileInfo.obj
 0001:00022d74       ?SeparateArrayItems@XMPUtils@@SAXPEAVXMPMeta@@PEBD1K1@Z 0000000180023d74 f   XMPUtils-FileInfo.obj
 0001:00023434       ?ApplyTemplate@XMPUtils@@SAXPEAVXMPMeta@@AEBV2@K@Z 0000000180024434 f   XMPUtils-FileInfo.obj
 0001:000238b8       ?RemoveProperties@XMPUtils@@SAXPEAVXMPMeta@@PEBD1K@Z 00000001800248b8 f   XMPUtils-FileInfo.obj
 0001:00023bac       ?DuplicateSubtree@XMPUtils@@SAXAEBVXMPMeta@@PEAV2@PEBD222K@Z 0000000180024bac f   XMPUtils-FileInfo.obj
 0001:0002441c       ??1?$vector@_NV?$allocator@_N@std@@@std@@QEAA@XZ 000000018002541c f i XMPUtils-FileInfo.obj
 0001:0002441c       ??1?$_Vb_val@V?$allocator@_N@std@@@std@@QEAA@XZ 000000018002541c f i XMPUtils-FileInfo.obj
 0001:00024458       ??0?$vector@_NV?$allocator@_N@std@@@std@@QEAA@_KAEB_NAEBV?$allocator@_N@1@@Z 0000000180025458 f i XMPUtils-FileInfo.obj
 0001:00024540       ??1?$vector@V?$shared_ptr@VINode_v1@AdobeXMPCore@@@std@@V?$allocator@V?$shared_ptr@VINode_v1@AdobeXMPCore@@@std@@@2@@std@@QEAA@XZ 0000000180025540 f i XMPUtils-FileInfo.obj
 0001:00024540       ??1?$vector@V?$shared_ptr@$$CBVINode_v1@AdobeXMPCore@@@std@@V?$allocator@V?$shared_ptr@$$CBVINode_v1@AdobeXMPCore@@@std@@@2@@std@@QEAA@XZ 0000000180025540 f i XMPUtils.obj
 0001:000245e0       ?push_back@?$vector@V?$shared_ptr@VINode_v1@AdobeXMPCore@@@std@@V?$allocator@V?$shared_ptr@VINode_v1@AdobeXMPCore@@@std@@@2@@std@@QEAAX$$QEAV?$shared_ptr@VINode_v1@AdobeXMPCore@@@2@@Z 00000001800255e0 f i XMPUtils-FileInfo.obj
 0001:0002465c       ??0?$vector@PEAVXMP_Node@@V?$allocator@PEAVXMP_Node@@@std@@@std@@QEAA@AEBV01@@Z 000000018002565c f i XMPUtils-FileInfo.obj
 0001:0002470c       ??1?$vector@V?$basic_string@DU?$char_traits@D@std@@V?$allocator@D@2@@std@@V?$allocator@V?$basic_string@DU?$char_traits@D@std@@V?$allocator@D@2@@std@@@2@@std@@QEAA@XZ 000000018002570c f i XMPUtils-FileInfo.obj
 0001:000247a8       ?push_back@?$vector@V?$basic_string@DU?$char_traits@D@std@@V?$allocator@D@2@@std@@V?$allocator@V?$basic_string@DU?$char_traits@D@std@@V?$allocator@D@2@@std@@@2@@std@@QEAAX$$QEAV?$basic_string@DU?$char_traits@D@std@@V?$allocator@D@2@@2@@Z 00000001800257a8 f i XMPUtils-FileInfo.obj
 0001:000248ec       ?_Reserve@?$vector@V?$shared_ptr@VINode_v1@AdobeXMPCore@@@std@@V?$allocator@V?$shared_ptr@VINode_v1@AdobeXMPCore@@@std@@@2@@std@@IEAAX_K@Z 00000001800258ec f i XMPUtils-FileInfo.obj
 0001:000248ec       ?_Reserve@?$vector@V?$shared_ptr@$$CBVINode_v1@AdobeXMPCore@@@std@@V?$allocator@V?$shared_ptr@$$CBVINode_v1@AdobeXMPCore@@@std@@@2@@std@@IEAAX_K@Z 00000001800258ec f i XMPUtils.obj
 0001:00024964       ?_Reallocate@?$vector@V?$shared_ptr@$$CBVINode_v1@AdobeXMPCore@@@std@@V?$allocator@V?$shared_ptr@$$CBVINode_v1@AdobeXMPCore@@@std@@@2@@std@@IEAAX_K@Z 0000000180025964 f i XMPUtils.obj
 0001:00024964       ?_Reallocate@?$vector@V?$shared_ptr@VINode_v1@AdobeXMPCore@@@std@@V?$allocator@V?$shared_ptr@VINode_v1@AdobeXMPCore@@@std@@@2@@std@@IEAAX_K@Z 0000000180025964 f i XMPUtils-FileInfo.obj
 0001:00024a4c       ?_Reallocate@?$vector@V?$basic_string@DU?$char_traits@D@std@@V?$allocator@D@2@@std@@V?$allocator@V?$basic_string@DU?$char_traits@D@std@@V?$allocator@D@2@@std@@@2@@std@@IEAAX_K@Z 0000000180025a4c f i XMPUtils-FileInfo.obj
 0001:00024b2c       ?_Construct_n@?$vector@IV?$allocator@_N@std@@@std@@QEAAX_KPEBI@Z 0000000180025b2c f i XMPUtils-FileInfo.obj
 0001:00024bcc       ??$?4VISimpleNode_v1@AdobeXMPCore@@@?$shared_ptr@VINode_v1@AdobeXMPCore@@@std@@QEAAAEAV01@$$QEAV?$shared_ptr@VISimpleNode_v1@AdobeXMPCore@@@1@@Z 0000000180025bcc f i XMPUtils.obj
 0001:00024bcc       ??$?4VIArrayNode_v1@AdobeXMPCore@@@?$shared_ptr@VINode_v1@AdobeXMPCore@@@std@@QEAAAEAV01@$$QEAV?$shared_ptr@VIArrayNode_v1@AdobeXMPCore@@@1@@Z 0000000180025bcc f i XMPUtils-FileInfo.obj
 0001:00024bcc       ??$?4VIStructureNode_v1@AdobeXMPCore@@@?$shared_ptr@VINode_v1@AdobeXMPCore@@@std@@QEAAAEAV01@$$QEAV?$shared_ptr@VIStructureNode_v1@AdobeXMPCore@@@1@@Z 0000000180025bcc f i XMPUtils.obj
 0001:00024c5c       ??$_Uninit_move@PEAV?$shared_ptr@VINode_v1@AdobeXMPCore@@@std@@PEAV12@V?$allocator@V?$shared_ptr@VINode_v1@AdobeXMPCore@@@std@@@2@V12@@std@@YAPEAV?$shared_ptr@VINode_v1@AdobeXMPCore@@@0@PEAV10@00AEAU?$_Wrap_alloc@V?$allocator@V?$shared_ptr@VINode_v1@AdobeXMPCore@@@std@@@std@@@0@0U_Nonscalar_ptr_iterator_tag@0@@Z 0000000180025c5c f i XMPUtils-FileInfo.obj
 0001:00024c5c       ??$_Uninit_move@PEAV?$shared_ptr@$$CBVINode_v1@AdobeXMPCore@@@std@@PEAV12@V?$allocator@V?$shared_ptr@$$CBVINode_v1@AdobeXMPCore@@@std@@@2@V12@@std@@YAPEAV?$shared_ptr@$$CBVINode_v1@AdobeXMPCore@@@0@PEAV10@00AEAU?$_Wrap_alloc@V?$allocator@V?$shared_ptr@$$CBVINode_v1@AdobeXMPCore@@@std@@@std@@@0@0U_Nonscalar_ptr_iterator_tag@0@@Z 0000000180025c5c f i XMPUtils.obj
 0001:00024c8c       ??$_Uninit_move@PEAV?$basic_string@DU?$char_traits@D@std@@V?$allocator@D@2@@std@@PEAV12@V?$allocator@V?$basic_string@DU?$char_traits@D@std@@V?$allocator@D@2@@std@@@2@V12@@std@@YAPEAV?$basic_string@DU?$char_traits@D@std@@V?$allocator@D@2@@0@PEAV10@00AEAU?$_Wrap_alloc@V?$allocator@V?$basic_string@DU?$char_traits@D@std@@V?$allocator@D@2@@std@@@std@@@0@0U_Nonscalar_ptr_iterator_tag@0@@Z 0000000180025c8c f i XMPUtils-FileInfo.obj
 0001:00024cdc       __local_stdio_scanf_options 0000000180025cdc f i XMPUtils.obj
 0001:00024ce4       sscanf                     0000000180025ce4 f i XMPUtils.obj
 0001:00024d30       ?GetQualifier@INode_v1@AdobeXMPCore@@QEBA?AV?$shared_ptr@$$CBVINode_v1@AdobeXMPCore@@@std@@PEBD_K01@Z 0000000180025d30 f i XMPUtils.obj
 0001:00024dbc       ?SetNode@XMPUtils@@SAXAEBV?$shared_ptr@VINode_v1@AdobeXMPCore@@@std@@PEBDK@Z 0000000180025dbc f   XMPUtils.obj
 0001:00025188       ?CreateArrayChildNode@XMPUtils@@SA?AV?$shared_ptr@VINode_v1@AdobeXMPCore@@@std@@AEBV?$shared_ptr@VIArrayNode_v1@AdobeXMPCore@@@3@K@Z 0000000180026188 f   XMPUtils.obj
 0001:0002581c       ?DoSetArrayItem@XMPUtils@@SAXAEBV?$shared_ptr@VIArrayNode_v1@AdobeXMPCore@@@std@@JPEBDK@Z 000000018002681c f   XMPUtils.obj
 0001:00025c88       ?SetImplicitNodeInformation@XMPUtils@@SAXAEA_NAEAV?$shared_ptr@VINode_v1@AdobeXMPCore@@@std@@1AEAJJ@Z 0000000180026c88 f   XMPUtils.obj
 0001:00025cc0       ?GetNameSpaceAndNameFromStepValue@XMPUtils@@SAXAEBV?$basic_string@DU?$char_traits@D@std@@V?$allocator@D@2@@std@@AEBV?$shared_ptr@$$CBVINameSpacePrefixMap_v1@AdobeXMPCore@@@3@AEAV23@2@Z 0000000180026cc0 f   XMPUtils.obj
 0001:00025e18       ?CreateTerminalNode@XMPUtils@@SA?AV?$shared_ptr@VINode_v1@AdobeXMPCore@@@std@@PEBD0K@Z 0000000180026e18 f   XMPUtils.obj
 0001:00025ff8       ?HandleConstAliasStep@XMPUtils@@SA_NAEBV?$shared_ptr@VIMetadata_v1@AdobeXMPCore@@@std@@AEAV?$shared_ptr@VINode_v1@AdobeXMPCore@@@3@AEBV?$vector@VXPathStepInfo@@V?$allocator@VXPathStepInfo@@@std@@@3@PEAJ@Z 0000000180026ff8 f   XMPUtils.obj
 0001:0002656c       ?HandleAliasStep@XMPUtils@@SA_NAEBV?$shared_ptr@VIMetadata_v1@AdobeXMPCore@@@std@@AEAV?$vector@VXPathStepInfo@@V?$allocator@VXPathStepInfo@@@std@@@3@_NKAEAV?$shared_ptr@VINode_v1@AdobeXMPCore@@@3@PEAJ2@Z 000000018002756c f   XMPUtils.obj
 0001:000271c0       ?FindNode@XMPUtils@@SA_NAEBV?$shared_ptr@VIMetadata_v1@AdobeXMPCore@@@std@@AEAV?$vector@VXPathStepInfo@@V?$allocator@VXPathStepInfo@@@std@@@3@_NKAEAV?$shared_ptr@VINode_v1@AdobeXMPCore@@@3@PEAJ2@Z 00000001800281c0 f   XMPUtils.obj
 0001:00029dc0       ?FindCnstNode@XMPUtils@@SA_NAEBV?$shared_ptr@VIMetadata_v1@AdobeXMPCore@@@std@@AEAV?$vector@VXPathStepInfo@@V?$allocator@VXPathStepInfo@@@std@@@3@AEAV?$shared_ptr@VINode_v1@AdobeXMPCore@@@3@PEAKPEAJ@Z 000000018002adc0 f   XMPUtils.obj
 0001:0002b1fc       ?GetNodeChildCount@XMPUtils@@SA_KAEBV?$shared_ptr@$$CBVINode_v1@AdobeXMPCore@@@std@@@Z 000000018002c1fc f   XMPUtils.obj
 0001:0002b2ec       ?GetNodeChildIterator@XMPUtils@@SA?AV?$shared_ptr@$$CBVINodeIterator_v1@AdobeXMPCore@@@std@@AEBV?$shared_ptr@$$CBVINode_v1@AdobeXMPCore@@@3@@Z 000000018002c2ec f   XMPUtils.obj
 0001:0002b460       ?GetIXMPOptions@XMPUtils@@SAKAEBV?$shared_ptr@$$CBVINode_v1@AdobeXMPCore@@@std@@@Z 000000018002c460 f   XMPUtils.obj
 0001:0002baec       ?FindChildNode@XMPUtils@@SA?AV?$shared_ptr@VINode_v1@AdobeXMPCore@@@std@@AEBV23@PEBD1_NPEA_K@Z 000000018002caec f   XMPUtils.obj
 0001:0002d508       ?ComposeArrayItemPath@XMPUtils@@SAXPEBD0JPEAV?$basic_string@DU?$char_traits@D@std@@V?$allocator@D@2@@std@@@Z 000000018002e508 f   XMPUtils.obj
 0001:0002d6ac       ?ComposeStructFieldPath@XMPUtils@@SAXPEBD000PEAV?$basic_string@DU?$char_traits@D@std@@V?$allocator@D@2@@std@@@Z 000000018002e6ac f   XMPUtils.obj
 0001:0002d874       ?ComposeQualifierPath@XMPUtils@@SAXPEBD000PEAV?$basic_string@DU?$char_traits@D@std@@V?$allocator@D@2@@std@@@Z 000000018002e874 f   XMPUtils.obj
 0001:0002da4c       ?ComposeLangSelector@XMPUtils@@SAXPEBD00PEAV?$basic_string@DU?$char_traits@D@std@@V?$allocator@D@2@@std@@@Z 000000018002ea4c f   XMPUtils.obj
 0001:0002dc28       ?ComposeFieldSelector@XMPUtils@@SAXPEBD0000PEAV?$basic_string@DU?$char_traits@D@std@@V?$allocator@D@2@@std@@@Z 000000018002ec28 f   XMPUtils.obj
 0001:0002de6c       ?ConvertFromInt@XMPUtils@@SAXJPEBDPEAV?$basic_string@DU?$char_traits@D@std@@V?$allocator@D@2@@std@@@Z 000000018002ee6c f   XMPUtils.obj
 0001:0002df00       ?ConvertFromInt64@XMPUtils@@SAX_JPEBDPEAV?$basic_string@DU?$char_traits@D@std@@V?$allocator@D@2@@std@@@Z 000000018002ef00 f   XMPUtils.obj
 0001:0002df94       ?ConvertFromFloat@XMPUtils@@SAXNPEBDPEAV?$basic_string@DU?$char_traits@D@std@@V?$allocator@D@2@@std@@@Z 000000018002ef94 f   XMPUtils.obj
 0001:0002e030       ?ConvertFromDate@XMPUtils@@SAXAEBUXMP_DateTime@@PEAV?$basic_string@DU?$char_traits@D@std@@V?$allocator@D@2@@std@@@Z 000000018002f030 f   XMPUtils.obj
 0001:0002e374       ?ConvertToBool@XMPUtils@@SA_NPEBD@Z 000000018002f374 f   XMPUtils.obj
 0001:0002e528       ?ConvertToInt@XMPUtils@@SAJPEBD@Z 000000018002f528 f   XMPUtils.obj
 0001:0002e5d8       ?ConvertToInt64@XMPUtils@@SA_JPEBD@Z 000000018002f5d8 f   XMPUtils.obj
 0001:0002e68c       ?ConvertToFloat@XMPUtils@@SANPEBD@Z 000000018002f68c f   XMPUtils.obj
 0001:0002e808       ?ConvertToDate@XMPUtils@@SAXPEBDPEAUXMP_DateTime@@@Z 000000018002f808 f   XMPUtils.obj
 0001:0002ee40       ?EncodeToBase64@XMPUtils@@SAXPEBDKPEAV?$basic_string@DU?$char_traits@D@std@@V?$allocator@D@2@@std@@@Z 000000018002fe40 f   XMPUtils.obj
 0001:0002f094       ?DecodeFromBase64@XMPUtils@@SAXPEBDKPEAV?$basic_string@DU?$char_traits@D@std@@V?$allocator@D@2@@std@@@Z 0000000180030094 f   XMPUtils.obj
 0001:0002f2e4       ?PackageForJPEG@XMPUtils@@SAXAEBVXMPMeta@@PEAV?$basic_string@DU?$char_traits@D@std@@V?$allocator@D@2@@std@@11@Z 00000001800302e4 f   XMPUtils.obj
 0001:0002fa8c       ??1?$multimap@_KU?$pair@PEBDPEBD@std@@U?$less@_K@2@V?$allocator@U?$pair@$$CB_KU?$pair@PEBDPEBD@std@@@std@@@2@@std@@QEAA@XZ 0000000180030a8c f i XMPUtils.obj
 0001:0002fa8c       ??1?$multimap@_KU?$pair@PEAV?$basic_string@DU?$char_traits@D@std@@V?$allocator@D@2@@std@@PEAV12@@std@@U?$less@_K@2@V?$allocator@U?$pair@$$CB_KU?$pair@PEAV?$basic_string@DU?$char_traits@D@std@@V?$allocator@D@2@@std@@PEAV12@@std@@@std@@@2@@std@@QEAA@XZ 0000000180030a8c f i XMPUtils.obj
 0001:0002fa94       ?PackageForJPEG@XMPUtils@@SAXAEBVXMPMeta2@@PEAV?$basic_string@DU?$char_traits@D@std@@V?$allocator@D@2@@std@@11@Z 0000000180030a94 f   XMPUtils.obj
 0001:000305b4       ?CurrentDateTime@XMPUtils@@SAXPEAUXMP_DateTime@@@Z 00000001800315b4 f   XMPUtils.obj
 0001:00030674       ?SetTimeZone@XMPUtils@@SAXPEAUXMP_DateTime@@@Z 0000000180031674 f   XMPUtils.obj
 0001:00030968       ?ConvertToUTCTime@XMPUtils@@SAXPEAUXMP_DateTime@@@Z 0000000180031968 f   XMPUtils.obj
 0001:000309b8       ?Trim@XMPUtils@@SAAEAV?$basic_string@DU?$char_traits@D@std@@V?$allocator@D@2@@std@@AEAV23@@Z 00000001800319b8 f   XMPUtils.obj
 0001:00030b78       ?MapXMPErrorToIError@XMPUtils@@SAXJAEAW4eErrorDomain@IError_v1@AdobeXMPCommon@@AEAK@Z 0000000180031b78 f   XMPUtils.obj
 0001:00030cf8       ?erase@?$_Tree@V?$_Tmap_traits@_KU?$pair@PEBDPEBD@std@@U?$less@_K@2@V?$allocator@U?$pair@$$CB_KU?$pair@PEBDPEBD@std@@@std@@@2@$00@std@@@std@@QEAA?AV?$_Tree_iterator@V?$_Tree_val@U?$_Tree_simple_types@U?$pair@$$CB_KU?$pair@PEBDPEBD@std@@@std@@@std@@@std@@@2@V?$_Tree_const_iterator@V?$_Tree_val@U?$_Tree_simple_types@U?$pair@$$CB_KU?$pair@PEBDPEBD@std@@@std@@@std@@@std@@@2@@Z 0000000180031cf8 f i XMPUtils.obj
 0001:00030cf8       ?erase@?$_Tree@V?$_Tmap_traits@_KU?$pair@PEAV?$basic_string@DU?$char_traits@D@std@@V?$allocator@D@2@@std@@PEAV12@@std@@U?$less@_K@2@V?$allocator@U?$pair@$$CB_KU?$pair@PEAV?$basic_string@DU?$char_traits@D@std@@V?$allocator@D@2@@std@@PEAV12@@std@@@std@@@2@$00@std@@@std@@QEAA?AV?$_Tree_iterator@V?$_Tree_val@U?$_Tree_simple_types@U?$pair@$$CB_KU?$pair@PEAV?$basic_string@DU?$char_traits@D@std@@V?$allocator@D@2@@std@@PEAV12@@std@@@std@@@std@@@std@@@2@V?$_Tree_const_iterator@V?$_Tree_val@U?$_Tree_simple_types@U?$pair@$$CB_KU?$pair@PEAV?$basic_string@DU?$char_traits@D@std@@V?$allocator@D@2@@std@@PEAV12@@std@@@std@@@std@@@std@@@2@@Z 0000000180031cf8 f i XMPUtils.obj
 0001:00031188       ??1?$_Tree@V?$_Tmap_traits@_KU?$pair@PEAV?$basic_string@DU?$char_traits@D@std@@V?$allocator@D@2@@std@@PEAV12@@std@@U?$less@_K@2@V?$allocator@U?$pair@$$CB_KU?$pair@PEAV?$basic_string@DU?$char_traits@D@std@@V?$allocator@D@2@@std@@PEAV12@@std@@@std@@@2@$00@std@@@std@@QEAA@XZ 0000000180032188 f i XMPUtils.obj
 0001:00031188       ??1?$_Tree@V?$_Tmap_traits@_KU?$pair@PEBDPEBD@std@@U?$less@_K@2@V?$allocator@U?$pair@$$CB_KU?$pair@PEBDPEBD@std@@@std@@@2@$00@std@@@std@@QEAA@XZ 0000000180032188 f i XMPUtils.obj
 0001:00031280       ?push_back@?$basic_string@DU?$char_traits@D@std@@V?$allocator@D@2@@std@@QEAAXD@Z 0000000180032280 f i XMPUtils.obj
 0001:000313ac       ?_Buyheadnode@?$_Tree_comp_alloc@V?$_Tmap_traits@_KU?$pair@PEAV?$basic_string@DU?$char_traits@D@std@@V?$allocator@D@2@@std@@PEAV12@@std@@U?$less@_K@2@V?$allocator@U?$pair@$$CB_KU?$pair@PEAV?$basic_string@DU?$char_traits@D@std@@V?$allocator@D@2@@std@@PEAV12@@std@@@std@@@2@$00@std@@@std@@QEAAPEAU?$_Tree_node@U?$pair@$$CB_KU?$pair@PEAV?$basic_string@DU?$char_traits@D@std@@V?$allocator@D@2@@std@@PEAV12@@std@@@std@@PEAX@2@XZ 00000001800323ac f i XMPUtils.obj
 0001:000313ac       ?_Buyheadnode@?$_Tree_comp_alloc@V?$_Tmap_traits@_KU?$pair@PEBDPEBD@std@@U?$less@_K@2@V?$allocator@U?$pair@$$CB_KU?$pair@PEBDPEBD@std@@@std@@@2@$00@std@@@std@@QEAAPEAU?$_Tree_node@U?$pair@$$CB_KU?$pair@PEBDPEBD@std@@@std@@PEAX@2@XZ 00000001800323ac f i XMPUtils.obj
 0001:000313e8       ?_Erase@?$_Tree@V?$_Tmap_traits@_KU?$pair@PEBDPEBD@std@@U?$less@_K@2@V?$allocator@U?$pair@$$CB_KU?$pair@PEBDPEBD@std@@@std@@@2@$00@std@@@std@@IEAAXPEAU?$_Tree_node@U?$pair@$$CB_KU?$pair@PEBDPEBD@std@@@std@@PEAX@2@@Z 00000001800323e8 f i XMPUtils.obj
 0001:000313e8       ?_Erase@?$_Tree@V?$_Tmap_traits@_KU?$pair@PEAV?$basic_string@DU?$char_traits@D@std@@V?$allocator@D@2@@std@@PEAV12@@std@@U?$less@_K@2@V?$allocator@U?$pair@$$CB_KU?$pair@PEAV?$basic_string@DU?$char_traits@D@std@@V?$allocator@D@2@@std@@PEAV12@@std@@@std@@@2@$00@std@@@std@@IEAAXPEAU?$_Tree_node@U?$pair@$$CB_KU?$pair@PEAV?$basic_string@DU?$char_traits@D@std@@V?$allocator@D@2@@std@@PEAV12@@std@@@std@@PEAX@2@@Z 00000001800323e8 f i XMPUtils.obj
 0001:00031440       ??$?4VIArrayNode_v1@AdobeXMPCore@@@?$shared_ptr@VINode_v1@AdobeXMPCore@@@std@@QEAAAEAV01@AEBV?$shared_ptr@VIArrayNode_v1@AdobeXMPCore@@@1@@Z 0000000180032440 f i XMPUtils.obj
 0001:00031440       ??$?4VISimpleNode_v1@AdobeXMPCore@@@?$shared_ptr@VINode_v1@AdobeXMPCore@@@std@@QEAAAEAV01@AEBV?$shared_ptr@VISimpleNode_v1@AdobeXMPCore@@@1@@Z 0000000180032440 f i XMPUtils.obj
 0001:00031440       ??$?4VIMetadata_v1@AdobeXMPCore@@@?$shared_ptr@VINode_v1@AdobeXMPCore@@@std@@QEAAAEAV01@AEBV?$shared_ptr@VIMetadata_v1@AdobeXMPCore@@@1@@Z 0000000180032440 f i XMPUtils.obj
 0001:00031440       ??$?4VIStructureNode_v1@AdobeXMPCore@@@?$shared_ptr@VINode_v1@AdobeXMPCore@@@std@@QEAAAEAV01@AEBV?$shared_ptr@VIStructureNode_v1@AdobeXMPCore@@@1@@Z 0000000180032440 f i XMPUtils.obj
 0001:000314e8       ??$const_pointer_cast@VINode_v1@AdobeXMPCore@@$$CBV12@@std@@YA?AV?$shared_ptr@VINode_v1@AdobeXMPCore@@@0@AEBV?$shared_ptr@$$CBVINode_v1@AdobeXMPCore@@@0@@Z 00000001800324e8 f i XMPUtils.obj
 0001:00031514       ??$?0VIMetadata_v1@AdobeXMPCore@@X@?$shared_ptr@VIStructureNode_v1@AdobeXMPCore@@@std@@QEAA@AEBV?$shared_ptr@VIMetadata_v1@AdobeXMPCore@@@1@@Z 0000000180032514 f i XMPUtils.obj
 0001:000315b0       ??$_Buynode@AEAU?$pair@$$CB_KU?$pair@PEBDPEBD@std@@@std@@@?$_Tree_comp_alloc@V?$_Tmap_traits@_KU?$pair@PEBDPEBD@std@@U?$less@_K@2@V?$allocator@U?$pair@$$CB_KU?$pair@PEBDPEBD@std@@@std@@@2@$00@std@@@std@@QEAAPEAU?$_Tree_node@U?$pair@$$CB_KU?$pair@PEBDPEBD@std@@@std@@PEAX@1@AEAU?$pair@$$CB_KU?$pair@PEBDPEBD@std@@@1@@Z 00000001800325b0 f i XMPUtils.obj
 0001:000315b0       ??$_Buynode@AEAU?$pair@$$CB_KU?$pair@PEAV?$basic_string@DU?$char_traits@D@std@@V?$allocator@D@2@@std@@PEAV12@@std@@@std@@@?$_Tree_comp_alloc@V?$_Tmap_traits@_KU?$pair@PEAV?$basic_string@DU?$char_traits@D@std@@V?$allocator@D@2@@std@@PEAV12@@std@@U?$less@_K@2@V?$allocator@U?$pair@$$CB_KU?$pair@PEAV?$basic_string@DU?$char_traits@D@std@@V?$allocator@D@2@@std@@PEAV12@@std@@@std@@@2@$00@std@@@std@@QEAAPEAU?$_Tree_node@U?$pair@$$CB_KU?$pair@PEAV?$basic_string@DU?$char_traits@D@std@@V?$allocator@D@2@@std@@PEAV12@@std@@@std@@PEAX@1@AEAU?$pair@$$CB_KU?$pair@PEAV?$basic_string@DU?$char_traits@D@std@@V?$allocator@D@2@@std@@PEAV12@@std@@@1@@Z 00000001800325b0 f i XMPUtils.obj
 0001:000315e4       ??$_Insert_hint@AEAU?$pair@$$CB_KU?$pair@PEAV?$basic_string@DU?$char_traits@D@std@@V?$allocator@D@2@@std@@PEAV12@@std@@@std@@PEAU?$_Tree_node@U?$pair@$$CB_KU?$pair@PEAV?$basic_string@DU?$char_traits@D@std@@V?$allocator@D@2@@std@@PEAV12@@std@@@std@@PEAX@2@@?$_Tree@V?$_Tmap_traits@_KU?$pair@PEAV?$basic_string@DU?$char_traits@D@std@@V?$allocator@D@2@@std@@PEAV12@@std@@U?$less@_K@2@V?$allocator@U?$pair@$$CB_KU?$pair@PEAV?$basic_string@DU?$char_traits@D@std@@V?$allocator@D@2@@std@@PEAV12@@std@@@std@@@2@$00@std@@@std@@IEAA?AV?$_Tree_iterator@V?$_Tree_val@U?$_Tree_simple_types@U?$pair@$$CB_KU?$pair@PEAV?$basic_string@DU?$char_traits@D@std@@V?$allocator@D@2@@std@@PEAV12@@std@@@std@@@std@@@std@@@1@V?$_Tree_const_iterator@V?$_Tree_val@U?$_Tree_simple_types@U?$pair@$$CB_KU?$pair@PEAV?$basic_string@DU?$char_traits@D@std@@V?$allocator@D@2@@std@@PEAV12@@std@@@std@@@std@@@std@@@1@AEAU?$pair@$$CB_KU?$pair@PEAV?$basic_string@DU?$char_traits@D@std@@V?$allocator@D@2@@std@@PEAV12@@std@@@1@PEAU?$_Tree_node@U?$pair@$$CB_KU?$pair@PEAV?$basic_string@DU?$char_traits@D@std@@V?$allocator@D@2@@std@@PEAV12@@std@@@std@@PEAX@1@@Z 00000001800325e4 f i XMPUtils.obj
 0001:000315e4       ??$_Insert_hint@AEAU?$pair@$$CB_KU?$pair@PEBDPEBD@std@@@std@@PEAU?$_Tree_node@U?$pair@$$CB_KU?$pair@PEBDPEBD@std@@@std@@PEAX@2@@?$_Tree@V?$_Tmap_traits@_KU?$pair@PEBDPEBD@std@@U?$less@_K@2@V?$allocator@U?$pair@$$CB_KU?$pair@PEBDPEBD@std@@@std@@@2@$00@std@@@std@@IEAA?AV?$_Tree_iterator@V?$_Tree_val@U?$_Tree_simple_types@U?$pair@$$CB_KU?$pair@PEBDPEBD@std@@@std@@@std@@@std@@@1@V?$_Tree_const_iterator@V?$_Tree_val@U?$_Tree_simple_types@U?$pair@$$CB_KU?$pair@PEBDPEBD@std@@@std@@@std@@@std@@@1@AEAU?$pair@$$CB_KU?$pair@PEBDPEBD@std@@@1@PEAU?$_Tree_node@U?$pair@$$CB_KU?$pair@PEBDPEBD@std@@@std@@PEAX@1@@Z 00000001800325e4 f i XMPUtils.obj
 0001:00031804       ?_Buynode0@?$_Tree_comp_alloc@V?$_Tmap_traits@_KU?$pair@PEAV?$basic_string@DU?$char_traits@D@std@@V?$allocator@D@2@@std@@PEAV12@@std@@U?$less@_K@2@V?$allocator@U?$pair@$$CB_KU?$pair@PEAV?$basic_string@DU?$char_traits@D@std@@V?$allocator@D@2@@std@@PEAV12@@std@@@std@@@2@$00@std@@@std@@QEAAPEAU?$_Tree_node@U?$pair@$$CB_KU?$pair@PEAV?$basic_string@DU?$char_traits@D@std@@V?$allocator@D@2@@std@@PEAV12@@std@@@std@@PEAX@2@XZ 0000000180032804 f i XMPUtils.obj
 0001:00031804       ?_Buynode0@?$_Tree_comp_alloc@V?$_Tmap_traits@_KU?$pair@PEBDPEBD@std@@U?$less@_K@2@V?$allocator@U?$pair@$$CB_KU?$pair@PEBDPEBD@std@@@std@@@2@$00@std@@@std@@QEAAPEAU?$_Tree_node@U?$pair@$$CB_KU?$pair@PEBDPEBD@std@@@std@@PEAX@2@XZ 0000000180032804 f i XMPUtils.obj
 0001:0003184c       ??$_Insert_at@AEAU?$pair@$$CB_KU?$pair@PEBDPEBD@std@@@std@@PEAU?$_Tree_node@U?$pair@$$CB_KU?$pair@PEBDPEBD@std@@@std@@PEAX@2@@?$_Tree@V?$_Tmap_traits@_KU?$pair@PEBDPEBD@std@@U?$less@_K@2@V?$allocator@U?$pair@$$CB_KU?$pair@PEBDPEBD@std@@@std@@@2@$00@std@@@std@@IEAA?AV?$_Tree_iterator@V?$_Tree_val@U?$_Tree_simple_types@U?$pair@$$CB_KU?$pair@PEBDPEBD@std@@@std@@@std@@@std@@@1@_NPEAU?$_Tree_node@U?$pair@$$CB_KU?$pair@PEBDPEBD@std@@@std@@PEAX@1@AEAU?$pair@$$CB_KU?$pair@PEBDPEBD@std@@@1@1@Z 000000018003284c f i XMPUtils.obj
 0001:0003184c       ??$_Insert_at@AEAU?$pair@$$CB_KU?$pair@PEAV?$basic_string@DU?$char_traits@D@std@@V?$allocator@D@2@@std@@PEAV12@@std@@@std@@PEAU?$_Tree_node@U?$pair@$$CB_KU?$pair@PEAV?$basic_string@DU?$char_traits@D@std@@V?$allocator@D@2@@std@@PEAV12@@std@@@std@@PEAX@2@@?$_Tree@V?$_Tmap_traits@_KU?$pair@PEAV?$basic_string@DU?$char_traits@D@std@@V?$allocator@D@2@@std@@PEAV12@@std@@U?$less@_K@2@V?$allocator@U?$pair@$$CB_KU?$pair@PEAV?$basic_string@DU?$char_traits@D@std@@V?$allocator@D@2@@std@@PEAV12@@std@@@std@@@2@$00@std@@@std@@IEAA?AV?$_Tree_iterator@V?$_Tree_val@U?$_Tree_simple_types@U?$pair@$$CB_KU?$pair@PEAV?$basic_string@DU?$char_traits@D@std@@V?$allocator@D@2@@std@@PEAV12@@std@@@std@@@std@@@std@@@1@_NPEAU?$_Tree_node@U?$pair@$$CB_KU?$pair@PEAV?$basic_string@DU?$char_traits@D@std@@V?$allocator@D@2@@std@@PEAV12@@std@@@std@@PEAX@1@AEAU?$pair@$$CB_KU?$pair@PEAV?$basic_string@DU?$char_traits@D@std@@V?$allocator@D@2@@std@@PEAV12@@std@@@1@1@Z 000000018003284c f i XMPUtils.obj
 0001:00031ad0       ??$_Insert_nohint@AEAU?$pair@$$CB_KU?$pair@PEAV?$basic_string@DU?$char_traits@D@std@@V?$allocator@D@2@@std@@PEAV12@@std@@@std@@PEAU?$_Tree_node@U?$pair@$$CB_KU?$pair@PEAV?$basic_string@DU?$char_traits@D@std@@V?$allocator@D@2@@std@@PEAV12@@std@@@std@@PEAX@2@@?$_Tree@V?$_Tmap_traits@_KU?$pair@PEAV?$basic_string@DU?$char_traits@D@std@@V?$allocator@D@2@@std@@PEAV12@@std@@U?$less@_K@2@V?$allocator@U?$pair@$$CB_KU?$pair@PEAV?$basic_string@DU?$char_traits@D@std@@V?$allocator@D@2@@std@@PEAV12@@std@@@std@@@2@$00@std@@@std@@IEAA?AU?$pair@V?$_Tree_iterator@V?$_Tree_val@U?$_Tree_simple_types@U?$pair@$$CB_KU?$pair@PEAV?$basic_string@DU?$char_traits@D@std@@V?$allocator@D@2@@std@@PEAV12@@std@@@std@@@std@@@std@@@std@@_N@1@_NAEAU?$pair@$$CB_KU?$pair@PEAV?$basic_string@DU?$char_traits@D@std@@V?$allocator@D@2@@std@@PEAV12@@std@@@1@PEAU?$_Tree_node@U?$pair@$$CB_KU?$pair@PEAV?$basic_string@DU?$char_traits@D@std@@V?$allocator@D@2@@std@@PEAV12@@std@@@std@@PEAX@1@@Z 0000000180032ad0 f i XMPUtils.obj
 0001:00031ad0       ??$_Insert_nohint@AEAU?$pair@$$CB_KU?$pair@PEBDPEBD@std@@@std@@PEAU?$_Tree_node@U?$pair@$$CB_KU?$pair@PEBDPEBD@std@@@std@@PEAX@2@@?$_Tree@V?$_Tmap_traits@_KU?$pair@PEBDPEBD@std@@U?$less@_K@2@V?$allocator@U?$pair@$$CB_KU?$pair@PEBDPEBD@std@@@std@@@2@$00@std@@@std@@IEAA?AU?$pair@V?$_Tree_iterator@V?$_Tree_val@U?$_Tree_simple_types@U?$pair@$$CB_KU?$pair@PEBDPEBD@std@@@std@@@std@@@std@@@std@@_N@1@_NAEAU?$pair@$$CB_KU?$pair@PEBDPEBD@std@@@1@PEAU?$_Tree_node@U?$pair@$$CB_KU?$pair@PEBDPEBD@std@@@std@@PEAX@1@@Z 0000000180032ad0 f i XMPUtils.obj
 0001:00031b54       ?GetSimpleQualifier@INode_v1@AdobeXMPCore@@QEBA?AV?$shared_ptr@$$CBVISimpleNode_v1@AdobeXMPCore@@@std@@PEBD_K01@Z 0000000180032b54 f i XMPUtils2.obj
 0001:00031bf0       ?CloneIXMPSubtree@@YAXAEBV?$shared_ptr@$$CBVINode_v1@AdobeXMPCore@@@std@@AEBV?$shared_ptr@VINode_v1@AdobeXMPCore@@@2@_N@Z 0000000180032bf0 f   XMPUtils2.obj
 0001:00031d0c       ?LookupIXMPLangItem@@YAJAEBV?$shared_ptr@$$CBVIArrayNode_v1@AdobeXMPCore@@@std@@AEAV?$basic_string@DU?$char_traits@D@std@@V?$allocator@D@2@@2@@Z 0000000180032d0c f   XMPUtils2.obj
 0001:000343a8       ?ApplyTemplate_v2@XMPUtils@@SAXPEAVXMPMeta@@AEBV2@K@Z 00000001800353a8 f   XMPUtils2.obj
 0001:0003505c       ?CloneContents@@YAXV?$shared_ptr@VINode_v1@AdobeXMPCore@@@std@@AEAV12@@Z 000000018003605c f   XMPUtils2.obj
 0001:000357f8       ?DuplicateSubtree_v2@XMPUtils@@SAXAEBVXMPMeta@@PEAV2@PEBD222K@Z 00000001800367f8 f   XMPUtils2.obj
 0001:00036af8       ?RemoveProperties_v2@XMPUtils@@SAXPEAVXMPMeta@@PEBD1K@Z 0000000180037af8 f   XMPUtils2.obj
 0001:00037430       ?MD5Update@@YAXPEAUMD5_CTX@@PEAEK@Z 0000000180038430 f   MD5.obj
 0001:000374f0       ?MD5Final@@YAXQEAEPEAUMD5_CTX@@@Z 00000001800384f0 f   MD5.obj
 0001:000382dc       XML_ParserFree             00000001800392dc f   xmlparse.obj
 0001:000384b0       XML_Parse                  00000001800394b0 f   xmlparse.obj
 0001:00038630       XML_ParseBuffer            0000000180039630 f   xmlparse.obj
 0001:00038774       XML_GetBuffer              0000000180039774 f   xmlparse.obj
 0001:0003f1a4       ?TryLockShared@SharedMutexImpl@AdobeXMPCore_Int@@UEAA?AW4eMultiThreadingErrorCode@AdobeXMPCommon_Int@@XZ 00000001800401a4 f   SharedMutexImpl.obj
 0001:0003f1a4       ?ValidateKey@IConfigurable_I@AdobeXMPCore_Int@@UEBA?AW4eConfigurableErrorCode@AdobeXMPCommon@@AEB_K@Z 00000001800401a4 f   ClientDOMParserWrapperImpl.obj
 0001:0003f1a4       ?Unlock@SharedMutexImpl@AdobeXMPCore_Int@@UEAA?AW4eMultiThreadingErrorCode@AdobeXMPCommon_Int@@XZ 00000001800401a4 f   SharedMutexImpl.obj
 0001:0003f1a4       ?Lock@SharedMutexImpl@AdobeXMPCore_Int@@UEAA?AW4eMultiThreadingErrorCode@AdobeXMPCommon_Int@@XZ 00000001800401a4 f   SharedMutexImpl.obj
 0001:0003f1a4       ?LockShared@SharedMutexImpl@AdobeXMPCore_Int@@UEAA?AW4eMultiThreadingErrorCode@AdobeXMPCommon_Int@@XZ 00000001800401a4 f   SharedMutexImpl.obj
 0001:0003f1a4       ?ValidateValue@RDFDOMParserImpl@AdobeXMPCore_Int@@UEBA?AW4eConfigurableErrorCode@AdobeXMPCommon@@AEB_KW4eDataType@IConfigurable@4@AEBTCombinedDataValue@64@@Z 00000001800401a4 f   RDFDOMParserImpl.obj
 0001:0003f1a4       ?ValidateValue@ConfigurableImpl@AdobeXMPCore_Int@@UEBA?AW4eConfigurableErrorCode@AdobeXMPCommon@@AEB_KW4eDataType@IConfigurable@4@TCombinedDataValue@64@@Z 00000001800401a4 f   ConfigurableImpl.obj
 0001:0003f1a4       __scrt_stub_for_is_c_termination_complete 00000001800401a4 f   MSVCRT:ucrt_stubs.obj
 0001:0003f1a4       _is_c_termination_complete 00000001800401a4 f   MSVCRT:ucrt_stubs.obj
 0001:0003f1a4       ?UnlockShared@SharedMutexImpl@AdobeXMPCore_Int@@UEAA?AW4eMultiThreadingErrorCode@AdobeXMPCommon_Int@@XZ 00000001800401a4 f   SharedMutexImpl.obj
 0001:0003f1a4       ?GetParentNodeType@MetadataImpl@AdobeXMPCore_Int@@MEBA?AW4eNodeType@INode_v1@AdobeXMPCore@@XZ 00000001800401a4 f   MetadataImpl.obj
 0001:0003f1a4       ?_Get_deleter@_Ref_count_base@std@@UEBAPEAXAEBVtype_info@@@Z 00000001800401a4 f   INodeIterator_I.obj
 0001:0003f1a4       ?TryLock@SharedMutexImpl@AdobeXMPCore_Int@@UEAA?AW4eMultiThreadingErrorCode@AdobeXMPCommon_Int@@XZ 00000001800401a4 f   SharedMutexImpl.obj
 0001:00048380       XmlUtf8Encode              0000000180049380 f   xmltok.obj
 0001:000486ac       XmlInitUnknownEncoding     00000001800496ac f   xmltok.obj
 0001:00048ba4       XmlInitEncoding            0000000180049ba4 f   xmltok.obj
 0001:00048cc8       XmlParseXmlDecl            0000000180049cc8 f   xmltok.obj
 0001:00048d88       XmlInitEncodingNS          0000000180049d88 f   xmltok.obj
 0001:00048eac       XmlParseXmlDeclNS          0000000180049eac f   xmltok.obj
 0001:00048f18       XmlInitUnknownEncodingNS   0000000180049f18 f   xmltok.obj
 0001:00048f34       ??0XML_Node@@QEAA@PEAV0@PEBDE@Z 0000000180049f34 f i ExpatAdapter.obj
 0001:00049034       ??1XML_Node@@UEAA@XZ       000000018004a034 f i ExpatAdapter.obj
 0001:00049198       ??_EXML_Node@@UEAAPEAXI@Z  000000018004a198 f i * CIL library *:* CIL module *
 0001:00049198       ??_GXML_Node@@UEAAPEAXI@Z  000000018004a198 f i ExpatAdapter.obj
 0001:000491cc       ??1XMLParserAdapter@@UEAA@XZ 000000018004a1cc f i ExpatAdapter.obj
 0001:0004922c       ?SetErrorCallback@XMLParserAdapter@@UEAAXPEAVGenericErrorCallback@@@Z 000000018004a22c f i ExpatAdapter.obj
 0001:00049234       ?NotifyClient@XMLParserAdapter@@UEAAXEAEAVXMP_Error@@@Z 000000018004a234 f i ExpatAdapter.obj
 0001:00049250       ??_GXMLParserAdapter@@UEAAPEAXI@Z 000000018004a250 f i ExpatAdapter.obj
 0001:00049250       ??_EXMLParserAdapter@@UEAAPEAXI@Z 000000018004a250 f i * CIL library *:* CIL module *
 0001:000492d0       ??_GExpatAdapter@@UEAAPEAXI@Z 000000018004a2d0 f i ExpatAdapter.obj
 0001:000492d0       ??_EExpatAdapter@@UEAAPEAXI@Z 000000018004a2d0 f i * CIL library *:* CIL module *
 0001:00049304       XMP_NewExpatAdapter        000000018004a304 f   ExpatAdapter.obj
 0001:00049330       ??0ExpatAdapter@@QEAA@_N@Z 000000018004a330 f   ExpatAdapter.obj
 0001:00049584       ??1ExpatAdapter@@UEAA@XZ   000000018004a584 f   ExpatAdapter.obj
 0001:00049638       ?ParseBuffer@ExpatAdapter@@UEAAXPEBX_K_N@Z 000000018004a638 f   ExpatAdapter.obj
 0001:00049e7c       ?_Reserve@?$vector@PEAVXML_Node@@V?$allocator@PEAVXML_Node@@@std@@@std@@IEAAX_K@Z 000000018004ae7c f i ExpatAdapter.obj
 0001:0004a06c       ?AddChildNode@RDF_Parser@@AEAAPEAVXMP_Node@@PEAV2@AEBVXML_Node@@QEBD_N@Z 000000018004b06c f   ParseRDF.obj
 0001:0004a320       ?AddQualifierNode@RDF_Parser@@AEAAPEAVXMP_Node@@PEAV2@AEBV?$basic_string@DU?$char_traits@D@std@@V?$allocator@D@2@@std@@1@Z 000000018004b320 f   ParseRDF.obj
 0001:0004a44c       ?AddQualifierNode@RDF_Parser@@AEAAPEAVXMP_Node@@PEAV2@AEBVXML_Node@@@Z 000000018004b44c f   ParseRDF.obj
 0001:0004a498       ?FixupQualifiedNode@RDF_Parser@@AEAAXPEAVXMP_Node@@@Z 000000018004b498 f   ParseRDF.obj
 0001:0004a960       ?NodeElement@RDF_Parser@@QEAAXPEAVXMP_Node@@AEBVXML_Node@@_N@Z 000000018004b960 f   ParseRDF.obj
 0001:0004aa08       ?NodeElementAttrs@RDF_Parser@@QEAAXPEAVXMP_Node@@AEBVXML_Node@@_N@Z 000000018004ba08 f   ParseRDF.obj
 0001:0004ab7c       ?PropertyElementList@RDF_Parser@@QEAAXPEAVXMP_Node@@AEBVXML_Node@@_N@Z 000000018004bb7c f   ParseRDF.obj
 0001:0004ac4c       ?PropertyElement@RDF_Parser@@QEAAXPEAVXMP_Node@@AEBVXML_Node@@_N@Z 000000018004bc4c f   ParseRDF.obj
 0001:0004ae88       ?ResourcePropertyElement@RDF_Parser@@QEAAXPEAVXMP_Node@@AEBVXML_Node@@_N@Z 000000018004be88 f   ParseRDF.obj
 0001:0004b29c       ?LiteralPropertyElement@RDF_Parser@@QEAAXPEAVXMP_Node@@AEBVXML_Node@@_N@Z 000000018004c29c f   ParseRDF.obj
 0001:0004b4b0       ?ParseTypeResourcePropertyElement@RDF_Parser@@QEAAXPEAVXMP_Node@@AEBVXML_Node@@_N@Z 000000018004c4b0 f   ParseRDF.obj
 0001:0004b5f0       ?EmptyPropertyElement@RDF_Parser@@QEAAXPEAVXMP_Node@@AEBVXML_Node@@_N@Z 000000018004c5f0 f   ParseRDF.obj
 0001:0004b8b4       ?ProcessRDF@XMPMeta@@AEAAXAEBVXML_Node@@K@Z 000000018004c8b4 f   ParseRDF.obj
 0001:0004b978       ??0exception@std@@QEAA@AEBV01@@Z 000000018004c978 f i XMPCore_Impl.obj
 0001:0004b9b0       ?what@exception@std@@UEBAPEBDXZ 000000018004c9b0 f i XMPCore_Impl.obj
 0001:0004b9c4       ??_Gbad_alloc@std@@UEAAPEAXI@Z 000000018004c9c4 f i XMPCore_Impl.obj
 0001:0004b9c4       ??_Gexception@std@@UEAAPEAXI@Z 000000018004c9c4 f i XMPCore_Impl.obj
 0001:0004b9c4       ??_Ebad_weak_ptr@std@@UEAAPEAXI@Z 000000018004c9c4 f i * CIL library *:* CIL module *
 0001:0004b9c4       ??_Eexception@std@@UEAAPEAXI@Z 000000018004c9c4 f i * CIL library *:* CIL module *
 0001:0004b9c4       ??_Ebad_alloc@std@@UEAAPEAXI@Z 000000018004c9c4 f i * CIL library *:* CIL module *
 0001:0004b9c4       ??_Gbad_weak_ptr@std@@UEAAPEAXI@Z 000000018004c9c4 f i UTF8StringImpl.obj
 0001:0004ba08       ??1bad_weak_ptr@std@@UEAA@XZ 000000018004ca08 f i UTF8StringImpl.obj
 0001:0004ba08       ??1bad_alloc@std@@UEAA@XZ  000000018004ca08 f i XMPCore_Impl.obj
 0001:0004bc44       ??2@YAPEAX_K@Z             000000018004cc44 f   XMPCore_Impl.obj
 0001:0004bc94       ??0bad_alloc@std@@QEAA@AEBV01@@Z 000000018004cc94 f i XMPCore_Impl.obj
 0001:0004bcd4       ??3@YAXPEAX@Z              000000018004ccd4 f   XMPCore_Impl.obj
 0001:0004c318       ?SplitNameAndValue@@YAXAEBV?$basic_string@DU?$char_traits@D@std@@V?$allocator@D@2@@std@@PEAV12@1@Z 000000018004d318 f   XMPCore_Impl.obj
 0001:0004c8f8       ?DeleteSubtree@@YAXV?$_Vector_iterator@V?$_Vector_val@U?$_Simple_types@PEAVXMP_Node@@@std@@@std@@@std@@@Z 000000018004d8f8 f   XMPCore_Impl.obj
 0001:0004c9a4       ?VerifySetOptions@@YAKKPEBD@Z 000000018004d9a4 f   XMPCore_Impl.obj
 0001:0004cab8       ?ExpandXPath@@YAXPEBD0PEAV?$vector@VXPathStepInfo@@V?$allocator@VXPathStepInfo@@@std@@@std@@@Z 000000018004dab8 f   XMPCore_Impl.obj
 0001:0004d138       ?FindSchemaNode@@YAPEAVXMP_Node@@PEAV1@PEBD_NPEAV?$_Vector_iterator@V?$_Vector_val@U?$_Simple_types@PEAVXMP_Node@@@std@@@std@@@std@@P6A_NPEAX1PEAPEBDPEAK@Z4@Z 000000018004e138 f   XMPCore_Impl.obj
 0001:0004d2a4       ?FindChildNode@@YAPEAVXMP_Node@@PEAV1@PEBD_NPEAV?$_Vector_iterator@V?$_Vector_val@U?$_Simple_types@PEAVXMP_Node@@@std@@@std@@@std@@@Z 000000018004e2a4 f   XMPCore_Impl.obj
 0001:0004d434       ?FindQualifierNode@@YAPEAVXMP_Node@@PEAV1@PEBD_NPEAV?$_Vector_iterator@V?$_Vector_val@U?$_Simple_types@PEAVXMP_Node@@@std@@@std@@@std@@@Z 000000018004e434 f   XMPCore_Impl.obj
 0001:0004d5c4       ?LookupFieldSelector@@YAJPEBVXMP_Node@@PEBD1@Z 000000018004e5c4 f   XMPCore_Impl.obj
 0001:0004d6c4       ?LookupLangItem@@YAJPEBVXMP_Node@@AEAV?$basic_string@DU?$char_traits@D@std@@V?$allocator@D@2@@std@@@Z 000000018004e6c4 f   XMPCore_Impl.obj
 0001:0004d7a0       ?FindNode@@YAPEAVXMP_Node@@PEAV1@AEBV?$vector@VXPathStepInfo@@V?$allocator@VXPathStepInfo@@@std@@@std@@_NKPEAV?$_Vector_iterator@V?$_Vector_val@U?$_Simple_types@PEAVXMP_Node@@@std@@@std@@@3@@Z 000000018004e7a0 f   XMPCore_Impl.obj
 0001:0004db18       ?CloneOffspring@@YAXPEBVXMP_Node@@PEAV1@_N@Z 000000018004eb18 f   XMPCore_Impl.obj
 0001:0004dde8       ?CloneSubtree@@YAPEAVXMP_Node@@PEBV1@PEAV1@_N@Z 000000018004ede8 f   XMPCore_Impl.obj
 0001:0004de94       ?DeleteEmptySchema@@YAXPEAVXMP_Node@@@Z 000000018004ee94 f   XMPCore_Impl.obj
 0001:0004df1c       ?NormalizeLangValue@@YAXPEAV?$basic_string@DU?$char_traits@D@std@@V?$allocator@D@2@@std@@@Z 000000018004ef1c f   XMPCore_Impl.obj
 0001:0004dfd4       ?NormalizeLangArray@@YAXPEAVXMP_Node@@@Z 000000018004efd4 f   XMPCore_Impl.obj
 0001:0004e0dc       ?ToUTF16@@YAXPEBE_KPEAV?$basic_string@DU?$char_traits@D@std@@V?$allocator@D@2@@std@@_N@Z 000000018004f0dc f   UnicodeConversions.obj
 0001:0004e208       ?ToUTF32@@YAXPEBE_KPEAV?$basic_string@DU?$char_traits@D@std@@V?$allocator@D@2@@std@@_N@Z 000000018004f208 f   UnicodeConversions.obj
 0001:0004e968       ?IsWhitespaceNode@XML_Node@@QEBA_NXZ 000000018004f968 f   XML_Node.obj
 0001:0004e9b8       ?RemoveAttrs@XML_Node@@QEAAXXZ 000000018004f9b8 f   XML_Node.obj
 0001:0004ea24       ?RemoveContent@XML_Node@@QEAAXXZ 000000018004fa24 f   XML_Node.obj
 0001:0004ea90       ??$_Insert_hint@AEAU?$pair@$$CBV?$basic_string@DU?$char_traits@D@std@@V?$allocator@D@2@@std@@V12@@std@@PEAU?$_Tree_node@U?$pair@$$CBV?$basic_string@DU?$char_traits@D@std@@V?$allocator@D@2@@std@@V12@@std@@PEAX@2@@?$_Tree@V?$_Tmap_traits@V?$basic_string@DU?$char_traits@D@std@@V?$allocator@D@2@@std@@V12@U?$less@V?$basic_string@DU?$char_traits@D@std@@V?$allocator@D@2@@std@@@2@V?$allocator@U?$pair@$$CBV?$basic_string@DU?$char_traits@D@std@@V?$allocator@D@2@@std@@V12@@std@@@2@$0A@@std@@@std@@IEAA?AV?$_Tree_iterator@V?$_Tree_val@U?$_Tree_simple_types@U?$pair@$$CBV?$basic_string@DU?$char_traits@D@std@@V?$allocator@D@2@@std@@V12@@std@@@std@@@std@@@1@V?$_Tree_const_iterator@V?$_Tree_val@U?$_Tree_simple_types@U?$pair@$$CBV?$basic_string@DU?$char_traits@D@std@@V?$allocator@D@2@@std@@V12@@std@@@std@@@std@@@1@AEAU?$pair@$$CBV?$basic_string@DU?$char_traits@D@std@@V?$allocator@D@2@@std@@V12@@1@PEAU?$_Tree_node@U?$pair@$$CBV?$basic_string@DU?$char_traits@D@std@@V?$allocator@D@2@@std@@V12@@std@@PEAX@1@@Z 000000018004fa90 f i XML_Node.obj
 0001:0004ed24       ?_Buynode0@?$_Tree_comp_alloc@V?$_Tmap_traits@V?$basic_string@DU?$char_traits@D@std@@V?$allocator@D@2@@std@@V12@U?$less@V?$basic_string@DU?$char_traits@D@std@@V?$allocator@D@2@@std@@@2@V?$allocator@U?$pair@$$CBV?$basic_string@DU?$char_traits@D@std@@V?$allocator@D@2@@std@@V12@@std@@@2@$0A@@std@@@std@@QEAAPEAU?$_Tree_node@U?$pair@$$CBV?$basic_string@DU?$char_traits@D@std@@V?$allocator@D@2@@std@@V12@@std@@PEAX@2@XZ 000000018004fd24 f i XML_Node.obj
 0001:0004ed6c       ??$_Insert_at@AEAU?$pair@$$CBV?$basic_string@DU?$char_traits@D@std@@V?$allocator@D@2@@std@@V12@@std@@PEAU?$_Tree_node@U?$pair@$$CBV?$basic_string@DU?$char_traits@D@std@@V?$allocator@D@2@@std@@V12@@std@@PEAX@2@@?$_Tree@V?$_Tmap_traits@V?$basic_string@DU?$char_traits@D@std@@V?$allocator@D@2@@std@@V12@U?$less@V?$basic_string@DU?$char_traits@D@std@@V?$allocator@D@2@@std@@@2@V?$allocator@U?$pair@$$CBV?$basic_string@DU?$char_traits@D@std@@V?$allocator@D@2@@std@@V12@@std@@@2@$0A@@std@@@std@@IEAA?AV?$_Tree_iterator@V?$_Tree_val@U?$_Tree_simple_types@U?$pair@$$CBV?$basic_string@DU?$char_traits@D@std@@V?$allocator@D@2@@std@@V12@@std@@@std@@@std@@@1@_NPEAU?$_Tree_node@U?$pair@$$CBV?$basic_string@DU?$char_traits@D@std@@V?$allocator@D@2@@std@@V12@@std@@PEAX@1@AEAU?$pair@$$CBV?$basic_string@DU?$char_traits@D@std@@V?$allocator@D@2@@std@@V12@@1@1@Z 000000018004fd6c f i XML_Node.obj
 0001:0004effc       ??$_Insert_nohint@AEAU?$pair@$$CBV?$basic_string@DU?$char_traits@D@std@@V?$allocator@D@2@@std@@V12@@std@@PEAU?$_Tree_node@U?$pair@$$CBV?$basic_string@DU?$char_traits@D@std@@V?$allocator@D@2@@std@@V12@@std@@PEAX@2@@?$_Tree@V?$_Tmap_traits@V?$basic_string@DU?$char_traits@D@std@@V?$allocator@D@2@@std@@V12@U?$less@V?$basic_string@DU?$char_traits@D@std@@V?$allocator@D@2@@std@@@2@V?$allocator@U?$pair@$$CBV?$basic_string@DU?$char_traits@D@std@@V?$allocator@D@2@@std@@V12@@std@@@2@$0A@@std@@@std@@IEAA?AU?$pair@V?$_Tree_iterator@V?$_Tree_val@U?$_Tree_simple_types@U?$pair@$$CBV?$basic_string@DU?$char_traits@D@std@@V?$allocator@D@2@@std@@V12@@std@@@std@@@std@@@std@@_N@1@_NAEAU?$pair@$$CBV?$basic_string@DU?$char_traits@D@std@@V?$allocator@D@2@@std@@V12@@1@PEAU?$_Tree_node@U?$pair@$$CBV?$basic_string@DU?$char_traits@D@std@@V?$allocator@D@2@@std@@V12@@std@@PEAX@1@@Z 000000018004fffc f i XML_Node.obj
 0001:0004f164       ??1XMP_AutoMutex@@QEAA@XZ  0000000180050164 f i XMP_LibUtils.obj
 0001:0004f188       ??0XMP_ReadWriteLock@@QEAA@XZ 0000000180050188 f   XMP_LibUtils.obj
 0001:0004f1e8       ??1XMP_ReadWriteLock@@QEAA@XZ 00000001800501e8 f   XMP_LibUtils.obj
 0001:0004f214       ??0XMP_WinXP_HGQueue@@QEAA@XZ 0000000180050214 f   XMP_LibUtils.obj
 0001:0004f27c       ??1XMP_WinXP_HGQueue@@QEAA@XZ 000000018005027c f   XMP_LibUtils.obj
 0001:0004f288       ?Wait@XMP_WinXP_HGQueue@@QEAAXAEAU_RTL_CRITICAL_SECTION@@@Z 0000000180050288 f   XMP_LibUtils.obj
 0001:0004f344       ?ReleaseAll@XMP_WinXP_HGQueue@@QEAAXXZ 0000000180050344 f   XMP_LibUtils.obj
 0001:0004f38c       ?DumpClearString@@YAXAEBV?$basic_string@DU?$char_traits@D@std@@V?$allocator@D@2@@std@@P6AJPEAXPEBDK@Z1@Z 000000018005038c f   XMP_LibUtils.obj
 0001:0004f6f0       ??0XMP_NamespaceTable@@QEAA@AEBV0@@Z 00000001800506f0 f   XMP_LibUtils.obj
 0001:0004f7b8       ?Define@XMP_NamespaceTable@@QEAA_NPEBD0PEAPEBDPEAK@Z 00000001800507b8 f   XMP_LibUtils.obj
 0001:0004fcd8       ?GetPrefix@XMP_NamespaceTable@@QEBA_NPEBDPEAPEBDPEAK@Z 0000000180050cd8 f   XMP_LibUtils.obj
 0001:0004fdf0       ?GetURI@XMP_NamespaceTable@@QEBA_NPEBDPEAPEBDPEAK@Z 0000000180050df0 f   XMP_LibUtils.obj
 0001:0004ff44       ?Dump@XMP_NamespaceTable@@QEBAXP6AJPEAXPEBDK@Z0@Z 0000000180050f44 f   XMP_LibUtils.obj
 0001:00050328       ?find@?$_Tree@V?$_Tmap_traits@V?$basic_string@DU?$char_traits@D@std@@V?$allocator@D@2@@std@@V12@U?$less@V?$basic_string@DU?$char_traits@D@std@@V?$allocator@D@2@@std@@@2@V?$allocator@U?$pair@$$CBV?$basic_string@DU?$char_traits@D@std@@V?$allocator@D@2@@std@@V12@@std@@@2@$0A@@std@@@std@@QEBA?AV?$_Tree_const_iterator@V?$_Tree_val@U?$_Tree_simple_types@U?$pair@$$CBV?$basic_string@DU?$char_traits@D@std@@V?$allocator@D@2@@std@@V12@@std@@@std@@@std@@@2@AEBV?$basic_string@DU?$char_traits@D@std@@V?$allocator@D@2@@2@@Z 0000000180051328 f i XMP_LibUtils.obj
 0001:000503b0       ??4?$map@V?$basic_string@DU?$char_traits@D@std@@V?$allocator@D@2@@std@@V12@U?$less@V?$basic_string@DU?$char_traits@D@std@@V?$allocator@D@2@@std@@@2@V?$allocator@U?$pair@$$CBV?$basic_string@DU?$char_traits@D@std@@V?$allocator@D@2@@std@@V12@@std@@@2@@std@@QEAAAEAV01@AEBV01@@Z 00000001800513b0 f i XMP_LibUtils.obj
 0001:00050458       ??$_Buynode@AEAU?$pair@$$CBV?$basic_string@DU?$char_traits@D@std@@V?$allocator@D@2@@std@@V12@@std@@@?$_Tree_comp_alloc@V?$_Tmap_traits@V?$basic_string@DU?$char_traits@D@std@@V?$allocator@D@2@@std@@V12@U?$less@V?$basic_string@DU?$char_traits@D@std@@V?$allocator@D@2@@std@@@2@V?$allocator@U?$pair@$$CBV?$basic_string@DU?$char_traits@D@std@@V?$allocator@D@2@@std@@V12@@std@@@2@$0A@@std@@@std@@QEAAPEAU?$_Tree_node@U?$pair@$$CBV?$basic_string@DU?$char_traits@D@std@@V?$allocator@D@2@@std@@V12@@std@@PEAX@1@AEAU?$pair@$$CBV?$basic_string@DU?$char_traits@D@std@@V?$allocator@D@2@@std@@V12@@1@@Z 0000000180051458 f i XMP_LibUtils.obj
 0001:00050458       ??$_Buynode@AEAU?$pair@V?$basic_string@DU?$char_traits@D@std@@V?$allocator@D@2@@std@@V12@@std@@@?$_Tree_comp_alloc@V?$_Tmap_traits@V?$basic_string@DU?$char_traits@D@std@@V?$allocator@D@2@@std@@V12@U?$less@V?$basic_string@DU?$char_traits@D@std@@V?$allocator@D@2@@std@@@2@V?$allocator@U?$pair@$$CBV?$basic_string@DU?$char_traits@D@std@@V?$allocator@D@2@@std@@V12@@std@@@2@$0A@@std@@@std@@QEAAPEAU?$_Tree_node@U?$pair@$$CBV?$basic_string@DU?$char_traits@D@std@@V?$allocator@D@2@@std@@V12@@std@@PEAX@1@AEAU?$pair@V?$basic_string@DU?$char_traits@D@std@@V?$allocator@D@2@@std@@V12@@1@@Z 0000000180051458 f i XMP_LibUtils.obj
 0001:00050504       ??$_Copy_nodes@U_Copy_tag@?$_Tree@V?$_Tmap_traits@V?$basic_string@DU?$char_traits@D@std@@V?$allocator@D@2@@std@@V12@U?$less@V?$basic_string@DU?$char_traits@D@std@@V?$allocator@D@2@@std@@@2@V?$allocator@U?$pair@$$CBV?$basic_string@DU?$char_traits@D@std@@V?$allocator@D@2@@std@@V12@@std@@@2@$0A@@std@@@std@@@?$_Tree@V?$_Tmap_traits@V?$basic_string@DU?$char_traits@D@std@@V?$allocator@D@2@@std@@V12@U?$less@V?$basic_string@DU?$char_traits@D@std@@V?$allocator@D@2@@std@@@2@V?$allocator@U?$pair@$$CBV?$basic_string@DU?$char_traits@D@std@@V?$allocator@D@2@@std@@V12@@std@@@2@$0A@@std@@@std@@IEAAPEAU?$_Tree_node@U?$pair@$$CBV?$basic_string@DU?$char_traits@D@std@@V?$allocator@D@2@@std@@V12@@std@@PEAX@1@PEAU21@0U_Copy_tag@01@@Z 0000000180051504 f i XMP_LibUtils.obj
 0001:000505a0       ?GetInterfacePointer@IArrayNode_I@AdobeXMPCore_Int@@UEAAPEAX_KK@Z 00000001800515a0 f   IArrayNode_I.obj
 0001:00050674       ?getInterfacePointer@IArrayNode_I@AdobeXMPCore_Int@@MEAAPEAX_KKAEAPEBVIError_v1@AdobeXMPCommon@@@Z 0000000180051674 f   IArrayNode_I.obj
 0001:000506c4       ?getArrayForm@IArrayNode_I@AdobeXMPCore_Int@@MEBAKAEAPEBVIError_v1@AdobeXMPCommon@@@Z 00000001800516c4 f   IArrayNode_I.obj
 0001:00050718       ?getChildNodeType@IArrayNode_I@AdobeXMPCore_Int@@MEBAKAEAPEBVIError_v1@AdobeXMPCommon@@@Z 0000000180051718 f   IArrayNode_I.obj
 0001:0005076c       ?getNodeAtIndex@IArrayNode_I@AdobeXMPCore_Int@@MEAAPEAVINode_v1@AdobeXMPCore@@_KAEAPEBVIError_v1@AdobeXMPCommon@@@Z 000000018005176c f   IArrayNode_I.obj
 0001:000507d0       ?insertNodeAtIndex@IArrayNode_I@AdobeXMPCore_Int@@MEAAXPEAVINode_v1@AdobeXMPCore@@_KAEAPEBVIError_v1@AdobeXMPCommon@@@Z 00000001800517d0 f   IArrayNode_I.obj
 0001:0005088c       ?removeNodeAtIndex@IArrayNode_I@AdobeXMPCore_Int@@MEAAPEAVINode_v1@AdobeXMPCore@@_KAEAPEBVIError_v1@AdobeXMPCommon@@@Z 000000018005188c f   IArrayNode_I.obj
 0001:000508f0       ?replaceNodeAtIndex@IArrayNode_I@AdobeXMPCore_Int@@MEAAPEAVINode_v1@AdobeXMPCore@@PEAV34@_KAEAPEBVIError_v1@AdobeXMPCommon@@@Z 00000001800518f0 f   IArrayNode_I.obj
 0001:000509b4       ??0?$shared_ptr@VISharedMutex@AdobeXMPCore_Int@@@std@@QEAA@AEBV01@@Z 00000001800519b4 f i DOMParserImpl.obj
 0001:000509b4       ??0?$shared_ptr@VIError_v1@AdobeXMPCommon@@@std@@QEAA@AEBV01@@Z 00000001800519b4 f i ErrorImpl.obj
 0001:000509b4       ??0?$shared_ptr@VIError_I@AdobeXMPCore_Int@@@std@@QEAA@AEBV01@@Z 00000001800519b4 f i IArrayNode_I.obj
 0001:000509b4       ??0?$shared_ptr@$$CBVIPathSegment_v1@AdobeXMPCore@@@std@@QEAA@AEBV01@@Z 00000001800519b4 f i PathImpl.obj
 0001:000509b4       ??0?$shared_ptr@$$CBVIUTF8String_v1@AdobeXMPCommon@@@std@@QEAA@AEBV01@@Z 00000001800519b4 f i DOMImplementationRegistryImpl.obj
 0001:000509b4       ??0?$shared_ptr@$$CBVIError_v1@AdobeXMPCommon@@@std@@QEAA@AEBV01@@Z 00000001800519b4 f i ArrayNodeImpl.obj
 0001:000509b4       ??$const_pointer_cast@VINameSpacePrefixMap_v1@AdobeXMPCore@@$$CBV12@@std@@YA?AV?$shared_ptr@VINameSpacePrefixMap_v1@AdobeXMPCore@@@0@AEBV?$shared_ptr@$$CBVINameSpacePrefixMap_v1@AdobeXMPCore@@@0@@Z 00000001800519b4 f i RDFDOMSerializerImpl.obj
 0001:000509b4       ??$?0VIUTF8String_v1@AdobeXMPCommon@@X@?$shared_ptr@$$CBVIUTF8String_v1@AdobeXMPCommon@@@std@@QEAA@AEBV?$shared_ptr@VIUTF8String_v1@AdobeXMPCommon@@@1@@Z 00000001800519b4 f i ArrayNodeImpl.obj
 0001:00050a38       ??$CallUnSafeFunction@VIArrayNode_I@AdobeXMPCore_Int@@PEAXPEAX_KK@AdobeXMPCore_Int@@YAPEAXAEAPEBVIError_v1@AdobeXMPCommon@@PEAVIArrayNode_I@0@PEAXP830@EAAPEAX_KK@ZPEBDK3K@Z 0000000180051a38 f i IArrayNode_I.obj
 0001:00050a80       ??$CallConstUnSafeFunction@VIArrayNode_v1@AdobeXMPCore@@KW4eArrayForm@12@@AdobeXMPCore_Int@@YAKAEAPEBVIError_v1@AdobeXMPCommon@@PEBVIArrayNode_v1@AdobeXMPCore@@KP834@EBA?AW4eArrayForm@34@XZPEBDK@Z 0000000180051a80 f i IArrayNode_I.obj
 0001:00050ac0       ??$CallConstUnSafeFunction@VIArrayNode_v1@AdobeXMPCore@@KW4eNodeType@INode_v1@2@@AdobeXMPCore_Int@@YAKAEAPEBVIError_v1@AdobeXMPCommon@@PEBVIArrayNode_v1@AdobeXMPCore@@KP834@EBA?AW4eNodeType@INode_v1@4@XZPEBDK@Z 0000000180051ac0 f i IArrayNode_I.obj
 0001:00050b00       ??$CallUnSafeFunctionReturningSharedPointer@VIArrayNode_v1@AdobeXMPCore@@PEAVINode_v1@2@V32@_K@AdobeXMPCore_Int@@YAPEAVINode_v1@AdobeXMPCore@@AEAPEBVIError_v1@AdobeXMPCommon@@PEAVIArrayNode_v1@2@P852@EAA?AV?$shared_ptr@VINode_v1@AdobeXMPCore@@@std@@_K@ZPEBDK2@Z 0000000180051b00 f i IArrayNode_I.obj
 0001:00050c80       ??$CallUnSafeFunctionReturningVoid@VIArrayNode_v1@AdobeXMPCore@@AEBV?$shared_ptr@VINode_v1@AdobeXMPCore@@@std@@_K@AdobeXMPCore_Int@@YAXAEAPEBVIError_v1@AdobeXMPCommon@@PEAVIArrayNode_v1@AdobeXMPCore@@P834@EAAXAEBV?$shared_ptr@VINode_v1@AdobeXMPCore@@@std@@_K@ZPEBDK23@Z 0000000180051c80 f i IArrayNode_I.obj
 0001:00050ccc       ??$CallUnSafeFunctionReturningSharedPointer@VIArrayNode_v1@AdobeXMPCore@@PEAVINode_v1@2@V32@AEBV?$shared_ptr@VINode_v1@AdobeXMPCore@@@std@@_K@AdobeXMPCore_Int@@YAPEAVINode_v1@AdobeXMPCore@@AEAPEBVIError_v1@AdobeXMPCommon@@PEAVIArrayNode_v1@2@P852@EAA?AV?$shared_ptr@VINode_v1@AdobeXMPCore@@@std@@AEBV67@_K@ZPEBDK23@Z 0000000180051ccc f i IArrayNode_I.obj
 0001:00050e54       ??_9IDOMSerializer_I@AdobeXMPCore_Int@@$BA@AA 0000000180051e54 f i IDOMSerializer_I.obj
 0001:00050e54       ??_9IStructureNode_I@AdobeXMPCore_Int@@$BA@AA 0000000180051e54 f i IStructureNode_I.obj
 0001:00050e54       ??_9IUTF8String_I@AdobeXMPCore_Int@@$BA@AA 0000000180051e54 f i IUTF8String_I.obj
 0001:00050e54       ??_9ICoreConfigurationManager_I@AdobeXMPCore_Int@@$BA@AA 0000000180051e54 f i ICoreConfigurationManager_I.obj
 0001:00050e54       ??_9IUTF8String_v1@AdobeXMPCommon@@$BA@AA 0000000180051e54 f i IUTF8String.obj
 0001:00050e54       ??_9IConfigurationManager_v1@AdobeXMPCommon@@$BA@AA 0000000180051e54 f i IConfigurationManager_I.obj
 0001:00050e54       ??_9IArrayNode_I@AdobeXMPCore_Int@@$BA@AA 0000000180051e54 f i IArrayNode_I.obj
 0001:00050e54       ??_9INodeIterator_I@AdobeXMPCore_Int@@$BA@AA 0000000180051e54 f i INodeIterator_I.obj
 0001:00050e54       ??_9INameSpacePrefixMap_I@AdobeXMPCore_Int@@$BA@AA 0000000180051e54 f i INameSpacePrefixMap_I.obj
 0001:00050e54       ??_9IDOMImplementationRegistry_I@AdobeXMPCore_Int@@$BA@AA 0000000180051e54 f i IDOMImplementationRegistry_I.obj
 0001:00050e54       ??_9ICoreObjectFactory_I@AdobeXMPCore_Int@@$BA@AA 0000000180051e54 f i ICoreObjectFactory_I.obj
 0001:00050e54       ??_9IDOMParser_I@AdobeXMPCore_Int@@$BA@AA 0000000180051e54 f i IDOMParser_I.obj
 0001:00050e54       ??_9INode_I@AdobeXMPCore_Int@@$BA@AA 0000000180051e54 f i INode_I.obj
 0001:00050e54       ??_9ICompositeNode_I@AdobeXMPCore_Int@@$BA@AA 0000000180051e54 f i ICompositeNode_I.obj
 0001:00050e54       ??_9IMetadata_I@AdobeXMPCore_Int@@$BA@AA 0000000180051e54 f i IMetadata_I.obj
 0001:00050e54       ??_9ISimpleNode_I@AdobeXMPCore_Int@@$BA@AA 0000000180051e54 f i ISimpleNode_I.obj
 0001:00050e54       ??_9IPath_I@AdobeXMPCore_Int@@$BA@AA 0000000180051e54 f i IPath_I.obj
 0001:00050e54       ??_9IPathSegment_I@AdobeXMPCore_Int@@$BA@AA 0000000180051e54 f i IPathSegment_I.obj
 0001:00050e54       ??_9IError_v1@AdobeXMPCommon@@$BA@AA 0000000180051e54 f i IError_I.obj
 0001:00050e5c       ??_9IUTF8String_v1@AdobeXMPCommon@@$BBA@AA 0000000180051e5c f i IUTF8String_I.obj
 0001:00050e5c       ??_9ICompositeNode_v1@AdobeXMPCore@@$BBA@AA 0000000180051e5c f i ICompositeNode_I.obj
 0001:00050e5c       ??_9INodeIterator_v1@AdobeXMPCore@@$BBA@AA 0000000180051e5c f i INodeIterator_I.obj
 0001:00050e5c       ??_9IError_v1@AdobeXMPCommon@@$BBA@AA 0000000180051e5c f i IError_I.obj
 0001:00050e5c       ??_9IVersionable@AdobeXMPCommon@@$BBA@AA 0000000180051e5c f i IConfigurationManager.obj
 0001:00050e5c       ??_9IStructureNode_v1@AdobeXMPCore@@$BBA@AA 0000000180051e5c f i IStructureNode_I.obj
 0001:00050e5c       ??_9IConfigurationManager_v1@AdobeXMPCommon@@$BBA@AA 0000000180051e5c f i IConfigurationManager_I.obj
 0001:00050e5c       ??_9IDOMParser_v1@AdobeXMPCore@@$BBA@AA 0000000180051e5c f i IDOMParser_I.obj
 0001:00050e5c       ??_9IPath_v1@AdobeXMPCore@@$BBA@AA 0000000180051e5c f i IPath_I.obj
 0001:00050e5c       ??_9INameSpacePrefixMap_v1@AdobeXMPCore@@$BBA@AA 0000000180051e5c f i INameSpacePrefixMap_I.obj
 0001:00050e5c       ??_9IArrayNode_v1@AdobeXMPCore@@$BBA@AA 0000000180051e5c f i IArrayNode_I.obj
 0001:00050e5c       ??_9IPathSegment_v1@AdobeXMPCore@@$BBA@AA 0000000180051e5c f i IPathSegment_I.obj
 0001:00050e5c       ??_9ISimpleNode_v1@AdobeXMPCore@@$BBA@AA 0000000180051e5c f i ISimpleNode_I.obj
 0001:00050e5c       ??_9INode_v1@AdobeXMPCore@@$BBA@AA 0000000180051e5c f i INode_I.obj
 0001:00050e64       ??_9ICompositeNode_v1@AdobeXMPCore@@$BCA@AA 0000000180051e64 f i ICompositeNode_I.obj
 0001:00050e64       ??_9IError_v1@AdobeXMPCommon@@$BCA@AA 0000000180051e64 f i IError_I.obj
 0001:00050e64       ??_9IUTF8String_v1@AdobeXMPCommon@@$BCA@AA 0000000180051e64 f i IUTF8String.obj
 0001:00050e64       ??_9IPath_v1@AdobeXMPCore@@$BCA@AA 0000000180051e64 f i IPath_I.obj
 0001:00050e64       ??_9IArrayNode_v1@AdobeXMPCore@@$BCA@AA 0000000180051e64 f i IArrayNode_I.obj
 0001:00050e64       ??_9INameSpacePrefixMap_v1@AdobeXMPCore@@$BCA@AA 0000000180051e64 f i INameSpacePrefixMap_I.obj
 0001:00050e64       ??_9INode_v1@AdobeXMPCore@@$BCA@AA 0000000180051e64 f i INode_I.obj
 0001:00050e64       ??_9IStructureNode_v1@AdobeXMPCore@@$BCA@AA 0000000180051e64 f i IStructureNode_I.obj
 0001:00050e64       ??_9IPathSegment_v1@AdobeXMPCore@@$BCA@AA 0000000180051e64 f i IPathSegment_I.obj
 0001:00050e6c       ??_9INode_v1@AdobeXMPCore@@$B7AA 0000000180051e6c f i INode_I.obj
 0001:00050e6c       ??_9IPathSegment_v1@AdobeXMPCore@@$B7AA 0000000180051e6c f i IPathSegment_I.obj
 0001:00050e6c       ??_9SharedObjectImpl@AdobeXMPCore_Int@@$B7AA 0000000180051e6c f i CoreConfigurationManagerImpl.obj
 0001:00050e6c       ??_9IStructureNode_v1@AdobeXMPCore@@$B7AA 0000000180051e6c f i IStructureNode_I.obj
 0001:00050e6c       ??_9IDOMParser_v1@AdobeXMPCore@@$B7AA 0000000180051e6c f i IDOMParser_I.obj
 0001:00050e6c       ??_9INameSpacePrefixMap_v1@AdobeXMPCore@@$B7AA 0000000180051e6c f i INameSpacePrefixMap_I.obj
 0001:00050e6c       ??_9IArrayNode_v1@AdobeXMPCore@@$B7AA 0000000180051e6c f i IArrayNode_I.obj
 0001:00050e6c       ??_9IDOMImplementationRegistry_v1@AdobeXMPCore@@$B7AA 0000000180051e6c f i IDOMImplementationRegistry_I.obj
 0001:00050e6c       ??_9ISharedObject@AdobeXMPCommon@@$B7AA 0000000180051e6c f i ArrayNodeImpl.obj
 0001:00050e6c       ??_9INodeIterator_v1@AdobeXMPCore@@$B7AA 0000000180051e6c f i INodeIterator_I.obj
 0001:00050e6c       ??_9IDOMSerializer_v1@AdobeXMPCore@@$B7AA 0000000180051e6c f i IDOMSerializer_I.obj
 0001:00050e6c       ??_9ISimpleNode_v1@AdobeXMPCore@@$B7AA 0000000180051e6c f i ISimpleNode_I.obj
 0001:00050e6c       ??_9IConfigurationManager_v1@AdobeXMPCommon@@$B7AA 0000000180051e6c f i IConfigurationManager_I.obj
 0001:00050e6c       ??_9IPath_v1@AdobeXMPCore@@$B7AA 0000000180051e6c f i IPath_I.obj
 0001:00050e6c       ??_9ICompositeNode_v1@AdobeXMPCore@@$B7AA 0000000180051e6c f i ICompositeNode_I.obj
 0001:00050e6c       ??_9IUTF8String_v1@AdobeXMPCommon@@$B7AA 0000000180051e6c f i IUTF8String.obj
 0001:00050e6c       ??_9NodeImpl@AdobeXMPCore_Int@@$B7AA 0000000180051e6c f i CompositeNodeImpl.obj
 0001:00050e6c       ??_9IError_v1@AdobeXMPCommon@@$B7AA 0000000180051e6c f i IError_I.obj
 0001:00050e74       ??_9IPath_v1@AdobeXMPCore@@$BBI@AA 0000000180051e74 f i IPath_I.obj
 0001:00050e74       ??_9ISimpleNode_v1@AdobeXMPCore@@$BBI@AA 0000000180051e74 f i ISimpleNode_I.obj
 0001:00050e74       ??_9IError_v1@AdobeXMPCommon@@$BBI@AA 0000000180051e74 f i IError_I.obj
 0001:00050e74       ??_9IArrayNode_v1@AdobeXMPCore@@$BBI@AA 0000000180051e74 f i IArrayNode_I.obj
 0001:00050e74       ??_9IConfigurationManager_v1@AdobeXMPCommon@@$BBI@AA 0000000180051e74 f i IConfigurationManager_I.obj
 0001:00050e74       ??_9IUTF8String_v1@AdobeXMPCommon@@$BBI@AA 0000000180051e74 f i IUTF8String_I.obj
 0001:00050e74       ??_9ICompositeNode_v1@AdobeXMPCore@@$BBI@AA 0000000180051e74 f i ICompositeNode_I.obj
 0001:00050e74       ??_9INameSpacePrefixMap_v1@AdobeXMPCore@@$BBI@AA 0000000180051e74 f i INameSpacePrefixMap_I.obj
 0001:00050e74       ??_9IStructureNode_v1@AdobeXMPCore@@$BBI@AA 0000000180051e74 f i IStructureNode_I.obj
 0001:00050e74       ??_9INode_v1@AdobeXMPCore@@$BBI@AA 0000000180051e74 f i INode_I.obj
 0001:00050e7c       ??_9IUTF8String_v1@AdobeXMPCommon@@$BCI@AA 0000000180051e7c f i IUTF8String.obj
 0001:00050e7c       ??_9INode_v1@AdobeXMPCore@@$BCI@AA 0000000180051e7c f i INode_I.obj
 0001:00050e7c       ??_9ICompositeNode_v1@AdobeXMPCore@@$BCI@AA 0000000180051e7c f i ICompositeNode_I.obj
 0001:00050e7c       ??_9IError_v1@AdobeXMPCommon@@$BCI@AA 0000000180051e7c f i IError_I.obj
 0001:00050e7c       ??_9IArrayNode_v1@AdobeXMPCore@@$BCI@AA 0000000180051e7c f i IArrayNode_I.obj
 0001:00050e7c       ??_9INameSpacePrefixMap_v1@AdobeXMPCore@@$BCI@AA 0000000180051e7c f i INameSpacePrefixMap_I.obj
 0001:00050e84       ?MakeShared@IPath_v1@AdobeXMPCore@@SA?AV?$shared_ptr@$$CBVIPath_v1@AdobeXMPCore@@@std@@PEBV12@@Z 0000000180051e84 f i ICompositeNode_I.obj
 0001:00050efc       ?GetInterfacePointer@ICompositeNode_I@AdobeXMPCore_Int@@UEAAPEAX_KK@Z 0000000180051efc f   ICompositeNode_I.obj
 0001:00050f08       ?getInterfacePointer@ICompositeNode_I@AdobeXMPCore_Int@@MEAAPEAX_KKAEAPEBVIError_v1@AdobeXMPCommon@@@Z 0000000180051f08 f   ICompositeNode_I.obj
 0001:00050f58       ?GetInterfacePointerInternal@ICompositeNode_I@AdobeXMPCore_Int@@IEAAPEAX_KK_N@Z 0000000180051f58 f   ICompositeNode_I.obj
 0001:00051040       ?getNodeTypeAtPath@ICompositeNode_I@AdobeXMPCore_Int@@MEBAKPEBVIPath_v1@AdobeXMPCore@@AEAPEBVIError_v1@AdobeXMPCommon@@@Z 0000000180052040 f   ICompositeNode_I.obj
 0001:000510f0       ?getNodeAtPath@ICompositeNode_I@AdobeXMPCore_Int@@MEAAPEAVINode_v1@AdobeXMPCore@@PEBVIPath_v1@4@AEAPEBVIError_v1@AdobeXMPCommon@@@Z 00000001800520f0 f   ICompositeNode_I.obj
 0001:000511ac       ?appendNode@ICompositeNode_I@AdobeXMPCore_Int@@MEAAXPEAVINode_v1@AdobeXMPCore@@AEAPEBVIError_v1@AdobeXMPCommon@@@Z 00000001800521ac f   ICompositeNode_I.obj
 0001:00051258       ?insertNodeAtPath@ICompositeNode_I@AdobeXMPCore_Int@@MEAAXPEAVINode_v1@AdobeXMPCore@@PEBVIPath_v1@4@AEAPEBVIError_v1@AdobeXMPCommon@@@Z 0000000180052258 f   ICompositeNode_I.obj
 0001:00051364       ?replaceNodeAtPath@ICompositeNode_I@AdobeXMPCore_Int@@MEAAPEAVINode_v1@AdobeXMPCore@@PEAV34@PEBVIPath_v1@4@AEAPEBVIError_v1@AdobeXMPCommon@@@Z 0000000180052364 f   ICompositeNode_I.obj
 0001:00051474       ?removeNodeAtPath@ICompositeNode_I@AdobeXMPCore_Int@@MEAAPEAVINode_v1@AdobeXMPCore@@PEBVIPath_v1@4@AEAPEBVIError_v1@AdobeXMPCommon@@@Z 0000000180052474 f   ICompositeNode_I.obj
 0001:00051530       ?iterator@ICompositeNode_I@AdobeXMPCore_Int@@MEAAPEAVINodeIterator_v1@AdobeXMPCore@@AEAPEBVIError_v1@AdobeXMPCommon@@@Z 0000000180052530 f   ICompositeNode_I.obj
 0001:00051584       ??$CallUnSafeFunction@VICompositeNode_I@AdobeXMPCore_Int@@PEAXPEAX_KK@AdobeXMPCore_Int@@YAPEAXAEAPEBVIError_v1@AdobeXMPCommon@@PEAVICompositeNode_I@0@PEAXP830@EAAPEAX_KK@ZPEBDK3K@Z 0000000180052584 f i ICompositeNode_I.obj
 0001:000515cc       ??$CallConstUnSafeFunction@VICompositeNode_v1@AdobeXMPCore@@KW4eNodeType@INode_v1@2@AEBV?$shared_ptr@$$CBVIPath_v1@AdobeXMPCore@@@std@@@AdobeXMPCore_Int@@YAKAEAPEBVIError_v1@AdobeXMPCommon@@PEBVICompositeNode_v1@AdobeXMPCore@@KP834@EBA?AW4eNodeType@INode_v1@4@AEBV?$shared_ptr@$$CBVIPath_v1@AdobeXMPCore@@@std@@@ZPEBDK2@Z 00000001800525cc f i ICompositeNode_I.obj
 0001:00051614       ??$CallUnSafeFunctionReturningSharedPointer@VICompositeNode_v1@AdobeXMPCore@@PEAVINode_v1@2@V32@AEBV?$shared_ptr@$$CBVIPath_v1@AdobeXMPCore@@@std@@@AdobeXMPCore_Int@@YAPEAVINode_v1@AdobeXMPCore@@AEAPEBVIError_v1@AdobeXMPCommon@@PEAVICompositeNode_v1@2@P852@EAA?AV?$shared_ptr@VINode_v1@AdobeXMPCore@@@std@@AEBV?$shared_ptr@$$CBVIPath_v1@AdobeXMPCore@@@7@@ZPEBDK2@Z 0000000180052614 f i ICompositeNode_I.obj
 0001:00051794       ??$CallUnSafeFunctionReturningVoid@VICompositeNode_v1@AdobeXMPCore@@AEBV?$shared_ptr@VINode_v1@AdobeXMPCore@@@std@@@AdobeXMPCore_Int@@YAXAEAPEBVIError_v1@AdobeXMPCommon@@PEAVICompositeNode_v1@AdobeXMPCore@@P834@EAAXAEBV?$shared_ptr@VINode_v1@AdobeXMPCore@@@std@@@ZPEBDK2@Z 0000000180052794 f i ICompositeNode_I.obj
 0001:000517d8       ??$CallUnSafeFunctionReturningVoid@VICompositeNode_v1@AdobeXMPCore@@AEBV?$shared_ptr@VINode_v1@AdobeXMPCore@@@std@@AEBV?$shared_ptr@$$CBVIPath_v1@AdobeXMPCore@@@4@@AdobeXMPCore_Int@@YAXAEAPEBVIError_v1@AdobeXMPCommon@@PEAVICompositeNode_v1@AdobeXMPCore@@P834@EAAXAEBV?$shared_ptr@VINode_v1@AdobeXMPCore@@@std@@AEBV?$shared_ptr@$$CBVIPath_v1@AdobeXMPCore@@@6@@ZPEBDK23@Z 00000001800527d8 f i ICompositeNode_I.obj
 0001:00051824       ??$CallUnSafeFunctionReturningSharedPointer@VICompositeNode_v1@AdobeXMPCore@@PEAVINode_v1@2@V32@AEBV?$shared_ptr@VINode_v1@AdobeXMPCore@@@std@@AEBV?$shared_ptr@$$CBVIPath_v1@AdobeXMPCore@@@5@@AdobeXMPCore_Int@@YAPEAVINode_v1@AdobeXMPCore@@AEAPEBVIError_v1@AdobeXMPCommon@@PEAVICompositeNode_v1@2@P852@EAA?AV?$shared_ptr@VINode_v1@AdobeXMPCore@@@std@@AEBV67@AEBV?$shared_ptr@$$CBVIPath_v1@AdobeXMPCore@@@7@@ZPEBDK23@Z 0000000180052824 f i ICompositeNode_I.obj
 0001:000519ac       ??$CallUnSafeFunctionReturningSharedPointer@VICompositeNode_v1@AdobeXMPCore@@PEAVINodeIterator_v1@2@V32@@AdobeXMPCore_Int@@YAPEAVINodeIterator_v1@AdobeXMPCore@@AEAPEBVIError_v1@AdobeXMPCommon@@PEAVICompositeNode_v1@2@P852@EAA?AV?$shared_ptr@VINodeIterator_v1@AdobeXMPCore@@@std@@XZPEBDK@Z 00000001800529ac f i ICompositeNode_I.obj
 0001:00051b24       ??_9ICompositeNode_v1@AdobeXMPCore@@$BDA@AA 0000000180052b24 f i ICompositeNode_I.obj
 0001:00051b24       ??_9IUTF8String_v1@AdobeXMPCommon@@$BDA@AA 0000000180052b24 f i IUTF8String_I.obj
 0001:00051b24       ??_9INode_v1@AdobeXMPCore@@$BDA@AA 0000000180052b24 f i INode_I.obj
 0001:00051b24       ??_9INameSpacePrefixMap_v1@AdobeXMPCore@@$BDA@AA 0000000180052b24 f i INameSpacePrefixMap_I.obj
 0001:00051b2c       ?GetInterfacePointer@ICoreConfigurationManager_I@AdobeXMPCore_Int@@UEAAPEAX_KK@Z 0000000180052b2c f   ICoreConfigurationManager_I.obj
 0001:00051c00       ?getInterfacePointer@ICoreConfigurationManager_I@AdobeXMPCore_Int@@MEAAPEAX_KKAEAPEBVIError_v1@AdobeXMPCommon@@@Z 0000000180052c00 f   ICoreConfigurationManager_I.obj
 0001:00051c50       ??$CallUnSafeFunction@VICoreConfigurationManager_I@AdobeXMPCore_Int@@PEAXPEAX_KK@AdobeXMPCore_Int@@YAPEAXAEAPEBVIError_v1@AdobeXMPCommon@@PEAVICoreConfigurationManager_I@0@PEAXP830@EAAPEAX_KK@ZPEBDK3K@Z 0000000180052c50 f i ICoreConfigurationManager_I.obj
 0001:00051c98       ?GetInterfacePointer@ICoreObjectFactory_I@AdobeXMPCore_Int@@UEAAPEAX_KK@Z 0000000180052c98 f   ICoreObjectFactory_I.obj
 0001:00051da8       ?getInterfacePointer@ICoreObjectFactory_I@AdobeXMPCore_Int@@MEAAPEAX_KKAEAPEBVIError_v1@AdobeXMPCommon@@@Z 0000000180052da8 f   ICoreObjectFactory_I.obj
 0001:00051df8       ??$CallUnSafeFunction@VICoreObjectFactory_I@AdobeXMPCore_Int@@PEAXPEAX_KK@AdobeXMPCore_Int@@YAPEAXAEAPEBVIError_v1@AdobeXMPCommon@@PEAVICoreObjectFactory_I@0@PEAXP830@EAAPEAX_KK@ZPEBDK3K@Z 0000000180052df8 f i ICoreObjectFactory_I.obj
 0001:00051e40       ?GetInterfacePointer@IDOMImplementationRegistry_I@AdobeXMPCore_Int@@UEAAPEAX_KK@Z 0000000180052e40 f   IDOMImplementationRegistry_I.obj
 0001:00051eec       ?getInterfacePointer@IDOMImplementationRegistry_I@AdobeXMPCore_Int@@MEAAPEAX_KKAEAPEBVIError_v1@AdobeXMPCommon@@@Z 0000000180052eec f   IDOMImplementationRegistry_I.obj
 0001:00051f3c       ?getParser@IDOMImplementationRegistry_I@AdobeXMPCore_Int@@MEBAPEAVIDOMParser_v1@AdobeXMPCore@@PEBDAEAPEBVIError_v1@AdobeXMPCommon@@@Z 0000000180052f3c f   IDOMImplementationRegistry_I.obj
 0001:00051f98       ?getSerializer@IDOMImplementationRegistry_I@AdobeXMPCore_Int@@MEBAPEAVIDOMSerializer_v1@AdobeXMPCore@@PEBDAEAPEBVIError_v1@AdobeXMPCommon@@@Z 0000000180052f98 f   IDOMImplementationRegistry_I.obj
 0001:00051ff4       ?registerParser@IDOMImplementationRegistry_I@AdobeXMPCore_Int@@MEAAKPEBDPEAVIClientDOMParser_v1@AdobeXMPCore@@AEAPEBVIError_v1@AdobeXMPCommon@@@Z 0000000180052ff4 f   IDOMImplementationRegistry_I.obj
 0001:000520f0       ?registerSerializer@IDOMImplementationRegistry_I@AdobeXMPCore_Int@@MEAAKPEBDPEAVIClientDOMSerializer_v1@AdobeXMPCore@@AEAPEBVIError_v1@AdobeXMPCommon@@@Z 00000001800530f0 f   IDOMImplementationRegistry_I.obj
 0001:000521ec       ?RegisterParser@IDOMImplementationRegistry_I@AdobeXMPCore_Int@@UEAA_NPEBDPEAVIClientDOMParser_v1@AdobeXMPCore@@@Z 00000001800531ec f   IDOMImplementationRegistry_I.obj
 0001:000522c8       ?RegisterSerializer@IDOMImplementationRegistry_I@AdobeXMPCore_Int@@UEAA_NPEBDPEAVIClientDOMSerializer_v1@AdobeXMPCore@@@Z 00000001800532c8 f   IDOMImplementationRegistry_I.obj
 0001:000523a4       ??$CallUnSafeFunction@VIDOMImplementationRegistry_I@AdobeXMPCore_Int@@PEAXPEAX_KK@AdobeXMPCore_Int@@YAPEAXAEAPEBVIError_v1@AdobeXMPCommon@@PEAVIDOMImplementationRegistry_I@0@PEAXP830@EAAPEAX_KK@ZPEBDK3K@Z 00000001800533a4 f i IDOMImplementationRegistry_I.obj
 0001:000523f4       ??$CallConstUnSafeFunctionReturningSharedPointer@VIDOMImplementationRegistry_v1@AdobeXMPCore@@PEAVIDOMParser_v1@2@V32@PEBD@AdobeXMPCore_Int@@YAPEAVIDOMParser_v1@AdobeXMPCore@@AEAPEBVIError_v1@AdobeXMPCommon@@PEBVIDOMImplementationRegistry_v1@2@P852@EBA?AV?$shared_ptr@VIDOMParser_v1@AdobeXMPCore@@@std@@PEBD@Z2K2@Z 00000001800533f4 f i IDOMImplementationRegistry_I.obj
 0001:00052574       ??$CallConstUnSafeFunctionReturningSharedPointer@VIDOMImplementationRegistry_v1@AdobeXMPCore@@PEAVIDOMSerializer_v1@2@V32@PEBD@AdobeXMPCore_Int@@YAPEAVIDOMSerializer_v1@AdobeXMPCore@@AEAPEBVIError_v1@AdobeXMPCommon@@PEBVIDOMImplementationRegistry_v1@2@P852@EBA?AV?$shared_ptr@VIDOMSerializer_v1@AdobeXMPCore@@@std@@PEBD@Z2K2@Z 0000000180053574 f i IDOMImplementationRegistry_I.obj
 0001:000526f4       ??$CallUnSafeFunction@VIDOMImplementationRegistry_I@AdobeXMPCore_Int@@K_NPEBDAEBV?$shared_ptr@$$CBVIDOMParser_v1@AdobeXMPCore@@@std@@@AdobeXMPCore_Int@@YAKAEAPEBVIError_v1@AdobeXMPCommon@@PEAVIDOMImplementationRegistry_I@0@KP830@EAA_NPEBDAEBV?$shared_ptr@$$CBVIDOMParser_v1@AdobeXMPCore@@@std@@@Z2K23@Z 00000001800536f4 f i IDOMImplementationRegistry_I.obj
 0001:00052744       ??$CallUnSafeFunction@VIDOMImplementationRegistry_I@AdobeXMPCore_Int@@K_NPEBDAEBV?$shared_ptr@$$CBVIDOMSerializer_v1@AdobeXMPCore@@@std@@@AdobeXMPCore_Int@@YAKAEAPEBVIError_v1@AdobeXMPCommon@@PEAVIDOMImplementationRegistry_I@0@KP830@EAA_NPEBDAEBV?$shared_ptr@$$CBVIDOMSerializer_v1@AdobeXMPCore@@@std@@@Z2K23@Z 0000000180053744 f i IDOMImplementationRegistry_I.obj
 0001:00052794       ?GetInterfacePointer@IDOMParser_I@AdobeXMPCore_Int@@UEAAPEAX_KK@Z 0000000180053794 f   IDOMParser_I.obj
 0001:00052840       ?getInterfacePointer@IDOMParser_I@AdobeXMPCore_Int@@MEAAPEAX_KKAEAPEBVIError_v1@AdobeXMPCommon@@@Z 0000000180053840 f   IDOMParser_I.obj
 0001:00052890       ?clone@IDOMParser_I@AdobeXMPCore_Int@@MEBAPEAVIDOMParser_v1@AdobeXMPCore@@AEAPEBVIError_v1@AdobeXMPCommon@@@Z 0000000180053890 f   IDOMParser_I.obj
 0001:000528e4       ?parse@IDOMParser_I@AdobeXMPCore_Int@@MEAAPEAVIMetadata_v1@AdobeXMPCore@@PEBD_KAEAPEBVIError_v1@AdobeXMPCommon@@@Z 00000001800538e4 f   IDOMParser_I.obj
 0001:00052940       ?parseWithSpecificAction@IDOMParser_I@AdobeXMPCore_Int@@MEAAXPEBD_KKPEAVINode_v1@AdobeXMPCore@@AEAPEBVIError_v1@AdobeXMPCommon@@@Z 0000000180053940 f   IDOMParser_I.obj
 0001:00052a24       ??$CallUnSafeFunction@VIDOMParser_I@AdobeXMPCore_Int@@PEAXPEAX_KK@AdobeXMPCore_Int@@YAPEAXAEAPEBVIError_v1@AdobeXMPCommon@@PEAVIDOMParser_I@0@PEAXP830@EAAPEAX_KK@ZPEBDK3K@Z 0000000180053a24 f i IDOMParser_I.obj
 0001:00052a74       ??$CallConstUnSafeFunctionReturningSharedPointer@VIDOMParser_v1@AdobeXMPCore@@PEAV12@V12@@AdobeXMPCore_Int@@YAPEAVIDOMParser_v1@AdobeXMPCore@@AEAPEBVIError_v1@AdobeXMPCommon@@PEBV12@P812@EBA?AV?$shared_ptr@VIDOMParser_v1@AdobeXMPCore@@@std@@XZPEBDK@Z 0000000180053a74 f i IDOMParser_I.obj
 0001:00052bec       ??$CallUnSafeFunctionReturningSharedPointer@VIDOMParser_v1@AdobeXMPCore@@PEAVIMetadata_v1@2@V32@PEBD_K@AdobeXMPCore_Int@@YAPEAVIMetadata_v1@AdobeXMPCore@@AEAPEBVIError_v1@AdobeXMPCommon@@PEAVIDOMParser_v1@2@P852@EAA?AV?$shared_ptr@VIMetadata_v1@AdobeXMPCore@@@std@@PEBD_K@Z2K23@Z 0000000180053bec f i IDOMParser_I.obj
 0001:00052d74       ??$CallUnSafeFunctionReturningVoid@VIDOMParser_v1@AdobeXMPCore@@PEBD_KW4eActionType@12@AEAV?$shared_ptr@VINode_v1@AdobeXMPCore@@@std@@@AdobeXMPCore_Int@@YAXAEAPEBVIError_v1@AdobeXMPCommon@@PEAVIDOMParser_v1@AdobeXMPCore@@P834@EAAXPEBD_KW4eActionType@34@AEAV?$shared_ptr@VINode_v1@AdobeXMPCore@@@std@@@Z2K2345@Z 0000000180053d74 f i IDOMParser_I.obj
 0001:00052dd8       ?MakeShared@INameSpacePrefixMap_v1@AdobeXMPCore@@SA?AV?$shared_ptr@$$CBVINameSpacePrefixMap_v1@AdobeXMPCore@@@std@@PEBV12@@Z 0000000180053dd8 f i IDOMSerializer_I.obj
 0001:00052e50       ?GetInterfacePointer@IDOMSerializer_I@AdobeXMPCore_Int@@UEAAPEAX_KK@Z 0000000180053e50 f   IDOMSerializer_I.obj
 0001:00052efc       ?getInterfacePointer@IDOMSerializer_I@AdobeXMPCore_Int@@MEAAPEAX_KKAEAPEBVIError_v1@AdobeXMPCommon@@@Z 0000000180053efc f   IDOMSerializer_I.obj
 0001:00052f4c       ?clone@IDOMSerializer_I@AdobeXMPCore_Int@@MEBAPEAVIDOMSerializer_v1@AdobeXMPCore@@AEAPEBVIError_v1@AdobeXMPCommon@@@Z 0000000180053f4c f   IDOMSerializer_I.obj
 0001:00052fa0       ?serialize@IDOMSerializer_I@AdobeXMPCore_Int@@MEAAPEAVIUTF8String_v1@AdobeXMPCommon@@PEAVINode_v1@AdobeXMPCore@@PEBVINameSpacePrefixMap_v1@6@AEAPEBVIError_v1@4@@Z 0000000180053fa0 f   IDOMSerializer_I.obj
 0001:000530b4       ??$CallUnSafeFunction@VIDOMSerializer_I@AdobeXMPCore_Int@@PEAXPEAX_KK@AdobeXMPCore_Int@@YAPEAXAEAPEBVIError_v1@AdobeXMPCommon@@PEAVIDOMSerializer_I@0@PEAXP830@EAAPEAX_KK@ZPEBDK3K@Z 00000001800540b4 f i IDOMSerializer_I.obj
 0001:00053104       ??$CallConstUnSafeFunctionReturningSharedPointer@VIDOMSerializer_v1@AdobeXMPCore@@PEAV12@V12@@AdobeXMPCore_Int@@YAPEAVIDOMSerializer_v1@AdobeXMPCore@@AEAPEBVIError_v1@AdobeXMPCommon@@PEBV12@P812@EBA?AV?$shared_ptr@VIDOMSerializer_v1@AdobeXMPCore@@@std@@XZPEBDK@Z 0000000180054104 f i IDOMSerializer_I.obj
 0001:0005327c       ??$CallUnSafeFunctionReturningSharedPointer@VIDOMSerializer_v1@AdobeXMPCore@@PEAVIUTF8String_v1@AdobeXMPCommon@@V34@AEBV?$shared_ptr@VINode_v1@AdobeXMPCore@@@std@@AEBV?$shared_ptr@$$CBVINameSpacePrefixMap_v1@AdobeXMPCore@@@6@@AdobeXMPCore_Int@@YAPEAVIUTF8String_v1@AdobeXMPCommon@@AEAPEBVIError_v1@2@PEAVIDOMSerializer_v1@AdobeXMPCore@@P845@EAA?AV?$shared_ptr@VIUTF8String_v1@AdobeXMPCommon@@@std@@AEBV?$shared_ptr@VINode_v1@AdobeXMPCore@@@7@AEBV?$shared_ptr@$$CBVINameSpacePrefixMap_v1@AdobeXMPCore@@@7@@ZPEBDK23@Z 000000018005427c f i IDOMSerializer_I.obj
 0001:00053404       ?GetInterfacePointer@IMetadata_I@AdobeXMPCore_Int@@UEAAPEAX_KK@Z 0000000180054404 f   IMetadata_I.obj
 0001:000534d8       ?getInterfacePointer@IMetadata_I@AdobeXMPCore_Int@@MEAAPEAX_KKAEAPEBVIError_v1@AdobeXMPCommon@@@Z 00000001800544d8 f   IMetadata_I.obj
 0001:00053528       ?getAboutURI@IMetadata_I@AdobeXMPCore_Int@@MEBAPEBVIUTF8String_v1@AdobeXMPCommon@@AEAPEBVIError_v1@4@@Z 0000000180054528 f   IMetadata_I.obj
 0001:0005357c       ??$CallUnSafeFunction@VIMetadata_I@AdobeXMPCore_Int@@PEAXPEAX_KK@AdobeXMPCore_Int@@YAPEAXAEAPEBVIError_v1@AdobeXMPCommon@@PEAVIMetadata_I@0@PEAXP830@EAAPEAX_KK@ZPEBDK3K@Z 000000018005457c f i IMetadata_I.obj
 0001:000535c4       ??$CallConstUnSafeFunctionReturningSharedPointer@VIMetadata_v1@AdobeXMPCore@@PEBVIUTF8String_v1@AdobeXMPCommon@@$$CBV34@@AdobeXMPCore_Int@@YAPEBVIUTF8String_v1@AdobeXMPCommon@@AEAPEBVIError_v1@2@PEBVIMetadata_v1@AdobeXMPCore@@P845@EBA?AV?$shared_ptr@$$CBVIUTF8String_v1@AdobeXMPCommon@@@std@@XZPEBDK@Z 00000001800545c4 f i IMetadata_I.obj
 0001:0005373c       ?GetInterfacePointer@INameSpacePrefixMap_I@AdobeXMPCore_Int@@UEAAPEAX_KK@Z 000000018005473c f   INameSpacePrefixMap_I.obj
 0001:000537e8       ?getInterfacePointer@INameSpacePrefixMap_I@AdobeXMPCore_Int@@MEAAPEAX_KKAEAPEBVIError_v1@AdobeXMPCommon@@@Z 00000001800547e8 f   INameSpacePrefixMap_I.obj
 0001:00053838       ?insert@INameSpacePrefixMap_I@AdobeXMPCore_Int@@MEAAKPEBD_K01AEAPEBVIError_v1@AdobeXMPCommon@@@Z 0000000180054838 f   INameSpacePrefixMap_I.obj
 0001:000538ac       ?remove@INameSpacePrefixMap_I@AdobeXMPCore_Int@@MEAAKKPEBD_KAEAPEBVIError_v1@AdobeXMPCommon@@@Z 00000001800548ac f   INameSpacePrefixMap_I.obj
 0001:00053928       ?isPresent@INameSpacePrefixMap_I@AdobeXMPCore_Int@@MEBAKKPEBD_KAEAPEBVIError_v1@AdobeXMPCommon@@@Z 0000000180054928 f   INameSpacePrefixMap_I.obj
 0001:000539a4       ?get@INameSpacePrefixMap_I@AdobeXMPCore_Int@@MEBAPEBVIUTF8String_v1@AdobeXMPCommon@@KPEBD_KAEAPEBVIError_v1@4@@Z 00000001800549a4 f   INameSpacePrefixMap_I.obj
 0001:00053a20       ?clone@INameSpacePrefixMap_I@AdobeXMPCore_Int@@MEBAPEAVINameSpacePrefixMap_v1@AdobeXMPCore@@AEAPEBVIError_v1@AdobeXMPCommon@@@Z 0000000180054a20 f   INameSpacePrefixMap_I.obj
 0001:00053a74       ??$CallUnSafeFunction@VINameSpacePrefixMap_I@AdobeXMPCore_Int@@PEAXPEAX_KK@AdobeXMPCore_Int@@YAPEAXAEAPEBVIError_v1@AdobeXMPCommon@@PEAVINameSpacePrefixMap_I@0@PEAXP830@EAAPEAX_KK@ZPEBDK3K@Z 0000000180054a74 f i INameSpacePrefixMap_I.obj
 0001:00053ac4       ??$CallUnSafeFunction@VINameSpacePrefixMap_v1@AdobeXMPCore@@K_NPEBD_KPEBD_K@AdobeXMPCore_Int@@YAKAEAPEBVIError_v1@AdobeXMPCommon@@PEAVINameSpacePrefixMap_v1@AdobeXMPCore@@KP834@EAA_NPEBD_K23@Z2K2323@Z 0000000180054ac4 f i INameSpacePrefixMap_I.obj
 0001:00053b2c       ??$CallUnSafeFunction@VINameSpacePrefixMap_v1@AdobeXMPCore@@K_NPEBD_K@AdobeXMPCore_Int@@YAKAEAPEBVIError_v1@AdobeXMPCommon@@PEAVINameSpacePrefixMap_v1@AdobeXMPCore@@KP834@EAA_NPEBD_K@Z2K23@Z 0000000180054b2c f i INameSpacePrefixMap_I.obj
 0001:00053b7c       ??$CallConstUnSafeFunction@VINameSpacePrefixMap_v1@AdobeXMPCore@@K_NPEBD_K@AdobeXMPCore_Int@@YAKAEAPEBVIError_v1@AdobeXMPCommon@@PEBVINameSpacePrefixMap_v1@AdobeXMPCore@@KP834@EBA_NPEBD_K@Z2K23@Z 0000000180054b7c f i INameSpacePrefixMap_I.obj
 0001:00053bcc       ??$CallConstUnSafeFunctionReturningSharedPointer@VINameSpacePrefixMap_v1@AdobeXMPCore@@PEBVIUTF8String_v1@AdobeXMPCommon@@$$CBV34@PEBD_K@AdobeXMPCore_Int@@YAPEBVIUTF8String_v1@AdobeXMPCommon@@AEAPEBVIError_v1@2@PEBVINameSpacePrefixMap_v1@AdobeXMPCore@@P845@EBA?AV?$shared_ptr@$$CBVIUTF8String_v1@AdobeXMPCommon@@@std@@PEBD_K@Z2K23@Z 0000000180054bcc f i INameSpacePrefixMap_I.obj
 0001:00053d54       ??$CallConstUnSafeFunctionReturningSharedPointer@VINameSpacePrefixMap_v1@AdobeXMPCore@@PEAV12@V12@@AdobeXMPCore_Int@@YAPEAVINameSpacePrefixMap_v1@AdobeXMPCore@@AEAPEBVIError_v1@AdobeXMPCommon@@PEBV12@P812@EBA?AV?$shared_ptr@VINameSpacePrefixMap_v1@AdobeXMPCore@@@std@@XZPEBDK@Z 0000000180054d54 f i INameSpacePrefixMap_I.obj
 0001:00053ecc       ??_9IUTF8String_v1@AdobeXMPCommon@@$BEI@AA 0000000180054ecc f i IUTF8String.obj
 0001:00053ecc       ??_9INode_v1@AdobeXMPCore@@$BEI@AA 0000000180054ecc f i INode_I.obj
 0001:00053ecc       ??_9IConfigurable_I@AdobeXMPCore_Int@@$BEI@AA 0000000180054ecc f i IConfigurable_I.obj
 0001:00053ecc       ??_9INameSpacePrefixMap_v1@AdobeXMPCore@@$BEI@AA 0000000180054ecc f i INameSpacePrefixMap_I.obj
 0001:00053ed4       ??_E_Ref_count_base@std@@UEAAPEAXI@Z 0000000180054ed4 f i * CIL library *:* CIL module *
 0001:00053ed4       ??_G_Ref_count_base@std@@UEAAPEAXI@Z 0000000180054ed4 f i INodeIterator_I.obj
 0001:00053f00       ?GetInterfacePointer@INodeIterator_I@AdobeXMPCore_Int@@UEAAPEAX_KK@Z 0000000180054f00 f   INodeIterator_I.obj
 0001:00053fa8       ?getInterfacePointer@INodeIterator_I@AdobeXMPCore_Int@@MEAAPEAX_KKAEAPEBVIError_v1@AdobeXMPCommon@@@Z 0000000180054fa8 f   INodeIterator_I.obj
 0001:00053ff8       ?getNode@INodeIterator_I@AdobeXMPCore_Int@@MEAAPEAVINode_v1@AdobeXMPCore@@AEAPEBVIError_v1@AdobeXMPCommon@@@Z 0000000180054ff8 f   INodeIterator_I.obj
 0001:0005404c       ?getNodeType@INodeIterator_I@AdobeXMPCore_Int@@MEBAKAEAPEBVIError_v1@AdobeXMPCommon@@@Z 000000018005504c f   INodeIterator_I.obj
 0001:000540a0       ?next@INodeIterator_I@AdobeXMPCore_Int@@MEAAPEAVINodeIterator_v1@AdobeXMPCore@@AEAPEBVIError_v1@AdobeXMPCommon@@@Z 00000001800550a0 f   INodeIterator_I.obj
 0001:000540f4       ??$CallUnSafeFunction@VINodeIterator_I@AdobeXMPCore_Int@@PEAXPEAX_KK@AdobeXMPCore_Int@@YAPEAXAEAPEBVIError_v1@AdobeXMPCommon@@PEAVINodeIterator_I@0@PEAXP830@EAAPEAX_KK@ZPEBDK3K@Z 00000001800550f4 f i INodeIterator_I.obj
 0001:0005413c       ??$CallUnSafeFunctionReturningSharedPointer@VINodeIterator_v1@AdobeXMPCore@@PEAVINode_v1@2@V32@@AdobeXMPCore_Int@@YAPEAVINode_v1@AdobeXMPCore@@AEAPEBVIError_v1@AdobeXMPCommon@@PEAVINodeIterator_v1@2@P852@EAA?AV?$shared_ptr@VINode_v1@AdobeXMPCore@@@std@@XZPEBDK@Z 000000018005513c f i INodeIterator_I.obj
 0001:000542b4       ??$CallConstUnSafeFunction@VINodeIterator_v1@AdobeXMPCore@@KW4eNodeType@INode_v1@2@@AdobeXMPCore_Int@@YAKAEAPEBVIError_v1@AdobeXMPCommon@@PEBVINodeIterator_v1@AdobeXMPCore@@KP834@EBA?AW4eNodeType@INode_v1@4@XZPEBDK@Z 00000001800552b4 f i INodeIterator_I.obj
 0001:000542f4       ??$CallUnSafeFunctionReturningSharedPointer@VINodeIterator_v1@AdobeXMPCore@@PEAV12@V12@@AdobeXMPCore_Int@@YAPEAVINodeIterator_v1@AdobeXMPCore@@AEAPEBVIError_v1@AdobeXMPCommon@@PEAV12@P812@EAA?AV?$shared_ptr@VINodeIterator_v1@AdobeXMPCore@@@std@@XZPEBDK@Z 00000001800552f4 f i INodeIterator_I.obj
 0001:0005446c       ?GetInterfacePointer@INode_I@AdobeXMPCore_Int@@UEAAPEAX_KK@Z 000000018005546c f   INode_I.obj
 0001:00054478       ?getInterfacePointer@INode_I@AdobeXMPCore_Int@@MEAAPEAX_KKAEAPEBVIError_v1@AdobeXMPCommon@@@Z 0000000180055478 f   INode_I.obj
 0001:000544c8       ?GetInterfacePointerInternal@INode_I@AdobeXMPCore_Int@@IEAAPEAX_KK_N@Z 00000001800554c8 f   INode_I.obj
 0001:00054580       ?getParent@INode_I@AdobeXMPCore_Int@@MEAAPEAVINode_v1@AdobeXMPCore@@AEAPEBVIError_v1@AdobeXMPCommon@@@Z 0000000180055580 f   INode_I.obj
 0001:000545d4       ?getParentNodeType@INode_I@AdobeXMPCore_Int@@MEBAKAEAPEBVIError_v1@AdobeXMPCommon@@@Z 00000001800555d4 f   INode_I.obj
 0001:00054630       ?setName@INode_I@AdobeXMPCore_Int@@MEAAXPEBD_KAEAPEBVIError_v1@AdobeXMPCommon@@@Z 0000000180055630 f   INode_I.obj
 0001:00054694       ?getName@INode_I@AdobeXMPCore_Int@@MEBAPEBVIUTF8String_v1@AdobeXMPCommon@@AEAPEBVIError_v1@4@@Z 0000000180055694 f   INode_I.obj
 0001:000546f0       ?setNameSpace@INode_I@AdobeXMPCore_Int@@MEAAXPEBD_KAEAPEBVIError_v1@AdobeXMPCommon@@@Z 00000001800556f0 f   INode_I.obj
 0001:00054754       ?getNameSpace@INode_I@AdobeXMPCore_Int@@MEBAPEBVIUTF8String_v1@AdobeXMPCommon@@AEAPEBVIError_v1@4@@Z 0000000180055754 f   INode_I.obj
 0001:000547b0       ?getPath@INode_I@AdobeXMPCore_Int@@MEBAPEAVIPath_v1@AdobeXMPCore@@AEAPEBVIError_v1@AdobeXMPCommon@@@Z 00000001800557b0 f   INode_I.obj
 0001:00054804       ?qualifiersIterator@INode_I@AdobeXMPCore_Int@@MEAAPEAVINodeIterator_v1@AdobeXMPCore@@AEAPEBVIError_v1@AdobeXMPCommon@@@Z 0000000180055804 f   INode_I.obj
 0001:00054858       ?getQualifierNodeType@INode_I@AdobeXMPCore_Int@@MEBAKPEBD_K01AEAPEBVIError_v1@AdobeXMPCommon@@@Z 0000000180055858 f   INode_I.obj
 0001:000548cc       ?getQualifier@INode_I@AdobeXMPCore_Int@@MEAAPEAVINode_v1@AdobeXMPCore@@PEBD_K01AEAPEBVIError_v1@AdobeXMPCommon@@@Z 00000001800558cc f   INode_I.obj
 0001:00054948       ?insertQualifier@INode_I@AdobeXMPCore_Int@@MEAAXPEAVINode_v1@AdobeXMPCore@@AEAPEBVIError_v1@AdobeXMPCommon@@@Z 0000000180055948 f   INode_I.obj
 0001:000549f4       ?replaceQualifier@INode_I@AdobeXMPCore_Int@@MEAAPEAVINode_v1@AdobeXMPCore@@PEAV34@AEAPEBVIError_v1@AdobeXMPCommon@@@Z 00000001800559f4 f   INode_I.obj
 0001:00054aa8       ?removeQualifier@INode_I@AdobeXMPCore_Int@@MEAAPEAVINode_v1@AdobeXMPCore@@PEBD_K01AEAPEBVIError_v1@AdobeXMPCommon@@@Z 0000000180055aa8 f   INode_I.obj
 0001:00054b24       ?getNodeType@INode_I@AdobeXMPCore_Int@@MEBAKAEAPEBVIError_v1@AdobeXMPCommon@@@Z 0000000180055b24 f   INode_I.obj
 0001:00054b80       ?isArrayItem@INode_I@AdobeXMPCore_Int@@MEBAKAEAPEBVIError_v1@AdobeXMPCommon@@@Z 0000000180055b80 f   INode_I.obj
 0001:00054bdc       ?isQualifierNode@INode_I@AdobeXMPCore_Int@@MEBAKAEAPEBVIError_v1@AdobeXMPCommon@@@Z 0000000180055bdc f   INode_I.obj
 0001:00054c38       ?getIndex@INode_I@AdobeXMPCore_Int@@MEBA_KAEAPEBVIError_v1@AdobeXMPCommon@@@Z 0000000180055c38 f   INode_I.obj
 0001:00054c8c       ?hasQualifiers@INode_I@AdobeXMPCore_Int@@MEBAKAEAPEBVIError_v1@AdobeXMPCommon@@@Z 0000000180055c8c f   INode_I.obj
 0001:00054ce8       ?hasContent@INode_I@AdobeXMPCore_Int@@MEBAKAEAPEBVIError_v1@AdobeXMPCommon@@@Z 0000000180055ce8 f   INode_I.obj
 0001:00054d44       ?isEmpty@INode_I@AdobeXMPCore_Int@@MEBAKAEAPEBVIError_v1@AdobeXMPCommon@@@Z 0000000180055d44 f   INode_I.obj
 0001:00054da0       ?hasChanged@INode_I@AdobeXMPCore_Int@@MEBAKAEAPEBVIError_v1@AdobeXMPCommon@@@Z 0000000180055da0 f   INode_I.obj
 0001:00054dfc       ?clear@INode_I@AdobeXMPCore_Int@@MEAAXKKAEAPEBVIError_v1@AdobeXMPCommon@@@Z 0000000180055dfc f   INode_I.obj
 0001:00054e6c       ?clone@INode_I@AdobeXMPCore_Int@@MEBAPEAVINode_v1@AdobeXMPCore@@KKAEAPEBVIError_v1@AdobeXMPCommon@@@Z 0000000180055e6c f   INode_I.obj
 0001:00054edc       ?convertToSimpleNode@INode_I@AdobeXMPCore_Int@@MEAAPEAVISimpleNode_v1@AdobeXMPCore@@AEAPEBVIError_v1@AdobeXMPCommon@@@Z 0000000180055edc f   INode_I.obj
 0001:00054f30       ?convertToStructureNode@INode_I@AdobeXMPCore_Int@@MEAAPEAVIStructureNode_v1@AdobeXMPCore@@AEAPEBVIError_v1@AdobeXMPCommon@@@Z 0000000180055f30 f   INode_I.obj
 0001:00054f84       ?convertToArrayNode@INode_I@AdobeXMPCore_Int@@MEAAPEAVIArrayNode_v1@AdobeXMPCore@@AEAPEBVIError_v1@AdobeXMPCommon@@@Z 0000000180055f84 f   INode_I.obj
 0001:00054fd8       ?convertToMetadata@INode_I@AdobeXMPCore_Int@@MEAAPEAVIMetadata_v1@AdobeXMPCore@@AEAPEBVIError_v1@AdobeXMPCommon@@@Z 0000000180055fd8 f   INode_I.obj
 0001:0005502c       ??$CallUnSafeFunction@VINode_I@AdobeXMPCore_Int@@PEAXPEAX_KK@AdobeXMPCore_Int@@YAPEAXAEAPEBVIError_v1@AdobeXMPCommon@@PEAVINode_I@0@PEAXP830@EAAPEAX_KK@ZPEBDK3K@Z 000000018005602c f i INode_I.obj
 0001:0005507c       ??$CallUnSafeFunctionReturningSharedPointer@VINode_v1@AdobeXMPCore@@PEAV12@V12@@AdobeXMPCore_Int@@YAPEAVINode_v1@AdobeXMPCore@@AEAPEBVIError_v1@AdobeXMPCommon@@PEAV12@P812@EAA?AV?$shared_ptr@VINode_v1@AdobeXMPCore@@@std@@XZPEBDK@Z 000000018005607c f i INode_I.obj
 0001:000551f4       ??$CallConstUnSafeFunction@VINode_v1@AdobeXMPCore@@KW4eNodeType@12@@AdobeXMPCore_Int@@YAKAEAPEBVIError_v1@AdobeXMPCommon@@PEBVINode_v1@AdobeXMPCore@@KP834@EBA?AW4eNodeType@34@XZPEBDK@Z 00000001800561f4 f i INode_I.obj
 0001:00055234       ??$CallUnSafeFunctionReturningVoid@VINode_v1@AdobeXMPCore@@PEBD_K@AdobeXMPCore_Int@@YAXAEAPEBVIError_v1@AdobeXMPCommon@@PEAVINode_v1@AdobeXMPCore@@P834@EAAXPEBD_K@Z2K23@Z 0000000180056234 f i INode_I.obj
 0001:00055280       ??$CallConstUnSafeFunctionReturningSharedPointer@VINode_v1@AdobeXMPCore@@PEBVIUTF8String_v1@AdobeXMPCommon@@$$CBV34@@AdobeXMPCore_Int@@YAPEBVIUTF8String_v1@AdobeXMPCommon@@AEAPEBVIError_v1@2@PEBVINode_v1@AdobeXMPCore@@P845@EBA?AV?$shared_ptr@$$CBVIUTF8String_v1@AdobeXMPCommon@@@std@@XZPEBDK@Z 0000000180056280 f i INode_I.obj
 0001:000553f8       ??$CallConstUnSafeFunctionReturningSharedPointer@VINode_v1@AdobeXMPCore@@PEAVIPath_v1@2@V32@@AdobeXMPCore_Int@@YAPEAVIPath_v1@AdobeXMPCore@@AEAPEBVIError_v1@AdobeXMPCommon@@PEBVINode_v1@2@P852@EBA?AV?$shared_ptr@VIPath_v1@AdobeXMPCore@@@std@@XZPEBDK@Z 00000001800563f8 f i INode_I.obj
 0001:00055570       ??$CallUnSafeFunctionReturningSharedPointer@VINode_v1@AdobeXMPCore@@PEAVINodeIterator_v1@2@V32@@AdobeXMPCore_Int@@YAPEAVINodeIterator_v1@AdobeXMPCore@@AEAPEBVIError_v1@AdobeXMPCommon@@PEAVINode_v1@2@P852@EAA?AV?$shared_ptr@VINodeIterator_v1@AdobeXMPCore@@@std@@XZPEBDK@Z 0000000180056570 f i INode_I.obj
 0001:000556e8       ??$CallConstUnSafeFunction@VINode_v1@AdobeXMPCore@@KW4eNodeType@12@PEBD_KPEBD_K@AdobeXMPCore_Int@@YAKAEAPEBVIError_v1@AdobeXMPCommon@@PEBVINode_v1@AdobeXMPCore@@KP834@EBA?AW4eNodeType@34@PEBD_K23@Z2K2323@Z 00000001800566e8 f i INode_I.obj
 0001:00055750       ??$CallUnSafeFunctionReturningSharedPointer@VINode_v1@AdobeXMPCore@@PEAV12@V12@PEBD_KPEBD_K@AdobeXMPCore_Int@@YAPEAVINode_v1@AdobeXMPCore@@AEAPEBVIError_v1@AdobeXMPCommon@@PEAV12@P812@EAA?AV?$shared_ptr@VINode_v1@AdobeXMPCore@@@std@@PEBD_K23@Z2K2323@Z 0000000180056750 f i INode_I.obj
 0001:000558f8       ??$CallUnSafeFunctionReturningVoid@VINode_v1@AdobeXMPCore@@AEBV?$shared_ptr@VINode_v1@AdobeXMPCore@@@std@@@AdobeXMPCore_Int@@YAXAEAPEBVIError_v1@AdobeXMPCommon@@PEAVINode_v1@AdobeXMPCore@@P834@EAAXAEBV?$shared_ptr@VINode_v1@AdobeXMPCore@@@std@@@ZPEBDK2@Z 00000001800568f8 f i INode_I.obj
 0001:0005593c       ??$CallUnSafeFunctionReturningSharedPointer@VINode_v1@AdobeXMPCore@@PEAV12@V12@AEBV?$shared_ptr@VINode_v1@AdobeXMPCore@@@std@@@AdobeXMPCore_Int@@YAPEAVINode_v1@AdobeXMPCore@@AEAPEBVIError_v1@AdobeXMPCommon@@PEAV12@P812@EAA?AV?$shared_ptr@VINode_v1@AdobeXMPCore@@@std@@AEBV56@@ZPEBDK2@Z 000000018005693c f i INode_I.obj
 0001:00055abc       ??$CallConstUnSafeFunction@VINode_v1@AdobeXMPCore@@K_N@AdobeXMPCore_Int@@YAKAEAPEBVIError_v1@AdobeXMPCommon@@PEBVINode_v1@AdobeXMPCore@@KP834@EBA_NXZPEBDK@Z 0000000180056abc f i INode_I.obj
 0001:00055afc       ??$CallConstUnSafeFunction@VINode_v1@AdobeXMPCore@@_K_K@AdobeXMPCore_Int@@YA_KAEAPEBVIError_v1@AdobeXMPCommon@@PEBVINode_v1@AdobeXMPCore@@_KP834@EBA_KXZPEBDK@Z 0000000180056afc f i INode_I.obj
 0001:00055b3c       ??$CallUnSafeFunctionReturningVoid@VINode_v1@AdobeXMPCore@@_N_N@AdobeXMPCore_Int@@YAXAEAPEBVIError_v1@AdobeXMPCommon@@PEAVINode_v1@AdobeXMPCore@@P834@EAAX_N2@ZPEBDK22@Z 0000000180056b3c f i INode_I.obj
 0001:00055b88       ??$CallConstUnSafeFunctionReturningSharedPointer@VINode_v1@AdobeXMPCore@@PEAV12@V12@_N_N@AdobeXMPCore_Int@@YAPEAVINode_v1@AdobeXMPCore@@AEAPEBVIError_v1@AdobeXMPCommon@@PEBV12@P812@EBA?AV?$shared_ptr@VINode_v1@AdobeXMPCore@@@std@@_N2@ZPEBDK22@Z 0000000180056b88 f i INode_I.obj
 0001:00055d10       ??$CallUnSafeFunctionReturningSharedPointer@VINode_v1@AdobeXMPCore@@PEAVISimpleNode_v1@2@V32@@AdobeXMPCore_Int@@YAPEAVISimpleNode_v1@AdobeXMPCore@@AEAPEBVIError_v1@AdobeXMPCommon@@PEAVINode_v1@2@P852@EAA?AV?$shared_ptr@VISimpleNode_v1@AdobeXMPCore@@@std@@XZPEBDK@Z 0000000180056d10 f i INode_I.obj
 0001:00055e88       ??$CallUnSafeFunctionReturningSharedPointer@VINode_v1@AdobeXMPCore@@PEAVIStructureNode_v1@2@V32@@AdobeXMPCore_Int@@YAPEAVIStructureNode_v1@AdobeXMPCore@@AEAPEBVIError_v1@AdobeXMPCommon@@PEAVINode_v1@2@P852@EAA?AV?$shared_ptr@VIStructureNode_v1@AdobeXMPCore@@@std@@XZPEBDK@Z 0000000180056e88 f i INode_I.obj
 0001:00056000       ??$CallUnSafeFunctionReturningSharedPointer@VINode_v1@AdobeXMPCore@@PEAVIArrayNode_v1@2@V32@@AdobeXMPCore_Int@@YAPEAVIArrayNode_v1@AdobeXMPCore@@AEAPEBVIError_v1@AdobeXMPCommon@@PEAVINode_v1@2@P852@EAA?AV?$shared_ptr@VIArrayNode_v1@AdobeXMPCore@@@std@@XZPEBDK@Z 0000000180057000 f i INode_I.obj
 0001:00056178       ??$CallUnSafeFunctionReturningSharedPointer@VINode_v1@AdobeXMPCore@@PEAVIMetadata_v1@2@V32@@AdobeXMPCore_Int@@YAPEAVIMetadata_v1@AdobeXMPCore@@AEAPEBVIError_v1@AdobeXMPCommon@@PEAVINode_v1@2@P852@EAA?AV?$shared_ptr@VIMetadata_v1@AdobeXMPCore@@@std@@XZPEBDK@Z 0000000180057178 f i INode_I.obj
 0001:000562f0       ??_9IUTF8String_v1@AdobeXMPCommon@@$BFI@AA 00000001800572f0 f i IUTF8String_I.obj
 0001:000562f0       ??_9INode_v1@AdobeXMPCore@@$BFI@AA 00000001800572f0 f i INode_I.obj
 0001:000562f8       ??_9IUTF8String_v1@AdobeXMPCommon@@$BGI@AA 00000001800572f8 f i IUTF8String_I.obj
 0001:000562f8       ??_9INode_v1@AdobeXMPCore@@$BGI@AA 00000001800572f8 f i INode_I.obj
 0001:00056300       ??_9INode_v1@AdobeXMPCore@@$BHI@AA 0000000180057300 f i INode_I.obj
 0001:00056300       ??_9IUTF8String_v1@AdobeXMPCommon@@$BHI@AA 0000000180057300 f i IUTF8String_I.obj
 0001:00056308       ??_9IConfigurable@AdobeXMPCommon@@$BII@AA 0000000180057308 f i IConfigurable_I.obj
 0001:00056308       ??_9IUTF8String_v1@AdobeXMPCommon@@$BII@AA 0000000180057308 f i IUTF8String.obj
 0001:00056308       ??_9INode_v1@AdobeXMPCore@@$BII@AA 0000000180057308 f i INode_I.obj
 0001:00056314       ??_9IUTF8String_v1@AdobeXMPCommon@@$BJI@AA 0000000180057314 f i IUTF8String_I.obj
 0001:00056314       ??_9INode_v1@AdobeXMPCore@@$BJI@AA 0000000180057314 f i INode_I.obj
 0001:00056320       ??_9INode_v1@AdobeXMPCore@@$BKI@AA 0000000180057320 f i INode_I.obj
 0001:00056320       ??_9IError_v1@AdobeXMPCommon@@$BKI@AA 0000000180057320 f i IError.obj
 0001:00056320       ??_9IUTF8String_v1@AdobeXMPCommon@@$BKI@AA 0000000180057320 f i IUTF8String_I.obj
 0001:0005632c       ??_9INode_v1@AdobeXMPCore@@$BLI@AA 000000018005732c f i INode_I.obj
 0001:0005632c       ??_9IError_v1@AdobeXMPCommon@@$BLI@AA 000000018005732c f i IError.obj
 0001:0005632c       ??_9IUTF8String_v1@AdobeXMPCommon@@$BLI@AA 000000018005732c f i IUTF8String.obj
 0001:00056338       ??_9IError_v1@AdobeXMPCommon@@$BMI@AA 0000000180057338 f i IError.obj
 0001:00056338       ??_9INode_v1@AdobeXMPCore@@$BMI@AA 0000000180057338 f i INode_I.obj
 0001:00056338       ??_9IUTF8String_v1@AdobeXMPCommon@@$BMI@AA 0000000180057338 f i IUTF8String_I.obj
 0001:00056344       ??_9INode_v1@AdobeXMPCore@@$BNI@AA 0000000180057344 f i INode_I.obj
 0001:00056344       ??_9IUTF8String_v1@AdobeXMPCommon@@$BNI@AA 0000000180057344 f i IUTF8String.obj
 0001:00056350       ??_9INode_v1@AdobeXMPCore@@$BFA@AA 0000000180057350 f i INode_I.obj
 0001:00056350       ??_9IUTF8String_v1@AdobeXMPCommon@@$BFA@AA 0000000180057350 f i IUTF8String_I.obj
 0001:00056358       ??_9INode_v1@AdobeXMPCore@@$BGA@AA 0000000180057358 f i INode_I.obj
 0001:00056358       ??_9IUTF8String_v1@AdobeXMPCommon@@$BGA@AA 0000000180057358 f i IUTF8String.obj
 0001:00056360       ??_9IUTF8String_v1@AdobeXMPCommon@@$BHA@AA 0000000180057360 f i IUTF8String.obj
 0001:00056360       ??_9INode_v1@AdobeXMPCore@@$BHA@AA 0000000180057360 f i INode_I.obj
 0001:00056368       ??_9IUTF8String_v1@AdobeXMPCommon@@$BIA@AA 0000000180057368 f i IUTF8String.obj
 0001:00056368       ??_9INode_v1@AdobeXMPCore@@$BIA@AA 0000000180057368 f i INode_I.obj
 0001:00056374       ??_9INode_v1@AdobeXMPCore@@$BJA@AA 0000000180057374 f i INode_I.obj
 0001:00056374       ??_9IUTF8String_v1@AdobeXMPCommon@@$BJA@AA 0000000180057374 f i IUTF8String_I.obj
 0001:00056380       ??_9INode_v1@AdobeXMPCore@@$BKA@AA 0000000180057380 f i INode_I.obj
 0001:00056380       ??_9IUTF8String_v1@AdobeXMPCommon@@$BKA@AA 0000000180057380 f i IUTF8String.obj
 0001:0005638c       ??_9IUTF8String_v1@AdobeXMPCommon@@$BMA@AA 000000018005738c f i IUTF8String_I.obj
 0001:0005638c       ??_9INode_v1@AdobeXMPCore@@$BMA@AA 000000018005738c f i INode_I.obj
 0001:0005638c       ??_9IError_v1@AdobeXMPCommon@@$BMA@AA 000000018005738c f i IError.obj
 0001:00056398       ??_9INode_v1@AdobeXMPCore@@$BNA@AA 0000000180057398 f i INode_I.obj
 0001:00056398       ??_9IError_v1@AdobeXMPCommon@@$BNA@AA 0000000180057398 f i IError.obj
 0001:00056398       ??_9IUTF8String_v1@AdobeXMPCommon@@$BNA@AA 0000000180057398 f i IUTF8String.obj
 0001:000563a4       ??_9INode_v1@AdobeXMPCore@@$BOA@AA 00000001800573a4 f i INode_I.obj
 0001:000563a4       ??_9IUTF8String_v1@AdobeXMPCommon@@$BOA@AA 00000001800573a4 f i IUTF8String_I.obj
 0001:000563b0       ??_9IError_v1@AdobeXMPCommon@@$BDI@AA 00000001800573b0 f i IError_I.obj
 0001:000563b0       ??_9INode_v1@AdobeXMPCore@@$BDI@AA 00000001800573b0 f i INode_I.obj
 0001:000563b0       ??_9IConfigurable@AdobeXMPCommon@@$BDI@AA 00000001800573b0 f i IConfigurable_I.obj
 0001:000563b0       ??_9IUTF8String_v1@AdobeXMPCommon@@$BDI@AA 00000001800573b0 f i IUTF8String_I.obj
 0001:000563b0       ??_9IPath_v1@AdobeXMPCore@@$BDI@AA 00000001800573b0 f i IPath_I.obj
 0001:000563b8       ?GetInterfacePointer@IPathSegment_I@AdobeXMPCore_Int@@UEAAPEAX_KK@Z 00000001800573b8 f   IPathSegment_I.obj
 0001:00056464       ?getInterfacePointer@IPathSegment_I@AdobeXMPCore_Int@@MEAAPEAX_KKAEAPEBVIError_v1@AdobeXMPCommon@@@Z 0000000180057464 f   IPathSegment_I.obj
 0001:000564b4       ?getNameSpace@IPathSegment_I@AdobeXMPCore_Int@@MEBAPEBVIUTF8String_v1@AdobeXMPCommon@@AEAPEBVIError_v1@4@@Z 00000001800574b4 f   IPathSegment_I.obj
 0001:00056510       ?getName@IPathSegment_I@AdobeXMPCore_Int@@MEBAPEBVIUTF8String_v1@AdobeXMPCommon@@AEAPEBVIError_v1@4@@Z 0000000180057510 f   IPathSegment_I.obj
 0001:0005656c       ?getType@IPathSegment_I@AdobeXMPCore_Int@@MEBAKAEAPEBVIError_v1@AdobeXMPCommon@@@Z 000000018005756c f   IPathSegment_I.obj
 0001:000565c0       ?getValue@IPathSegment_I@AdobeXMPCore_Int@@MEBAPEBVIUTF8String_v1@AdobeXMPCommon@@AEAPEBVIError_v1@4@@Z 00000001800575c0 f   IPathSegment_I.obj
 0001:0005661c       ??$CallUnSafeFunction@VIPathSegment_I@AdobeXMPCore_Int@@PEAXPEAX_KK@AdobeXMPCore_Int@@YAPEAXAEAPEBVIError_v1@AdobeXMPCommon@@PEAVIPathSegment_I@0@PEAXP830@EAAPEAX_KK@ZPEBDK3K@Z 000000018005761c f i IPathSegment_I.obj
 0001:0005666c       ??$CallConstUnSafeFunctionReturningSharedPointer@VIPathSegment_v1@AdobeXMPCore@@PEBVIUTF8String_v1@AdobeXMPCommon@@$$CBV34@@AdobeXMPCore_Int@@YAPEBVIUTF8String_v1@AdobeXMPCommon@@AEAPEBVIError_v1@2@PEBVIPathSegment_v1@AdobeXMPCore@@P845@EBA?AV?$shared_ptr@$$CBVIUTF8String_v1@AdobeXMPCommon@@@std@@XZPEBDK@Z 000000018005766c f i IPathSegment_I.obj
 0001:000567e4       ??$CallConstUnSafeFunction@VIPathSegment_v1@AdobeXMPCore@@KW4ePathSegmentType@12@@AdobeXMPCore_Int@@YAKAEAPEBVIError_v1@AdobeXMPCommon@@PEBVIPathSegment_v1@AdobeXMPCore@@KP834@EBA?AW4ePathSegmentType@34@XZPEBDK@Z 00000001800577e4 f i IPathSegment_I.obj
 0001:00056824       ?MakeShared@IPathSegment_v1@AdobeXMPCore@@SA?AV?$shared_ptr@$$CBVIPathSegment_v1@AdobeXMPCore@@@std@@PEBV12@@Z 0000000180057824 f i IPath_I.obj
 0001:0005689c       ?GetInterfacePointer@IPath_I@AdobeXMPCore_Int@@UEAAPEAX_KK@Z 000000018005789c f   IPath_I.obj
 0001:00056944       ?getInterfacePointer@IPath_I@AdobeXMPCore_Int@@MEAAPEAX_KKAEAPEBVIError_v1@AdobeXMPCommon@@@Z 0000000180057944 f   IPath_I.obj
 0001:00056994       ?registerNameSpacePrefixMap@IPath_I@AdobeXMPCore_Int@@MEAAPEBVINameSpacePrefixMap_v1@AdobeXMPCore@@PEBV34@AEAPEBVIError_v1@AdobeXMPCommon@@@Z 0000000180057994 f   IPath_I.obj
 0001:00056a48       ?serialize@IPath_I@AdobeXMPCore_Int@@MEBAPEAVIUTF8String_v1@AdobeXMPCommon@@PEBVINameSpacePrefixMap_v1@AdobeXMPCore@@AEAPEBVIError_v1@4@@Z 0000000180057a48 f   IPath_I.obj
 0001:00056afc       ?appendPathSegment@IPath_I@AdobeXMPCore_Int@@MEAAXPEBVIPathSegment_v1@AdobeXMPCore@@AEAPEBVIError_v1@AdobeXMPCommon@@@Z 0000000180057afc f   IPath_I.obj
 0001:00056ba8       ?removePathSegment@IPath_I@AdobeXMPCore_Int@@MEAAPEBVIPathSegment_v1@AdobeXMPCore@@_KAEAPEBVIError_v1@AdobeXMPCommon@@@Z 0000000180057ba8 f   IPath_I.obj
 0001:00056c04       ?getPathSegment@IPath_I@AdobeXMPCore_Int@@MEBAPEBVIPathSegment_v1@AdobeXMPCore@@_KAEAPEBVIError_v1@AdobeXMPCommon@@@Z 0000000180057c04 f   IPath_I.obj
 0001:00056c60       ?clone@IPath_I@AdobeXMPCore_Int@@MEBAPEAVIPath_v1@AdobeXMPCore@@_K0AEAPEBVIError_v1@AdobeXMPCommon@@@Z 0000000180057c60 f   IPath_I.obj
 0001:00056cbc       ??$CallUnSafeFunction@VIPath_I@AdobeXMPCore_Int@@PEAXPEAX_KK@AdobeXMPCore_Int@@YAPEAXAEAPEBVIError_v1@AdobeXMPCommon@@PEAVIPath_I@0@PEAXP830@EAAPEAX_KK@ZPEBDK3K@Z 0000000180057cbc f i IPath_I.obj
 0001:00056d04       ??$CallUnSafeFunctionReturningSharedPointer@VIPath_v1@AdobeXMPCore@@PEBVINameSpacePrefixMap_v1@2@$$CBV32@AEBV?$shared_ptr@$$CBVINameSpacePrefixMap_v1@AdobeXMPCore@@@std@@@AdobeXMPCore_Int@@YAPEBVINameSpacePrefixMap_v1@AdobeXMPCore@@AEAPEBVIError_v1@AdobeXMPCommon@@PEAVIPath_v1@2@P852@EAA?AV?$shared_ptr@$$CBVINameSpacePrefixMap_v1@AdobeXMPCore@@@std@@AEBV67@@ZPEBDK2@Z 0000000180057d04 f i IPath_I.obj
 0001:00056e84       ??$CallConstUnSafeFunctionReturningSharedPointer@VIPath_v1@AdobeXMPCore@@PEAVIUTF8String_v1@AdobeXMPCommon@@V34@AEBV?$shared_ptr@$$CBVINameSpacePrefixMap_v1@AdobeXMPCore@@@std@@@AdobeXMPCore_Int@@YAPEAVIUTF8String_v1@AdobeXMPCommon@@AEAPEBVIError_v1@2@PEBVIPath_v1@AdobeXMPCore@@P845@EBA?AV?$shared_ptr@VIUTF8String_v1@AdobeXMPCommon@@@std@@AEBV?$shared_ptr@$$CBVINameSpacePrefixMap_v1@AdobeXMPCore@@@7@@ZPEBDK2@Z 0000000180057e84 f i IPath_I.obj
 0001:00057004       ??$CallUnSafeFunctionReturningVoid@VIPath_v1@AdobeXMPCore@@AEBV?$shared_ptr@$$CBVIPathSegment_v1@AdobeXMPCore@@@std@@@AdobeXMPCore_Int@@YAXAEAPEBVIError_v1@AdobeXMPCommon@@PEAVIPath_v1@AdobeXMPCore@@P834@EAAXAEBV?$shared_ptr@$$CBVIPathSegment_v1@AdobeXMPCore@@@std@@@ZPEBDK2@Z 0000000180058004 f i IPath_I.obj
 0001:00057048       ??$CallUnSafeFunctionReturningSharedPointer@VIPath_v1@AdobeXMPCore@@PEBVIPathSegment_v1@2@$$CBV32@_K@AdobeXMPCore_Int@@YAPEBVIPathSegment_v1@AdobeXMPCore@@AEAPEBVIError_v1@AdobeXMPCommon@@PEAVIPath_v1@2@P852@EAA?AV?$shared_ptr@$$CBVIPathSegment_v1@AdobeXMPCore@@@std@@_K@ZPEBDK2@Z 0000000180058048 f i IPath_I.obj
 0001:000571c8       ??$CallConstUnSafeFunctionReturningSharedPointer@VIPath_v1@AdobeXMPCore@@PEBVIPathSegment_v1@2@$$CBV32@_K@AdobeXMPCore_Int@@YAPEBVIPathSegment_v1@AdobeXMPCore@@AEAPEBVIError_v1@AdobeXMPCommon@@PEBVIPath_v1@2@P852@EBA?AV?$shared_ptr@$$CBVIPathSegment_v1@AdobeXMPCore@@@std@@_K@ZPEBDK2@Z 00000001800581c8 f i IPath_I.obj
 0001:00057348       ??$CallConstUnSafeFunctionReturningSharedPointer@VIPath_v1@AdobeXMPCore@@PEAV12@V12@_K_K@AdobeXMPCore_Int@@YAPEAVIPath_v1@AdobeXMPCore@@AEAPEBVIError_v1@AdobeXMPCommon@@PEBV12@P812@EBA?AV?$shared_ptr@VIPath_v1@AdobeXMPCore@@@std@@_K2@ZPEBDK22@Z 0000000180058348 f i IPath_I.obj
 0001:000574d0       ?GetInterfacePointer@ISimpleNode_I@AdobeXMPCore_Int@@UEAAPEAX_KK@Z 00000001800584d0 f   ISimpleNode_I.obj
 0001:000575a4       ?getInterfacePointer@ISimpleNode_I@AdobeXMPCore_Int@@MEAAPEAX_KKAEAPEBVIError_v1@AdobeXMPCommon@@@Z 00000001800585a4 f   ISimpleNode_I.obj
 0001:000575f4       ?getValue@ISimpleNode_I@AdobeXMPCore_Int@@MEBAPEBVIUTF8String_v1@AdobeXMPCommon@@AEAPEBVIError_v1@4@@Z 00000001800585f4 f   ISimpleNode_I.obj
 0001:00057648       ?setValue@ISimpleNode_I@AdobeXMPCore_Int@@MEAAXPEBD_KAEAPEBVIError_v1@AdobeXMPCommon@@@Z 0000000180058648 f   ISimpleNode_I.obj
 0001:000576a4       ?isURIType@ISimpleNode_I@AdobeXMPCore_Int@@MEBAKAEAPEBVIError_v1@AdobeXMPCommon@@@Z 00000001800586a4 f   ISimpleNode_I.obj
 0001:000576f8       ?setURIType@ISimpleNode_I@AdobeXMPCore_Int@@MEAAXKAEAPEBVIError_v1@AdobeXMPCommon@@@Z 00000001800586f8 f   ISimpleNode_I.obj
 0001:00057760       ??$CallUnSafeFunction@VISimpleNode_I@AdobeXMPCore_Int@@PEAXPEAX_KK@AdobeXMPCore_Int@@YAPEAXAEAPEBVIError_v1@AdobeXMPCommon@@PEAVISimpleNode_I@0@PEAXP830@EAAPEAX_KK@ZPEBDK3K@Z 0000000180058760 f i ISimpleNode_I.obj
 0001:000577a8       ??$CallConstUnSafeFunctionReturningSharedPointer@VISimpleNode_v1@AdobeXMPCore@@PEBVIUTF8String_v1@AdobeXMPCommon@@$$CBV34@@AdobeXMPCore_Int@@YAPEBVIUTF8String_v1@AdobeXMPCommon@@AEAPEBVIError_v1@2@PEBVISimpleNode_v1@AdobeXMPCore@@P845@EBA?AV?$shared_ptr@$$CBVIUTF8String_v1@AdobeXMPCommon@@@std@@XZPEBDK@Z 00000001800587a8 f i ISimpleNode_I.obj
 0001:00057920       ??$CallUnSafeFunctionReturningVoid@VISimpleNode_v1@AdobeXMPCore@@PEBD_K@AdobeXMPCore_Int@@YAXAEAPEBVIError_v1@AdobeXMPCommon@@PEAVISimpleNode_v1@AdobeXMPCore@@P834@EAAXPEBD_K@Z2K23@Z 0000000180058920 f i ISimpleNode_I.obj
 0001:0005796c       ??$CallConstUnSafeFunction@VISimpleNode_v1@AdobeXMPCore@@K_N@AdobeXMPCore_Int@@YAKAEAPEBVIError_v1@AdobeXMPCommon@@PEBVISimpleNode_v1@AdobeXMPCore@@KP834@EBA_NXZPEBDK@Z 000000018005896c f i ISimpleNode_I.obj
 0001:000579ac       ??$CallUnSafeFunctionReturningVoid@VISimpleNode_v1@AdobeXMPCore@@_N@AdobeXMPCore_Int@@YAXAEAPEBVIError_v1@AdobeXMPCommon@@PEAVISimpleNode_v1@AdobeXMPCore@@P834@EAAX_N@ZPEBDK2@Z 00000001800589ac f i ISimpleNode_I.obj
 0001:000579ec       ?GetInterfacePointer@IStructureNode_I@AdobeXMPCore_Int@@UEAAPEAX_KK@Z 00000001800589ec f   IStructureNode_I.obj
 0001:000579f8       ?getInterfacePointer@IStructureNode_I@AdobeXMPCore_Int@@MEAAPEAX_KKAEAPEBVIError_v1@AdobeXMPCommon@@@Z 00000001800589f8 f   IStructureNode_I.obj
 0001:00057a48       ?GetInterfacePointerInternal@IStructureNode_I@AdobeXMPCore_Int@@IEAAPEAX_KK_N@Z 0000000180058a48 f   IStructureNode_I.obj
 0001:00057b3c       ?getNode@IStructureNode_I@AdobeXMPCore_Int@@MEAAPEAVINode_v1@AdobeXMPCore@@PEBD_K01AEAPEBVIError_v1@AdobeXMPCommon@@@Z 0000000180058b3c f   IStructureNode_I.obj
 0001:00057bb8       ?getChildNodeType@IStructureNode_I@AdobeXMPCore_Int@@MEBAKPEBD_K01AEAPEBVIError_v1@AdobeXMPCommon@@@Z 0000000180058bb8 f   IStructureNode_I.obj
 0001:00057c2c       ?insertNode@IStructureNode_I@AdobeXMPCore_Int@@MEAAXPEAVINode_v1@AdobeXMPCore@@AEAPEBVIError_v1@AdobeXMPCommon@@@Z 0000000180058c2c f   IStructureNode_I.obj
 0001:00057cd8       ?removeNode@IStructureNode_I@AdobeXMPCore_Int@@MEAAPEAVINode_v1@AdobeXMPCore@@PEBD_K01AEAPEBVIError_v1@AdobeXMPCommon@@@Z 0000000180058cd8 f   IStructureNode_I.obj
 0001:00057d54       ?replaceNode@IStructureNode_I@AdobeXMPCore_Int@@MEAAPEAVINode_v1@AdobeXMPCore@@PEAV34@AEAPEBVIError_v1@AdobeXMPCommon@@@Z 0000000180058d54 f   IStructureNode_I.obj
 0001:00057e08       ??$CallUnSafeFunction@VIStructureNode_I@AdobeXMPCore_Int@@PEAXPEAX_KK@AdobeXMPCore_Int@@YAPEAXAEAPEBVIError_v1@AdobeXMPCommon@@PEAVIStructureNode_I@0@PEAXP830@EAAPEAX_KK@ZPEBDK3K@Z 0000000180058e08 f i IStructureNode_I.obj
 0001:00057e58       ??$CallUnSafeFunctionReturningSharedPointer@VIStructureNode_v1@AdobeXMPCore@@PEAVINode_v1@2@V32@PEBD_KPEBD_K@AdobeXMPCore_Int@@YAPEAVINode_v1@AdobeXMPCore@@AEAPEBVIError_v1@AdobeXMPCommon@@PEAVIStructureNode_v1@2@P852@EAA?AV?$shared_ptr@VINode_v1@AdobeXMPCore@@@std@@PEBD_K23@Z2K2323@Z 0000000180058e58 f i IStructureNode_I.obj
 0001:00058000       ??$CallConstUnSafeFunction@VIStructureNode_v1@AdobeXMPCore@@KW4eNodeType@INode_v1@2@PEBD_KPEBD_K@AdobeXMPCore_Int@@YAKAEAPEBVIError_v1@AdobeXMPCommon@@PEBVIStructureNode_v1@AdobeXMPCore@@KP834@EBA?AW4eNodeType@INode_v1@4@PEBD_K23@Z2K2323@Z 0000000180059000 f i IStructureNode_I.obj
 0001:00058068       ??$CallUnSafeFunctionReturningVoid@VIStructureNode_v1@AdobeXMPCore@@AEBV?$shared_ptr@VINode_v1@AdobeXMPCore@@@std@@@AdobeXMPCore_Int@@YAXAEAPEBVIError_v1@AdobeXMPCommon@@PEAVIStructureNode_v1@AdobeXMPCore@@P834@EAAXAEBV?$shared_ptr@VINode_v1@AdobeXMPCore@@@std@@@ZPEBDK2@Z 0000000180059068 f i IStructureNode_I.obj
 0001:000580ac       ??$CallUnSafeFunctionReturningSharedPointer@VIStructureNode_v1@AdobeXMPCore@@PEAVINode_v1@2@V32@AEBV?$shared_ptr@VINode_v1@AdobeXMPCore@@@std@@@AdobeXMPCore_Int@@YAPEAVINode_v1@AdobeXMPCore@@AEAPEBVIError_v1@AdobeXMPCommon@@PEAVIStructureNode_v1@2@P852@EAA?AV?$shared_ptr@VINode_v1@AdobeXMPCore@@@std@@AEBV67@@ZPEBDK2@Z 00000001800590ac f i IStructureNode_I.obj
 0001:0005822c       ??1ISharedObject@AdobeXMPCommon@@MEAA@XZ 000000018005922c f i ArrayNodeImpl.obj
 0001:00058238       ??1IVersionable@AdobeXMPCommon@@MEAA@XZ 0000000180059238 f i ArrayNodeImpl.obj
 0001:00058244       ??_EIVersionable@AdobeXMPCommon@@MEAAPEAXI@Z 0000000180059244 f i * CIL library *:* CIL module *
 0001:00058244       ??_GIVersionable@AdobeXMPCommon@@MEAAPEAXI@Z 0000000180059244 f i ArrayNodeImpl.obj
 0001:00058270       ??1INode_v1@AdobeXMPCore@@MEAA@XZ 0000000180059270 f i ArrayNodeImpl.obj
 0001:000582b8       ??_EINode_v1@AdobeXMPCore@@MEAAPEAXI@Z 00000001800592b8 f i * CIL library *:* CIL module *
 0001:000582b8       ??_GINode_v1@AdobeXMPCore@@MEAAPEAXI@Z 00000001800592b8 f i ArrayNodeImpl.obj
 0001:00058328       ??1ICompositeNode_v1@AdobeXMPCore@@MEAA@XZ 0000000180059328 f i ArrayNodeImpl.obj
 0001:00058388       ??_GICompositeNode_v1@AdobeXMPCore@@MEAAPEAXI@Z 0000000180059388 f i ArrayNodeImpl.obj
 0001:00058388       ??_EICompositeNode_v1@AdobeXMPCore@@MEAAPEAXI@Z 0000000180059388 f i * CIL library *:* CIL module *
 0001:0005840c       ??1IArrayNode_v1@AdobeXMPCore@@MEAA@XZ 000000018005940c f i ArrayNodeImpl.obj
 0001:00058480       ??_GIArrayNode_v1@AdobeXMPCore@@MEAAPEAXI@Z 0000000180059480 f i ArrayNodeImpl.obj
 0001:00058480       ??_EIArrayNode_v1@AdobeXMPCore@@MEAAPEAXI@Z 0000000180059480 f i * CIL library *:* CIL module *
 0001:00058518       ?GetISharedObject_I@ISharedObject_I@AdobeXMPCommon_Int@@UEAAPEAV12@XZ 0000000180059518 f i ArrayNodeImpl.obj
 0001:00058518       ?GetIThreadSafe_I@IThreadSafe_I@AdobeXMPCommon_Int@@UEAAPEAV12@XZ 0000000180059518 f i ArrayNodeImpl.obj
 0001:00058520       ?isThreadSafe@IThreadSafe_I@AdobeXMPCommon_Int@@UEBAKXZ 0000000180059520 f i ArrayNodeImpl.obj
 0001:00058548       ?GetActualINameSpacePrefixMap@INameSpacePrefixMap_I@AdobeXMPCore_Int@@UEAAPEAVINameSpacePrefixMap_v1@AdobeXMPCore@@XZ 0000000180059548 f i NameSpacePrefixMapImpl.obj
 0001:00058548       ?GetActualINode@INode_I@AdobeXMPCore_Int@@UEAAPEAVINode_v1@AdobeXMPCore@@XZ 0000000180059548 f i ArrayNodeImpl.obj
 0001:0005856c       ?GetIDOMImplementationRegistry_I@IDOMImplementationRegistry_I@AdobeXMPCore_Int@@UEAAPEAV12@XZ 000000018005956c f i DOMImplementationRegistryImpl.obj
 0001:0005856c       ?GetINode_I@INode_I@AdobeXMPCore_Int@@UEAAPEAV12@XZ 000000018005956c f i ArrayNodeImpl.obj
 0001:0005856c       ?GetINameSpacePrefixMap_I@INameSpacePrefixMap_I@AdobeXMPCore_Int@@UEAAPEAV12@XZ 000000018005956c f i NameSpacePrefixMapImpl.obj
 0001:00058574       ??1INode_I@AdobeXMPCore_Int@@MEAA@XZ 0000000180059574 f i ArrayNodeImpl.obj
 0001:0005861c       ??_GINode_I@AdobeXMPCore_Int@@MEAAPEAXI@Z 000000018005961c f i ArrayNodeImpl.obj
 0001:0005861c       ??_EINode_I@AdobeXMPCore_Int@@MEAAPEAXI@Z 000000018005961c f i * CIL library *:* CIL module *
 0001:00058654       ?GetActualISimpleNode@ISimpleNode_I@AdobeXMPCore_Int@@UEAAPEAVISimpleNode_v1@AdobeXMPCore@@XZ 0000000180059654 f i SimpleNodeImpl.obj
 0001:00058654       ?GetActualICompositeNode@ICompositeNode_I@AdobeXMPCore_Int@@UEAAPEAVICompositeNode_v1@AdobeXMPCore@@XZ 0000000180059654 f i ArrayNodeImpl.obj
 0001:00058670       ?GetIDOMSerializer_I@IDOMSerializer_I@AdobeXMPCore_Int@@UEAAPEAV12@XZ 0000000180059670 f i ClientDOMSerializerWrapperImpl.obj
 0001:00058670       ?GetISimpleNode_I@ISimpleNode_I@AdobeXMPCore_Int@@UEAAPEAV12@XZ 0000000180059670 f i SimpleNodeImpl.obj
 0001:00058670       ?GetIDOMParser_I@IDOMParser_I@AdobeXMPCore_Int@@UEAAPEAV12@XZ 0000000180059670 f i ClientDOMParserWrapperImpl.obj
 0001:00058670       ?GetICoreConfigurationManager_I@ICoreConfigurationManager_I@AdobeXMPCore_Int@@UEAAPEAV12@XZ 0000000180059670 f i CoreConfigurationManagerImpl.obj
 0001:00058670       ?GetICompositeNode_I@ICompositeNode_I@AdobeXMPCore_Int@@UEAAPEAV12@XZ 0000000180059670 f i ArrayNodeImpl.obj
 0001:00058678       ??1ICompositeNode_I@AdobeXMPCore_Int@@MEAA@XZ 0000000180059678 f i ArrayNodeImpl.obj
 0001:0005874c       ??_EICompositeNode_I@AdobeXMPCore_Int@@MEAAPEAXI@Z 000000018005974c f i * CIL library *:* CIL module *
 0001:0005874c       ??_GICompositeNode_I@AdobeXMPCore_Int@@MEAAPEAXI@Z 000000018005974c f i ArrayNodeImpl.obj
 0001:00058784       ?GetActualIArrayNode@IArrayNode_I@AdobeXMPCore_Int@@UEAAPEAVIArrayNode_v1@AdobeXMPCore@@XZ 0000000180059784 f i ArrayNodeImpl.obj
 0001:000587a0       ?GetISharedObject_I@IArrayNode_I@AdobeXMPCore_Int@@UEAAPEAVISharedObject_I@AdobeXMPCommon_Int@@XZ 00000001800597a0 f i ArrayNodeImpl.obj
 0001:000587bc       ?GetIStructureNode_I@IStructureNode_I@AdobeXMPCore_Int@@UEAAPEAV12@XZ 00000001800597bc f i MetadataImpl.obj
 0001:000587bc       ?GetIArrayNode_I@IArrayNode_I@AdobeXMPCore_Int@@UEAAPEAV12@XZ 00000001800597bc f i ArrayNodeImpl.obj
 0001:000587c4       ??1IArrayNode_I@AdobeXMPCore_Int@@MEAA@XZ 00000001800597c4 f i ArrayNodeImpl.obj
 0001:000588cc       ??_GIArrayNode_I@AdobeXMPCore_Int@@MEAAPEAXI@Z 00000001800598cc f i ArrayNodeImpl.obj
 0001:000588cc       ??_EIArrayNode_I@AdobeXMPCore_Int@@MEAAPEAXI@Z 00000001800598cc f i * CIL library *:* CIL module *
 0001:00058904       ??_GSharedObjectImpl@AdobeXMPCore_Int@@MEAAPEAXI@Z 0000000180059904 f i ArrayNodeImpl.obj
 0001:00058904       ??_ESharedObjectImpl@AdobeXMPCore_Int@@MEAAPEAXI@Z 0000000180059904 f i * CIL library *:* CIL module *
 0001:00058974       ??_GISharedObject_I@AdobeXMPCommon_Int@@UEAAPEAXI@Z 0000000180059974 f i ArrayNodeImpl.obj
 0001:00058974       ??_EISharedObject_I@AdobeXMPCommon_Int@@UEAAPEAXI@Z 0000000180059974 f i * CIL library *:* CIL module *
 0001:0005899c       ??1ThreadSafeImpl@AdobeXMPCore_Int@@MEAA@XZ 000000018005999c f i ArrayNodeImpl.obj
 0001:00058a34       ??_GThreadSafeImpl@AdobeXMPCore_Int@@MEAAPEAXI@Z 0000000180059a34 f i ArrayNodeImpl.obj
 0001:00058a34       ??_EThreadSafeImpl@AdobeXMPCore_Int@@MEAAPEAXI@Z 0000000180059a34 f i * CIL library *:* CIL module *
 0001:00058a68       ??1NodeImpl@AdobeXMPCore_Int@@MEAA@XZ 0000000180059a68 f i ArrayNodeImpl.obj
 0001:00058c58       ??_ENodeImpl@AdobeXMPCore_Int@@MEAAPEAXI@Z 0000000180059c58 f i * CIL library *:* CIL module *
 0001:00058c58       ??_GNodeImpl@AdobeXMPCore_Int@@MEAAPEAXI@Z 0000000180059c58 f i ArrayNodeImpl.obj
 0001:00058cb8       ??0CompositeNodeImpl@AdobeXMPCore_Int@@QEAA@XZ 0000000180059cb8 f i ArrayNodeImpl.obj
 0001:00058e00       ??1CompositeNodeImpl@AdobeXMPCore_Int@@MEAA@XZ 0000000180059e00 f i ArrayNodeImpl.obj
 0001:00058f48       ??_ECompositeNodeImpl@AdobeXMPCore_Int@@MEAAPEAXI@Z 0000000180059f48 f i * CIL library *:* CIL module *
 0001:00058f48       ??_GCompositeNodeImpl@AdobeXMPCore_Int@@MEAAPEAXI@Z 0000000180059f48 f i ArrayNodeImpl.obj
 0001:00058fa8       ??1ArrayNodeImpl@AdobeXMPCore_Int@@MEAA@XZ 0000000180059fa8 f i ArrayNodeImpl.obj
 0001:00059150       ??_GArrayNodeImpl@AdobeXMPCore_Int@@MEAAPEAXI@Z 000000018005a150 f i ArrayNodeImpl.obj
 0001:00059150       ??_EArrayNodeImpl@AdobeXMPCore_Int@@MEAAPEAXI@Z 000000018005a150 f i * CIL library *:* CIL module *
 0001:000591b0       ??_DArrayNodeImpl@AdobeXMPCore_Int@@IEAAXXZ 000000018005a1b0 f i ArrayNodeImpl.obj
 0001:000593d8       ??_EINodeIterator_v1@AdobeXMPCore@@MEAAPEAXI@Z 000000018005a3d8 f i * CIL library *:* CIL module *
 0001:000593d8       ??_GINodeIterator_v1@AdobeXMPCore@@MEAAPEAXI@Z 000000018005a3d8 f i ArrayNodeImpl.obj
 0001:00059430       ?GetActualIPath@IPath_I@AdobeXMPCore_Int@@UEAAPEAVIPath_v1@AdobeXMPCore@@XZ 000000018005a430 f i PathImpl.obj
 0001:00059430       ?GetActualIConfigurationManager@IConfigurationManager_I@AdobeXMPCore_Int@@UEAAPEAVIConfigurationManager_v1@AdobeXMPCommon@@XZ 000000018005a430 f i CoreConfigurationManagerImpl.obj
 0001:00059430       ?GetActualIUTF8String@IUTF8String_I@AdobeXMPCore_Int@@UEAAPEAVIUTF8String_v1@AdobeXMPCommon@@XZ 000000018005a430 f i UTF8StringImpl.obj
 0001:00059430       ?GetActualINodeIterator@INodeIterator_I@AdobeXMPCore_Int@@UEAAPEAVINodeIterator_v1@AdobeXMPCore@@XZ 000000018005a430 f i ArrayNodeImpl.obj
 0001:0005944c       ?GetINodeIterator_I@INodeIterator_I@AdobeXMPCore_Int@@UEAAPEAV12@XZ 000000018005a44c f i ArrayNodeImpl.obj
 0001:0005944c       ?GetIPath_I@IPath_I@AdobeXMPCore_Int@@UEAAPEAV12@XZ 000000018005a44c f i PathImpl.obj
 0001:00059454       ??_EINodeIterator_I@AdobeXMPCore_Int@@MEAAPEAXI@Z 000000018005a454 f i * CIL library *:* CIL module *
 0001:00059454       ??_GINodeIterator_I@AdobeXMPCore_Int@@MEAAPEAXI@Z 000000018005a454 f i ArrayNodeImpl.obj
 0001:000594e8       ??0ArrayNodeImpl@AdobeXMPCore_Int@@QEAA@PEBD_K01W4eArrayForm@IArrayNode_v1@AdobeXMPCore@@@Z 000000018005a4e8 f   ArrayNodeImpl.obj
 0001:00059c44       ??0ICompositeNode_I@AdobeXMPCore_Int@@QEAA@XZ 000000018005ac44 f i ArrayNodeImpl.obj
 0001:00059d04       ?GetArrayForm@ArrayNodeImpl@AdobeXMPCore_Int@@UEBA?AW4eArrayForm@IArrayNode_v1@AdobeXMPCore@@XZ 000000018005ad04 f   ArrayNodeImpl.obj
 0001:00059d0c       ?GetChildNodeType@ArrayNodeImpl@AdobeXMPCore_Int@@UEBA?AW4eNodeType@INode_v1@AdobeXMPCore@@XZ 000000018005ad0c f   ArrayNodeImpl.obj
 0001:00059d74       ?GetNodeAtIndex@ArrayNodeImpl@AdobeXMPCore_Int@@UEAA?AV?$shared_ptr@VINode_v1@AdobeXMPCore@@@std@@_K@Z 000000018005ad74 f   ArrayNodeImpl.obj
 0001:00059e38       ?InsertNodeAtIndex@ArrayNodeImpl@AdobeXMPCore_Int@@UEAAXAEBV?$shared_ptr@VINode_v1@AdobeXMPCore@@@std@@_K@Z 000000018005ae38 f   ArrayNodeImpl.obj
 0001:0005a150       ?RemoveNodeAtIndex@ArrayNodeImpl@AdobeXMPCore_Int@@UEAA?AV?$shared_ptr@VINode_v1@AdobeXMPCore@@@std@@_K@Z 000000018005b150 f   ArrayNodeImpl.obj
 0001:0005a2b8       ?ReplaceNodeAtIndex@ArrayNodeImpl@AdobeXMPCore_Int@@UEAA?AV?$shared_ptr@VINode_v1@AdobeXMPCore@@@std@@AEBV34@_K@Z 000000018005b2b8 f   ArrayNodeImpl.obj
 0001:0005a574       ?AppendNode@ArrayNodeImpl@AdobeXMPCore_Int@@UEAAXAEBV?$shared_ptr@VINode_v1@AdobeXMPCore@@@std@@@Z 000000018005b574 f   ArrayNodeImpl.obj
 0001:0005a5d4       ?Iterator@ArrayNodeImpl@AdobeXMPCore_Int@@UEAA?AV?$shared_ptr@VINodeIterator_v1@AdobeXMPCore@@@std@@XZ 000000018005b5d4 f   ArrayNodeImpl.obj
 0001:0005a708       ?ChildCount@ArrayNodeImpl@AdobeXMPCore_Int@@UEBA_KXZ 000000018005b708 f   ArrayNodeImpl.obj
 0001:0005a758       ?ConvertToArrayNode@ArrayNodeImpl@AdobeXMPCore_Int@@UEAA?AV?$shared_ptr@VIArrayNode_v1@AdobeXMPCore@@@std@@XZ 000000018005b758 f   ArrayNodeImpl.obj
 0001:0005a7f4       ?GetNodeType@ArrayNodeImpl@AdobeXMPCore_Int@@UEBA?AW4eNodeType@INode_v1@AdobeXMPCore@@XZ 000000018005b7f4 f   ArrayNodeImpl.obj
 0001:0005a7fc       ?HasContent@ArrayNodeImpl@AdobeXMPCore_Int@@UEBA_NXZ 000000018005b7fc f   ArrayNodeImpl.obj
 0001:0005a84c       ?ClearContents@ArrayNodeImpl@AdobeXMPCore_Int@@UEAAXXZ 000000018005b84c f   ArrayNodeImpl.obj
 0001:0005a938       ?CloneContents@ArrayNodeImpl@AdobeXMPCore_Int@@UEBA?AV?$shared_ptr@VINode_v1@AdobeXMPCore@@@std@@_N0_K@Z 000000018005b938 f   ArrayNodeImpl.obj
 0001:0005ac18       ?resetChangesForChildren@ArrayNodeImpl@AdobeXMPCore_Int@@MEBAXXZ 000000018005bc18 f   ArrayNodeImpl.obj
 0001:0005ac8c       ?CheckSuitabilityToBeUsedAsChildNode@ArrayNodeImpl@AdobeXMPCore_Int@@UEBA_NAEBV?$shared_ptr@$$CBVINode_v1@AdobeXMPCore@@@std@@@Z 000000018005bc8c f   ArrayNodeImpl.obj
 0001:0005ae1c       ?CreateArrayNode@IArrayNode_I@AdobeXMPCore_Int@@SA?AV?$shared_ptr@VIArrayNode_v1@AdobeXMPCore@@@std@@AEBV?$shared_ptr@$$CBVIUTF8String_v1@AdobeXMPCommon@@@4@0W4eArrayForm@IArrayNode_v1@AdobeXMPCore@@@Z 000000018005be1c f   ArrayNodeImpl.obj
 0001:0005af78       ?GetNodeFromIterator@?$TNodeIteratorImpl@V?$_Vector_iterator@V?$_Vector_val@U?$_Simple_types@V?$shared_ptr@VINode_v1@AdobeXMPCore@@@std@@@std@@@std@@@std@@@AdobeXMPCore_Int@@QEBA?AV?$shared_ptr@VINode_v1@AdobeXMPCore@@@std@@AEBV?$_Vector_iterator@V?$_Vector_val@U?$_Simple_types@V?$shared_ptr@VINode_v1@AdobeXMPCore@@@std@@@std@@@std@@@4@@Z 000000018005bf78 f   ArrayNodeImpl.obj
 0001:0005afb0       ?CreateUnorderedArrayNode@IArrayNode_v1@AdobeXMPCore@@SA?AV?$shared_ptr@VIArrayNode_v1@AdobeXMPCore@@@std@@PEBD_K01@Z 000000018005bfb0 f   ArrayNodeImpl.obj
 0001:0005b0b0       ?CreateOrderedArrayNode@IArrayNode_v1@AdobeXMPCore@@SA?AV?$shared_ptr@VIArrayNode_v1@AdobeXMPCore@@@std@@PEBD_K01@Z 000000018005c0b0 f   ArrayNodeImpl.obj
 0001:0005b1b0       ?CreateAlternativeArrayNode@IArrayNode_v1@AdobeXMPCore@@SA?AV?$shared_ptr@VIArrayNode_v1@AdobeXMPCore@@@std@@PEBD_K01@Z 000000018005c1b0 f   ArrayNodeImpl.obj
 0001:0005b2b0       ?Next@?$TNodeIteratorImpl@V?$_Vector_iterator@V?$_Vector_val@U?$_Simple_types@V?$shared_ptr@VINode_v1@AdobeXMPCore@@@std@@@std@@@std@@@std@@@AdobeXMPCore_Int@@UEAA?AV?$shared_ptr@VINodeIterator_v1@AdobeXMPCore@@@std@@XZ 000000018005c2b0 f i ArrayNodeImpl.obj
 0001:0005b370       ?GetNodeType@?$TNodeIteratorImpl@V?$_Vector_iterator@V?$_Vector_val@U?$_Simple_types@V?$shared_ptr@VINode_v1@AdobeXMPCore@@@std@@@std@@@std@@@std@@@AdobeXMPCore_Int@@UEBA?AW4eNodeType@INode_v1@AdobeXMPCore@@XZ 000000018005c370 f i ArrayNodeImpl.obj
 0001:0005b3ec       ?GetNode@?$TNodeIteratorImpl@V?$_Vector_iterator@V?$_Vector_val@U?$_Simple_types@V?$shared_ptr@VINode_v1@AdobeXMPCore@@@std@@@std@@@std@@@std@@@AdobeXMPCore_Int@@UEAA?AV?$shared_ptr@VINode_v1@AdobeXMPCore@@@std@@XZ 000000018005c3ec f i ArrayNodeImpl.obj
 0001:0005b424       ??0?$TNodeIteratorImpl@V?$_Vector_iterator@V?$_Vector_val@U?$_Simple_types@V?$shared_ptr@VINode_v1@AdobeXMPCore@@@std@@@std@@@std@@@std@@@AdobeXMPCore_Int@@QEAA@AEBV?$_Vector_iterator@V?$_Vector_val@U?$_Simple_types@V?$shared_ptr@VINode_v1@AdobeXMPCore@@@std@@@std@@@std@@@std@@0@Z 000000018005c424 f i ArrayNodeImpl.obj
 0001:0005b624       ??1?$vector@V?$shared_ptr@VINode_v1@AdobeXMPCore@@@std@@V?$TAllocator@V?$shared_ptr@VINode_v1@AdobeXMPCore@@@std@@@AdobeXMPCore_Int@@@std@@QEAA@XZ 000000018005c624 f i ArrayNodeImpl.obj
 0001:0005b624       ??1?$vector@V?$shared_ptr@$$CBVIPathSegment_v1@AdobeXMPCore@@@std@@V?$TAllocator@V?$shared_ptr@$$CBVIPathSegment_v1@AdobeXMPCore@@@std@@@AdobeXMPCore_Int@@@std@@QEAA@XZ 000000018005c624 f i PathImpl.obj
 0001:0005b624       ??1?$vector@V?$shared_ptr@$$CBVIUTF8String_v1@AdobeXMPCommon@@@std@@V?$TAllocator@V?$shared_ptr@$$CBVIUTF8String_v1@AdobeXMPCommon@@@std@@@AdobeXMPCore_Int@@@std@@QEAA@XZ 000000018005c624 f i ErrorImpl.obj
 0001:0005b6d4       ?insert@?$vector@V?$shared_ptr@VINode_v1@AdobeXMPCore@@@std@@V?$TAllocator@V?$shared_ptr@VINode_v1@AdobeXMPCore@@@std@@@AdobeXMPCore_Int@@@std@@QEAA?AV?$_Vector_iterator@V?$_Vector_val@U?$_Simple_types@V?$shared_ptr@VINode_v1@AdobeXMPCore@@@std@@@std@@@std@@@2@V?$_Vector_const_iterator@V?$_Vector_val@U?$_Simple_types@V?$shared_ptr@VINode_v1@AdobeXMPCore@@@std@@@std@@@std@@@2@$$QEAV?$shared_ptr@VINode_v1@AdobeXMPCore@@@2@@Z 000000018005c6d4 f i ArrayNodeImpl.obj
 0001:0005b86c       ??_E?$TNodeIteratorImpl@V?$_Vector_iterator@V?$_Vector_val@U?$_Simple_types@V?$shared_ptr@VINode_v1@AdobeXMPCore@@@std@@@std@@@std@@@std@@@AdobeXMPCore_Int@@MEAAPEAXI@Z 000000018005c86c f i * CIL library *:* CIL module *
 0001:0005b86c       ??_G?$TNodeIteratorImpl@V?$_Vector_iterator@V?$_Vector_val@U?$_Simple_types@V?$shared_ptr@VINode_v1@AdobeXMPCore@@@std@@@std@@@std@@@std@@@AdobeXMPCore_Int@@MEAAPEAXI@Z 000000018005c86c f i ArrayNodeImpl.obj
 0001:0005ba38       ??$MakeUncheckedSharedPointer@VINode_v1@AdobeXMPCore@@@AdobeXMPCore_Int@@YA?AV?$shared_ptr@VINode_v1@AdobeXMPCore@@@std@@PEAVINode_v1@AdobeXMPCore@@PEBD_K_N@Z 000000018005ca38 f i ArrayNodeImpl.obj
 0001:0005bb40       ??$?0VIError_I@AdobeXMPCore_Int@@X@?$shared_ptr@$$CBVIError_v1@AdobeXMPCommon@@@std@@QEAA@AEBV?$shared_ptr@VIError_I@AdobeXMPCore_Int@@@1@@Z 000000018005cb40 f i ArrayNodeImpl.obj
 0001:0005bbdc       ??$MakeUncheckedSharedPointer@V?$TNodeIteratorImpl@V?$_Vector_iterator@V?$_Vector_val@U?$_Simple_types@V?$shared_ptr@VINode_v1@AdobeXMPCore@@@std@@@std@@@std@@@std@@@AdobeXMPCore_Int@@@AdobeXMPCore_Int@@YA?AV?$shared_ptr@V?$TNodeIteratorImpl@V?$_Vector_iterator@V?$_Vector_val@U?$_Simple_types@V?$shared_ptr@VINode_v1@AdobeXMPCore@@@std@@@std@@@std@@@std@@@AdobeXMPCore_Int@@@std@@PEAV?$TNodeIteratorImpl@V?$_Vector_iterator@V?$_Vector_val@U?$_Simple_types@V?$shared_ptr@VINode_v1@AdobeXMPCore@@@std@@@std@@@std@@@std@@@0@PEBD_K_N@Z 000000018005cbdc f i ArrayNodeImpl.obj
 0001:0005bcf8       ??$MakeUncheckedSharedPointer@VArrayNodeImpl@AdobeXMPCore_Int@@@AdobeXMPCore_Int@@YA?AV?$shared_ptr@VArrayNodeImpl@AdobeXMPCore_Int@@@std@@PEAVArrayNodeImpl@0@PEBD_K_N@Z 000000018005ccf8 f i ArrayNodeImpl.obj
 0001:0005be10       ?_Reallocate@?$vector@V?$shared_ptr@VINode_v1@AdobeXMPCore@@@std@@V?$TAllocator@V?$shared_ptr@VINode_v1@AdobeXMPCore@@@std@@@AdobeXMPCore_Int@@@std@@IEAAX_K@Z 000000018005ce10 f i ArrayNodeImpl.obj
 0001:0005bf0c       ??$_Resetp@VINode_v1@AdobeXMPCore@@V?$_Mem_fn@P8ISharedObject@AdobeXMPCommon@@EBAXXZ@std@@V?$TAllocator@VINode_v1@AdobeXMPCore@@@AdobeXMPCore_Int@@@?$shared_ptr@VINode_v1@AdobeXMPCore@@@std@@AEAAXPEAVINode_v1@AdobeXMPCore@@V?$_Mem_fn@P8ISharedObject@AdobeXMPCommon@@EBAXXZ@1@V?$TAllocator@VINode_v1@AdobeXMPCore@@@AdobeXMPCore_Int@@@Z 000000018005cf0c f i ArrayNodeImpl.obj
 0001:0005bfd0       ??$_Resetp@V?$TNodeIteratorImpl@V?$_Vector_iterator@V?$_Vector_val@U?$_Simple_types@V?$shared_ptr@VINode_v1@AdobeXMPCore@@@std@@@std@@@std@@@std@@@AdobeXMPCore_Int@@V?$_Mem_fn@P8SharedObjectImpl@AdobeXMPCore_Int@@EBAXXZ@std@@V?$TAllocator@V?$TNodeIteratorImpl@V?$_Vector_iterator@V?$_Vector_val@U?$_Simple_types@V?$shared_ptr@VINode_v1@AdobeXMPCore@@@std@@@std@@@std@@@std@@@AdobeXMPCore_Int@@@2@@?$shared_ptr@V?$TNodeIteratorImpl@V?$_Vector_iterator@V?$_Vector_val@U?$_Simple_types@V?$shared_ptr@VINode_v1@AdobeXMPCore@@@std@@@std@@@std@@@std@@@AdobeXMPCore_Int@@@std@@AEAAXPEAV?$TNodeIteratorImpl@V?$_Vector_iterator@V?$_Vector_val@U?$_Simple_types@V?$shared_ptr@VINode_v1@AdobeXMPCore@@@std@@@std@@@std@@@std@@@AdobeXMPCore_Int@@V?$_Mem_fn@P8SharedObjectImpl@AdobeXMPCore_Int@@EBAXXZ@1@V?$TAllocator@V?$TNodeIteratorImpl@V?$_Vector_iterator@V?$_Vector_val@U?$_Simple_types@V?$shared_ptr@VINode_v1@AdobeXMPCore@@@std@@@std@@@std@@@std@@@AdobeXMPCore_Int@@@3@@Z 000000018005cfd0 f i ArrayNodeImpl.obj
 0001:0005c094       ??$_Resetp@VArrayNodeImpl@AdobeXMPCore_Int@@V?$_Mem_fn@P8NodeImpl@AdobeXMPCore_Int@@EBAXXZ@std@@V?$TAllocator@VArrayNodeImpl@AdobeXMPCore_Int@@@2@@?$shared_ptr@VArrayNodeImpl@AdobeXMPCore_Int@@@std@@AEAAXPEAVArrayNodeImpl@AdobeXMPCore_Int@@V?$_Mem_fn@P8NodeImpl@AdobeXMPCore_Int@@EBAXXZ@1@V?$TAllocator@VArrayNodeImpl@AdobeXMPCore_Int@@@3@@Z 000000018005d094 f i ArrayNodeImpl.obj
 0001:0005c158       ?_Delete_this@?$_Ref_count_del_alloc@VINode_v1@AdobeXMPCore@@V?$_Mem_fn@P8ISharedObject@AdobeXMPCommon@@EBAXXZ@std@@V?$TAllocator@VINode_v1@AdobeXMPCore@@@AdobeXMPCore_Int@@@std@@EEAAXXZ 000000018005d158 f i ArrayNodeImpl.obj
 0001:0005c158       ?_Delete_this@?$_Ref_count_del_alloc@VSimpleNodeImpl@AdobeXMPCore_Int@@V?$_Mem_fn@P8NodeImpl@AdobeXMPCore_Int@@EBAXXZ@std@@V?$TAllocator@VSimpleNodeImpl@AdobeXMPCore_Int@@@2@@std@@EEAAXXZ 000000018005d158 f i SimpleNodeImpl.obj
 0001:0005c158       ?_Delete_this@?$_Ref_count_del_alloc@VDOMImplementationRegistryImpl@AdobeXMPCore_Int@@V?$_Mem_fn@P8SharedObjectImpl@AdobeXMPCore_Int@@EBAXXZ@std@@V?$TAllocator@VDOMImplementationRegistryImpl@AdobeXMPCore_Int@@@2@@std@@EEAAXXZ 000000018005d158 f i DOMImplementationRegistryImpl.obj
 0001:0005c158       ?_Delete_this@?$_Ref_count_del_alloc@VClientDOMParserWrapperImpl@AdobeXMPCore_Int@@V?$_Mem_fn@P8SharedObjectImpl@AdobeXMPCore_Int@@EBAXXZ@std@@V?$TAllocator@VClientDOMParserWrapperImpl@AdobeXMPCore_Int@@@2@@std@@EEAAXXZ 000000018005d158 f i DOMParserImpl.obj
 0001:0005c158       ?_Delete_this@?$_Ref_count_del_alloc@VDOMParserImpl@AdobeXMPCore_Int@@V?$_Mem_fn@P8SharedObjectImpl@AdobeXMPCore_Int@@EBAXXZ@std@@V?$TAllocator@VDOMParserImpl@AdobeXMPCore_Int@@@2@@std@@EEAAXXZ 000000018005d158 f i DOMParserImpl.obj
 0001:0005c158       ?_Delete_this@?$_Ref_count_del_alloc@VINameSpacePrefixMap_I@AdobeXMPCore_Int@@V?$_Mem_fn@P8ISharedObject@AdobeXMPCommon@@EBAXXZ@std@@V?$TAllocator@VINameSpacePrefixMap_I@AdobeXMPCore_Int@@@2@@std@@EEAAXXZ 000000018005d158 f i RDFDOMSerializerImpl.obj
 0001:0005c158       ?_Delete_this@?$_Ref_count_del_alloc@VRDFDOMSerializerImpl@AdobeXMPCore_Int@@V?$_Mem_fn@P8SharedObjectImpl@AdobeXMPCore_Int@@EBAXXZ@std@@V?$TAllocator@VRDFDOMSerializerImpl@AdobeXMPCore_Int@@@2@@std@@EEAAXXZ 000000018005d158 f i DOMImplementationRegistryImpl.obj
 0001:0005c158       ?_Delete_this@?$_Ref_count_del_alloc@VNameSpacePrefixMapImpl@AdobeXMPCore_Int@@V?$_Mem_fn@P8SharedObjectImpl@AdobeXMPCore_Int@@EBAXXZ@std@@V?$TAllocator@VNameSpacePrefixMapImpl@AdobeXMPCore_Int@@@2@@std@@EEAAXXZ 000000018005d158 f i NameSpacePrefixMapImpl.obj
 0001:0005c158       ?_Delete_this@?$_Ref_count_del_alloc@VCompositeNodeImpl@AdobeXMPCore_Int@@V?$_Mem_fn@P8NodeImpl@AdobeXMPCore_Int@@EBAXXZ@std@@V?$TAllocator@VCompositeNodeImpl@AdobeXMPCore_Int@@@2@@std@@EEAAXXZ 000000018005d158 f i CompositeNodeImpl.obj
 0001:0005c158       ?_Delete_this@?$_Ref_count_del_alloc@VCoreConfigurationManagerImpl@AdobeXMPCore_Int@@V?$_Mem_fn@P8SharedObjectImpl@AdobeXMPCore_Int@@EBAXXZ@std@@V?$TAllocator@VCoreConfigurationManagerImpl@AdobeXMPCore_Int@@@2@@std@@EEAAXXZ 000000018005d158 f i CoreConfigurationManagerImpl.obj
 0001:0005c158       ?_Delete_this@?$_Ref_count_del_alloc@VUTF8StringImpl@AdobeXMPCore_Int@@V?$_Mem_fn@P8SharedObjectImpl@AdobeXMPCore_Int@@EBAXXZ@std@@V?$TAllocator@VUTF8StringImpl@AdobeXMPCore_Int@@@2@@std@@EEAAXXZ 000000018005d158 f i UTF8StringImpl.obj
 0001:0005c158       ?_Delete_this@?$_Ref_count_del_alloc@VClientDOMSerializerWrapperImpl@AdobeXMPCore_Int@@V?$_Mem_fn@P8SharedObjectImpl@AdobeXMPCore_Int@@EBAXXZ@std@@V?$TAllocator@VClientDOMSerializerWrapperImpl@AdobeXMPCore_Int@@@2@@std@@EEAAXXZ 000000018005d158 f i DOMSerializerImpl.obj
 0001:0005c158       ?_Delete_this@?$_Ref_count_del_alloc@VArrayNodeImpl@AdobeXMPCore_Int@@V?$_Mem_fn@P8NodeImpl@AdobeXMPCore_Int@@EBAXXZ@std@@V?$TAllocator@VArrayNodeImpl@AdobeXMPCore_Int@@@2@@std@@EEAAXXZ 000000018005d158 f i ArrayNodeImpl.obj
 0001:0005c158       ?_Delete_this@?$_Ref_count_del_alloc@VRDFDOMParserImpl@AdobeXMPCore_Int@@V?$_Mem_fn@P8SharedObjectImpl@AdobeXMPCore_Int@@EBAXXZ@std@@V?$TAllocator@VRDFDOMParserImpl@AdobeXMPCore_Int@@@2@@std@@EEAAXXZ 000000018005d158 f i DOMImplementationRegistryImpl.obj
 0001:0005c158       ?_Delete_this@?$_Ref_count_del_alloc@V?$TNodeIteratorImpl@V?$_Vector_iterator@V?$_Vector_val@U?$_Simple_types@V?$shared_ptr@VINode_v1@AdobeXMPCore@@@std@@@std@@@std@@@std@@@AdobeXMPCore_Int@@V?$_Mem_fn@P8SharedObjectImpl@AdobeXMPCore_Int@@EBAXXZ@std@@V?$TAllocator@V?$TNodeIteratorImpl@V?$_Vector_iterator@V?$_Vector_val@U?$_Simple_types@V?$shared_ptr@VINode_v1@AdobeXMPCore@@@std@@@std@@@std@@@std@@@AdobeXMPCore_Int@@@2@@std@@EEAAXXZ 000000018005d158 f i ArrayNodeImpl.obj
 0001:0005c158       ?_Delete_this@?$_Ref_count_del_alloc@VPathImpl@AdobeXMPCore_Int@@V?$_Mem_fn@P8SharedObjectImpl@AdobeXMPCore_Int@@EBAXXZ@std@@V?$TAllocator@VPathImpl@AdobeXMPCore_Int@@@2@@std@@EEAAXXZ 000000018005d158 f i PathImpl.obj
 0001:0005c158       ?_Delete_this@?$_Ref_count_del_alloc@VIPath_v1@AdobeXMPCore@@V?$_Mem_fn@P8ISharedObject@AdobeXMPCommon@@EBAXXZ@std@@V?$TAllocator@VIPath_v1@AdobeXMPCore@@@AdobeXMPCore_Int@@@std@@EEAAXXZ 000000018005d158 f i PathImpl.obj
 0001:0005c158       ?_Delete_this@?$_Ref_count_del_alloc@VINameSpacePrefixMap_v1@AdobeXMPCore@@V?$_Mem_fn@P8ISharedObject@AdobeXMPCommon@@EBAXXZ@std@@V?$TAllocator@VINameSpacePrefixMap_v1@AdobeXMPCore@@@AdobeXMPCore_Int@@@std@@EEAAXXZ 000000018005d158 f i NameSpacePrefixMapImpl.obj
 0001:0005c158       ?_Delete_this@?$_Ref_count_del_alloc@VPathSegmentImpl@AdobeXMPCore_Int@@V?$_Mem_fn@P8SharedObjectImpl@AdobeXMPCore_Int@@EBAXXZ@std@@V?$TAllocator@VPathSegmentImpl@AdobeXMPCore_Int@@@2@@std@@EEAAXXZ 000000018005d158 f i PathSegmentImpl.obj
 0001:0005c158       ?_Delete_this@?$_Ref_count_del_alloc@VIPathSegment_v1@AdobeXMPCore@@V?$_Mem_fn@P8ISharedObject@AdobeXMPCommon@@EBAXXZ@std@@V?$TAllocator@VIPathSegment_v1@AdobeXMPCore@@@AdobeXMPCore_Int@@@std@@EEAAXXZ 000000018005d158 f i PathSegmentImpl.obj
 0001:0005c158       ?_Delete_this@?$_Ref_count_del_alloc@VIMetadata_v1@AdobeXMPCore@@V?$_Mem_fn@P8ISharedObject@AdobeXMPCommon@@EBAXXZ@std@@V?$TAllocator@VIMetadata_v1@AdobeXMPCore@@@AdobeXMPCore_Int@@@std@@EEAAXXZ 000000018005d158 f i DOMParserImpl.obj
 0001:0005c158       ?_Delete_this@?$_Ref_count_del_alloc@V?$TNodeIteratorImpl@V?$_Tree_iterator@V?$_Tree_val@U?$_Tree_simple_types@U?$pair@$$CBUQualifiedName@StructureNodeImpl@AdobeXMPCore_Int@@V?$shared_ptr@VINode_v1@AdobeXMPCore@@@std@@@std@@@std@@@std@@@std@@@AdobeXMPCore_Int@@V?$_Mem_fn@P8SharedObjectImpl@AdobeXMPCore_Int@@EBAXXZ@std@@V?$TAllocator@V?$TNodeIteratorImpl@V?$_Tree_iterator@V?$_Tree_val@U?$_Tree_simple_types@U?$pair@$$CBUQualifiedName@StructureNodeImpl@AdobeXMPCore_Int@@V?$shared_ptr@VINode_v1@AdobeXMPCore@@@std@@@std@@@std@@@std@@@std@@@AdobeXMPCore_Int@@@2@@std@@EEAAXXZ 000000018005d158 f i StructureNodeImpl.obj
 0001:0005c158       ?_Delete_this@?$_Ref_count_del_alloc@VStructureNodeImpl@AdobeXMPCore_Int@@V?$_Mem_fn@P8NodeImpl@AdobeXMPCore_Int@@EBAXXZ@std@@V?$TAllocator@VStructureNodeImpl@AdobeXMPCore_Int@@@2@@std@@EEAAXXZ 000000018005d158 f i StructureNodeImpl.obj
 0001:0005c158       ?_Delete_this@?$_Ref_count_del_alloc@VSharedMutexImpl@AdobeXMPCore_Int@@V?$_Mem_fn@P8SharedObjectImpl@AdobeXMPCore_Int@@EBAXXZ@std@@V?$TAllocator@VSharedMutexImpl@AdobeXMPCore_Int@@@2@@std@@EEAAXXZ 000000018005d158 f i SharedMutexImpl.obj
 0001:0005c158       ?_Delete_this@?$_Ref_count_del_alloc@VDOMSerializerImpl@AdobeXMPCore_Int@@V?$_Mem_fn@P8SharedObjectImpl@AdobeXMPCore_Int@@EBAXXZ@std@@V?$TAllocator@VDOMSerializerImpl@AdobeXMPCore_Int@@@2@@std@@EEAAXXZ 000000018005d158 f i DOMSerializerImpl.obj
 0001:0005c158       ?_Delete_this@?$_Ref_count_del_alloc@VErrorImpl@AdobeXMPCore_Int@@V?$_Mem_fn@P8SharedObjectImpl@AdobeXMPCore_Int@@EBAXXZ@std@@V?$TAllocator@VErrorImpl@AdobeXMPCore_Int@@@2@@std@@EEAAXXZ 000000018005d158 f i ErrorImpl.obj
 0001:0005c158       ?_Delete_this@?$_Ref_count_del_alloc@VMetadataImpl@AdobeXMPCore_Int@@V?$_Mem_fn@P8NodeImpl@AdobeXMPCore_Int@@EBAXXZ@std@@V?$TAllocator@VMetadataImpl@AdobeXMPCore_Int@@@2@@std@@EEAAXXZ 000000018005d158 f i MetadataImpl.obj
 0001:0005c198       ?_Destroy@?$_Ref_count_del_alloc@VArrayNodeImpl@AdobeXMPCore_Int@@V?$_Mem_fn@P8NodeImpl@AdobeXMPCore_Int@@EBAXXZ@std@@V?$TAllocator@VArrayNodeImpl@AdobeXMPCore_Int@@@2@@std@@EEAAXXZ 000000018005d198 f i ArrayNodeImpl.obj
 0001:0005c198       ?_Destroy@?$_Ref_count_del_alloc@VStructureNodeImpl@AdobeXMPCore_Int@@V?$_Mem_fn@P8NodeImpl@AdobeXMPCore_Int@@EBAXXZ@std@@V?$TAllocator@VStructureNodeImpl@AdobeXMPCore_Int@@@2@@std@@EEAAXXZ 000000018005d198 f i StructureNodeImpl.obj
 0001:0005c1f4       ?_Get_deleter@?$_Ref_count_del_alloc@VMetadataImpl@AdobeXMPCore_Int@@V?$_Mem_fn@P8NodeImpl@AdobeXMPCore_Int@@EBAXXZ@std@@V?$TAllocator@VMetadataImpl@AdobeXMPCore_Int@@@2@@std@@UEBAPEAXAEBVtype_info@@@Z 000000018005d1f4 f i MetadataImpl.obj
 0001:0005c1f4       ?_Get_deleter@?$_Ref_count_del_alloc@VSimpleNodeImpl@AdobeXMPCore_Int@@V?$_Mem_fn@P8NodeImpl@AdobeXMPCore_Int@@EBAXXZ@std@@V?$TAllocator@VSimpleNodeImpl@AdobeXMPCore_Int@@@2@@std@@UEBAPEAXAEBVtype_info@@@Z 000000018005d1f4 f i SimpleNodeImpl.obj
 0001:0005c1f4       ?_Get_deleter@?$_Ref_count_del_alloc@VArrayNodeImpl@AdobeXMPCore_Int@@V?$_Mem_fn@P8NodeImpl@AdobeXMPCore_Int@@EBAXXZ@std@@V?$TAllocator@VArrayNodeImpl@AdobeXMPCore_Int@@@2@@std@@UEBAPEAXAEBVtype_info@@@Z 000000018005d1f4 f i ArrayNodeImpl.obj
 0001:0005c1f4       ?_Get_deleter@?$_Ref_count_del_alloc@VCompositeNodeImpl@AdobeXMPCore_Int@@V?$_Mem_fn@P8NodeImpl@AdobeXMPCore_Int@@EBAXXZ@std@@V?$TAllocator@VCompositeNodeImpl@AdobeXMPCore_Int@@@2@@std@@UEBAPEAXAEBVtype_info@@@Z 000000018005d1f4 f i CompositeNodeImpl.obj
 0001:0005c1f4       ?_Get_deleter@?$_Ref_count_del_alloc@VStructureNodeImpl@AdobeXMPCore_Int@@V?$_Mem_fn@P8NodeImpl@AdobeXMPCore_Int@@EBAXXZ@std@@V?$TAllocator@VStructureNodeImpl@AdobeXMPCore_Int@@@2@@std@@UEBAPEAXAEBVtype_info@@@Z 000000018005d1f4 f i StructureNodeImpl.obj
 0001:0005c224       ?_Destroy@?$_Ref_count_del_alloc@V?$TNodeIteratorImpl@V?$_Tree_iterator@V?$_Tree_val@U?$_Tree_simple_types@U?$pair@$$CBUQualifiedName@StructureNodeImpl@AdobeXMPCore_Int@@V?$shared_ptr@VINode_v1@AdobeXMPCore@@@std@@@std@@@std@@@std@@@std@@@AdobeXMPCore_Int@@V?$_Mem_fn@P8SharedObjectImpl@AdobeXMPCore_Int@@EBAXXZ@std@@V?$TAllocator@V?$TNodeIteratorImpl@V?$_Tree_iterator@V?$_Tree_val@U?$_Tree_simple_types@U?$pair@$$CBUQualifiedName@StructureNodeImpl@AdobeXMPCore_Int@@V?$shared_ptr@VINode_v1@AdobeXMPCore@@@std@@@std@@@std@@@std@@@std@@@AdobeXMPCore_Int@@@2@@std@@EEAAXXZ 000000018005d224 f i StructureNodeImpl.obj
 0001:0005c224       ?_Destroy@?$_Ref_count_del_alloc@V?$TNodeIteratorImpl@V?$_Vector_iterator@V?$_Vector_val@U?$_Simple_types@V?$shared_ptr@VINode_v1@AdobeXMPCore@@@std@@@std@@@std@@@std@@@AdobeXMPCore_Int@@V?$_Mem_fn@P8SharedObjectImpl@AdobeXMPCore_Int@@EBAXXZ@std@@V?$TAllocator@V?$TNodeIteratorImpl@V?$_Vector_iterator@V?$_Vector_val@U?$_Simple_types@V?$shared_ptr@VINode_v1@AdobeXMPCore@@@std@@@std@@@std@@@std@@@AdobeXMPCore_Int@@@2@@std@@EEAAXXZ 000000018005d224 f i ArrayNodeImpl.obj
 0001:0005c224       ?_Destroy@?$_Ref_count_del_alloc@VPathSegmentImpl@AdobeXMPCore_Int@@V?$_Mem_fn@P8SharedObjectImpl@AdobeXMPCore_Int@@EBAXXZ@std@@V?$TAllocator@VPathSegmentImpl@AdobeXMPCore_Int@@@2@@std@@EEAAXXZ 000000018005d224 f i PathSegmentImpl.obj
 0001:0005c224       ?_Destroy@?$_Ref_count_del_alloc@VDOMImplementationRegistryImpl@AdobeXMPCore_Int@@V?$_Mem_fn@P8SharedObjectImpl@AdobeXMPCore_Int@@EBAXXZ@std@@V?$TAllocator@VDOMImplementationRegistryImpl@AdobeXMPCore_Int@@@2@@std@@EEAAXXZ 000000018005d224 f i DOMImplementationRegistryImpl.obj
 0001:0005c224       ?_Destroy@?$_Ref_count_del_alloc@VErrorImpl@AdobeXMPCore_Int@@V?$_Mem_fn@P8SharedObjectImpl@AdobeXMPCore_Int@@EBAXXZ@std@@V?$TAllocator@VErrorImpl@AdobeXMPCore_Int@@@2@@std@@EEAAXXZ 000000018005d224 f i ErrorImpl.obj
 0001:0005c224       ?_Destroy@?$_Ref_count_del_alloc@VUTF8StringImpl@AdobeXMPCore_Int@@V?$_Mem_fn@P8SharedObjectImpl@AdobeXMPCore_Int@@EBAXXZ@std@@V?$TAllocator@VUTF8StringImpl@AdobeXMPCore_Int@@@2@@std@@EEAAXXZ 000000018005d224 f i UTF8StringImpl.obj
 0001:0005c224       ?_Destroy@?$_Ref_count_del_alloc@VPathImpl@AdobeXMPCore_Int@@V?$_Mem_fn@P8SharedObjectImpl@AdobeXMPCore_Int@@EBAXXZ@std@@V?$TAllocator@VPathImpl@AdobeXMPCore_Int@@@2@@std@@EEAAXXZ 000000018005d224 f i PathImpl.obj
 0001:0005c27c       ?_Get_deleter@?$_Ref_count_del_alloc@V?$TNodeIteratorImpl@V?$_Tree_iterator@V?$_Tree_val@U?$_Tree_simple_types@U?$pair@$$CBUQualifiedName@StructureNodeImpl@AdobeXMPCore_Int@@V?$shared_ptr@VINode_v1@AdobeXMPCore@@@std@@@std@@@std@@@std@@@std@@@AdobeXMPCore_Int@@V?$_Mem_fn@P8SharedObjectImpl@AdobeXMPCore_Int@@EBAXXZ@std@@V?$TAllocator@V?$TNodeIteratorImpl@V?$_Tree_iterator@V?$_Tree_val@U?$_Tree_simple_types@U?$pair@$$CBUQualifiedName@StructureNodeImpl@AdobeXMPCore_Int@@V?$shared_ptr@VINode_v1@AdobeXMPCore@@@std@@@std@@@std@@@std@@@std@@@AdobeXMPCore_Int@@@2@@std@@UEBAPEAXAEBVtype_info@@@Z 000000018005d27c f i StructureNodeImpl.obj
 0001:0005c27c       ?_Get_deleter@?$_Ref_count_del_alloc@VUTF8StringImpl@AdobeXMPCore_Int@@V?$_Mem_fn@P8SharedObjectImpl@AdobeXMPCore_Int@@EBAXXZ@std@@V?$TAllocator@VUTF8StringImpl@AdobeXMPCore_Int@@@2@@std@@UEBAPEAXAEBVtype_info@@@Z 000000018005d27c f i UTF8StringImpl.obj
 0001:0005c27c       ?_Get_deleter@?$_Ref_count_del_alloc@VNameSpacePrefixMapImpl@AdobeXMPCore_Int@@V?$_Mem_fn@P8SharedObjectImpl@AdobeXMPCore_Int@@EBAXXZ@std@@V?$TAllocator@VNameSpacePrefixMapImpl@AdobeXMPCore_Int@@@2@@std@@UEBAPEAXAEBVtype_info@@@Z 000000018005d27c f i NameSpacePrefixMapImpl.obj
 0001:0005c27c       ?_Get_deleter@?$_Ref_count_del_alloc@VPathImpl@AdobeXMPCore_Int@@V?$_Mem_fn@P8SharedObjectImpl@AdobeXMPCore_Int@@EBAXXZ@std@@V?$TAllocator@VPathImpl@AdobeXMPCore_Int@@@2@@std@@UEBAPEAXAEBVtype_info@@@Z 000000018005d27c f i PathImpl.obj
 0001:0005c27c       ?_Get_deleter@?$_Ref_count_del_alloc@VDOMImplementationRegistryImpl@AdobeXMPCore_Int@@V?$_Mem_fn@P8SharedObjectImpl@AdobeXMPCore_Int@@EBAXXZ@std@@V?$TAllocator@VDOMImplementationRegistryImpl@AdobeXMPCore_Int@@@2@@std@@UEBAPEAXAEBVtype_info@@@Z 000000018005d27c f i DOMImplementationRegistryImpl.obj
 0001:0005c27c       ?_Get_deleter@?$_Ref_count_del_alloc@VClientDOMParserWrapperImpl@AdobeXMPCore_Int@@V?$_Mem_fn@P8SharedObjectImpl@AdobeXMPCore_Int@@EBAXXZ@std@@V?$TAllocator@VClientDOMParserWrapperImpl@AdobeXMPCore_Int@@@2@@std@@UEBAPEAXAEBVtype_info@@@Z 000000018005d27c f i DOMParserImpl.obj
 0001:0005c27c       ?_Get_deleter@?$_Ref_count_del_alloc@VRDFDOMParserImpl@AdobeXMPCore_Int@@V?$_Mem_fn@P8SharedObjectImpl@AdobeXMPCore_Int@@EBAXXZ@std@@V?$TAllocator@VRDFDOMParserImpl@AdobeXMPCore_Int@@@2@@std@@UEBAPEAXAEBVtype_info@@@Z 000000018005d27c f i DOMImplementationRegistryImpl.obj
 0001:0005c27c       ?_Get_deleter@?$_Ref_count_del_alloc@VClientDOMSerializerWrapperImpl@AdobeXMPCore_Int@@V?$_Mem_fn@P8SharedObjectImpl@AdobeXMPCore_Int@@EBAXXZ@std@@V?$TAllocator@VClientDOMSerializerWrapperImpl@AdobeXMPCore_Int@@@2@@std@@UEBAPEAXAEBVtype_info@@@Z 000000018005d27c f i DOMSerializerImpl.obj
 0001:0005c27c       ?_Get_deleter@?$_Ref_count_del_alloc@VSharedMutexImpl@AdobeXMPCore_Int@@V?$_Mem_fn@P8SharedObjectImpl@AdobeXMPCore_Int@@EBAXXZ@std@@V?$TAllocator@VSharedMutexImpl@AdobeXMPCore_Int@@@2@@std@@UEBAPEAXAEBVtype_info@@@Z 000000018005d27c f i SharedMutexImpl.obj
 0001:0005c27c       ?_Get_deleter@?$_Ref_count_del_alloc@V?$TNodeIteratorImpl@V?$_Vector_iterator@V?$_Vector_val@U?$_Simple_types@V?$shared_ptr@VINode_v1@AdobeXMPCore@@@std@@@std@@@std@@@std@@@AdobeXMPCore_Int@@V?$_Mem_fn@P8SharedObjectImpl@AdobeXMPCore_Int@@EBAXXZ@std@@V?$TAllocator@V?$TNodeIteratorImpl@V?$_Vector_iterator@V?$_Vector_val@U?$_Simple_types@V?$shared_ptr@VINode_v1@AdobeXMPCore@@@std@@@std@@@std@@@std@@@AdobeXMPCore_Int@@@2@@std@@UEBAPEAXAEBVtype_info@@@Z 000000018005d27c f i ArrayNodeImpl.obj
 0001:0005c27c       ?_Get_deleter@?$_Ref_count_del_alloc@VRDFDOMSerializerImpl@AdobeXMPCore_Int@@V?$_Mem_fn@P8SharedObjectImpl@AdobeXMPCore_Int@@EBAXXZ@std@@V?$TAllocator@VRDFDOMSerializerImpl@AdobeXMPCore_Int@@@2@@std@@UEBAPEAXAEBVtype_info@@@Z 000000018005d27c f i DOMImplementationRegistryImpl.obj
 0001:0005c27c       ?_Get_deleter@?$_Ref_count_del_alloc@VCoreConfigurationManagerImpl@AdobeXMPCore_Int@@V?$_Mem_fn@P8SharedObjectImpl@AdobeXMPCore_Int@@EBAXXZ@std@@V?$TAllocator@VCoreConfigurationManagerImpl@AdobeXMPCore_Int@@@2@@std@@UEBAPEAXAEBVtype_info@@@Z 000000018005d27c f i CoreConfigurationManagerImpl.obj
 0001:0005c27c       ?_Get_deleter@?$_Ref_count_del_alloc@VDOMParserImpl@AdobeXMPCore_Int@@V?$_Mem_fn@P8SharedObjectImpl@AdobeXMPCore_Int@@EBAXXZ@std@@V?$TAllocator@VDOMParserImpl@AdobeXMPCore_Int@@@2@@std@@UEBAPEAXAEBVtype_info@@@Z 000000018005d27c f i DOMParserImpl.obj
 0001:0005c27c       ?_Get_deleter@?$_Ref_count_del_alloc@VDOMSerializerImpl@AdobeXMPCore_Int@@V?$_Mem_fn@P8SharedObjectImpl@AdobeXMPCore_Int@@EBAXXZ@std@@V?$TAllocator@VDOMSerializerImpl@AdobeXMPCore_Int@@@2@@std@@UEBAPEAXAEBVtype_info@@@Z 000000018005d27c f i DOMSerializerImpl.obj
 0001:0005c27c       ?_Get_deleter@?$_Ref_count_del_alloc@VPathSegmentImpl@AdobeXMPCore_Int@@V?$_Mem_fn@P8SharedObjectImpl@AdobeXMPCore_Int@@EBAXXZ@std@@V?$TAllocator@VPathSegmentImpl@AdobeXMPCore_Int@@@2@@std@@UEBAPEAXAEBVtype_info@@@Z 000000018005d27c f i PathSegmentImpl.obj
 0001:0005c27c       ?_Get_deleter@?$_Ref_count_del_alloc@VErrorImpl@AdobeXMPCore_Int@@V?$_Mem_fn@P8SharedObjectImpl@AdobeXMPCore_Int@@EBAXXZ@std@@V?$TAllocator@VErrorImpl@AdobeXMPCore_Int@@@2@@std@@UEBAPEAXAEBVtype_info@@@Z 000000018005d27c f i ErrorImpl.obj
 0001:0005c2ac       ?_Destroy@?$_Ref_count_del_alloc@VINode_v1@AdobeXMPCore@@V?$_Mem_fn@P8ISharedObject@AdobeXMPCommon@@EBAXXZ@std@@V?$TAllocator@VINode_v1@AdobeXMPCore@@@AdobeXMPCore_Int@@@std@@EEAAXXZ 000000018005d2ac f i ArrayNodeImpl.obj
 0001:0005c2ac       ?_Destroy@?$_Ref_count_del_alloc@VINameSpacePrefixMap_I@AdobeXMPCore_Int@@V?$_Mem_fn@P8ISharedObject@AdobeXMPCommon@@EBAXXZ@std@@V?$TAllocator@VINameSpacePrefixMap_I@AdobeXMPCore_Int@@@2@@std@@EEAAXXZ 000000018005d2ac f i RDFDOMSerializerImpl.obj
 0001:0005c2ac       ?_Destroy@?$_Ref_count_del_alloc@VIPathSegment_v1@AdobeXMPCore@@V?$_Mem_fn@P8ISharedObject@AdobeXMPCommon@@EBAXXZ@std@@V?$TAllocator@VIPathSegment_v1@AdobeXMPCore@@@AdobeXMPCore_Int@@@std@@EEAAXXZ 000000018005d2ac f i PathSegmentImpl.obj
 0001:0005c2ac       ?_Destroy@?$_Ref_count_del_alloc@VIMetadata_v1@AdobeXMPCore@@V?$_Mem_fn@P8ISharedObject@AdobeXMPCommon@@EBAXXZ@std@@V?$TAllocator@VIMetadata_v1@AdobeXMPCore@@@AdobeXMPCore_Int@@@std@@EEAAXXZ 000000018005d2ac f i DOMParserImpl.obj
 0001:0005c2ac       ?_Destroy@?$_Ref_count_del_alloc@VINameSpacePrefixMap_v1@AdobeXMPCore@@V?$_Mem_fn@P8ISharedObject@AdobeXMPCommon@@EBAXXZ@std@@V?$TAllocator@VINameSpacePrefixMap_v1@AdobeXMPCore@@@AdobeXMPCore_Int@@@std@@EEAAXXZ 000000018005d2ac f i NameSpacePrefixMapImpl.obj
 0001:0005c2ac       ?_Destroy@?$_Ref_count_del_alloc@VIPath_v1@AdobeXMPCore@@V?$_Mem_fn@P8ISharedObject@AdobeXMPCommon@@EBAXXZ@std@@V?$TAllocator@VIPath_v1@AdobeXMPCore@@@AdobeXMPCore_Int@@@std@@EEAAXXZ 000000018005d2ac f i PathImpl.obj
 0001:0005c2e0       ?_Get_deleter@?$_Ref_count_del_alloc@VIPathSegment_v1@AdobeXMPCore@@V?$_Mem_fn@P8ISharedObject@AdobeXMPCommon@@EBAXXZ@std@@V?$TAllocator@VIPathSegment_v1@AdobeXMPCore@@@AdobeXMPCore_Int@@@std@@UEBAPEAXAEBVtype_info@@@Z 000000018005d2e0 f i PathSegmentImpl.obj
 0001:0005c2e0       ?_Get_deleter@?$_Ref_count_del_alloc@VIPath_v1@AdobeXMPCore@@V?$_Mem_fn@P8ISharedObject@AdobeXMPCommon@@EBAXXZ@std@@V?$TAllocator@VIPath_v1@AdobeXMPCore@@@AdobeXMPCore_Int@@@std@@UEBAPEAXAEBVtype_info@@@Z 000000018005d2e0 f i PathImpl.obj
 0001:0005c2e0       ?_Get_deleter@?$_Ref_count_del_alloc@VINameSpacePrefixMap_v1@AdobeXMPCore@@V?$_Mem_fn@P8ISharedObject@AdobeXMPCommon@@EBAXXZ@std@@V?$TAllocator@VINameSpacePrefixMap_v1@AdobeXMPCore@@@AdobeXMPCore_Int@@@std@@UEBAPEAXAEBVtype_info@@@Z 000000018005d2e0 f i NameSpacePrefixMapImpl.obj
 0001:0005c2e0       ?_Get_deleter@?$_Ref_count_del_alloc@VINameSpacePrefixMap_I@AdobeXMPCore_Int@@V?$_Mem_fn@P8ISharedObject@AdobeXMPCommon@@EBAXXZ@std@@V?$TAllocator@VINameSpacePrefixMap_I@AdobeXMPCore_Int@@@2@@std@@UEBAPEAXAEBVtype_info@@@Z 000000018005d2e0 f i RDFDOMSerializerImpl.obj
 0001:0005c2e0       ?_Get_deleter@?$_Ref_count_del_alloc@VINode_v1@AdobeXMPCore@@V?$_Mem_fn@P8ISharedObject@AdobeXMPCommon@@EBAXXZ@std@@V?$TAllocator@VINode_v1@AdobeXMPCore@@@AdobeXMPCore_Int@@@std@@UEBAPEAXAEBVtype_info@@@Z 000000018005d2e0 f i ArrayNodeImpl.obj
 0001:0005c2e0       ?_Get_deleter@?$_Ref_count_del_alloc@VIMetadata_v1@AdobeXMPCore@@V?$_Mem_fn@P8ISharedObject@AdobeXMPCommon@@EBAXXZ@std@@V?$TAllocator@VIMetadata_v1@AdobeXMPCore@@@AdobeXMPCore_Int@@@std@@UEBAPEAXAEBVtype_info@@@Z 000000018005d2e0 f i DOMParserImpl.obj
 0001:0005c310       ??$_Uninit_move@PEAV?$shared_ptr@VINode_v1@AdobeXMPCore@@@std@@PEAV12@V?$TAllocator@V?$shared_ptr@VINode_v1@AdobeXMPCore@@@std@@@AdobeXMPCore_Int@@V12@@std@@YAPEAV?$shared_ptr@VINode_v1@AdobeXMPCore@@@0@PEAV10@00AEAU?$_Wrap_alloc@V?$TAllocator@V?$shared_ptr@VINode_v1@AdobeXMPCore@@@std@@@AdobeXMPCore_Int@@@0@0U_Nonscalar_ptr_iterator_tag@0@@Z 000000018005d310 f i ArrayNodeImpl.obj
 0001:0005c36c       ??_E?$_Ref_count_del_alloc@VPathSegmentImpl@AdobeXMPCore_Int@@V?$_Mem_fn@P8SharedObjectImpl@AdobeXMPCore_Int@@EBAXXZ@std@@V?$TAllocator@VPathSegmentImpl@AdobeXMPCore_Int@@@2@@std@@UEAAPEAXI@Z 000000018005d36c f i * CIL library *:* CIL module *
 0001:0005c36c       ??_G?$_Ref_count_del_alloc@VSimpleNodeImpl@AdobeXMPCore_Int@@V?$_Mem_fn@P8NodeImpl@AdobeXMPCore_Int@@EBAXXZ@std@@V?$TAllocator@VSimpleNodeImpl@AdobeXMPCore_Int@@@2@@std@@UEAAPEAXI@Z 000000018005d36c f i SimpleNodeImpl.obj
 0001:0005c36c       ??_G?$_Ref_count_del_alloc@VSharedMutexImpl@AdobeXMPCore_Int@@V?$_Mem_fn@P8SharedObjectImpl@AdobeXMPCore_Int@@EBAXXZ@std@@V?$TAllocator@VSharedMutexImpl@AdobeXMPCore_Int@@@2@@std@@UEAAPEAXI@Z 000000018005d36c f i SharedMutexImpl.obj
 0001:0005c36c       ??_G?$_Ref_count_del_alloc@VMetadataImpl@AdobeXMPCore_Int@@V?$_Mem_fn@P8NodeImpl@AdobeXMPCore_Int@@EBAXXZ@std@@V?$TAllocator@VMetadataImpl@AdobeXMPCore_Int@@@2@@std@@UEAAPEAXI@Z 000000018005d36c f i MetadataImpl.obj
 0001:0005c36c       ??_E?$_Ref_count_del_alloc@VRDFDOMParserImpl@AdobeXMPCore_Int@@V?$_Mem_fn@P8SharedObjectImpl@AdobeXMPCore_Int@@EBAXXZ@std@@V?$TAllocator@VRDFDOMParserImpl@AdobeXMPCore_Int@@@2@@std@@UEAAPEAXI@Z 000000018005d36c f i * CIL library *:* CIL module *
 0001:0005c36c       ??_G?$_Ref_count_del_alloc@VDOMSerializerImpl@AdobeXMPCore_Int@@V?$_Mem_fn@P8SharedObjectImpl@AdobeXMPCore_Int@@EBAXXZ@std@@V?$TAllocator@VDOMSerializerImpl@AdobeXMPCore_Int@@@2@@std@@UEAAPEAXI@Z 000000018005d36c f i DOMSerializerImpl.obj
 0001:0005c36c       ??_E?$_Ref_count_del_alloc@VClientDOMSerializerWrapperImpl@AdobeXMPCore_Int@@V?$_Mem_fn@P8SharedObjectImpl@AdobeXMPCore_Int@@EBAXXZ@std@@V?$TAllocator@VClientDOMSerializerWrapperImpl@AdobeXMPCore_Int@@@2@@std@@UEAAPEAXI@Z 000000018005d36c f i * CIL library *:* CIL module *
 0001:0005c36c       ??_G?$_Ref_count_del_alloc@VRDFDOMParserImpl@AdobeXMPCore_Int@@V?$_Mem_fn@P8SharedObjectImpl@AdobeXMPCore_Int@@EBAXXZ@std@@V?$TAllocator@VRDFDOMParserImpl@AdobeXMPCore_Int@@@2@@std@@UEAAPEAXI@Z 000000018005d36c f i DOMImplementationRegistryImpl.obj
 0001:0005c36c       ??_E?$_Ref_count_del_alloc@VSharedMutexImpl@AdobeXMPCore_Int@@V?$_Mem_fn@P8SharedObjectImpl@AdobeXMPCore_Int@@EBAXXZ@std@@V?$TAllocator@VSharedMutexImpl@AdobeXMPCore_Int@@@2@@std@@UEAAPEAXI@Z 000000018005d36c f i * CIL library *:* CIL module *
 0001:0005c36c       ??_E?$_Ref_count_del_alloc@VMetadataImpl@AdobeXMPCore_Int@@V?$_Mem_fn@P8NodeImpl@AdobeXMPCore_Int@@EBAXXZ@std@@V?$TAllocator@VMetadataImpl@AdobeXMPCore_Int@@@2@@std@@UEAAPEAXI@Z 000000018005d36c f i * CIL library *:* CIL module *
 0001:0005c36c       ??_G?$_Ref_count_del_alloc@VPathImpl@AdobeXMPCore_Int@@V?$_Mem_fn@P8SharedObjectImpl@AdobeXMPCore_Int@@EBAXXZ@std@@V?$TAllocator@VPathImpl@AdobeXMPCore_Int@@@2@@std@@UEAAPEAXI@Z 000000018005d36c f i PathImpl.obj
 0001:0005c36c       ??_G?$_Ref_count_del_alloc@VStructureNodeImpl@AdobeXMPCore_Int@@V?$_Mem_fn@P8NodeImpl@AdobeXMPCore_Int@@EBAXXZ@std@@V?$TAllocator@VStructureNodeImpl@AdobeXMPCore_Int@@@2@@std@@UEAAPEAXI@Z 000000018005d36c f i StructureNodeImpl.obj
 0001:0005c36c       ??_E?$_Ref_count_del_alloc@VErrorImpl@AdobeXMPCore_Int@@V?$_Mem_fn@P8SharedObjectImpl@AdobeXMPCore_Int@@EBAXXZ@std@@V?$TAllocator@VErrorImpl@AdobeXMPCore_Int@@@2@@std@@UEAAPEAXI@Z 000000018005d36c f i * CIL library *:* CIL module *
 0001:0005c36c       ??_E?$_Ref_count_del_alloc@V?$TNodeIteratorImpl@V?$_Vector_iterator@V?$_Vector_val@U?$_Simple_types@V?$shared_ptr@VINode_v1@AdobeXMPCore@@@std@@@std@@@std@@@std@@@AdobeXMPCore_Int@@V?$_Mem_fn@P8SharedObjectImpl@AdobeXMPCore_Int@@EBAXXZ@std@@V?$TAllocator@V?$TNodeIteratorImpl@V?$_Vector_iterator@V?$_Vector_val@U?$_Simple_types@V?$shared_ptr@VINode_v1@AdobeXMPCore@@@std@@@std@@@std@@@std@@@AdobeXMPCore_Int@@@2@@std@@UEAAPEAXI@Z 000000018005d36c f i * CIL library *:* CIL module *
 0001:0005c36c       ??_E?$_Ref_count_del_alloc@VCompositeNodeImpl@AdobeXMPCore_Int@@V?$_Mem_fn@P8NodeImpl@AdobeXMPCore_Int@@EBAXXZ@std@@V?$TAllocator@VCompositeNodeImpl@AdobeXMPCore_Int@@@2@@std@@UEAAPEAXI@Z 000000018005d36c f i * CIL library *:* CIL module *
 0001:0005c36c       ??_E?$_Ref_count_del_alloc@VSimpleNodeImpl@AdobeXMPCore_Int@@V?$_Mem_fn@P8NodeImpl@AdobeXMPCore_Int@@EBAXXZ@std@@V?$TAllocator@VSimpleNodeImpl@AdobeXMPCore_Int@@@2@@std@@UEAAPEAXI@Z 000000018005d36c f i * CIL library *:* CIL module *
 0001:0005c36c       ??_E?$_Ref_count_del_alloc@VPathImpl@AdobeXMPCore_Int@@V?$_Mem_fn@P8SharedObjectImpl@AdobeXMPCore_Int@@EBAXXZ@std@@V?$TAllocator@VPathImpl@AdobeXMPCore_Int@@@2@@std@@UEAAPEAXI@Z 000000018005d36c f i * CIL library *:* CIL module *
 0001:0005c36c       ??_G?$_Ref_count_del_alloc@VArrayNodeImpl@AdobeXMPCore_Int@@V?$_Mem_fn@P8NodeImpl@AdobeXMPCore_Int@@EBAXXZ@std@@V?$TAllocator@VArrayNodeImpl@AdobeXMPCore_Int@@@2@@std@@UEAAPEAXI@Z 000000018005d36c f i ArrayNodeImpl.obj
 0001:0005c36c       ??_G?$_Ref_count_del_alloc@VNameSpacePrefixMapImpl@AdobeXMPCore_Int@@V?$_Mem_fn@P8SharedObjectImpl@AdobeXMPCore_Int@@EBAXXZ@std@@V?$TAllocator@VNameSpacePrefixMapImpl@AdobeXMPCore_Int@@@2@@std@@UEAAPEAXI@Z 000000018005d36c f i NameSpacePrefixMapImpl.obj
 0001:0005c36c       ??_G?$_Ref_count_del_alloc@VUTF8StringImpl@AdobeXMPCore_Int@@V?$_Mem_fn@P8SharedObjectImpl@AdobeXMPCore_Int@@EBAXXZ@std@@V?$TAllocator@VUTF8StringImpl@AdobeXMPCore_Int@@@2@@std@@UEAAPEAXI@Z 000000018005d36c f i UTF8StringImpl.obj
 0001:0005c36c       ??_G?$_Ref_count_del_alloc@V?$TNodeIteratorImpl@V?$_Vector_iterator@V?$_Vector_val@U?$_Simple_types@V?$shared_ptr@VINode_v1@AdobeXMPCore@@@std@@@std@@@std@@@std@@@AdobeXMPCore_Int@@V?$_Mem_fn@P8SharedObjectImpl@AdobeXMPCore_Int@@EBAXXZ@std@@V?$TAllocator@V?$TNodeIteratorImpl@V?$_Vector_iterator@V?$_Vector_val@U?$_Simple_types@V?$shared_ptr@VINode_v1@AdobeXMPCore@@@std@@@std@@@std@@@std@@@AdobeXMPCore_Int@@@2@@std@@UEAAPEAXI@Z 000000018005d36c f i ArrayNodeImpl.obj
 0001:0005c36c       ??_G?$_Ref_count_del_alloc@VPathSegmentImpl@AdobeXMPCore_Int@@V?$_Mem_fn@P8SharedObjectImpl@AdobeXMPCore_Int@@EBAXXZ@std@@V?$TAllocator@VPathSegmentImpl@AdobeXMPCore_Int@@@2@@std@@UEAAPEAXI@Z 000000018005d36c f i PathSegmentImpl.obj
 0001:0005c36c       ??_G?$_Ref_count_del_alloc@VClientDOMSerializerWrapperImpl@AdobeXMPCore_Int@@V?$_Mem_fn@P8SharedObjectImpl@AdobeXMPCore_Int@@EBAXXZ@std@@V?$TAllocator@VClientDOMSerializerWrapperImpl@AdobeXMPCore_Int@@@2@@std@@UEAAPEAXI@Z 000000018005d36c f i DOMSerializerImpl.obj
 0001:0005c36c       ??_G?$_Ref_count_del_alloc@V?$TNodeIteratorImpl@V?$_Tree_iterator@V?$_Tree_val@U?$_Tree_simple_types@U?$pair@$$CBUQualifiedName@StructureNodeImpl@AdobeXMPCore_Int@@V?$shared_ptr@VINode_v1@AdobeXMPCore@@@std@@@std@@@std@@@std@@@std@@@AdobeXMPCore_Int@@V?$_Mem_fn@P8SharedObjectImpl@AdobeXMPCore_Int@@EBAXXZ@std@@V?$TAllocator@V?$TNodeIteratorImpl@V?$_Tree_iterator@V?$_Tree_val@U?$_Tree_simple_types@U?$pair@$$CBUQualifiedName@StructureNodeImpl@AdobeXMPCore_Int@@V?$shared_ptr@VINode_v1@AdobeXMPCore@@@std@@@std@@@std@@@std@@@std@@@AdobeXMPCore_Int@@@2@@std@@UEAAPEAXI@Z 000000018005d36c f i StructureNodeImpl.obj
 0001:0005c36c       ??_G?$_Ref_count_del_alloc@VCompositeNodeImpl@AdobeXMPCore_Int@@V?$_Mem_fn@P8NodeImpl@AdobeXMPCore_Int@@EBAXXZ@std@@V?$TAllocator@VCompositeNodeImpl@AdobeXMPCore_Int@@@2@@std@@UEAAPEAXI@Z 000000018005d36c f i CompositeNodeImpl.obj
 0001:0005c36c       ??_G?$_Ref_count_del_alloc@VRDFDOMSerializerImpl@AdobeXMPCore_Int@@V?$_Mem_fn@P8SharedObjectImpl@AdobeXMPCore_Int@@EBAXXZ@std@@V?$TAllocator@VRDFDOMSerializerImpl@AdobeXMPCore_Int@@@2@@std@@UEAAPEAXI@Z 000000018005d36c f i DOMImplementationRegistryImpl.obj
 0001:0005c36c       ??_G?$_Ref_count_del_alloc@VDOMParserImpl@AdobeXMPCore_Int@@V?$_Mem_fn@P8SharedObjectImpl@AdobeXMPCore_Int@@EBAXXZ@std@@V?$TAllocator@VDOMParserImpl@AdobeXMPCore_Int@@@2@@std@@UEAAPEAXI@Z 000000018005d36c f i DOMParserImpl.obj
 0001:0005c36c       ??_G?$_Ref_count_del_alloc@VErrorImpl@AdobeXMPCore_Int@@V?$_Mem_fn@P8SharedObjectImpl@AdobeXMPCore_Int@@EBAXXZ@std@@V?$TAllocator@VErrorImpl@AdobeXMPCore_Int@@@2@@std@@UEAAPEAXI@Z 000000018005d36c f i ErrorImpl.obj
 0001:0005c36c       ??_E?$_Ref_count_del_alloc@V?$TNodeIteratorImpl@V?$_Tree_iterator@V?$_Tree_val@U?$_Tree_simple_types@U?$pair@$$CBUQualifiedName@StructureNodeImpl@AdobeXMPCore_Int@@V?$shared_ptr@VINode_v1@AdobeXMPCore@@@std@@@std@@@std@@@std@@@std@@@AdobeXMPCore_Int@@V?$_Mem_fn@P8SharedObjectImpl@AdobeXMPCore_Int@@EBAXXZ@std@@V?$TAllocator@V?$TNodeIteratorImpl@V?$_Tree_iterator@V?$_Tree_val@U?$_Tree_simple_types@U?$pair@$$CBUQualifiedName@StructureNodeImpl@AdobeXMPCore_Int@@V?$shared_ptr@VINode_v1@AdobeXMPCore@@@std@@@std@@@std@@@std@@@std@@@AdobeXMPCore_Int@@@2@@std@@UEAAPEAXI@Z 000000018005d36c f i * CIL library *:* CIL module *
 0001:0005c36c       ??_G?$_Ref_count_del_alloc@VDOMImplementationRegistryImpl@AdobeXMPCore_Int@@V?$_Mem_fn@P8SharedObjectImpl@AdobeXMPCore_Int@@EBAXXZ@std@@V?$TAllocator@VDOMImplementationRegistryImpl@AdobeXMPCore_Int@@@2@@std@@UEAAPEAXI@Z 000000018005d36c f i DOMImplementationRegistryImpl.obj
 0001:0005c36c       ??_E?$_Ref_count_del_alloc@VArrayNodeImpl@AdobeXMPCore_Int@@V?$_Mem_fn@P8NodeImpl@AdobeXMPCore_Int@@EBAXXZ@std@@V?$TAllocator@VArrayNodeImpl@AdobeXMPCore_Int@@@2@@std@@UEAAPEAXI@Z 000000018005d36c f i * CIL library *:* CIL module *
 0001:0005c36c       ??_E?$_Ref_count_del_alloc@VClientDOMParserWrapperImpl@AdobeXMPCore_Int@@V?$_Mem_fn@P8SharedObjectImpl@AdobeXMPCore_Int@@EBAXXZ@std@@V?$TAllocator@VClientDOMParserWrapperImpl@AdobeXMPCore_Int@@@2@@std@@UEAAPEAXI@Z 000000018005d36c f i * CIL library *:* CIL module *
 0001:0005c36c       ??_E?$_Ref_count_del_alloc@VStructureNodeImpl@AdobeXMPCore_Int@@V?$_Mem_fn@P8NodeImpl@AdobeXMPCore_Int@@EBAXXZ@std@@V?$TAllocator@VStructureNodeImpl@AdobeXMPCore_Int@@@2@@std@@UEAAPEAXI@Z 000000018005d36c f i * CIL library *:* CIL module *
 0001:0005c36c       ??_E?$_Ref_count_del_alloc@VDOMImplementationRegistryImpl@AdobeXMPCore_Int@@V?$_Mem_fn@P8SharedObjectImpl@AdobeXMPCore_Int@@EBAXXZ@std@@V?$TAllocator@VDOMImplementationRegistryImpl@AdobeXMPCore_Int@@@2@@std@@UEAAPEAXI@Z 000000018005d36c f i * CIL library *:* CIL module *
 0001:0005c36c       ??_E?$_Ref_count_del_alloc@VRDFDOMSerializerImpl@AdobeXMPCore_Int@@V?$_Mem_fn@P8SharedObjectImpl@AdobeXMPCore_Int@@EBAXXZ@std@@V?$TAllocator@VRDFDOMSerializerImpl@AdobeXMPCore_Int@@@2@@std@@UEAAPEAXI@Z 000000018005d36c f i * CIL library *:* CIL module *
 0001:0005c36c       ??_E?$_Ref_count_del_alloc@VUTF8StringImpl@AdobeXMPCore_Int@@V?$_Mem_fn@P8SharedObjectImpl@AdobeXMPCore_Int@@EBAXXZ@std@@V?$TAllocator@VUTF8StringImpl@AdobeXMPCore_Int@@@2@@std@@UEAAPEAXI@Z 000000018005d36c f i * CIL library *:* CIL module *
 0001:0005c36c       ??_G?$_Ref_count_del_alloc@VClientDOMParserWrapperImpl@AdobeXMPCore_Int@@V?$_Mem_fn@P8SharedObjectImpl@AdobeXMPCore_Int@@EBAXXZ@std@@V?$TAllocator@VClientDOMParserWrapperImpl@AdobeXMPCore_Int@@@2@@std@@UEAAPEAXI@Z 000000018005d36c f i DOMParserImpl.obj
 0001:0005c36c       ??_E?$_Ref_count_del_alloc@VNameSpacePrefixMapImpl@AdobeXMPCore_Int@@V?$_Mem_fn@P8SharedObjectImpl@AdobeXMPCore_Int@@EBAXXZ@std@@V?$TAllocator@VNameSpacePrefixMapImpl@AdobeXMPCore_Int@@@2@@std@@UEAAPEAXI@Z 000000018005d36c f i * CIL library *:* CIL module *
 0001:0005c36c       ??_E?$_Ref_count_del_alloc@VDOMParserImpl@AdobeXMPCore_Int@@V?$_Mem_fn@P8SharedObjectImpl@AdobeXMPCore_Int@@EBAXXZ@std@@V?$TAllocator@VDOMParserImpl@AdobeXMPCore_Int@@@2@@std@@UEAAPEAXI@Z 000000018005d36c f i * CIL library *:* CIL module *
 0001:0005c36c       ??_G?$_Ref_count_del_alloc@VCoreConfigurationManagerImpl@AdobeXMPCore_Int@@V?$_Mem_fn@P8SharedObjectImpl@AdobeXMPCore_Int@@EBAXXZ@std@@V?$TAllocator@VCoreConfigurationManagerImpl@AdobeXMPCore_Int@@@2@@std@@UEAAPEAXI@Z 000000018005d36c f i CoreConfigurationManagerImpl.obj
 0001:0005c36c       ??_E?$_Ref_count_del_alloc@VCoreConfigurationManagerImpl@AdobeXMPCore_Int@@V?$_Mem_fn@P8SharedObjectImpl@AdobeXMPCore_Int@@EBAXXZ@std@@V?$TAllocator@VCoreConfigurationManagerImpl@AdobeXMPCore_Int@@@2@@std@@UEAAPEAXI@Z 000000018005d36c f i * CIL library *:* CIL module *
 0001:0005c36c       ??_E?$_Ref_count_del_alloc@VDOMSerializerImpl@AdobeXMPCore_Int@@V?$_Mem_fn@P8SharedObjectImpl@AdobeXMPCore_Int@@EBAXXZ@std@@V?$TAllocator@VDOMSerializerImpl@AdobeXMPCore_Int@@@2@@std@@UEAAPEAXI@Z 000000018005d36c f i * CIL library *:* CIL module *
 0001:0005c398       ??_E?$_Ref_count_del_alloc@VINode_v1@AdobeXMPCore@@V?$_Mem_fn@P8ISharedObject@AdobeXMPCommon@@EBAXXZ@std@@V?$TAllocator@VINode_v1@AdobeXMPCore@@@AdobeXMPCore_Int@@@std@@UEAAPEAXI@Z 000000018005d398 f i * CIL library *:* CIL module *
 0001:0005c398       ??_E?$_Ref_count_del_alloc@VINameSpacePrefixMap_I@AdobeXMPCore_Int@@V?$_Mem_fn@P8ISharedObject@AdobeXMPCommon@@EBAXXZ@std@@V?$TAllocator@VINameSpacePrefixMap_I@AdobeXMPCore_Int@@@2@@std@@UEAAPEAXI@Z 000000018005d398 f i * CIL library *:* CIL module *
 0001:0005c398       ??_G?$_Ref_count_del_alloc@VIPath_v1@AdobeXMPCore@@V?$_Mem_fn@P8ISharedObject@AdobeXMPCommon@@EBAXXZ@std@@V?$TAllocator@VIPath_v1@AdobeXMPCore@@@AdobeXMPCore_Int@@@std@@UEAAPEAXI@Z 000000018005d398 f i PathImpl.obj
 0001:0005c398       ??_E?$_Ref_count_del_alloc@VIPathSegment_v1@AdobeXMPCore@@V?$_Mem_fn@P8ISharedObject@AdobeXMPCommon@@EBAXXZ@std@@V?$TAllocator@VIPathSegment_v1@AdobeXMPCore@@@AdobeXMPCore_Int@@@std@@UEAAPEAXI@Z 000000018005d398 f i * CIL library *:* CIL module *
 0001:0005c398       ??_E?$_Ref_count_del_alloc@VIPath_v1@AdobeXMPCore@@V?$_Mem_fn@P8ISharedObject@AdobeXMPCommon@@EBAXXZ@std@@V?$TAllocator@VIPath_v1@AdobeXMPCore@@@AdobeXMPCore_Int@@@std@@UEAAPEAXI@Z 000000018005d398 f i * CIL library *:* CIL module *
 0001:0005c398       ??_G?$_Ref_count_del_alloc@VIMetadata_v1@AdobeXMPCore@@V?$_Mem_fn@P8ISharedObject@AdobeXMPCommon@@EBAXXZ@std@@V?$TAllocator@VIMetadata_v1@AdobeXMPCore@@@AdobeXMPCore_Int@@@std@@UEAAPEAXI@Z 000000018005d398 f i DOMParserImpl.obj
 0001:0005c398       ??_G?$_Ref_count_del_alloc@VINameSpacePrefixMap_I@AdobeXMPCore_Int@@V?$_Mem_fn@P8ISharedObject@AdobeXMPCommon@@EBAXXZ@std@@V?$TAllocator@VINameSpacePrefixMap_I@AdobeXMPCore_Int@@@2@@std@@UEAAPEAXI@Z 000000018005d398 f i RDFDOMSerializerImpl.obj
 0001:0005c398       ??_G?$_Ref_count_del_alloc@VIPathSegment_v1@AdobeXMPCore@@V?$_Mem_fn@P8ISharedObject@AdobeXMPCommon@@EBAXXZ@std@@V?$TAllocator@VIPathSegment_v1@AdobeXMPCore@@@AdobeXMPCore_Int@@@std@@UEAAPEAXI@Z 000000018005d398 f i PathSegmentImpl.obj
 0001:0005c398       ??_G?$_Ref_count_del_alloc@VINode_v1@AdobeXMPCore@@V?$_Mem_fn@P8ISharedObject@AdobeXMPCommon@@EBAXXZ@std@@V?$TAllocator@VINode_v1@AdobeXMPCore@@@AdobeXMPCore_Int@@@std@@UEAAPEAXI@Z 000000018005d398 f i ArrayNodeImpl.obj
 0001:0005c398       ??_E?$_Ref_count_del_alloc@VIMetadata_v1@AdobeXMPCore@@V?$_Mem_fn@P8ISharedObject@AdobeXMPCommon@@EBAXXZ@std@@V?$TAllocator@VIMetadata_v1@AdobeXMPCore@@@AdobeXMPCore_Int@@@std@@UEAAPEAXI@Z 000000018005d398 f i * CIL library *:* CIL module *
 0001:0005c398       ??_G?$_Ref_count_del_alloc@VINameSpacePrefixMap_v1@AdobeXMPCore@@V?$_Mem_fn@P8ISharedObject@AdobeXMPCommon@@EBAXXZ@std@@V?$TAllocator@VINameSpacePrefixMap_v1@AdobeXMPCore@@@AdobeXMPCore_Int@@@std@@UEAAPEAXI@Z 000000018005d398 f i NameSpacePrefixMapImpl.obj
 0001:0005c398       ??_E?$_Ref_count_del_alloc@VINameSpacePrefixMap_v1@AdobeXMPCore@@V?$_Mem_fn@P8ISharedObject@AdobeXMPCommon@@EBAXXZ@std@@V?$TAllocator@VINameSpacePrefixMap_v1@AdobeXMPCore@@@AdobeXMPCore_Int@@@std@@UEAAPEAXI@Z 000000018005d398 f i * CIL library *:* CIL module *
 0001:0005c3c4       ?insertNodeAtPath@ICompositeNode_I@AdobeXMPCore_Int@@$R2HI@CI@PPPPPPPM@EI@EAAXPEAVINode_v1@AdobeXMPCore@@PEBVIPath_v1@4@AEAPEBVIError_v1@AdobeXMPCommon@@@Z 000000018005d3c4 f i ArrayNodeImpl.obj
 0001:0005c3e0       ?getNodeTypeAtPath@ICompositeNode_I@AdobeXMPCore_Int@@$R2HI@CI@PPPPPPPM@EI@EBAKPEBVIPath_v1@AdobeXMPCore@@AEAPEBVIError_v1@AdobeXMPCommon@@@Z 000000018005d3e0 f i ArrayNodeImpl.obj
 0001:0005c3fc       ?getPath@INode_I@AdobeXMPCore_Int@@$R2GA@CE@PPPPPPPM@DI@EBAPEAVIPath_v1@AdobeXMPCore@@AEAPEBVIError_v1@AdobeXMPCommon@@@Z 000000018005d3fc f i ArrayNodeImpl.obj
 0001:0005c418       ?GetParentNodeType@NodeImpl@AdobeXMPCore_Int@@$R4GA@DM@PPPPPPPM@KI@EBA?AW4eNodeType@INode_v1@AdobeXMPCore@@XZ 000000018005d418 f i ArrayNodeImpl.obj
 0001:0005c434       ?getNameSpace@INode_I@AdobeXMPCore_Int@@$R2EA@CA@PPPPPPPM@DI@EBAPEBVIUTF8String_v1@AdobeXMPCommon@@AEAPEBVIError_v1@4@@Z 000000018005d434 f i ArrayNodeImpl.obj
 0001:0005c450       ?Clear@NodeImpl@AdobeXMPCore_Int@@$R4EA@DE@PPPPPPPM@KI@EAAX_N0@Z 000000018005d450 f i ArrayNodeImpl.obj
 0001:0005c46c       ?IsQualifierNode@NodeImpl@AdobeXMPCore_Int@@$R4EA@DE@PPPPPPPM@KI@EBA_NXZ 000000018005d46c f i ArrayNodeImpl.obj
 0001:0005c488       ?clone@INode_I@AdobeXMPCore_Int@@$R2KA@BM@PPPPPPPM@DI@EBAPEAVINode_v1@AdobeXMPCore@@KKAEAPEBVIError_v1@AdobeXMPCommon@@@Z 000000018005d488 f i ArrayNodeImpl.obj
 0001:0005c4a4       ?GetQualifierNodeType@NodeImpl@AdobeXMPCore_Int@@$4PPPPPPPM@A@EBA?AW4eNodeType@INode_v1@AdobeXMPCore@@PEBD_K01@Z 000000018005d4a4 f i ArrayNodeImpl.obj
 0001:0005c4b0       ?GetICompositeNode_I@ICompositeNode_I@AdobeXMPCore_Int@@$R4FA@CI@PPPPPPPM@EI@EAAPEAV12@XZ 000000018005d4b0 f i ArrayNodeImpl.obj
 0001:0005c4cc       ?insertQualifier@INode_I@AdobeXMPCore_Int@@$2PPPPPPPM@A@EAAXPEAVINode_v1@AdobeXMPCore@@AEAPEBVIError_v1@AdobeXMPCommon@@@Z 000000018005d4cc f i ArrayNodeImpl.obj
 0001:0005c4d8       ?GetRawParentPointer@NodeImpl@AdobeXMPCore_Int@@$R4NI@DM@PPPPPPPM@PA@EAAPEAVINode_v1@AdobeXMPCore@@XZ 000000018005d4d8 f i ArrayNodeImpl.obj
 0001:0005c4f4       ?insertNodeAtIndex@IArrayNode_I@AdobeXMPCore_Int@@$R2JA@CM@PPPPPPPM@GI@EAAXPEAVINode_v1@AdobeXMPCore@@_KAEAPEBVIError_v1@AdobeXMPCommon@@@Z 000000018005d4f4 f i ArrayNodeImpl.obj
 0001:0005c510       ?hasQualifiers@INode_I@AdobeXMPCore_Int@@$R2GA@CE@PPPPPPPM@DI@EBAKAEAPEBVIError_v1@AdobeXMPCommon@@@Z 000000018005d510 f i ArrayNodeImpl.obj
 0001:0005c52c       ?isQualifierNode@INode_I@AdobeXMPCore_Int@@$R2GA@CE@PPPPPPPM@DI@EBAKAEAPEBVIError_v1@AdobeXMPCommon@@@Z 000000018005d52c f i ArrayNodeImpl.obj
 0001:0005c548       ?getParentNodeType@INode_I@AdobeXMPCore_Int@@$R2GA@CE@PPPPPPPM@DI@EBAKAEAPEBVIError_v1@AdobeXMPCommon@@@Z 000000018005d548 f i ArrayNodeImpl.obj
 0001:0005c564       ?ConvertToSimpleNode@NodeImpl@AdobeXMPCore_Int@@$R4GA@DM@PPPPPPPM@KI@EAA?AV?$shared_ptr@VISimpleNode_v1@AdobeXMPCore@@@std@@XZ 000000018005d564 f i ArrayNodeImpl.obj
 0001:0005c564       ?ConvertToStructureNode@NodeImpl@AdobeXMPCore_Int@@$R4GA@DM@PPPPPPPM@KI@EAA?AV?$shared_ptr@VIStructureNode_v1@AdobeXMPCore@@@std@@XZ 000000018005d564 f i ArrayNodeImpl.obj
 0001:0005c564       ?ConvertToMetadata@NodeImpl@AdobeXMPCore_Int@@$R4GA@DM@PPPPPPPM@KI@EAA?AV?$shared_ptr@VIMetadata_v1@AdobeXMPCore@@@std@@XZ 000000018005d564 f i ArrayNodeImpl.obj
 0001:0005c580       ?clone@INode_I@AdobeXMPCore_Int@@$R2EA@CA@PPPPPPPM@DI@EBAPEAVINode_v1@AdobeXMPCore@@KKAEAPEBVIError_v1@AdobeXMPCommon@@@Z 000000018005d580 f i ArrayNodeImpl.obj
 0001:0005c59c       ?Clone@NodeImpl@AdobeXMPCore_Int@@$R4EA@DE@PPPPPPPM@KI@EBA?AV?$shared_ptr@VINode_v1@AdobeXMPCore@@@std@@_N0@Z 000000018005d59c f i ArrayNodeImpl.obj
 0001:0005c5b8       ?IsEmpty@NodeImpl@AdobeXMPCore_Int@@$R4EA@DE@PPPPPPPM@KI@EBA_NXZ 000000018005d5b8 f i ArrayNodeImpl.obj
 0001:0005c5d4       ?RemoveQualifier@NodeImpl@AdobeXMPCore_Int@@$R4EA@DE@PPPPPPPM@KI@EAA?AV?$shared_ptr@VINode_v1@AdobeXMPCore@@@std@@PEBD_K01@Z 000000018005d5d4 f i ArrayNodeImpl.obj
 0001:0005c5f0       ?GetPath@NodeImpl@AdobeXMPCore_Int@@$R4EA@DE@PPPPPPPM@KI@EBA?AV?$shared_ptr@VIPath_v1@AdobeXMPCore@@@std@@XZ 000000018005d5f0 f i ArrayNodeImpl.obj
 0001:0005c60c       ?convertToMetadata@INode_I@AdobeXMPCore_Int@@$R2KA@BM@PPPPPPPM@DI@EAAPEAVIMetadata_v1@AdobeXMPCore@@AEAPEBVIError_v1@AdobeXMPCommon@@@Z 000000018005d60c f i ArrayNodeImpl.obj
 0001:0005c628       ?IsArrayItem@NodeImpl@AdobeXMPCore_Int@@$4PPPPPPPM@A@EBA_NXZ 000000018005d628 f i ArrayNodeImpl.obj
 0001:0005c634       ?GetIPath_I@IPath_I@AdobeXMPCore_Int@@$4PPPPPPPM@A@EAAPEAV12@XZ 000000018005d634 f i PathImpl.obj
 0001:0005c634       ?GetINodeIterator_I@INodeIterator_I@AdobeXMPCore_Int@@$4PPPPPPPM@A@EAAPEAV12@XZ 000000018005d634 f i ArrayNodeImpl.obj
 0001:0005c640       ?getNodeAtIndex@IArrayNode_I@AdobeXMPCore_Int@@$2PPPPPPPM@A@EAAPEAVINode_v1@AdobeXMPCore@@_KAEAPEBVIError_v1@AdobeXMPCommon@@@Z 000000018005d640 f i ArrayNodeImpl.obj
 0001:0005c64c       ?convertToArrayNode@INode_I@AdobeXMPCore_Int@@$R2DI@CE@PPPPPPPM@DI@EAAPEAVIArrayNode_v1@AdobeXMPCore@@AEAPEBVIError_v1@AdobeXMPCommon@@@Z 000000018005d64c f i ArrayNodeImpl.obj
 0001:0005c664       ?removeQualifier@INode_I@AdobeXMPCore_Int@@$R2DI@CE@PPPPPPPM@DI@EAAPEAVINode_v1@AdobeXMPCore@@PEBD_K01AEAPEBVIError_v1@AdobeXMPCommon@@@Z 000000018005d664 f i ArrayNodeImpl.obj
 0001:0005c67c       ?GetActualICompositeNode@ICompositeNode_I@AdobeXMPCore_Int@@$4PPPPPPPM@A@EAAPEAVICompositeNode_v1@AdobeXMPCore@@XZ 000000018005d67c f i ArrayNodeImpl.obj
 0001:0005c67c       ?GetActualISimpleNode@ISimpleNode_I@AdobeXMPCore_Int@@$4PPPPPPPM@A@EAAPEAVISimpleNode_v1@AdobeXMPCore@@XZ 000000018005d67c f i SimpleNodeImpl.obj
 0001:0005c688       ?clear@INode_I@AdobeXMPCore_Int@@$R2DA@CA@PPPPPPPM@DI@EAAXKKAEAPEBVIError_v1@AdobeXMPCommon@@@Z 000000018005d688 f i ArrayNodeImpl.obj
 0001:0005c6a4       ?getNameSpace@INode_I@AdobeXMPCore_Int@@$2PPPPPPPM@A@EBAPEBVIUTF8String_v1@AdobeXMPCommon@@AEAPEBVIError_v1@4@@Z 000000018005d6a4 f i ArrayNodeImpl.obj
 0001:0005c6b0       ??_E?$TNodeIteratorImpl@V?$_Vector_iterator@V?$_Vector_val@U?$_Simple_types@V?$shared_ptr@VINode_v1@AdobeXMPCore@@@std@@@std@@@std@@@std@@@AdobeXMPCore_Int@@$2PPPPPPPM@BA@EAAPEAXI@Z 000000018005d6b0 f i ArrayNodeImpl.obj
 0001:0005c6c0       ?Release@SharedObjectImpl@AdobeXMPCore_Int@@$R4CA@BI@PPPPPPPM@CA@EBAXXZ 000000018005d6c0 f i ArrayNodeImpl.obj
 0001:0005c6d8       ?GetActualIArrayNode@IArrayNode_I@AdobeXMPCore_Int@@$R4JA@CM@PPPPPPPM@GI@EAAPEAVIArrayNode_v1@AdobeXMPCore@@XZ 000000018005d6d8 f i ArrayNodeImpl.obj
 0001:0005c6f4       ?GetInterfacePointer@IArrayNode_I@AdobeXMPCore_Int@@$R4EA@CM@PPPPPPPM@CA@EAAPEAX_KK@Z 000000018005d6f4 f i ArrayNodeImpl.obj
 0001:0005c710       ?Acquire@NodeImpl@AdobeXMPCore_Int@@$R4DA@DM@PPPPPPPM@HI@EBAXXZ 000000018005d710 f i ArrayNodeImpl.obj
 0001:0005c72c       ?convertToMetadata@INode_I@AdobeXMPCore_Int@@$R2EA@CA@PPPPPPPM@DI@EAAPEAVIMetadata_v1@AdobeXMPCore@@AEAPEBVIError_v1@AdobeXMPCommon@@@Z 000000018005d72c f i ArrayNodeImpl.obj
 0001:0005c748       ?ConvertToStructureNode@NodeImpl@AdobeXMPCore_Int@@$R4EA@DE@PPPPPPPM@KI@EAA?AV?$shared_ptr@VIStructureNode_v1@AdobeXMPCore@@@std@@XZ 000000018005d748 f i ArrayNodeImpl.obj
 0001:0005c748       ?ConvertToMetadata@NodeImpl@AdobeXMPCore_Int@@$R4EA@DE@PPPPPPPM@KI@EAA?AV?$shared_ptr@VIMetadata_v1@AdobeXMPCore@@@std@@XZ 000000018005d748 f i ArrayNodeImpl.obj
 0001:0005c748       ?ConvertToArrayNode@NodeImpl@AdobeXMPCore_Int@@$R4EA@DE@PPPPPPPM@KI@EAA?AV?$shared_ptr@VIArrayNode_v1@AdobeXMPCore@@@std@@XZ 000000018005d748 f i ArrayNodeImpl.obj
 0001:0005c748       ?ConvertToSimpleNode@NodeImpl@AdobeXMPCore_Int@@$R4EA@DE@PPPPPPPM@KI@EAA?AV?$shared_ptr@VISimpleNode_v1@AdobeXMPCore@@@std@@XZ 000000018005d748 f i ArrayNodeImpl.obj
 0001:0005c764       ?convertToSimpleNode@INode_I@AdobeXMPCore_Int@@$R2KA@BM@PPPPPPPM@DI@EAAPEAVISimpleNode_v1@AdobeXMPCore@@AEAPEBVIError_v1@AdobeXMPCommon@@@Z 000000018005d764 f i ArrayNodeImpl.obj
 0001:0005c780       ?getChildNodeType@IArrayNode_I@AdobeXMPCore_Int@@$2PPPPPPPM@A@EBAKAEAPEBVIError_v1@AdobeXMPCommon@@@Z 000000018005d780 f i ArrayNodeImpl.obj
 0001:0005c78c       ?getQualifier@INode_I@AdobeXMPCore_Int@@$R2DI@CE@PPPPPPPM@DI@EAAPEAVINode_v1@AdobeXMPCore@@PEBD_K01AEAPEBVIError_v1@AdobeXMPCommon@@@Z 000000018005d78c f i ArrayNodeImpl.obj
 0001:0005c7a4       ?getName@INode_I@AdobeXMPCore_Int@@$R2DI@CE@PPPPPPPM@DI@EBAPEBVIUTF8String_v1@AdobeXMPCommon@@AEAPEBVIError_v1@4@@Z 000000018005d7a4 f i ArrayNodeImpl.obj
 0001:0005c7bc       ?removeNodeAtPath@ICompositeNode_I@AdobeXMPCore_Int@@$2PPPPPPPM@A@EAAPEAVINode_v1@AdobeXMPCore@@PEBVIPath_v1@4@AEAPEBVIError_v1@AdobeXMPCommon@@@Z 000000018005d7bc f i ArrayNodeImpl.obj
 0001:0005c7c8       ?clone@INode_I@AdobeXMPCore_Int@@$2PPPPPPPM@A@EBAPEAVINode_v1@AdobeXMPCore@@KKAEAPEBVIError_v1@AdobeXMPCommon@@@Z 000000018005d7c8 f i ArrayNodeImpl.obj
 0001:0005c7d4       ?GetISharedObject_I@ISharedObject_I@AdobeXMPCommon_Int@@WPPPPPPMA@EAAPEAV12@XZ 000000018005d7d4 f i ArrayNodeImpl.obj
 0001:0005c7d4       ?GetIThreadSafe_I@IThreadSafe_I@AdobeXMPCommon_Int@@WPPPPPPMA@EAAPEAV12@XZ 000000018005d7d4 f i ArrayNodeImpl.obj
 0001:0005c7e0       ?GetINodeIterator_I@INodeIterator_I@AdobeXMPCore_Int@@$R4EA@BE@PPPPPPPM@CI@EAAPEAV12@XZ 000000018005d7e0 f i ArrayNodeImpl.obj
 0001:0005c7fc       ?getNodeType@INode_I@AdobeXMPCore_Int@@$R2GA@CE@PPPPPPPM@DI@EBAKAEAPEBVIError_v1@AdobeXMPCommon@@@Z 000000018005d7fc f i ArrayNodeImpl.obj
 0001:0005c818       ?replaceQualifier@INode_I@AdobeXMPCore_Int@@$R2GA@CE@PPPPPPPM@DI@EAAPEAVINode_v1@AdobeXMPCore@@PEAV34@AEAPEBVIError_v1@AdobeXMPCommon@@@Z 000000018005d818 f i ArrayNodeImpl.obj
 0001:0005c834       ?GetQualifier@NodeImpl@AdobeXMPCore_Int@@$R4GA@DM@PPPPPPPM@KI@EAA?AV?$shared_ptr@VINode_v1@AdobeXMPCore@@@std@@PEBD_K01@Z 000000018005d834 f i ArrayNodeImpl.obj
 0001:0005c850       ?EnableThreadSafety@ThreadSafeImpl@AdobeXMPCore_Int@@$R2FA@DI@PPPPPPPM@CI@EBAXXZ 000000018005d850 f i ArrayNodeImpl.obj
 0001:0005c86c       ?convertToSimpleNode@INode_I@AdobeXMPCore_Int@@$R2EA@CA@PPPPPPPM@DI@EAAPEAVISimpleNode_v1@AdobeXMPCore@@AEAPEBVIError_v1@AdobeXMPCommon@@@Z 000000018005d86c f i ArrayNodeImpl.obj
 0001:0005c888       ?GetIThreadSafe_I@IThreadSafe_I@AdobeXMPCommon_Int@@$R4JA@BI@PPPPPPPM@BA@EAAPEAV12@XZ 000000018005d888 f i ArrayNodeImpl.obj
 0001:0005c8a4       ?isArrayItem@INode_I@AdobeXMPCore_Int@@$R2DI@CE@PPPPPPPM@DI@EBAKAEAPEBVIError_v1@AdobeXMPCommon@@@Z 000000018005d8a4 f i ArrayNodeImpl.obj
 0001:0005c8bc       ?convertToMetadata@INode_I@AdobeXMPCore_Int@@$2PPPPPPPM@A@EAAPEAVIMetadata_v1@AdobeXMPCore@@AEAPEBVIError_v1@AdobeXMPCommon@@@Z 000000018005d8bc f i ArrayNodeImpl.obj
 0001:0005c8c8       ?GetNodeAtIndex@ArrayNodeImpl@AdobeXMPCore_Int@@$4PPPPPPPM@A@EAA?AV?$shared_ptr@VINode_v1@AdobeXMPCore@@@std@@_K@Z 000000018005d8c8 f i ArrayNodeImpl.obj
 0001:0005c8d4       ?GetArrayForm@ArrayNodeImpl@AdobeXMPCore_Int@@$4PPPPPPPM@A@EBA?AW4eArrayForm@IArrayNode_v1@AdobeXMPCore@@XZ 000000018005d8d4 f i ArrayNodeImpl.obj
 0001:0005c8e0       ?iterator@ICompositeNode_I@AdobeXMPCore_Int@@$R2HI@CI@PPPPPPPM@EI@EAAPEAVINodeIterator_v1@AdobeXMPCore@@AEAPEBVIError_v1@AdobeXMPCommon@@@Z 000000018005d8e0 f i ArrayNodeImpl.obj
 0001:0005c8fc       ?insertQualifier@INode_I@AdobeXMPCore_Int@@$R2GA@CE@PPPPPPPM@DI@EAAXPEAVINode_v1@AdobeXMPCore@@AEAPEBVIError_v1@AdobeXMPCommon@@@Z 000000018005d8fc f i ArrayNodeImpl.obj
 0001:0005c918       ?GetName@NodeImpl@AdobeXMPCore_Int@@$R4GA@DM@PPPPPPPM@KI@EBA?AV?$shared_ptr@$$CBVIUTF8String_v1@AdobeXMPCommon@@@std@@XZ 000000018005d918 f i ArrayNodeImpl.obj
 0001:0005c934       ?GetParent@NodeImpl@AdobeXMPCore_Int@@$R4GA@DM@PPPPPPPM@KI@EAA?AV?$shared_ptr@VINode_v1@AdobeXMPCore@@@std@@XZ 000000018005d934 f i ArrayNodeImpl.obj
 0001:0005c950       ?GetICompositeNode_I@ICompositeNode_I@AdobeXMPCore_Int@@$R4FI@CE@PPPPPPPM@EI@EAAPEAV12@XZ 000000018005d950 f i ArrayNodeImpl.obj
 0001:0005c96c       ?GetNameSpace@NodeImpl@AdobeXMPCore_Int@@$R4EA@DE@PPPPPPPM@KI@EBA?AV?$shared_ptr@$$CBVIUTF8String_v1@AdobeXMPCommon@@@std@@XZ 000000018005d96c f i ArrayNodeImpl.obj
 0001:0005c988       ?SetName@NodeImpl@AdobeXMPCore_Int@@$R4EA@DE@PPPPPPPM@KI@EAAXPEBD_K@Z 000000018005d988 f i ArrayNodeImpl.obj
 0001:0005c9a4       ?GetIThreadSafe_I@IThreadSafe_I@AdobeXMPCommon_Int@@$R4DA@BM@PPPPPPPM@BA@EAAPEAV12@XZ 000000018005d9a4 f i ArrayNodeImpl.obj
 0001:0005c9c0       ?AcquireInternal@NodeImpl@AdobeXMPCore_Int@@$4PPPPPPPM@A@EBAXXZ 000000018005d9c0 f i ArrayNodeImpl.obj
 0001:0005c9cc       ?convertToArrayNode@INode_I@AdobeXMPCore_Int@@$R2KA@BM@PPPPPPPM@DI@EAAPEAVIArrayNode_v1@AdobeXMPCore@@AEAPEBVIError_v1@AdobeXMPCommon@@@Z 000000018005d9cc f i ArrayNodeImpl.obj
 0001:0005c9e8       ?removeQualifier@INode_I@AdobeXMPCore_Int@@$R2KA@BM@PPPPPPPM@DI@EAAPEAVINode_v1@AdobeXMPCore@@PEBD_K01AEAPEBVIError_v1@AdobeXMPCommon@@@Z 000000018005d9e8 f i ArrayNodeImpl.obj
 0001:0005ca04       ?DisableThreadSafety@ThreadSafeImpl@AdobeXMPCore_Int@@$2PPPPPPPM@A@EBAXXZ 000000018005da04 f i ArrayNodeImpl.obj
 0001:0005ca10       ?getInterfacePointer@INodeIterator_I@AdobeXMPCore_Int@@$2PPPPPPPM@A@EAAPEAX_KKAEAPEBVIError_v1@AdobeXMPCommon@@@Z 000000018005da10 f i ArrayNodeImpl.obj
 0001:0005ca1c       ??_EIArrayNode_I@AdobeXMPCore_Int@@$2PPPPPPPM@A@EAAPEAXI@Z 000000018005da1c f i ArrayNodeImpl.obj
 0001:0005ca28       ?getQualifierNodeType@INode_I@AdobeXMPCore_Int@@$R2DA@CA@PPPPPPPM@DI@EBAKPEBD_K01AEAPEBVIError_v1@AdobeXMPCommon@@@Z 000000018005da28 f i ArrayNodeImpl.obj
 0001:0005ca44       ?qualifiersIterator@INode_I@AdobeXMPCore_Int@@$R2DA@CA@PPPPPPPM@DI@EAAPEAVINodeIterator_v1@AdobeXMPCore@@AEAPEBVIError_v1@AdobeXMPCommon@@@Z 000000018005da44 f i ArrayNodeImpl.obj
 0001:0005ca60       ??_EICompositeNode_I@AdobeXMPCore_Int@@$2PPPPPPPM@BA@EAAPEAXI@Z 000000018005da60 f i ArrayNodeImpl.obj
 0001:0005ca70       ?convertToSimpleNode@INode_I@AdobeXMPCore_Int@@$2PPPPPPPM@A@EAAPEAVISimpleNode_v1@AdobeXMPCore@@AEAPEBVIError_v1@AdobeXMPCommon@@@Z 000000018005da70 f i ArrayNodeImpl.obj
 0001:0005ca7c       ??_EINode_I@AdobeXMPCore_Int@@$2PPPPPPPM@BA@EAAPEAXI@Z 000000018005da7c f i ArrayNodeImpl.obj
 0001:0005ca8c       ?getInterfacePointer@INodeIterator_I@AdobeXMPCore_Int@@$R2DA@BE@PPPPPPPM@BI@EAAPEAX_KKAEAPEBVIError_v1@AdobeXMPCommon@@@Z 000000018005da8c f i ArrayNodeImpl.obj
 0001:0005caa8       ?getNameSpace@INode_I@AdobeXMPCore_Int@@$R2GA@CE@PPPPPPPM@DI@EBAPEBVIUTF8String_v1@AdobeXMPCommon@@AEAPEBVIError_v1@4@@Z 000000018005daa8 f i ArrayNodeImpl.obj
 0001:0005cac4       ?HasChanged@NodeImpl@AdobeXMPCore_Int@@$R4GA@DM@PPPPPPPM@KI@EBA_NXZ 000000018005dac4 f i ArrayNodeImpl.obj
 0001:0005cae0       ?QualifiersIterator@NodeImpl@AdobeXMPCore_Int@@$R4GA@DM@PPPPPPPM@KI@EAA?AV?$shared_ptr@VINodeIterator_v1@AdobeXMPCore@@@std@@XZ 000000018005dae0 f i ArrayNodeImpl.obj
 0001:0005cafc       ?convertToArrayNode@INode_I@AdobeXMPCore_Int@@$R2EA@CA@PPPPPPPM@DI@EAAPEAVIArrayNode_v1@AdobeXMPCore@@AEAPEBVIError_v1@AdobeXMPCommon@@@Z 000000018005dafc f i ArrayNodeImpl.obj
 0001:0005cb18       ?removeQualifier@INode_I@AdobeXMPCore_Int@@$R2EA@CA@PPPPPPPM@DI@EAAPEAVINode_v1@AdobeXMPCore@@PEBD_K01AEAPEBVIError_v1@AdobeXMPCommon@@@Z 000000018005db18 f i ArrayNodeImpl.obj
 0001:0005cb34       ?AcknowledgeChanges@NodeImpl@AdobeXMPCore_Int@@$R4EA@DE@PPPPPPPM@KI@EBAXXZ 000000018005db34 f i ArrayNodeImpl.obj
 0001:0005cb50       ?getQualifier@INode_I@AdobeXMPCore_Int@@$R2KA@BM@PPPPPPPM@DI@EAAPEAVINode_v1@AdobeXMPCore@@PEBD_K01AEAPEBVIError_v1@AdobeXMPCommon@@@Z 000000018005db50 f i ArrayNodeImpl.obj
 0001:0005cb6c       ?getName@INode_I@AdobeXMPCore_Int@@$R2KA@BM@PPPPPPPM@DI@EBAPEBVIUTF8String_v1@AdobeXMPCommon@@AEAPEBVIError_v1@4@@Z 000000018005db6c f i ArrayNodeImpl.obj
 0001:0005cb88       ?GetParent@MetadataImpl@AdobeXMPCore_Int@@$2PPPPPPPM@A@EAA?AV?$shared_ptr@VINode_v1@AdobeXMPCore@@@std@@XZ 000000018005db88 f i MetadataImpl.obj
 0001:0005cb88       ?ConvertToStructureNode@NodeImpl@AdobeXMPCore_Int@@$4PPPPPPPM@A@EAA?AV?$shared_ptr@VIStructureNode_v1@AdobeXMPCore@@@std@@XZ 000000018005db88 f i ArrayNodeImpl.obj
 0001:0005cb88       ?ConvertToSimpleNode@NodeImpl@AdobeXMPCore_Int@@$4PPPPPPPM@A@EAA?AV?$shared_ptr@VISimpleNode_v1@AdobeXMPCore@@@std@@XZ 000000018005db88 f i ArrayNodeImpl.obj
 0001:0005cb88       ?ConvertToMetadata@NodeImpl@AdobeXMPCore_Int@@$4PPPPPPPM@A@EAA?AV?$shared_ptr@VIMetadata_v1@AdobeXMPCore@@@std@@XZ 000000018005db88 f i ArrayNodeImpl.obj
 0001:0005cb88       ?SerializeInternal@ClientDOMSerializerWrapperImpl@AdobeXMPCore_Int@@$4PPPPPPPM@A@EBA?AV?$shared_ptr@VIUTF8String_v1@AdobeXMPCommon@@@std@@AEBV?$shared_ptr@VINode_v1@AdobeXMPCore@@@4@K_KPEBD21AEBV?$shared_ptr@$$CBVINameSpacePrefixMap_v1@AdobeXMPCore@@@4@@Z 000000018005db88 f i ClientDOMSerializerWrapperImpl.obj
 0001:0005cb88       ?ConvertToArrayNode@NodeImpl@AdobeXMPCore_Int@@$4PPPPPPPM@A@EAA?AV?$shared_ptr@VIArrayNode_v1@AdobeXMPCore@@@std@@XZ 000000018005db88 f i ArrayNodeImpl.obj
 0001:0005cb94       ?Release@SharedObjectImpl@AdobeXMPCore_Int@@$4PPPPPPPM@A@EBAXXZ 000000018005db94 f i ArrayNodeImpl.obj
 0001:0005cba0       ?appendNode@ICompositeNode_I@AdobeXMPCore_Int@@$R2FA@CI@PPPPPPPM@EI@EAAXPEAVINode_v1@AdobeXMPCore@@AEAPEBVIError_v1@AdobeXMPCommon@@@Z 000000018005dba0 f i ArrayNodeImpl.obj
 0001:0005cbbc       ?GetActualINode@INode_I@AdobeXMPCore_Int@@$R4DA@CA@PPPPPPPM@DI@EAAPEAVINode_v1@AdobeXMPCore@@XZ 000000018005dbbc f i ArrayNodeImpl.obj
 0001:0005cbd8       ??_EIArrayNode_v1@AdobeXMPCore@@O7EAAPEAXI@Z 000000018005dbd8 f i ArrayNodeImpl.obj
 0001:0005cbe4       ?clone@INode_I@AdobeXMPCore_Int@@$R2GA@CE@PPPPPPPM@DI@EBAPEAVINode_v1@AdobeXMPCore@@KKAEAPEBVIError_v1@AdobeXMPCommon@@@Z 000000018005dbe4 f i ArrayNodeImpl.obj
 0001:0005cc00       ?SetNameSpace@NodeImpl@AdobeXMPCore_Int@@$R4GA@DM@PPPPPPPM@KI@EAAXPEBD_K@Z 000000018005dc00 f i ArrayNodeImpl.obj
 0001:0005cc1c       ?ChangeParent@NodeImpl@AdobeXMPCore_Int@@$R4KA@DE@PPPPPPPM@PA@EAAXPEAVINode_v1@AdobeXMPCore@@@Z 000000018005dc1c f i ArrayNodeImpl.obj
 0001:0005cc38       ?getQualifier@INode_I@AdobeXMPCore_Int@@$R2EA@CA@PPPPPPPM@DI@EAAPEAVINode_v1@AdobeXMPCore@@PEBD_K01AEAPEBVIError_v1@AdobeXMPCommon@@@Z 000000018005dc38 f i ArrayNodeImpl.obj
 0001:0005cc54       ?getName@INode_I@AdobeXMPCore_Int@@$R2EA@CA@PPPPPPPM@DI@EBAPEBVIUTF8String_v1@AdobeXMPCommon@@AEAPEBVIError_v1@4@@Z 000000018005dc54 f i ArrayNodeImpl.obj
 0001:0005cc70       ?QualifiersCount@NodeImpl@AdobeXMPCore_Int@@$R4EA@DE@PPPPPPPM@KI@EBA_KXZ 000000018005dc70 f i ArrayNodeImpl.obj
 0001:0005cc8c       ?isArrayItem@INode_I@AdobeXMPCore_Int@@$R2KA@BM@PPPPPPPM@DI@EBAKAEAPEBVIError_v1@AdobeXMPCommon@@@Z 000000018005dc8c f i ArrayNodeImpl.obj
 0001:0005cca8       ?InsertQualifier@NodeImpl@AdobeXMPCore_Int@@$4PPPPPPPM@A@EAAXAEBV?$shared_ptr@VINode_v1@AdobeXMPCore@@@std@@@Z 000000018005dca8 f i ArrayNodeImpl.obj
 0001:0005ccb4       ??_ENodeImpl@AdobeXMPCore_Int@@$2PPPPPPPM@BA@EAAPEAXI@Z 000000018005dcb4 f i ArrayNodeImpl.obj
 0001:0005ccc4       ?setNameSpace@INode_I@AdobeXMPCore_Int@@$R2DI@CE@PPPPPPPM@DI@EAAXPEBD_KAEAPEBVIError_v1@AdobeXMPCommon@@@Z 000000018005dcc4 f i ArrayNodeImpl.obj
 0001:0005ccdc       ?convertToArrayNode@INode_I@AdobeXMPCore_Int@@$2PPPPPPPM@A@EAAPEAVIArrayNode_v1@AdobeXMPCore@@AEAPEBVIError_v1@AdobeXMPCommon@@@Z 000000018005dcdc f i ArrayNodeImpl.obj
 0001:0005cce8       ?removeQualifier@INode_I@AdobeXMPCore_Int@@$2PPPPPPPM@A@EAAPEAVINode_v1@AdobeXMPCore@@PEBD_K01AEAPEBVIError_v1@AdobeXMPCommon@@@Z 000000018005dce8 f i ArrayNodeImpl.obj
 0001:0005ccf4       ?getInterfacePointer@INode_I@AdobeXMPCore_Int@@$2PPPPPPPM@A@EAAPEAX_KKAEAPEBVIError_v1@AdobeXMPCommon@@@Z 000000018005dcf4 f i ArrayNodeImpl.obj
 0001:0005cd00       ?convertToMetadata@INode_I@AdobeXMPCore_Int@@$R2GA@CE@PPPPPPPM@DI@EAAPEAVIMetadata_v1@AdobeXMPCore@@AEAPEBVIError_v1@AdobeXMPCommon@@@Z 000000018005dd00 f i ArrayNodeImpl.obj
 0001:0005cd1c       ?GetQualifier@NodeImpl@AdobeXMPCore_Int@@$R4KA@DE@PPPPPPPM@PA@EAA?AV?$shared_ptr@VINode_v1@AdobeXMPCore@@@std@@AEBV?$shared_ptr@$$CBVIUTF8String_v1@AdobeXMPCommon@@@4@0@Z 000000018005dd1c f i ArrayNodeImpl.obj
 0001:0005cd38       ?isArrayItem@INode_I@AdobeXMPCore_Int@@$R2EA@CA@PPPPPPPM@DI@EBAKAEAPEBVIError_v1@AdobeXMPCommon@@@Z 000000018005dd38 f i ArrayNodeImpl.obj
 0001:0005cd54       ?GetQualifierNodeType@NodeImpl@AdobeXMPCore_Int@@$R4EA@DE@PPPPPPPM@KI@EBA?AW4eNodeType@INode_v1@AdobeXMPCore@@PEBD_K01@Z 000000018005dd54 f i ArrayNodeImpl.obj
 0001:0005cd70       ?GetINode_I@INode_I@AdobeXMPCore_Int@@$R4DI@CE@PPPPPPPM@DI@EAAPEAV12@XZ 000000018005dd70 f i ArrayNodeImpl.obj
 0001:0005cd88       ?getQualifier@INode_I@AdobeXMPCore_Int@@$2PPPPPPPM@A@EAAPEAVINode_v1@AdobeXMPCore@@PEBD_K01AEAPEBVIError_v1@AdobeXMPCommon@@@Z 000000018005dd88 f i ArrayNodeImpl.obj
 0001:0005cd94       ?getName@INode_I@AdobeXMPCore_Int@@$2PPPPPPPM@A@EBAPEBVIUTF8String_v1@AdobeXMPCommon@@AEAPEBVIError_v1@4@@Z 000000018005dd94 f i ArrayNodeImpl.obj
 0001:0005cda0       ?ChangeParent@NodeImpl@AdobeXMPCore_Int@@$R4NI@DM@PPPPPPPM@PA@EAAXPEAVINode_v1@AdobeXMPCore@@@Z 000000018005dda0 f i ArrayNodeImpl.obj
 0001:0005cdbc       ?getArrayForm@IArrayNode_I@AdobeXMPCore_Int@@$R2JA@CM@PPPPPPPM@GI@EBAKAEAPEBVIError_v1@AdobeXMPCommon@@@Z 000000018005ddbc f i ArrayNodeImpl.obj
 0001:0005cdd8       ?convertToSimpleNode@INode_I@AdobeXMPCore_Int@@$R2GA@CE@PPPPPPPM@DI@EAAPEAVISimpleNode_v1@AdobeXMPCore@@AEAPEBVIError_v1@AdobeXMPCommon@@@Z 000000018005ddd8 f i ArrayNodeImpl.obj
 0001:0005cdf4       ?ReplaceQualifier@NodeImpl@AdobeXMPCore_Int@@$R4GA@DM@PPPPPPPM@KI@EAA?AV?$shared_ptr@VINode_v1@AdobeXMPCore@@@std@@AEBV34@@Z 000000018005ddf4 f i ArrayNodeImpl.obj
 0001:0005ce10       ?SetQualifiers@NodeImpl@AdobeXMPCore_Int@@$R4KA@DE@PPPPPPPM@PA@EAAXAEBV?$shared_ptr@VIStructureNode_v1@AdobeXMPCore@@@std@@@Z 000000018005de10 f i ArrayNodeImpl.obj
 0001:0005ce2c       ?IsArrayItem@NodeImpl@AdobeXMPCore_Int@@$R4EA@DE@PPPPPPPM@KI@EBA_NXZ 000000018005de2c f i ArrayNodeImpl.obj
 0001:0005ce48       ?IsThreadSafe@ThreadSafeImpl@AdobeXMPCore_Int@@$R2JA@CI@PPPPPPPM@CI@EBA_NXZ 000000018005de48 f i ArrayNodeImpl.obj
 0001:0005ce64       ?getNodeType@INodeIterator_I@AdobeXMPCore_Int@@$2PPPPPPPM@A@EBAKAEAPEBVIError_v1@AdobeXMPCommon@@@Z 000000018005de64 f i ArrayNodeImpl.obj
 0001:0005ce70       ?replaceNodeAtIndex@IArrayNode_I@AdobeXMPCore_Int@@$2PPPPPPPM@A@EAAPEAVINode_v1@AdobeXMPCore@@PEAV34@_KAEAPEBVIError_v1@AdobeXMPCommon@@@Z 000000018005de70 f i ArrayNodeImpl.obj
 0001:0005ce7c       ?convertToStructureNode@INode_I@AdobeXMPCore_Int@@$R2DA@CA@PPPPPPPM@DI@EAAPEAVIStructureNode_v1@AdobeXMPCore@@AEAPEBVIError_v1@AdobeXMPCommon@@@Z 000000018005de7c f i ArrayNodeImpl.obj
 0001:0005ce98       ?hasChanged@INode_I@AdobeXMPCore_Int@@$R2DA@CA@PPPPPPPM@DI@EBAKAEAPEBVIError_v1@AdobeXMPCommon@@@Z 000000018005de98 f i ArrayNodeImpl.obj
 0001:0005ceb4       ?isArrayItem@INode_I@AdobeXMPCore_Int@@$2PPPPPPPM@A@EBAKAEAPEBVIError_v1@AdobeXMPCommon@@@Z 000000018005deb4 f i ArrayNodeImpl.obj
 0001:0005cec0       ?GetQualifier@NodeImpl@AdobeXMPCore_Int@@$R4NI@DM@PPPPPPPM@PA@EAA?AV?$shared_ptr@VINode_v1@AdobeXMPCore@@@std@@AEBV?$shared_ptr@$$CBVIUTF8String_v1@AdobeXMPCommon@@@4@0@Z 000000018005dec0 f i ArrayNodeImpl.obj
 0001:0005cedc       ?GetIArrayNode_I@IArrayNode_I@AdobeXMPCore_Int@@$R4JA@CM@PPPPPPPM@GI@EAAPEAV12@XZ 000000018005dedc f i ArrayNodeImpl.obj
 0001:0005cef8       ?GetICompositeNode_I@ICompositeNode_I@AdobeXMPCore_Int@@$R4HI@CI@PPPPPPPM@EI@EAAPEAV12@XZ 000000018005def8 f i ArrayNodeImpl.obj
 0001:0005cf14       ?Clear@NodeImpl@AdobeXMPCore_Int@@$R4GA@DM@PPPPPPPM@KI@EAAX_N0@Z 000000018005df14 f i ArrayNodeImpl.obj
 0001:0005cf30       ?IsQualifierNode@NodeImpl@AdobeXMPCore_Int@@$R4GA@DM@PPPPPPPM@KI@EBA_NXZ 000000018005df30 f i ArrayNodeImpl.obj
 0001:0005cf4c       ?GetIThreadSafe_I@IThreadSafe_I@AdobeXMPCommon_Int@@$R4FA@CA@PPPPPPPM@BA@EAAPEAV12@XZ 000000018005df4c f i ArrayNodeImpl.obj
 0001:0005cf68       ?ValidateNameOrNameSpaceChangeForAChild@NodeImpl@AdobeXMPCore_Int@@$R4KA@DE@PPPPPPPM@PA@EAA_NAEBV?$shared_ptr@$$CBVIUTF8String_v1@AdobeXMPCommon@@@std@@000@Z 000000018005df68 f i ArrayNodeImpl.obj
 0001:0005cf84       ?appendNode@ICompositeNode_I@AdobeXMPCore_Int@@$R2FI@CE@PPPPPPPM@EI@EAAXPEAVINode_v1@AdobeXMPCore@@AEAPEBVIError_v1@AdobeXMPCommon@@@Z 000000018005df84 f i ArrayNodeImpl.obj
 0001:0005cfa0       ?ReplaceNodeAtPath@CompositeNodeImpl@AdobeXMPCore_Int@@$4PPPPPPPM@A@EAA?AV?$shared_ptr@VINode_v1@AdobeXMPCore@@@std@@AEBV34@AEBV?$shared_ptr@$$CBVIPath_v1@AdobeXMPCore@@@4@@Z 000000018005dfa0 f i ArrayNodeImpl.obj
 0001:0005cfac       ?setNameSpace@INode_I@AdobeXMPCore_Int@@$R2KA@BM@PPPPPPPM@DI@EAAXPEBD_KAEAPEBVIError_v1@AdobeXMPCommon@@@Z 000000018005dfac f i ArrayNodeImpl.obj
 0001:0005cfc8       ?GetActualICompositeNode@ICompositeNode_I@AdobeXMPCore_Int@@$R4FA@CI@PPPPPPPM@EI@EAAPEAVICompositeNode_v1@AdobeXMPCore@@XZ 000000018005dfc8 f i ArrayNodeImpl.obj
 0001:0005cfe4       ?isEmpty@INode_I@AdobeXMPCore_Int@@$R2DI@CE@PPPPPPPM@DI@EBAKAEAPEBVIError_v1@AdobeXMPCommon@@@Z 000000018005dfe4 f i ArrayNodeImpl.obj
 0001:0005cffc       ?getParent@INode_I@AdobeXMPCore_Int@@$R2DI@CE@PPPPPPPM@DI@EAAPEAVINode_v1@AdobeXMPCore@@AEAPEBVIError_v1@AdobeXMPCommon@@@Z 000000018005dffc f i ArrayNodeImpl.obj
 0001:0005d014       ?GetIThreadSafe_I@IThreadSafe_I@AdobeXMPCommon_Int@@WPPPPPPKI@EAAPEAV12@XZ 000000018005e014 f i ArrayNodeImpl.obj
 0001:0005d020       ?getNodeType@INodeIterator_I@AdobeXMPCore_Int@@$R2EA@BE@PPPPPPPM@CI@EBAKAEAPEBVIError_v1@AdobeXMPCommon@@@Z 000000018005e020 f i ArrayNodeImpl.obj
 0001:0005d03c       ?SetQualifiers@NodeImpl@AdobeXMPCore_Int@@$R4NI@DM@PPPPPPPM@PA@EAAXAEBV?$shared_ptr@VIStructureNode_v1@AdobeXMPCore@@@std@@@Z 000000018005e03c f i ArrayNodeImpl.obj
 0001:0005d058       ?convertToArrayNode@INode_I@AdobeXMPCore_Int@@$R2GA@CE@PPPPPPPM@DI@EAAPEAVIArrayNode_v1@AdobeXMPCore@@AEAPEBVIError_v1@AdobeXMPCommon@@@Z 000000018005e058 f i ArrayNodeImpl.obj
 0001:0005d074       ?removeQualifier@INode_I@AdobeXMPCore_Int@@$R2GA@CE@PPPPPPPM@DI@EAAPEAVINode_v1@AdobeXMPCore@@PEBD_K01AEAPEBVIError_v1@AdobeXMPCommon@@@Z 000000018005e074 f i ArrayNodeImpl.obj
 0001:0005d090       ?Clone@NodeImpl@AdobeXMPCore_Int@@$R4GA@DM@PPPPPPPM@KI@EBA?AV?$shared_ptr@VINode_v1@AdobeXMPCore@@@std@@_N0@Z 000000018005e090 f i ArrayNodeImpl.obj
 0001:0005d0ac       ?IsEmpty@NodeImpl@AdobeXMPCore_Int@@$R4GA@DM@PPPPPPPM@KI@EBA_NXZ 000000018005e0ac f i ArrayNodeImpl.obj
 0001:0005d0c8       ?RemoveQualifier@NodeImpl@AdobeXMPCore_Int@@$R4GA@DM@PPPPPPPM@KI@EAA?AV?$shared_ptr@VINode_v1@AdobeXMPCore@@@std@@PEBD_K01@Z 000000018005e0c8 f i ArrayNodeImpl.obj
 0001:0005d0e4       ?GetPath@NodeImpl@AdobeXMPCore_Int@@$R4GA@DM@PPPPPPPM@KI@EBA?AV?$shared_ptr@VIPath_v1@AdobeXMPCore@@@std@@XZ 000000018005e0e4 f i ArrayNodeImpl.obj
 0001:0005d100       ?setNameSpace@INode_I@AdobeXMPCore_Int@@$R2EA@CA@PPPPPPPM@DI@EAAXPEBD_KAEAPEBVIError_v1@AdobeXMPCommon@@@Z 000000018005e100 f i ArrayNodeImpl.obj
 0001:0005d11c       ?GetRawParentPointer@NodeImpl@AdobeXMPCore_Int@@$4PPPPPPPM@A@EAAPEAVINode_v1@AdobeXMPCore@@XZ 000000018005e11c f i ArrayNodeImpl.obj
 0001:0005d128       ?GetINode_I@INode_I@AdobeXMPCore_Int@@$R4KA@BM@PPPPPPPM@DI@EAAPEAV12@XZ 000000018005e128 f i ArrayNodeImpl.obj
 0001:0005d144       ?HasQualifiers@NodeImpl@AdobeXMPCore_Int@@$4PPPPPPPM@A@EBA_NXZ 000000018005e144 f i ArrayNodeImpl.obj
 0001:0005d150       ?getInterfacePointer@INode_I@AdobeXMPCore_Int@@$R2IA@BM@PPPPPPPM@CA@EAAPEAX_KKAEAPEBVIError_v1@AdobeXMPCommon@@@Z 000000018005e150 f i ArrayNodeImpl.obj
 0001:0005d16c       ?isThreadSafe@IThreadSafe_I@AdobeXMPCommon_Int@@$R4CA@7PPPPPPPM@BA@EBAKXZ 000000018005e16c f i ArrayNodeImpl.obj
 0001:0005d188       ?removeNodeAtPath@ICompositeNode_I@AdobeXMPCore_Int@@$R2FA@CI@PPPPPPPM@EI@EAAPEAVINode_v1@AdobeXMPCore@@PEBVIPath_v1@4@AEAPEBVIError_v1@AdobeXMPCommon@@@Z 000000018005e188 f i ArrayNodeImpl.obj
 0001:0005d1a4       ?setName@INode_I@AdobeXMPCore_Int@@$R2DI@CE@PPPPPPPM@DI@EAAXPEBD_KAEAPEBVIError_v1@AdobeXMPCommon@@@Z 000000018005e1a4 f i ArrayNodeImpl.obj
 0001:0005d1bc       ?replaceNodeAtPath@ICompositeNode_I@AdobeXMPCore_Int@@$2PPPPPPPM@A@EAAPEAVINode_v1@AdobeXMPCore@@PEAV34@PEBVIPath_v1@4@AEAPEBVIError_v1@AdobeXMPCommon@@@Z 000000018005e1bc f i ArrayNodeImpl.obj
 0001:0005d1c8       ?getPath@INode_I@AdobeXMPCore_Int@@$R2DA@CA@PPPPPPPM@DI@EBAPEAVIPath_v1@AdobeXMPCore@@AEAPEBVIError_v1@AdobeXMPCommon@@@Z 000000018005e1c8 f i ArrayNodeImpl.obj
 0001:0005d1e4       ?ValidateNameOrNameSpaceChangeForAChild@NodeImpl@AdobeXMPCore_Int@@$R4NI@DM@PPPPPPPM@PA@EAA_NAEBV?$shared_ptr@$$CBVIUTF8String_v1@AdobeXMPCommon@@@std@@000@Z 000000018005e1e4 f i ArrayNodeImpl.obj
 0001:0005d200       ?getQualifier@INode_I@AdobeXMPCore_Int@@$R2GA@CE@PPPPPPPM@DI@EAAPEAVINode_v1@AdobeXMPCore@@PEBD_K01AEAPEBVIError_v1@AdobeXMPCommon@@@Z 000000018005e200 f i ArrayNodeImpl.obj
 0001:0005d21c       ?getName@INode_I@AdobeXMPCore_Int@@$R2GA@CE@PPPPPPPM@DI@EBAPEBVIUTF8String_v1@AdobeXMPCommon@@AEAPEBVIError_v1@4@@Z 000000018005e21c f i ArrayNodeImpl.obj
 0001:0005d238       ?GetISharedObject_I@IArrayNode_I@AdobeXMPCore_Int@@$R4DA@CM@PPPPPPPM@BA@EAAPEAVISharedObject_I@AdobeXMPCommon_Int@@XZ 000000018005e238 f i ArrayNodeImpl.obj
 0001:0005d254       ?GetINode_I@INode_I@AdobeXMPCore_Int@@$R4EA@CA@PPPPPPPM@DI@EAAPEAV12@XZ 000000018005e254 f i ArrayNodeImpl.obj
 0001:0005d270       ??_ECompositeNodeImpl@AdobeXMPCore_Int@@$2PPPPPPPM@A@EAAPEAXI@Z 000000018005e270 f i ArrayNodeImpl.obj
 0001:0005d27c       ?EnableThreadSafety@ThreadSafeImpl@AdobeXMPCore_Int@@$2PPPPPPPM@A@EBAXXZ 000000018005e27c f i ArrayNodeImpl.obj
 0001:0005d288       ?next@INodeIterator_I@AdobeXMPCore_Int@@$2PPPPPPPM@A@EAAPEAVINodeIterator_v1@AdobeXMPCore@@AEAPEBVIError_v1@AdobeXMPCommon@@@Z 000000018005e288 f i ArrayNodeImpl.obj
 0001:0005d294       ?hasContent@INode_I@AdobeXMPCore_Int@@$R2DI@CE@PPPPPPPM@DI@EBAKAEAPEBVIError_v1@AdobeXMPCommon@@@Z 000000018005e294 f i ArrayNodeImpl.obj
 0001:0005d2ac       ?getIndex@INode_I@AdobeXMPCore_Int@@$R2DI@CE@PPPPPPPM@DI@EBA_KAEAPEBVIError_v1@AdobeXMPCommon@@@Z 000000018005e2ac f i ArrayNodeImpl.obj
 0001:0005d2c4       ?hasQualifiers@INode_I@AdobeXMPCore_Int@@$R2DA@CA@PPPPPPPM@DI@EBAKAEAPEBVIError_v1@AdobeXMPCommon@@@Z 000000018005e2c4 f i ArrayNodeImpl.obj
 0001:0005d2e0       ?isQualifierNode@INode_I@AdobeXMPCore_Int@@$R2DA@CA@PPPPPPPM@DI@EBAKAEAPEBVIError_v1@AdobeXMPCommon@@@Z 000000018005e2e0 f i ArrayNodeImpl.obj
 0001:0005d2fc       ?getParentNodeType@INode_I@AdobeXMPCore_Int@@$R2DA@CA@PPPPPPPM@DI@EBAKAEAPEBVIError_v1@AdobeXMPCommon@@@Z 000000018005e2fc f i ArrayNodeImpl.obj
 0001:0005d318       ?setNameSpace@INode_I@AdobeXMPCore_Int@@$2PPPPPPPM@A@EAAXPEBD_KAEAPEBVIError_v1@AdobeXMPCommon@@@Z 000000018005e318 f i ArrayNodeImpl.obj
 0001:0005d324       ?ReplaceNodeAtPath@CompositeNodeImpl@AdobeXMPCore_Int@@$R4HI@EA@PPPPPPPM@GA@EAA?AV?$shared_ptr@VINode_v1@AdobeXMPCore@@@std@@AEBV34@AEBV?$shared_ptr@$$CBVIPath_v1@AdobeXMPCore@@@4@@Z 000000018005e324 f i ArrayNodeImpl.obj
 0001:0005d340       ?isArrayItem@INode_I@AdobeXMPCore_Int@@$R2GA@CE@PPPPPPPM@DI@EBAKAEAPEBVIError_v1@AdobeXMPCommon@@@Z 000000018005e340 f i ArrayNodeImpl.obj
 0001:0005d35c       ?UnRegisterChange@NodeImpl@AdobeXMPCore_Int@@$R4KA@DE@PPPPPPPM@PA@EAAXXZ 000000018005e35c f i ArrayNodeImpl.obj
 0001:0005d378       ?isEmpty@INode_I@AdobeXMPCore_Int@@$R2KA@BM@PPPPPPPM@DI@EBAKAEAPEBVIError_v1@AdobeXMPCommon@@@Z 000000018005e378 f i ArrayNodeImpl.obj
 0001:0005d394       ?getParent@INode_I@AdobeXMPCore_Int@@$R2KA@BM@PPPPPPPM@DI@EAAPEAVINode_v1@AdobeXMPCore@@AEAPEBVIError_v1@AdobeXMPCommon@@@Z 000000018005e394 f i ArrayNodeImpl.obj
 0001:0005d3b0       ??_ESharedObjectImpl@AdobeXMPCore_Int@@$2PPPPPPPM@A@EAAPEAXI@Z 000000018005e3b0 f i ArrayNodeImpl.obj
 0001:0005d3bc       ?GetIDOMImplementationRegistry_I@IDOMImplementationRegistry_I@AdobeXMPCore_Int@@$4PPPPPPPM@A@EAAPEAV12@XZ 000000018005e3bc f i DOMImplementationRegistryImpl.obj
 0001:0005d3bc       ?GetINode_I@INode_I@AdobeXMPCore_Int@@$4PPPPPPPM@A@EAAPEAV12@XZ 000000018005e3bc f i ArrayNodeImpl.obj
 0001:0005d3bc       ?GetINameSpacePrefixMap_I@INameSpacePrefixMap_I@AdobeXMPCore_Int@@$4PPPPPPPM@A@EAAPEAV12@XZ 000000018005e3bc f i NameSpacePrefixMapImpl.obj
 0001:0005d3c8       ?next@INodeIterator_I@AdobeXMPCore_Int@@$R2EA@BE@PPPPPPPM@CI@EAAPEAVINodeIterator_v1@AdobeXMPCore@@AEAPEBVIError_v1@AdobeXMPCommon@@@Z 000000018005e3c8 f i ArrayNodeImpl.obj
 0001:0005d3e4       ?ChildCount@ArrayNodeImpl@AdobeXMPCore_Int@@$4PPPPPPPM@A@EBA_KXZ 000000018005e3e4 f i ArrayNodeImpl.obj
 0001:0005d3f0       ?GetNameSpace@NodeImpl@AdobeXMPCore_Int@@$R4GA@DM@PPPPPPPM@KI@EBA?AV?$shared_ptr@$$CBVIUTF8String_v1@AdobeXMPCommon@@@std@@XZ 000000018005e3f0 f i ArrayNodeImpl.obj
 0001:0005d40c       ?SetName@NodeImpl@AdobeXMPCore_Int@@$R4GA@DM@PPPPPPPM@KI@EAAXPEBD_K@Z 000000018005e40c f i ArrayNodeImpl.obj
 0001:0005d428       ?RegisterChange@NodeImpl@AdobeXMPCore_Int@@$R4KA@DE@PPPPPPPM@PA@EAAXXZ 000000018005e428 f i ArrayNodeImpl.obj
 0001:0005d444       ?SetIndex@NodeImpl@AdobeXMPCore_Int@@$R4KA@DE@PPPPPPPM@PA@EAAX_K@Z 000000018005e444 f i ArrayNodeImpl.obj
 0001:0005d460       ?ShareMutex@ThreadSafeImpl@AdobeXMPCore_Int@@$R2II@DA@PPPPPPPM@DI@EAAXAEBV?$shared_ptr@VISharedMutex@AdobeXMPCore_Int@@@std@@@Z 000000018005e460 f i ArrayNodeImpl.obj
 0001:0005d47c       ?GetActualICompositeNode@ICompositeNode_I@AdobeXMPCore_Int@@$R4FI@CE@PPPPPPPM@EI@EAAPEAVICompositeNode_v1@AdobeXMPCore@@XZ 000000018005e47c f i ArrayNodeImpl.obj
 0001:0005d498       ?GetNodeTypeAtPath@CompositeNodeImpl@AdobeXMPCore_Int@@$4PPPPPPPM@A@EBA?AW4eNodeType@INode_v1@AdobeXMPCore@@AEBV?$shared_ptr@$$CBVIPath_v1@AdobeXMPCore@@@std@@@Z 000000018005e498 f i ArrayNodeImpl.obj
 0001:0005d4a4       ?isEmpty@INode_I@AdobeXMPCore_Int@@$R2EA@CA@PPPPPPPM@DI@EBAKAEAPEBVIError_v1@AdobeXMPCommon@@@Z 000000018005e4a4 f i ArrayNodeImpl.obj
 0001:0005d4c0       ?getParent@INode_I@AdobeXMPCore_Int@@$R2EA@CA@PPPPPPPM@DI@EAAPEAVINode_v1@AdobeXMPCore@@AEAPEBVIError_v1@AdobeXMPCommon@@@Z 000000018005e4c0 f i ArrayNodeImpl.obj
 0001:0005d4dc       ?InsertQualifier@NodeImpl@AdobeXMPCore_Int@@$R4EA@DE@PPPPPPPM@KI@EAAXAEBV?$shared_ptr@VINode_v1@AdobeXMPCore@@@std@@@Z 000000018005e4dc f i ArrayNodeImpl.obj
 0001:0005d4f8       ?IsThreadSafe@ThreadSafeImpl@AdobeXMPCore_Int@@$R2DA@DA@PPPPPPPM@CI@EBA_NXZ 000000018005e4f8 f i ArrayNodeImpl.obj
 0001:0005d514       ?setName@INode_I@AdobeXMPCore_Int@@$R2KA@BM@PPPPPPPM@DI@EAAXPEBD_KAEAPEBVIError_v1@AdobeXMPCommon@@@Z 000000018005e514 f i ArrayNodeImpl.obj
 0001:0005d530       ?DisableThreadSafety@ThreadSafeImpl@AdobeXMPCore_Int@@$R2JA@CI@PPPPPPPM@CI@EBAXXZ 000000018005e530 f i ArrayNodeImpl.obj
 0001:0005d54c       ?AcquireInternal@SharedObjectImpl@AdobeXMPCore_Int@@$4PPPPPPPM@A@EBAXXZ 000000018005e54c f i ArrayNodeImpl.obj
 0001:0005d558       ?GetActualIConfigurationManager@IConfigurationManager_I@AdobeXMPCore_Int@@$4PPPPPPPM@A@EAAPEAVIConfigurationManager_v1@AdobeXMPCommon@@XZ 000000018005e558 f i CoreConfigurationManagerImpl.obj
 0001:0005d558       ?GetActualINodeIterator@INodeIterator_I@AdobeXMPCore_Int@@$4PPPPPPPM@A@EAAPEAVINodeIterator_v1@AdobeXMPCore@@XZ 000000018005e558 f i ArrayNodeImpl.obj
 0001:0005d558       ?GetActualIPath@IPath_I@AdobeXMPCore_Int@@$4PPPPPPPM@A@EAAPEAVIPath_v1@AdobeXMPCore@@XZ 000000018005e558 f i PathImpl.obj
 0001:0005d558       ?GetActualIUTF8String@IUTF8String_I@AdobeXMPCore_Int@@$4PPPPPPPM@A@EAAPEAVIUTF8String_v1@AdobeXMPCommon@@XZ 000000018005e558 f i UTF8StringImpl.obj
 0001:0005d564       ?clear@INode_I@AdobeXMPCore_Int@@$R2DI@CE@PPPPPPPM@DI@EAAXKKAEAPEBVIError_v1@AdobeXMPCommon@@@Z 000000018005e564 f i ArrayNodeImpl.obj
 0001:0005d57c       ?getNodeAtPath@ICompositeNode_I@AdobeXMPCore_Int@@$2PPPPPPPM@A@EAAPEAVINode_v1@AdobeXMPCore@@PEBVIPath_v1@4@AEAPEBVIError_v1@AdobeXMPCommon@@@Z 000000018005e57c f i ArrayNodeImpl.obj
 0001:0005d588       ?getNodeType@INode_I@AdobeXMPCore_Int@@$R2DA@CA@PPPPPPPM@DI@EBAKAEAPEBVIError_v1@AdobeXMPCommon@@@Z 000000018005e588 f i ArrayNodeImpl.obj
 0001:0005d5a4       ?replaceQualifier@INode_I@AdobeXMPCore_Int@@$R2DA@CA@PPPPPPPM@DI@EAAPEAVINode_v1@AdobeXMPCore@@PEAV34@AEAPEBVIError_v1@AdobeXMPCommon@@@Z 000000018005e5a4 f i ArrayNodeImpl.obj
 0001:0005d5c0       ?GetInterfacePointer@ICompositeNode_I@AdobeXMPCore_Int@@$4PPPPPPPM@A@EAAPEAX_KK@Z 000000018005e5c0 f i ArrayNodeImpl.obj
 0001:0005d5cc       ?isThreadSafe@IThreadSafe_I@AdobeXMPCommon_Int@@WPPPPPPMA@EBAKXZ 000000018005e5cc f i ArrayNodeImpl.obj
 0001:0005d5d8       ?CheckSuitabilityToBeUsedAsChildNode@ArrayNodeImpl@AdobeXMPCore_Int@@$4PPPPPPPM@A@EBA_NAEBV?$shared_ptr@$$CBVINode_v1@AdobeXMPCore@@@std@@@Z 000000018005e5d8 f i ArrayNodeImpl.obj
 0001:0005d5e4       ?UnRegisterChange@NodeImpl@AdobeXMPCore_Int@@$R4NI@DM@PPPPPPPM@PA@EAAXXZ 000000018005e5e4 f i ArrayNodeImpl.obj
 0001:0005d600       ?removeNodeAtIndex@IArrayNode_I@AdobeXMPCore_Int@@$R2JA@CM@PPPPPPPM@GI@EAAPEAVINode_v1@AdobeXMPCore@@_KAEAPEBVIError_v1@AdobeXMPCommon@@@Z 000000018005e600 f i ArrayNodeImpl.obj
 0001:0005d61c       ?appendNode@ICompositeNode_I@AdobeXMPCore_Int@@$R2HI@CI@PPPPPPPM@EI@EAAXPEAVINode_v1@AdobeXMPCore@@AEAPEBVIError_v1@AdobeXMPCommon@@@Z 000000018005e61c f i ArrayNodeImpl.obj
 0001:0005d638       ?AcknowledgeChanges@NodeImpl@AdobeXMPCore_Int@@$R4GA@DM@PPPPPPPM@KI@EBAXXZ 000000018005e638 f i ArrayNodeImpl.obj
 0001:0005d654       ??_EArrayNodeImpl@AdobeXMPCore_Int@@$2PPPPPPPM@A@EAAPEAXI@Z 000000018005e654 f i ArrayNodeImpl.obj
 0001:0005d660       ?RemoveQualifier@NodeImpl@AdobeXMPCore_Int@@$R4KA@DE@PPPPPPPM@PA@EAA?AV?$shared_ptr@VINode_v1@AdobeXMPCore@@@std@@AEBV?$shared_ptr@$$CBVIUTF8String_v1@AdobeXMPCommon@@@4@0@Z 000000018005e660 f i ArrayNodeImpl.obj
 0001:0005d67c       ?removeNodeAtPath@ICompositeNode_I@AdobeXMPCore_Int@@$R2FI@CE@PPPPPPPM@EI@EAAPEAVINode_v1@AdobeXMPCore@@PEBVIPath_v1@4@AEAPEBVIError_v1@AdobeXMPCommon@@@Z 000000018005e67c f i ArrayNodeImpl.obj
 0001:0005d698       ?setName@INode_I@AdobeXMPCore_Int@@$R2EA@CA@PPPPPPPM@DI@EAAXPEBD_KAEAPEBVIError_v1@AdobeXMPCommon@@@Z 000000018005e698 f i ArrayNodeImpl.obj
 0001:0005d6b4       ?GetInterfacePointer@ICompositeNode_I@AdobeXMPCore_Int@@$R4CA@CE@PPPPPPPM@BI@EAAPEAX_KK@Z 000000018005e6b4 f i ArrayNodeImpl.obj
 0001:0005d6d0       ?hasContent@INode_I@AdobeXMPCore_Int@@$R2KA@BM@PPPPPPPM@DI@EBAKAEAPEBVIError_v1@AdobeXMPCommon@@@Z 000000018005e6d0 f i ArrayNodeImpl.obj
 0001:0005d6ec       ?getIndex@INode_I@AdobeXMPCore_Int@@$R2KA@BM@PPPPPPPM@DI@EBA_KAEAPEBVIError_v1@AdobeXMPCommon@@@Z 000000018005e6ec f i ArrayNodeImpl.obj
 0001:0005d708       ?GetIndex@NodeImpl@AdobeXMPCore_Int@@$4PPPPPPPM@A@EBA_KXZ 000000018005e708 f i ArrayNodeImpl.obj
 0001:0005d714       ?isThreadSafe@IThreadSafe_I@AdobeXMPCommon_Int@@$R4JA@BI@PPPPPPPM@BA@EBAKXZ 000000018005e714 f i ArrayNodeImpl.obj
 0001:0005d730       ?insertNodeAtPath@ICompositeNode_I@AdobeXMPCore_Int@@$2PPPPPPPM@A@EAAXPEAVINode_v1@AdobeXMPCore@@PEBVIPath_v1@4@AEAPEBVIError_v1@AdobeXMPCommon@@@Z 000000018005e730 f i ArrayNodeImpl.obj
 0001:0005d73c       ?getNodeTypeAtPath@ICompositeNode_I@AdobeXMPCore_Int@@$2PPPPPPPM@A@EBAKPEBVIPath_v1@AdobeXMPCore@@AEAPEBVIError_v1@AdobeXMPCommon@@@Z 000000018005e73c f i ArrayNodeImpl.obj
 0001:0005d748       ?insertQualifier@INode_I@AdobeXMPCore_Int@@$R2DA@CA@PPPPPPPM@DI@EAAXPEAVINode_v1@AdobeXMPCore@@AEAPEBVIError_v1@AdobeXMPCommon@@@Z 000000018005e748 f i ArrayNodeImpl.obj
 0001:0005d764       ?isEmpty@INode_I@AdobeXMPCore_Int@@$2PPPPPPPM@A@EBAKAEAPEBVIError_v1@AdobeXMPCommon@@@Z 000000018005e764 f i ArrayNodeImpl.obj
 0001:0005d770       ?getParent@INode_I@AdobeXMPCore_Int@@$2PPPPPPPM@A@EAAPEAVINode_v1@AdobeXMPCore@@AEAPEBVIError_v1@AdobeXMPCommon@@@Z 000000018005e770 f i ArrayNodeImpl.obj
 0001:0005d77c       ?GetActualINodeIterator@INodeIterator_I@AdobeXMPCore_Int@@$R4EA@BE@PPPPPPPM@CI@EAAPEAVINodeIterator_v1@AdobeXMPCore@@XZ 000000018005e77c f i ArrayNodeImpl.obj
 0001:0005d798       ?CloneContents@ArrayNodeImpl@AdobeXMPCore_Int@@$4PPPPPPPM@A@EBA?AV?$shared_ptr@VINode_v1@AdobeXMPCore@@@std@@_N0_K@Z 000000018005e798 f i ArrayNodeImpl.obj
 0001:0005d7a4       ?RegisterChange@NodeImpl@AdobeXMPCore_Int@@$R4NI@DM@PPPPPPPM@PA@EAAXXZ 000000018005e7a4 f i ArrayNodeImpl.obj
 0001:0005d7c0       ?SetIndex@NodeImpl@AdobeXMPCore_Int@@$R4NI@DM@PPPPPPPM@PA@EAAX_K@Z 000000018005e7c0 f i ArrayNodeImpl.obj
 0001:0005d7dc       ?ShareMutex@ThreadSafeImpl@AdobeXMPCore_Int@@$R2MA@DI@PPPPPPPM@DI@EAAXAEBV?$shared_ptr@VISharedMutex@AdobeXMPCore_Int@@@std@@@Z 000000018005e7dc f i ArrayNodeImpl.obj
 0001:0005d7fc       ?setNameSpace@INode_I@AdobeXMPCore_Int@@$R2GA@CE@PPPPPPPM@DI@EAAXPEBD_KAEAPEBVIError_v1@AdobeXMPCommon@@@Z 000000018005e7fc f i ArrayNodeImpl.obj
 0001:0005d818       ?QualifiersCount@NodeImpl@AdobeXMPCore_Int@@$R4GA@DM@PPPPPPPM@KI@EBA_KXZ 000000018005e818 f i ArrayNodeImpl.obj
 0001:0005d834       ?SetIsQualifierNode@NodeImpl@AdobeXMPCore_Int@@$R4KA@DE@PPPPPPPM@PA@EAAX_N@Z 000000018005e834 f i ArrayNodeImpl.obj
 0001:0005d850       ?hasContent@INode_I@AdobeXMPCore_Int@@$R2EA@CA@PPPPPPPM@DI@EBAKAEAPEBVIError_v1@AdobeXMPCommon@@@Z 000000018005e850 f i ArrayNodeImpl.obj
 0001:0005d86c       ?getIndex@INode_I@AdobeXMPCore_Int@@$R2EA@CA@PPPPPPPM@DI@EBA_KAEAPEBVIError_v1@AdobeXMPCommon@@@Z 000000018005e86c f i ArrayNodeImpl.obj
 0001:0005d888       ?isThreadSafe@IThreadSafe_I@AdobeXMPCommon_Int@@$R4DA@BM@PPPPPPPM@BA@EBAKXZ 000000018005e888 f i ArrayNodeImpl.obj
 0001:0005d8a4       ?ShareMutex@ThreadSafeImpl@AdobeXMPCore_Int@@$R2NA@CI@PPPPPPPM@DI@EAAXAEBV?$shared_ptr@VISharedMutex@AdobeXMPCore_Int@@@std@@@Z 000000018005e8a4 f i ArrayNodeImpl.obj
 0001:0005d8c4       ?GetParentNodeType@NodeImpl@AdobeXMPCore_Int@@$4PPPPPPPM@A@EBA?AW4eNodeType@INode_v1@AdobeXMPCore@@XZ 000000018005e8c4 f i ArrayNodeImpl.obj
 0001:0005d8d0       ?GetInterfacePointer@IArrayNode_I@AdobeXMPCore_Int@@$4PPPPPPPM@A@EAAPEAX_KK@Z 000000018005e8d0 f i ArrayNodeImpl.obj
 0001:0005d8dc       ?getNameSpace@INode_I@AdobeXMPCore_Int@@$R2DA@CA@PPPPPPPM@DI@EBAPEBVIUTF8String_v1@AdobeXMPCommon@@AEAPEBVIError_v1@4@@Z 000000018005e8dc f i ArrayNodeImpl.obj
 0001:0005d8f8       ?setName@INode_I@AdobeXMPCore_Int@@$2PPPPPPPM@A@EAAXPEBD_KAEAPEBVIError_v1@AdobeXMPCommon@@@Z 000000018005e8f8 f i ArrayNodeImpl.obj
 0001:0005d904       ?GetIThreadSafe_I@IThreadSafe_I@AdobeXMPCommon_Int@@WPPPPPPLI@EAAPEAV12@XZ 000000018005e904 f i NameSpacePrefixMapImpl.obj
 0001:0005d904       ?GetISharedObject_I@ISharedObject_I@AdobeXMPCommon_Int@@WPPPPPPLI@EAAPEAV12@XZ 000000018005e904 f i ArrayNodeImpl.obj
 0001:0005d910       ?RemoveQualifier@NodeImpl@AdobeXMPCore_Int@@$R4NI@DM@PPPPPPPM@PA@EAA?AV?$shared_ptr@VINode_v1@AdobeXMPCore@@@std@@AEBV?$shared_ptr@$$CBVIUTF8String_v1@AdobeXMPCommon@@@4@0@Z 000000018005e910 f i ArrayNodeImpl.obj
 0001:0005d92c       ?getNodeAtIndex@IArrayNode_I@AdobeXMPCore_Int@@$R2JA@CM@PPPPPPPM@GI@EAAPEAVINode_v1@AdobeXMPCore@@_KAEAPEBVIError_v1@AdobeXMPCommon@@@Z 000000018005e92c f i ArrayNodeImpl.obj
 0001:0005d948       ?GetNodeTypeAtPath@CompositeNodeImpl@AdobeXMPCore_Int@@$R4HI@EA@PPPPPPPM@GA@EBA?AW4eNodeType@INode_v1@AdobeXMPCore@@AEBV?$shared_ptr@$$CBVIPath_v1@AdobeXMPCore@@@std@@@Z 000000018005e948 f i ArrayNodeImpl.obj
 0001:0005d964       ?GetINode_I@INode_I@AdobeXMPCore_Int@@$R4GA@CE@PPPPPPPM@DI@EAAPEAV12@XZ 000000018005e964 f i ArrayNodeImpl.obj
 0001:0005d980       ?ConvertToArrayNode@ArrayNodeImpl@AdobeXMPCore_Int@@$4PPPPPPPM@A@EAA?AV?$shared_ptr@VIArrayNode_v1@AdobeXMPCore@@@std@@XZ 000000018005e980 f i ArrayNodeImpl.obj
 0001:0005d98c       ?GetQualifierNodeType@NodeImpl@AdobeXMPCore_Int@@$R4GA@DM@PPPPPPPM@KI@EBA?AW4eNodeType@INode_v1@AdobeXMPCore@@PEBD_K01@Z 000000018005e98c f i ArrayNodeImpl.obj
 0001:0005d9a8       ?clear@INode_I@AdobeXMPCore_Int@@$R2KA@BM@PPPPPPPM@DI@EAAXKKAEAPEBVIError_v1@AdobeXMPCommon@@@Z 000000018005e9a8 f i ArrayNodeImpl.obj
 0001:0005d9c4       ?getQualifierNodeType@INode_I@AdobeXMPCore_Int@@$R2DI@CE@PPPPPPPM@DI@EBAKPEBD_K01AEAPEBVIError_v1@AdobeXMPCommon@@@Z 000000018005e9c4 f i ArrayNodeImpl.obj
 0001:0005d9dc       ?qualifiersIterator@INode_I@AdobeXMPCore_Int@@$R2DI@CE@PPPPPPPM@DI@EAAPEAVINodeIterator_v1@AdobeXMPCore@@AEAPEBVIError_v1@AdobeXMPCommon@@@Z 000000018005e9dc f i ArrayNodeImpl.obj
 0001:0005d9f4       ?GetIThreadSafe_I@IThreadSafe_I@AdobeXMPCommon_Int@@WPPPPPPJA@EAAPEAV12@XZ 000000018005e9f4 f i ArrayNodeImpl.obj
 0001:0005da00       ?clone@INode_I@AdobeXMPCore_Int@@$R2DA@CA@PPPPPPPM@DI@EBAPEAVINode_v1@AdobeXMPCore@@KKAEAPEBVIError_v1@AdobeXMPCommon@@@Z 000000018005ea00 f i ArrayNodeImpl.obj
 0001:0005da1c       ?hasContent@INode_I@AdobeXMPCore_Int@@$2PPPPPPPM@A@EBAKAEAPEBVIError_v1@AdobeXMPCommon@@@Z 000000018005ea1c f i ArrayNodeImpl.obj
 0001:0005da28       ?getIndex@INode_I@AdobeXMPCore_Int@@$2PPPPPPPM@A@EBA_KAEAPEBVIError_v1@AdobeXMPCommon@@@Z 000000018005ea28 f i ArrayNodeImpl.obj
 0001:0005da34       ??_E?$TNodeIteratorImpl@V?$_Vector_iterator@V?$_Vector_val@U?$_Simple_types@V?$shared_ptr@VINode_v1@AdobeXMPCore@@@std@@@std@@@std@@@std@@@AdobeXMPCore_Int@@$2PPPPPPPM@A@EAAPEAXI@Z 000000018005ea34 f i ArrayNodeImpl.obj
 0001:0005da40       ?SetIsQualifierNode@NodeImpl@AdobeXMPCore_Int@@$R4NI@DM@PPPPPPPM@PA@EAAX_N@Z 000000018005ea40 f i ArrayNodeImpl.obj
 0001:0005da5c       ?getChildNodeType@IArrayNode_I@AdobeXMPCore_Int@@$R2JA@CM@PPPPPPPM@GI@EBAKAEAPEBVIError_v1@AdobeXMPCommon@@@Z 000000018005ea5c f i ArrayNodeImpl.obj
 0001:0005da78       ?IsArrayItem@NodeImpl@AdobeXMPCore_Int@@$R4GA@DM@PPPPPPPM@KI@EBA_NXZ 000000018005ea78 f i ArrayNodeImpl.obj
 0001:0005da94       ?getInterfacePointer@IArrayNode_I@AdobeXMPCore_Int@@$R2EA@CM@PPPPPPPM@CA@EAAPEAX_KKAEAPEBVIError_v1@AdobeXMPCommon@@@Z 000000018005ea94 f i ArrayNodeImpl.obj
 0001:0005dab0       ?clear@INode_I@AdobeXMPCore_Int@@$R2EA@CA@PPPPPPPM@DI@EAAXKKAEAPEBVIError_v1@AdobeXMPCommon@@@Z 000000018005eab0 f i ArrayNodeImpl.obj
 0001:0005dacc       ?HasQualifiers@NodeImpl@AdobeXMPCore_Int@@$R4EA@DE@PPPPPPPM@KI@EBA_NXZ 000000018005eacc f i ArrayNodeImpl.obj
 0001:0005dae8       ?ChangeParent@NodeImpl@AdobeXMPCore_Int@@$4PPPPPPPM@A@EAAXPEAVINode_v1@AdobeXMPCore@@@Z 000000018005eae8 f i ArrayNodeImpl.obj
 0001:0005daf4       ?Release@NodeImpl@AdobeXMPCore_Int@@$4PPPPPPPM@A@EBAXXZ 000000018005eaf4 f i ArrayNodeImpl.obj
 0001:0005db00       ??_EINodeIterator_I@AdobeXMPCore_Int@@$2PPPPPPPM@BA@EAAPEAXI@Z 000000018005eb00 f i ArrayNodeImpl.obj
 0001:0005db10       ?insertNodeAtIndex@IArrayNode_I@AdobeXMPCore_Int@@$2PPPPPPPM@A@EAAXPEAVINode_v1@AdobeXMPCore@@_KAEAPEBVIError_v1@AdobeXMPCommon@@@Z 000000018005eb10 f i ArrayNodeImpl.obj
 0001:0005db1c       ?GetActualINode@INode_I@AdobeXMPCore_Int@@$R4DI@CE@PPPPPPPM@DI@EAAPEAVINode_v1@AdobeXMPCore@@XZ 000000018005eb1c f i ArrayNodeImpl.obj
 0001:0005db34       ?convertToMetadata@INode_I@AdobeXMPCore_Int@@$R2DA@CA@PPPPPPPM@DI@EAAPEAVIMetadata_v1@AdobeXMPCore@@AEAPEBVIError_v1@AdobeXMPCommon@@@Z 000000018005eb34 f i ArrayNodeImpl.obj
 0001:0005db50       ?RemoveNodeAtIndex@ArrayNodeImpl@AdobeXMPCore_Int@@$4PPPPPPPM@A@EAA?AV?$shared_ptr@VINode_v1@AdobeXMPCore@@@std@@_K@Z 000000018005eb50 f i ArrayNodeImpl.obj
 0001:0005db5c       ?ReplaceNodeAtIndex@ArrayNodeImpl@AdobeXMPCore_Int@@$4PPPPPPPM@A@EAA?AV?$shared_ptr@VINode_v1@AdobeXMPCore@@@std@@AEBV34@_K@Z 000000018005eb5c f i ArrayNodeImpl.obj
 0001:0005db68       ?GetChildNodeType@ArrayNodeImpl@AdobeXMPCore_Int@@$4PPPPPPPM@A@EBA?AW4eNodeType@INode_v1@AdobeXMPCore@@XZ 000000018005eb68 f i ArrayNodeImpl.obj
 0001:0005db74       ?GetActualICompositeNode@ICompositeNode_I@AdobeXMPCore_Int@@$R4HI@CI@PPPPPPPM@EI@EAAPEAVICompositeNode_v1@AdobeXMPCore@@XZ 000000018005eb74 f i ArrayNodeImpl.obj
 0001:0005db90       ?isEmpty@INode_I@AdobeXMPCore_Int@@$R2GA@CE@PPPPPPPM@DI@EBAKAEAPEBVIError_v1@AdobeXMPCommon@@@Z 000000018005eb90 f i ArrayNodeImpl.obj
 0001:0005dbac       ?getParent@INode_I@AdobeXMPCore_Int@@$R2GA@CE@PPPPPPPM@DI@EAAPEAVINode_v1@AdobeXMPCore@@AEAPEBVIError_v1@AdobeXMPCommon@@@Z 000000018005ebac f i ArrayNodeImpl.obj
 0001:0005dbc8       ??_ECompositeNodeImpl@AdobeXMPCore_Int@@OMA@EAAPEAXI@Z 000000018005ebc8 f i ArrayNodeImpl.obj
 0001:0005dbd4       ?GetNodeAtPath@CompositeNodeImpl@AdobeXMPCore_Int@@$4PPPPPPPM@A@EAA?AV?$shared_ptr@VINode_v1@AdobeXMPCore@@@std@@AEBV?$shared_ptr@$$CBVIPath_v1@AdobeXMPCore@@@4@@Z 000000018005ebd4 f i ArrayNodeImpl.obj
 0001:0005dbe0       ?DisableThreadSafety@ThreadSafeImpl@AdobeXMPCore_Int@@$R2DA@DA@PPPPPPPM@CI@EBAXXZ 000000018005ebe0 f i ArrayNodeImpl.obj
 0001:0005dbfc       ?GetQualifier@NodeImpl@AdobeXMPCore_Int@@$4PPPPPPPM@A@EAA?AV?$shared_ptr@VINode_v1@AdobeXMPCore@@@std@@AEBV?$shared_ptr@$$CBVIUTF8String_v1@AdobeXMPCommon@@@4@0@Z 000000018005ebfc f i ArrayNodeImpl.obj
 0001:0005dc08       ?GetQualifier@NodeImpl@AdobeXMPCore_Int@@$4PPPPPPPM@A@EAA?AV?$shared_ptr@VINode_v1@AdobeXMPCore@@@std@@PEBD_K01@Z 000000018005ec08 f i ArrayNodeImpl.obj
 0001:0005dc14       ?getNode@INodeIterator_I@AdobeXMPCore_Int@@$2PPPPPPPM@A@EAAPEAVINode_v1@AdobeXMPCore@@AEAPEBVIError_v1@AdobeXMPCommon@@@Z 000000018005ec14 f i ArrayNodeImpl.obj
 0001:0005dc20       ?GetActualIArrayNode@IArrayNode_I@AdobeXMPCore_Int@@$4PPPPPPPM@A@EAAPEAVIArrayNode_v1@AdobeXMPCore@@XZ 000000018005ec20 f i ArrayNodeImpl.obj
 0001:0005dc2c       ?replaceNodeAtPath@ICompositeNode_I@AdobeXMPCore_Int@@$R2FA@CI@PPPPPPPM@EI@EAAPEAVINode_v1@AdobeXMPCore@@PEAV34@PEBVIPath_v1@4@AEAPEBVIError_v1@AdobeXMPCommon@@@Z 000000018005ec2c f i ArrayNodeImpl.obj
 0001:0005dc48       ?iterator@ICompositeNode_I@AdobeXMPCore_Int@@$2PPPPPPPM@A@EAAPEAVINodeIterator_v1@AdobeXMPCore@@AEAPEBVIError_v1@AdobeXMPCommon@@@Z 000000018005ec48 f i ArrayNodeImpl.obj
 0001:0005dc54       ?convertToSimpleNode@INode_I@AdobeXMPCore_Int@@$R2DA@CA@PPPPPPPM@DI@EAAPEAVISimpleNode_v1@AdobeXMPCore@@AEAPEBVIError_v1@AdobeXMPCommon@@@Z 000000018005ec54 f i ArrayNodeImpl.obj
 0001:0005dc70       ?clear@INode_I@AdobeXMPCore_Int@@$2PPPPPPPM@A@EAAXKKAEAPEBVIError_v1@AdobeXMPCommon@@@Z 000000018005ec70 f i ArrayNodeImpl.obj
 0001:0005dc7c       ?removeNodeAtPath@ICompositeNode_I@AdobeXMPCore_Int@@$R2HI@CI@PPPPPPPM@EI@EAAPEAVINode_v1@AdobeXMPCore@@PEBVIPath_v1@4@AEAPEBVIError_v1@AdobeXMPCommon@@@Z 000000018005ec7c f i ArrayNodeImpl.obj
 0001:0005dc98       ?AppendNode@ArrayNodeImpl@AdobeXMPCore_Int@@$4PPPPPPPM@A@EAAXAEBV?$shared_ptr@VINode_v1@AdobeXMPCore@@@std@@@Z 000000018005ec98 f i ArrayNodeImpl.obj
 0001:0005dca4       ?setName@INode_I@AdobeXMPCore_Int@@$R2GA@CE@PPPPPPPM@DI@EAAXPEBD_KAEAPEBVIError_v1@AdobeXMPCommon@@@Z 000000018005eca4 f i ArrayNodeImpl.obj
 0001:0005dcc0       ?SetQualifiers@NodeImpl@AdobeXMPCore_Int@@$4PPPPPPPM@A@EAAXAEBV?$shared_ptr@VIStructureNode_v1@AdobeXMPCore@@@std@@@Z 000000018005ecc0 f i ArrayNodeImpl.obj
 0001:0005dccc       ?getQualifierNodeType@INode_I@AdobeXMPCore_Int@@$R2KA@BM@PPPPPPPM@DI@EBAKPEBD_K01AEAPEBVIError_v1@AdobeXMPCommon@@@Z 000000018005eccc f i ArrayNodeImpl.obj
 0001:0005dce8       ?qualifiersIterator@INode_I@AdobeXMPCore_Int@@$R2KA@BM@PPPPPPPM@DI@EAAPEAVINodeIterator_v1@AdobeXMPCore@@AEAPEBVIError_v1@AdobeXMPCommon@@@Z 000000018005ece8 f i ArrayNodeImpl.obj
 0001:0005dd04       ?GetName@NodeImpl@AdobeXMPCore_Int@@$4PPPPPPPM@A@EBA?AV?$shared_ptr@$$CBVIUTF8String_v1@AdobeXMPCommon@@@std@@XZ 000000018005ed04 f i ArrayNodeImpl.obj
 0001:0005dd10       ?GetParent@NodeImpl@AdobeXMPCore_Int@@$4PPPPPPPM@A@EAA?AV?$shared_ptr@VINode_v1@AdobeXMPCore@@@std@@XZ 000000018005ed10 f i ArrayNodeImpl.obj
 0001:0005dd1c       ?GetISharedObject_I@ISharedObject_I@AdobeXMPCommon_Int@@$R4HA@BE@PPPPPPPM@BA@EAAPEAV12@XZ 000000018005ed1c f i ArrayNodeImpl.obj
 0001:0005dd38       ?ShareMutex@ThreadSafeImpl@AdobeXMPCore_Int@@$2PPPPPPPM@A@EAAXAEBV?$shared_ptr@VISharedMutex@AdobeXMPCore_Int@@@std@@@Z 000000018005ed38 f i ArrayNodeImpl.obj
 0001:0005dd44       ?AcquireInternal@SharedObjectImpl@AdobeXMPCore_Int@@$R4FI@BI@PPPPPPPM@DA@EBAXXZ 000000018005ed44 f i ArrayNodeImpl.obj
 0001:0005dd60       ?getNode@INodeIterator_I@AdobeXMPCore_Int@@$R2EA@BE@PPPPPPPM@CI@EAAPEAVINode_v1@AdobeXMPCore@@AEAPEBVIError_v1@AdobeXMPCommon@@@Z 000000018005ed60 f i ArrayNodeImpl.obj
 0001:0005dd7c       ?GetNode@?$TNodeIteratorImpl@V?$_Vector_iterator@V?$_Vector_val@U?$_Simple_types@V?$shared_ptr@VINode_v1@AdobeXMPCore@@@std@@@std@@@std@@@std@@@AdobeXMPCore_Int@@$4PPPPPPPM@A@EAA?AV?$shared_ptr@VINode_v1@AdobeXMPCore@@@std@@XZ 000000018005ed7c f i ArrayNodeImpl.obj
 0001:0005dd88       ?hasContent@INode_I@AdobeXMPCore_Int@@$R2GA@CE@PPPPPPPM@DI@EBAKAEAPEBVIError_v1@AdobeXMPCommon@@@Z 000000018005ed88 f i ArrayNodeImpl.obj
 0001:0005dda4       ?getIndex@INode_I@AdobeXMPCore_Int@@$R2GA@CE@PPPPPPPM@DI@EBA_KAEAPEBVIError_v1@AdobeXMPCommon@@@Z 000000018005eda4 f i ArrayNodeImpl.obj
 0001:0005ddc0       ?isThreadSafe@IThreadSafe_I@AdobeXMPCommon_Int@@$R4FA@CA@PPPPPPPM@BA@EBAKXZ 000000018005edc0 f i ArrayNodeImpl.obj
 0001:0005dddc       ?UnShareMutex@ThreadSafeImpl@AdobeXMPCore_Int@@$R2II@DA@PPPPPPPM@DI@EAAXXZ 000000018005eddc f i ArrayNodeImpl.obj
 0001:0005ddf8       ?RemoveNodeAtPath@CompositeNodeImpl@AdobeXMPCore_Int@@$4PPPPPPPM@A@EAA?AV?$shared_ptr@VINode_v1@AdobeXMPCore@@@std@@AEBV?$shared_ptr@$$CBVIPath_v1@AdobeXMPCore@@@4@@Z 000000018005edf8 f i ArrayNodeImpl.obj
 0001:0005de04       ?getQualifierNodeType@INode_I@AdobeXMPCore_Int@@$R2EA@CA@PPPPPPPM@DI@EBAKPEBD_K01AEAPEBVIError_v1@AdobeXMPCommon@@@Z 000000018005ee04 f i ArrayNodeImpl.obj
 0001:0005de20       ?qualifiersIterator@INode_I@AdobeXMPCore_Int@@$R2EA@CA@PPPPPPPM@DI@EAAPEAVINodeIterator_v1@AdobeXMPCore@@AEAPEBVIError_v1@AdobeXMPCommon@@@Z 000000018005ee20 f i ArrayNodeImpl.obj
 0001:0005de3c       ?GetISharedObject_I@ISharedObject_I@AdobeXMPCommon_Int@@$R4BA@BI@PPPPPPPM@BA@EAAPEAV12@XZ 000000018005ee3c f i ArrayNodeImpl.obj
 0001:0005de54       ?ValidateNameOrNameSpaceChangeForAChild@NodeImpl@AdobeXMPCore_Int@@$4PPPPPPPM@A@EAA_NAEBV?$shared_ptr@$$CBVIUTF8String_v1@AdobeXMPCommon@@@std@@000@Z 000000018005ee54 f i ArrayNodeImpl.obj
 0001:0005de60       ?GetActualINode@INode_I@AdobeXMPCore_Int@@$R4KA@BM@PPPPPPPM@DI@EAAPEAVINode_v1@AdobeXMPCore@@XZ 000000018005ee60 f i ArrayNodeImpl.obj
 0001:0005de7c       ?HasChanged@NodeImpl@AdobeXMPCore_Int@@$4PPPPPPPM@A@EBA_NXZ 000000018005ee7c f i ArrayNodeImpl.obj
 0001:0005de88       ?QualifiersIterator@NodeImpl@AdobeXMPCore_Int@@$4PPPPPPPM@A@EAA?AV?$shared_ptr@VINodeIterator_v1@AdobeXMPCore@@@std@@XZ 000000018005ee88 f i ArrayNodeImpl.obj
 0001:0005de94       ?EnableThreadSafety@ThreadSafeImpl@AdobeXMPCore_Int@@$R2JA@CI@PPPPPPPM@CI@EBAXXZ 000000018005ee94 f i ArrayNodeImpl.obj
 0001:0005deb0       ?Acquire@NodeImpl@AdobeXMPCore_Int@@$4PPPPPPPM@A@EBAXXZ 000000018005eeb0 f i ArrayNodeImpl.obj
 0001:0005debc       ?GetISharedObject_I@ISharedObject_I@AdobeXMPCommon_Int@@$R4CA@7PPPPPPPM@BA@EAAPEAV12@XZ 000000018005eebc f i ArrayNodeImpl.obj
 0001:0005debc       ?GetIThreadSafe_I@IThreadSafe_I@AdobeXMPCommon_Int@@$R4CA@7PPPPPPPM@BA@EAAPEAV12@XZ 000000018005eebc f i ArrayNodeImpl.obj
 0001:0005ded8       ?convertToStructureNode@INode_I@AdobeXMPCore_Int@@$R2DI@CE@PPPPPPPM@DI@EAAPEAVIStructureNode_v1@AdobeXMPCore@@AEAPEBVIError_v1@AdobeXMPCommon@@@Z 000000018005eed8 f i ArrayNodeImpl.obj
 0001:0005def0       ?hasChanged@INode_I@AdobeXMPCore_Int@@$R2DI@CE@PPPPPPPM@DI@EBAKAEAPEBVIError_v1@AdobeXMPCommon@@@Z 000000018005eef0 f i ArrayNodeImpl.obj
 0001:0005df08       ??_EIArrayNode_I@AdobeXMPCore_Int@@$2PPPPPPPM@BA@EAAPEAXI@Z 000000018005ef08 f i ArrayNodeImpl.obj
 0001:0005df18       ?convertToArrayNode@INode_I@AdobeXMPCore_Int@@$R2DA@CA@PPPPPPPM@DI@EAAPEAVIArrayNode_v1@AdobeXMPCore@@AEAPEBVIError_v1@AdobeXMPCommon@@@Z 000000018005ef18 f i ArrayNodeImpl.obj
 0001:0005df34       ?removeQualifier@INode_I@AdobeXMPCore_Int@@$R2DA@CA@PPPPPPPM@DI@EAAPEAVINode_v1@AdobeXMPCore@@PEBD_K01AEAPEBVIError_v1@AdobeXMPCommon@@@Z 000000018005ef34 f i ArrayNodeImpl.obj
 0001:0005df50       ?isThreadSafe@IThreadSafe_I@AdobeXMPCommon_Int@@WPPPPPPKI@EBAKXZ 000000018005ef50 f i ArrayNodeImpl.obj
 0001:0005df5c       ?Acquire@SharedObjectImpl@AdobeXMPCore_Int@@$R4CA@BI@PPPPPPPM@CA@EBAXXZ 000000018005ef5c f i ArrayNodeImpl.obj
 0001:0005df74       ?resetChangesForChildren@ArrayNodeImpl@AdobeXMPCore_Int@@$2PPPPPPPM@A@EBAXXZ 000000018005ef74 f i ArrayNodeImpl.obj
 0001:0005df80       ?GetNodeAtPath@CompositeNodeImpl@AdobeXMPCore_Int@@$R4HI@EA@PPPPPPPM@GA@EAA?AV?$shared_ptr@VINode_v1@AdobeXMPCore@@@std@@AEBV?$shared_ptr@$$CBVIPath_v1@AdobeXMPCore@@@4@@Z 000000018005ef80 f i ArrayNodeImpl.obj
 0001:0005df9c       ?HasContent@ArrayNodeImpl@AdobeXMPCore_Int@@$4PPPPPPPM@A@EBA_NXZ 000000018005ef9c f i ArrayNodeImpl.obj
 0001:0005dfa8       ?AcquireInternal@NodeImpl@AdobeXMPCore_Int@@$R4HA@DE@PPPPPPPM@MA@EBAXXZ 000000018005efa8 f i ArrayNodeImpl.obj
 0001:0005dfc4       ?GetActualINode@INode_I@AdobeXMPCore_Int@@$R4EA@CA@PPPPPPPM@DI@EAAPEAVINode_v1@AdobeXMPCore@@XZ 000000018005efc4 f i ArrayNodeImpl.obj
 0001:0005dfe0       ?GetIndex@NodeImpl@AdobeXMPCore_Int@@$R4EA@DE@PPPPPPPM@KI@EBA_KXZ 000000018005efe0 f i ArrayNodeImpl.obj
 0001:0005dffc       ?Release@NodeImpl@AdobeXMPCore_Int@@$R4BA@DE@PPPPPPPM@HI@EBAXXZ 000000018005effc f i ArrayNodeImpl.obj
 0001:0005e018       ?SetNameSpace@NodeImpl@AdobeXMPCore_Int@@$4PPPPPPPM@A@EAAXPEBD_K@Z 000000018005f018 f i ArrayNodeImpl.obj
 0001:0005e024       ??_ENodeImpl@AdobeXMPCore_Int@@$2PPPPPPPM@A@EAAPEAXI@Z 000000018005f024 f i ArrayNodeImpl.obj
 0001:0005e030       ?getNodeAtPath@ICompositeNode_I@AdobeXMPCore_Int@@$R2FA@CI@PPPPPPPM@EI@EAAPEAVINode_v1@AdobeXMPCore@@PEBVIPath_v1@4@AEAPEBVIError_v1@AdobeXMPCommon@@@Z 000000018005f030 f i ArrayNodeImpl.obj
 0001:0005e04c       ?getQualifier@INode_I@AdobeXMPCore_Int@@$R2DA@CA@PPPPPPPM@DI@EAAPEAVINode_v1@AdobeXMPCore@@PEBD_K01AEAPEBVIError_v1@AdobeXMPCommon@@@Z 000000018005f04c f i ArrayNodeImpl.obj
 0001:0005e068       ?getName@INode_I@AdobeXMPCore_Int@@$R2DA@CA@PPPPPPPM@DI@EBAPEBVIUTF8String_v1@AdobeXMPCommon@@AEAPEBVIError_v1@4@@Z 000000018005f068 f i ArrayNodeImpl.obj
 0001:0005e084       ?getQualifierNodeType@INode_I@AdobeXMPCore_Int@@$2PPPPPPPM@A@EBAKPEBD_K01AEAPEBVIError_v1@AdobeXMPCommon@@@Z 000000018005f084 f i ArrayNodeImpl.obj
 0001:0005e090       ?qualifiersIterator@INode_I@AdobeXMPCore_Int@@$2PPPPPPPM@A@EAAPEAVINodeIterator_v1@AdobeXMPCore@@AEAPEBVIError_v1@AdobeXMPCommon@@@Z 000000018005f090 f i ArrayNodeImpl.obj
 0001:0005e09c       ??_EArrayNodeImpl@AdobeXMPCore_Int@@OOA@EAAPEAXI@Z 000000018005f09c f i ArrayNodeImpl.obj
 0001:0005e0a8       ?UnShareMutex@ThreadSafeImpl@AdobeXMPCore_Int@@$R2MA@DI@PPPPPPPM@DI@EAAXXZ 000000018005f0a8 f i ArrayNodeImpl.obj
 0001:0005e0c8       ?clear@INode_I@AdobeXMPCore_Int@@$R2GA@CE@PPPPPPPM@DI@EAAXKKAEAPEBVIError_v1@AdobeXMPCommon@@@Z 000000018005f0c8 f i ArrayNodeImpl.obj
 0001:0005e0e4       ?InsertQualifier@NodeImpl@AdobeXMPCore_Int@@$R4GA@DM@PPPPPPPM@KI@EAAXAEBV?$shared_ptr@VINode_v1@AdobeXMPCore@@@std@@@Z 000000018005f0e4 f i ArrayNodeImpl.obj
 0001:0005e100       ?GetNodeType@ArrayNodeImpl@AdobeXMPCore_Int@@$4PPPPPPPM@A@EBA?AW4eNodeType@INode_v1@AdobeXMPCore@@XZ 000000018005f100 f i ArrayNodeImpl.obj
 0001:0005e10c       ?IsThreadSafe@ThreadSafeImpl@AdobeXMPCore_Int@@$R2FA@DI@PPPPPPPM@CI@EBA_NXZ 000000018005f10c f i ArrayNodeImpl.obj
 0001:0005e128       ?replaceNodeAtPath@ICompositeNode_I@AdobeXMPCore_Int@@$R2FI@CE@PPPPPPPM@EI@EAAPEAVINode_v1@AdobeXMPCore@@PEAV34@PEBVIPath_v1@4@AEAPEBVIError_v1@AdobeXMPCommon@@@Z 000000018005f128 f i ArrayNodeImpl.obj
 0001:0005e144       ?GetParentNodeType@NodeImpl@AdobeXMPCore_Int@@$R4EA@DE@PPPPPPPM@KI@EBA?AW4eNodeType@INode_v1@AdobeXMPCore@@XZ 000000018005f144 f i ArrayNodeImpl.obj
 0001:0005e160       ?UnShareMutex@ThreadSafeImpl@AdobeXMPCore_Int@@$R2NA@CI@PPPPPPPM@DI@EAAXXZ 000000018005f160 f i ArrayNodeImpl.obj
 0001:0005e180       ?insertNodeAtPath@ICompositeNode_I@AdobeXMPCore_Int@@$R2FA@CI@PPPPPPPM@EI@EAAXPEAVINode_v1@AdobeXMPCore@@PEBVIPath_v1@4@AEAPEBVIError_v1@AdobeXMPCommon@@@Z 000000018005f180 f i ArrayNodeImpl.obj
 0001:0005e19c       ?getNodeTypeAtPath@ICompositeNode_I@AdobeXMPCore_Int@@$R2FA@CI@PPPPPPPM@EI@EBAKPEBVIPath_v1@AdobeXMPCore@@AEAPEBVIError_v1@AdobeXMPCommon@@@Z 000000018005f19c f i ArrayNodeImpl.obj
 0001:0005e1b8       ?getPath@INode_I@AdobeXMPCore_Int@@$R2DI@CE@PPPPPPPM@DI@EBAPEAVIPath_v1@AdobeXMPCore@@AEAPEBVIError_v1@AdobeXMPCommon@@@Z 000000018005f1b8 f i ArrayNodeImpl.obj
 0001:0005e1d0       ?isArrayItem@INode_I@AdobeXMPCore_Int@@$R2DA@CA@PPPPPPPM@DI@EBAKAEAPEBVIError_v1@AdobeXMPCommon@@@Z 000000018005f1d0 f i ArrayNodeImpl.obj
 0001:0005e1ec       ?GetISharedObject_I@ISharedObject_I@AdobeXMPCommon_Int@@WPPPPPPKA@EAAPEAV12@XZ 000000018005f1ec f i ArrayNodeImpl.obj
 0001:0005e1f8       ?GetActualINode@INode_I@AdobeXMPCore_Int@@$4PPPPPPPM@A@EAAPEAVINode_v1@AdobeXMPCore@@XZ 000000018005f1f8 f i ArrayNodeImpl.obj
 0001:0005e1f8       ?GetActualINameSpacePrefixMap@INameSpacePrefixMap_I@AdobeXMPCore_Int@@$4PPPPPPPM@A@EAAPEAVINameSpacePrefixMap_v1@AdobeXMPCore@@XZ 000000018005f1f8 f i NameSpacePrefixMapImpl.obj
 0001:0005e204       ?AcquireInternal@NodeImpl@AdobeXMPCore_Int@@$R4KI@DM@PPPPPPPM@MA@EBAXXZ 000000018005f204 f i ArrayNodeImpl.obj
 0001:0005e220       ?replaceNodeAtIndex@IArrayNode_I@AdobeXMPCore_Int@@$R2JA@CM@PPPPPPPM@GI@EAAPEAVINode_v1@AdobeXMPCore@@PEAV34@_KAEAPEBVIError_v1@AdobeXMPCommon@@@Z 000000018005f220 f i ArrayNodeImpl.obj
 0001:0005e23c       ?RemoveNodeAtPath@CompositeNodeImpl@AdobeXMPCore_Int@@$R4HI@EA@PPPPPPPM@GA@EAA?AV?$shared_ptr@VINode_v1@AdobeXMPCore@@@std@@AEBV?$shared_ptr@$$CBVIPath_v1@AdobeXMPCore@@@4@@Z 000000018005f23c f i ArrayNodeImpl.obj
 0001:0005e258       ?UnRegisterChange@NodeImpl@AdobeXMPCore_Int@@$4PPPPPPPM@A@EAAXXZ 000000018005f258 f i ArrayNodeImpl.obj
 0001:0005e264       ?convertToStructureNode@INode_I@AdobeXMPCore_Int@@$R2KA@BM@PPPPPPPM@DI@EAAPEAVIStructureNode_v1@AdobeXMPCore@@AEAPEBVIError_v1@AdobeXMPCommon@@@Z 000000018005f264 f i ArrayNodeImpl.obj
 0001:0005e280       ?hasChanged@INode_I@AdobeXMPCore_Int@@$R2KA@BM@PPPPPPPM@DI@EBAKAEAPEBVIError_v1@AdobeXMPCommon@@@Z 000000018005f280 f i ArrayNodeImpl.obj
 0001:0005e29c       ?ReplaceQualifier@NodeImpl@AdobeXMPCore_Int@@$4PPPPPPPM@A@EAA?AV?$shared_ptr@VINode_v1@AdobeXMPCore@@@std@@AEBV34@@Z 000000018005f29c f i ArrayNodeImpl.obj
 0001:0005e2a8       ?hasQualifiers@INode_I@AdobeXMPCore_Int@@$R2DI@CE@PPPPPPPM@DI@EBAKAEAPEBVIError_v1@AdobeXMPCommon@@@Z 000000018005f2a8 f i ArrayNodeImpl.obj
 0001:0005e2c0       ?isQualifierNode@INode_I@AdobeXMPCore_Int@@$R2DI@CE@PPPPPPPM@DI@EBAKAEAPEBVIError_v1@AdobeXMPCommon@@@Z 000000018005f2c0 f i ArrayNodeImpl.obj
 0001:0005e2d8       ?getParentNodeType@INode_I@AdobeXMPCore_Int@@$R2DI@CE@PPPPPPPM@DI@EBAKAEAPEBVIError_v1@AdobeXMPCommon@@@Z 000000018005f2d8 f i ArrayNodeImpl.obj
 0001:0005e2f0       ?GetICompositeNode_I@ICompositeNode_I@AdobeXMPCore_Int@@$4PPPPPPPM@A@EAAPEAV12@XZ 000000018005f2f0 f i ArrayNodeImpl.obj
 0001:0005e2f0       ?GetISimpleNode_I@ISimpleNode_I@AdobeXMPCore_Int@@$4PPPPPPPM@A@EAAPEAV12@XZ 000000018005f2f0 f i SimpleNodeImpl.obj
 0001:0005e2f0       ?GetIDOMSerializer_I@IDOMSerializer_I@AdobeXMPCore_Int@@$4PPPPPPPM@A@EAAPEAV12@XZ 000000018005f2f0 f i ClientDOMSerializerWrapperImpl.obj
 0001:0005e2f0       ?GetIDOMParser_I@IDOMParser_I@AdobeXMPCore_Int@@$4PPPPPPPM@A@EAAPEAV12@XZ 000000018005f2f0 f i ClientDOMParserWrapperImpl.obj
 0001:0005e2f0       ?GetICoreConfigurationManager_I@ICoreConfigurationManager_I@AdobeXMPCore_Int@@$4PPPPPPPM@A@EAAPEAV12@XZ 000000018005f2f0 f i CoreConfigurationManagerImpl.obj
 0001:0005e2fc       ??_EICompositeNode_v1@AdobeXMPCore@@O7EAAPEAXI@Z 000000018005f2fc f i ArrayNodeImpl.obj
 0001:0005e308       ?GetNodeType@?$TNodeIteratorImpl@V?$_Vector_iterator@V?$_Vector_val@U?$_Simple_types@V?$shared_ptr@VINode_v1@AdobeXMPCore@@@std@@@std@@@std@@@std@@@AdobeXMPCore_Int@@$4PPPPPPPM@A@EBA?AW4eNodeType@INode_v1@AdobeXMPCore@@XZ 000000018005f308 f i ArrayNodeImpl.obj
 0001:0005e314       ?Iterator@ArrayNodeImpl@AdobeXMPCore_Int@@$4PPPPPPPM@A@EAA?AV?$shared_ptr@VINodeIterator_v1@AdobeXMPCore@@@std@@XZ 000000018005f314 f i ArrayNodeImpl.obj
 0001:0005e320       ?convertToStructureNode@INode_I@AdobeXMPCore_Int@@$R2EA@CA@PPPPPPPM@DI@EAAPEAVIStructureNode_v1@AdobeXMPCore@@AEAPEBVIError_v1@AdobeXMPCommon@@@Z 000000018005f320 f i ArrayNodeImpl.obj
 0001:0005e33c       ?hasChanged@INode_I@AdobeXMPCore_Int@@$R2EA@CA@PPPPPPPM@DI@EBAKAEAPEBVIError_v1@AdobeXMPCommon@@@Z 000000018005f33c f i ArrayNodeImpl.obj
 0001:0005e358       ?Acquire@NodeImpl@AdobeXMPCore_Int@@$R4BA@DE@PPPPPPPM@HI@EBAXXZ 000000018005f358 f i ArrayNodeImpl.obj
 0001:0005e374       ?RegisterChange@NodeImpl@AdobeXMPCore_Int@@$4PPPPPPPM@A@EAAXXZ 000000018005f374 f i ArrayNodeImpl.obj
 0001:0005e380       ?SetIndex@NodeImpl@AdobeXMPCore_Int@@$4PPPPPPPM@A@EAAX_K@Z 000000018005f380 f i ArrayNodeImpl.obj
 0001:0005e38c       ?Clear@NodeImpl@AdobeXMPCore_Int@@$4PPPPPPPM@A@EAAX_N0@Z 000000018005f38c f i ArrayNodeImpl.obj
 0001:0005e398       ?IsQualifierNode@NodeImpl@AdobeXMPCore_Int@@$4PPPPPPPM@A@EBA_NXZ 000000018005f398 f i ArrayNodeImpl.obj
 0001:0005e3a4       ?Acquire@SharedObjectImpl@AdobeXMPCore_Int@@$4PPPPPPPM@A@EBAXXZ 000000018005f3a4 f i ArrayNodeImpl.obj
 0001:0005e3b0       ?getArrayForm@IArrayNode_I@AdobeXMPCore_Int@@$2PPPPPPPM@A@EBAKAEAPEBVIError_v1@AdobeXMPCommon@@@Z 000000018005f3b0 f i ArrayNodeImpl.obj
 0001:0005e3bc       ?GetInterfacePointer@INode_I@AdobeXMPCore_Int@@$4PPPPPPPM@A@EAAPEAX_KK@Z 000000018005f3bc f i ArrayNodeImpl.obj
 0001:0005e3c8       ?getQualifierNodeType@INode_I@AdobeXMPCore_Int@@$R2GA@CE@PPPPPPPM@DI@EBAKPEBD_K01AEAPEBVIError_v1@AdobeXMPCommon@@@Z 000000018005f3c8 f i ArrayNodeImpl.obj
 0001:0005e3e4       ?qualifiersIterator@INode_I@AdobeXMPCore_Int@@$R2GA@CE@PPPPPPPM@DI@EAAPEAVINodeIterator_v1@AdobeXMPCore@@AEAPEBVIError_v1@AdobeXMPCommon@@@Z 000000018005f3e4 f i ArrayNodeImpl.obj
 0001:0005e400       ?getNodeAtPath@ICompositeNode_I@AdobeXMPCore_Int@@$R2FI@CE@PPPPPPPM@EI@EAAPEAVINode_v1@AdobeXMPCore@@PEBVIPath_v1@4@AEAPEBVIError_v1@AdobeXMPCommon@@@Z 000000018005f400 f i ArrayNodeImpl.obj
 0001:0005e41c       ?GetQualifier@NodeImpl@AdobeXMPCore_Int@@$R4EA@DE@PPPPPPPM@KI@EAA?AV?$shared_ptr@VINode_v1@AdobeXMPCore@@@std@@PEBD_K01@Z 000000018005f41c f i ArrayNodeImpl.obj
 0001:0005e438       ?EnableThreadSafety@ThreadSafeImpl@AdobeXMPCore_Int@@$R2DA@DA@PPPPPPPM@CI@EBAXXZ 000000018005f438 f i ArrayNodeImpl.obj
 0001:0005e454       ?RemoveQualifier@NodeImpl@AdobeXMPCore_Int@@$4PPPPPPPM@A@EAA?AV?$shared_ptr@VINode_v1@AdobeXMPCore@@@std@@AEBV?$shared_ptr@$$CBVIUTF8String_v1@AdobeXMPCommon@@@4@0@Z 000000018005f454 f i ArrayNodeImpl.obj
 0001:0005e460       ?getPath@INode_I@AdobeXMPCore_Int@@$R2KA@BM@PPPPPPPM@DI@EBAPEAVIPath_v1@AdobeXMPCore@@AEAPEBVIError_v1@AdobeXMPCommon@@@Z 000000018005f460 f i ArrayNodeImpl.obj
 0001:0005e47c       ?Clone@NodeImpl@AdobeXMPCore_Int@@$4PPPPPPPM@A@EBA?AV?$shared_ptr@VINode_v1@AdobeXMPCore@@@std@@_N0@Z 000000018005f47c f i ArrayNodeImpl.obj
 0001:0005e488       ?IsEmpty@NodeImpl@AdobeXMPCore_Int@@$4PPPPPPPM@A@EBA_NXZ 000000018005f488 f i ArrayNodeImpl.obj
 0001:0005e494       ?RemoveQualifier@NodeImpl@AdobeXMPCore_Int@@$4PPPPPPPM@A@EAA?AV?$shared_ptr@VINode_v1@AdobeXMPCore@@@std@@PEBD_K01@Z 000000018005f494 f i ArrayNodeImpl.obj
 0001:0005e4a0       ?GetPath@NodeImpl@AdobeXMPCore_Int@@$4PPPPPPPM@A@EBA?AV?$shared_ptr@VIPath_v1@AdobeXMPCore@@@std@@XZ 000000018005f4a0 f i ArrayNodeImpl.obj
 0001:0005e4ac       ?GetIStructureNode_I@IStructureNode_I@AdobeXMPCore_Int@@$4PPPPPPPM@A@EAAPEAV12@XZ 000000018005f4ac f i MetadataImpl.obj
 0001:0005e4ac       ?GetIArrayNode_I@IArrayNode_I@AdobeXMPCore_Int@@$4PPPPPPPM@A@EAAPEAV12@XZ 000000018005f4ac f i ArrayNodeImpl.obj
 0001:0005e4b8       ?getNodeType@INode_I@AdobeXMPCore_Int@@$R2DI@CE@PPPPPPPM@DI@EBAKAEAPEBVIError_v1@AdobeXMPCommon@@@Z 000000018005f4b8 f i ArrayNodeImpl.obj
 0001:0005e4d0       ?replaceQualifier@INode_I@AdobeXMPCore_Int@@$R2DI@CE@PPPPPPPM@DI@EAAPEAVINode_v1@AdobeXMPCore@@PEAV34@AEAPEBVIError_v1@AdobeXMPCommon@@@Z 000000018005f4d0 f i ArrayNodeImpl.obj
 0001:0005e4e8       ?GetISharedObject_I@IArrayNode_I@AdobeXMPCore_Int@@$4PPPPPPPM@A@EAAPEAVISharedObject_I@AdobeXMPCommon_Int@@XZ 000000018005f4e8 f i ArrayNodeImpl.obj
 0001:0005e4f4       ?setNameSpace@INode_I@AdobeXMPCore_Int@@$R2DA@CA@PPPPPPPM@DI@EAAXPEBD_KAEAPEBVIError_v1@AdobeXMPCommon@@@Z 000000018005f4f4 f i ArrayNodeImpl.obj
 0001:0005e510       ?convertToStructureNode@INode_I@AdobeXMPCore_Int@@$2PPPPPPPM@A@EAAPEAVIStructureNode_v1@AdobeXMPCore@@AEAPEBVIError_v1@AdobeXMPCommon@@@Z 000000018005f510 f i ArrayNodeImpl.obj
 0001:0005e51c       ?hasChanged@INode_I@AdobeXMPCore_Int@@$2PPPPPPPM@A@EBAKAEAPEBVIError_v1@AdobeXMPCommon@@@Z 000000018005f51c f i ArrayNodeImpl.obj
 0001:0005e528       ?GetActualINode@INode_I@AdobeXMPCore_Int@@$R4GA@CE@PPPPPPPM@DI@EAAPEAVINode_v1@AdobeXMPCore@@XZ 000000018005f528 f i ArrayNodeImpl.obj
 0001:0005e544       ?HasQualifiers@NodeImpl@AdobeXMPCore_Int@@$R4GA@DM@PPPPPPPM@KI@EBA_NXZ 000000018005f544 f i ArrayNodeImpl.obj
 0001:0005e560       ?insertNodeAtPath@ICompositeNode_I@AdobeXMPCore_Int@@$R2FI@CE@PPPPPPPM@EI@EAAXPEAVINode_v1@AdobeXMPCore@@PEBVIPath_v1@4@AEAPEBVIError_v1@AdobeXMPCommon@@@Z 000000018005f560 f i ArrayNodeImpl.obj
 0001:0005e57c       ?getNodeTypeAtPath@ICompositeNode_I@AdobeXMPCore_Int@@$R2FI@CE@PPPPPPPM@EI@EBAKPEBVIPath_v1@AdobeXMPCore@@AEAPEBVIError_v1@AdobeXMPCommon@@@Z 000000018005f57c f i ArrayNodeImpl.obj
 0001:0005e598       ?InsertNodeAtPath@CompositeNodeImpl@AdobeXMPCore_Int@@$4PPPPPPPM@A@EAAXAEBV?$shared_ptr@VINode_v1@AdobeXMPCore@@@std@@AEBV?$shared_ptr@$$CBVIPath_v1@AdobeXMPCore@@@4@@Z 000000018005f598 f i ArrayNodeImpl.obj
 0001:0005e5a4       ?getPath@INode_I@AdobeXMPCore_Int@@$R2EA@CA@PPPPPPPM@DI@EBAPEAVIPath_v1@AdobeXMPCore@@AEAPEBVIError_v1@AdobeXMPCommon@@@Z 000000018005f5a4 f i ArrayNodeImpl.obj
 0001:0005e5c0       ?GetName@NodeImpl@AdobeXMPCore_Int@@$R4EA@DE@PPPPPPPM@KI@EBA?AV?$shared_ptr@$$CBVIUTF8String_v1@AdobeXMPCommon@@@std@@XZ 000000018005f5c0 f i ArrayNodeImpl.obj
 0001:0005e5dc       ?GetParent@NodeImpl@AdobeXMPCore_Int@@$R4EA@DE@PPPPPPPM@KI@EAA?AV?$shared_ptr@VINode_v1@AdobeXMPCore@@@std@@XZ 000000018005f5dc f i ArrayNodeImpl.obj
 0001:0005e5f8       ?SetIsQualifierNode@NodeImpl@AdobeXMPCore_Int@@$4PPPPPPPM@A@EAAX_N@Z 000000018005f5f8 f i ArrayNodeImpl.obj
 0001:0005e604       ?hasQualifiers@INode_I@AdobeXMPCore_Int@@$R2KA@BM@PPPPPPPM@DI@EBAKAEAPEBVIError_v1@AdobeXMPCommon@@@Z 000000018005f604 f i ArrayNodeImpl.obj
 0001:0005e620       ?isQualifierNode@INode_I@AdobeXMPCore_Int@@$R2KA@BM@PPPPPPPM@DI@EBAKAEAPEBVIError_v1@AdobeXMPCommon@@@Z 000000018005f620 f i ArrayNodeImpl.obj
 0001:0005e63c       ?getParentNodeType@INode_I@AdobeXMPCore_Int@@$R2KA@BM@PPPPPPPM@DI@EBAKAEAPEBVIError_v1@AdobeXMPCommon@@@Z 000000018005f63c f i ArrayNodeImpl.obj
 0001:0005e658       ?UnShareMutex@ThreadSafeImpl@AdobeXMPCore_Int@@$2PPPPPPPM@A@EAAXXZ 000000018005f658 f i ArrayNodeImpl.obj
 0001:0005e664       ?iterator@ICompositeNode_I@AdobeXMPCore_Int@@$R2FA@CI@PPPPPPPM@EI@EAAPEAVINodeIterator_v1@AdobeXMPCore@@AEAPEBVIError_v1@AdobeXMPCommon@@@Z 000000018005f664 f i ArrayNodeImpl.obj
 0001:0005e680       ?insertQualifier@INode_I@AdobeXMPCore_Int@@$R2DI@CE@PPPPPPPM@DI@EAAXPEAVINode_v1@AdobeXMPCore@@AEAPEBVIError_v1@AdobeXMPCommon@@@Z 000000018005f680 f i ArrayNodeImpl.obj
 0001:0005e698       ?GetINode_I@INode_I@AdobeXMPCore_Int@@$R4DA@CA@PPPPPPPM@DI@EAAPEAV12@XZ 000000018005f698 f i ArrayNodeImpl.obj
 0001:0005e6b4       ?getInterfacePointer@ICompositeNode_I@AdobeXMPCore_Int@@$2PPPPPPPM@A@EAAPEAX_KKAEAPEBVIError_v1@AdobeXMPCommon@@@Z 000000018005f6b4 f i ArrayNodeImpl.obj
 0001:0005e6c0       ??_EINode_v1@AdobeXMPCore@@O7EAAPEAXI@Z 000000018005f6c0 f i ArrayNodeImpl.obj
 0001:0005e6cc       ?Next@?$TNodeIteratorImpl@V?$_Vector_iterator@V?$_Vector_val@U?$_Simple_types@V?$shared_ptr@VINode_v1@AdobeXMPCore@@@std@@@std@@@std@@@std@@@AdobeXMPCore_Int@@$4PPPPPPPM@A@EAA?AV?$shared_ptr@VINodeIterator_v1@AdobeXMPCore@@@std@@XZ 000000018005f6cc f i ArrayNodeImpl.obj
 0001:0005e6d8       ?replaceNodeAtPath@ICompositeNode_I@AdobeXMPCore_Int@@$R2HI@CI@PPPPPPPM@EI@EAAPEAVINode_v1@AdobeXMPCore@@PEAV34@PEBVIPath_v1@4@AEAPEBVIError_v1@AdobeXMPCommon@@@Z 000000018005f6d8 f i ArrayNodeImpl.obj
 0001:0005e6f4       ?DisableThreadSafety@ThreadSafeImpl@AdobeXMPCore_Int@@$R2FA@DI@PPPPPPPM@CI@EBAXXZ 000000018005f6f4 f i ArrayNodeImpl.obj
 0001:0005e710       ?hasQualifiers@INode_I@AdobeXMPCore_Int@@$R2EA@CA@PPPPPPPM@DI@EBAKAEAPEBVIError_v1@AdobeXMPCommon@@@Z 000000018005f710 f i ArrayNodeImpl.obj
 0001:0005e72c       ?isQualifierNode@INode_I@AdobeXMPCore_Int@@$R2EA@CA@PPPPPPPM@DI@EBAKAEAPEBVIError_v1@AdobeXMPCommon@@@Z 000000018005f72c f i ArrayNodeImpl.obj
 0001:0005e748       ?getParentNodeType@INode_I@AdobeXMPCore_Int@@$R2EA@CA@PPPPPPPM@DI@EBAKAEAPEBVIError_v1@AdobeXMPCommon@@@Z 000000018005f748 f i ArrayNodeImpl.obj
 0001:0005e764       ?HasChanged@NodeImpl@AdobeXMPCore_Int@@$R4EA@DE@PPPPPPPM@KI@EBA_NXZ 000000018005f764 f i ArrayNodeImpl.obj
 0001:0005e780       ?QualifiersIterator@NodeImpl@AdobeXMPCore_Int@@$R4EA@DE@PPPPPPPM@KI@EAA?AV?$shared_ptr@VINodeIterator_v1@AdobeXMPCore@@@std@@XZ 000000018005f780 f i ArrayNodeImpl.obj
 0001:0005e79c       ?getInterfacePointer@ICompositeNode_I@AdobeXMPCore_Int@@$R2CA@CE@PPPPPPPM@BI@EAAPEAX_KKAEAPEBVIError_v1@AdobeXMPCommon@@@Z 000000018005f79c f i ArrayNodeImpl.obj
 0001:0005e7b8       ??_ECompositeNodeImpl@AdobeXMPCore_Int@@$2PPPPPPPM@BA@EAAPEAXI@Z 000000018005f7b8 f i ArrayNodeImpl.obj
 0001:0005e7c8       ??_ENodeImpl@AdobeXMPCore_Int@@OKA@EAAPEAXI@Z 000000018005f7c8 f i ArrayNodeImpl.obj
 0001:0005e7d4       ?getNameSpace@INode_I@AdobeXMPCore_Int@@$R2DI@CE@PPPPPPPM@DI@EBAPEBVIUTF8String_v1@AdobeXMPCommon@@AEAPEBVIError_v1@4@@Z 000000018005f7d4 f i ArrayNodeImpl.obj
 0001:0005e7ec       ?isThreadSafe@IThreadSafe_I@AdobeXMPCommon_Int@@WPPPPPPJA@EBAKXZ 000000018005f7ec f i ArrayNodeImpl.obj
 0001:0005e7f8       ?getPath@INode_I@AdobeXMPCore_Int@@$2PPPPPPPM@A@EBAPEAVIPath_v1@AdobeXMPCore@@AEAPEBVIError_v1@AdobeXMPCommon@@@Z 000000018005f7f8 f i ArrayNodeImpl.obj
 0001:0005e804       ?GetISharedObject_I@ISharedObject_I@AdobeXMPCommon_Int@@$R4CA@BA@PPPPPPPM@BA@EAAPEAV12@XZ 000000018005f804 f i ArrayNodeImpl.obj
 0001:0005e820       ?SetNameSpace@NodeImpl@AdobeXMPCore_Int@@$R4EA@DE@PPPPPPPM@KI@EAAXPEBD_K@Z 000000018005f820 f i ArrayNodeImpl.obj
 0001:0005e83c       ?getNodeType@INode_I@AdobeXMPCore_Int@@$R2KA@BM@PPPPPPPM@DI@EBAKAEAPEBVIError_v1@AdobeXMPCommon@@@Z 000000018005f83c f i ArrayNodeImpl.obj
 0001:0005e858       ?replaceQualifier@INode_I@AdobeXMPCore_Int@@$R2KA@BM@PPPPPPPM@DI@EAAPEAVINode_v1@AdobeXMPCore@@PEAV34@AEAPEBVIError_v1@AdobeXMPCommon@@@Z 000000018005f858 f i ArrayNodeImpl.obj
 0001:0005e874       ?GetNameSpace@NodeImpl@AdobeXMPCore_Int@@$4PPPPPPPM@A@EBA?AV?$shared_ptr@$$CBVIUTF8String_v1@AdobeXMPCommon@@@std@@XZ 000000018005f874 f i ArrayNodeImpl.obj
 0001:0005e880       ?SetName@NodeImpl@AdobeXMPCore_Int@@$4PPPPPPPM@A@EAAXPEBD_K@Z 000000018005f880 f i ArrayNodeImpl.obj
 0001:0005e88c       ?GetInterfacePointer@INode_I@AdobeXMPCore_Int@@$R4IA@BM@PPPPPPPM@CA@EAAPEAX_KK@Z 000000018005f88c f i ArrayNodeImpl.obj
 0001:0005e8a8       ?GetInterfacePointer@INodeIterator_I@AdobeXMPCore_Int@@$4PPPPPPPM@A@EAAPEAX_KK@Z 000000018005f8a8 f i ArrayNodeImpl.obj
 0001:0005e8b4       ?clone@INode_I@AdobeXMPCore_Int@@$R2DI@CE@PPPPPPPM@DI@EBAPEAVINode_v1@AdobeXMPCore@@KKAEAPEBVIError_v1@AdobeXMPCommon@@@Z 000000018005f8b4 f i ArrayNodeImpl.obj
 0001:0005e8cc       ?appendNode@ICompositeNode_I@AdobeXMPCore_Int@@$2PPPPPPPM@A@EAAXPEAVINode_v1@AdobeXMPCore@@AEAPEBVIError_v1@AdobeXMPCommon@@@Z 000000018005f8cc f i ArrayNodeImpl.obj
 0001:0005e8d8       ?isEmpty@INode_I@AdobeXMPCore_Int@@$R2DA@CA@PPPPPPPM@DI@EBAKAEAPEBVIError_v1@AdobeXMPCommon@@@Z 000000018005f8d8 f i ArrayNodeImpl.obj
 0001:0005e8f4       ?getParent@INode_I@AdobeXMPCore_Int@@$R2DA@CA@PPPPPPPM@DI@EAAPEAVINode_v1@AdobeXMPCore@@AEAPEBVIError_v1@AdobeXMPCommon@@@Z 000000018005f8f4 f i ArrayNodeImpl.obj
 0001:0005e910       ?hasQualifiers@INode_I@AdobeXMPCore_Int@@$2PPPPPPPM@A@EBAKAEAPEBVIError_v1@AdobeXMPCommon@@@Z 000000018005f910 f i ArrayNodeImpl.obj
 0001:0005e91c       ?isQualifierNode@INode_I@AdobeXMPCore_Int@@$2PPPPPPPM@A@EBAKAEAPEBVIError_v1@AdobeXMPCommon@@@Z 000000018005f91c f i ArrayNodeImpl.obj
 0001:0005e928       ?getParentNodeType@INode_I@AdobeXMPCore_Int@@$2PPPPPPPM@A@EBAKAEAPEBVIError_v1@AdobeXMPCommon@@@Z 000000018005f928 f i ArrayNodeImpl.obj
 0001:0005e934       ??_EINodeIterator_v1@AdobeXMPCore@@O7EAAPEAXI@Z 000000018005f934 f i ArrayNodeImpl.obj
 0001:0005e940       ?GetInterfacePointer@INodeIterator_I@AdobeXMPCore_Int@@$R4DA@BE@PPPPPPPM@BI@EAAPEAX_KK@Z 000000018005f940 f i ArrayNodeImpl.obj
 0001:0005e95c       ?InsertNodeAtIndex@ArrayNodeImpl@AdobeXMPCore_Int@@$4PPPPPPPM@A@EAAXAEBV?$shared_ptr@VINode_v1@AdobeXMPCore@@@std@@_K@Z 000000018005f95c f i ArrayNodeImpl.obj
 0001:0005e968       ?InsertNodeAtPath@CompositeNodeImpl@AdobeXMPCore_Int@@$R4HI@EA@PPPPPPPM@GA@EAAXAEBV?$shared_ptr@VINode_v1@AdobeXMPCore@@@std@@AEBV?$shared_ptr@$$CBVIPath_v1@AdobeXMPCore@@@4@@Z 000000018005f968 f i ArrayNodeImpl.obj
 0001:0005e984       ?convertToStructureNode@INode_I@AdobeXMPCore_Int@@$R2GA@CE@PPPPPPPM@DI@EAAPEAVIStructureNode_v1@AdobeXMPCore@@AEAPEBVIError_v1@AdobeXMPCommon@@@Z 000000018005f984 f i ArrayNodeImpl.obj
 0001:0005e9a0       ?hasChanged@INode_I@AdobeXMPCore_Int@@$R2GA@CE@PPPPPPPM@DI@EBAKAEAPEBVIError_v1@AdobeXMPCommon@@@Z 000000018005f9a0 f i ArrayNodeImpl.obj
 0001:0005e9bc       ?getNodeType@INode_I@AdobeXMPCore_Int@@$R2EA@CA@PPPPPPPM@DI@EBAKAEAPEBVIError_v1@AdobeXMPCommon@@@Z 000000018005f9bc f i ArrayNodeImpl.obj
 0001:0005e9d8       ?replaceQualifier@INode_I@AdobeXMPCore_Int@@$R2EA@CA@PPPPPPPM@DI@EAAPEAVINode_v1@AdobeXMPCore@@PEAV34@AEAPEBVIError_v1@AdobeXMPCommon@@@Z 000000018005f9d8 f i ArrayNodeImpl.obj
 0001:0005e9f4       ?insertQualifier@INode_I@AdobeXMPCore_Int@@$R2KA@BM@PPPPPPPM@DI@EAAXPEAVINode_v1@AdobeXMPCore@@AEAPEBVIError_v1@AdobeXMPCommon@@@Z 000000018005f9f4 f i ArrayNodeImpl.obj
 0001:0005ea10       ?AcknowledgeChanges@NodeImpl@AdobeXMPCore_Int@@$4PPPPPPPM@A@EBAXXZ 000000018005fa10 f i ArrayNodeImpl.obj
 0001:0005ea1c       ?convertToMetadata@INode_I@AdobeXMPCore_Int@@$R2DI@CE@PPPPPPPM@DI@EAAPEAVIMetadata_v1@AdobeXMPCore@@AEAPEBVIError_v1@AdobeXMPCommon@@@Z 000000018005fa1c f i ArrayNodeImpl.obj
 0001:0005ea34       ?setName@INode_I@AdobeXMPCore_Int@@$R2DA@CA@PPPPPPPM@DI@EAAXPEBD_KAEAPEBVIError_v1@AdobeXMPCommon@@@Z 000000018005fa34 f i ArrayNodeImpl.obj
 0001:0005ea50       ?ClearContents@ArrayNodeImpl@AdobeXMPCore_Int@@$4PPPPPPPM@A@EAAXXZ 000000018005fa50 f i ArrayNodeImpl.obj
 0001:0005ea5c       ?getNodeAtPath@ICompositeNode_I@AdobeXMPCore_Int@@$R2HI@CI@PPPPPPPM@EI@EAAPEAVINode_v1@AdobeXMPCore@@PEBVIPath_v1@4@AEAPEBVIError_v1@AdobeXMPCommon@@@Z 000000018005fa5c f i ArrayNodeImpl.obj
 0001:0005ea78       ?GetIndex@NodeImpl@AdobeXMPCore_Int@@$R4GA@DM@PPPPPPPM@KI@EBA_KXZ 000000018005fa78 f i ArrayNodeImpl.obj
 0001:0005ea94       ??_EArrayNodeImpl@AdobeXMPCore_Int@@$2PPPPPPPM@BA@EAAPEAXI@Z 000000018005fa94 f i ArrayNodeImpl.obj
 0001:0005eaa4       ?Release@NodeImpl@AdobeXMPCore_Int@@$R4DA@DM@PPPPPPPM@HI@EBAXXZ 000000018005faa4 f i ArrayNodeImpl.obj
 0001:0005eac0       ?GetRawParentPointer@NodeImpl@AdobeXMPCore_Int@@$R4KA@DE@PPPPPPPM@PA@EAAPEAVINode_v1@AdobeXMPCore@@XZ 000000018005fac0 f i ArrayNodeImpl.obj
 0001:0005eadc       ?iterator@ICompositeNode_I@AdobeXMPCore_Int@@$R2FI@CE@PPPPPPPM@EI@EAAPEAVINodeIterator_v1@AdobeXMPCore@@AEAPEBVIError_v1@AdobeXMPCommon@@@Z 000000018005fadc f i ArrayNodeImpl.obj
 0001:0005eaf8       ?insertQualifier@INode_I@AdobeXMPCore_Int@@$R2EA@CA@PPPPPPPM@DI@EAAXPEAVINode_v1@AdobeXMPCore@@AEAPEBVIError_v1@AdobeXMPCommon@@@Z 000000018005faf8 f i ArrayNodeImpl.obj
 0001:0005eb14       ?ReplaceQualifier@NodeImpl@AdobeXMPCore_Int@@$R4EA@DE@PPPPPPPM@KI@EAA?AV?$shared_ptr@VINode_v1@AdobeXMPCore@@@std@@AEBV34@@Z 000000018005fb14 f i ArrayNodeImpl.obj
 0001:0005eb30       ?getNameSpace@INode_I@AdobeXMPCore_Int@@$R2KA@BM@PPPPPPPM@DI@EBAPEBVIUTF8String_v1@AdobeXMPCommon@@AEAPEBVIError_v1@4@@Z 000000018005fb30 f i ArrayNodeImpl.obj
 0001:0005eb4c       ?QualifiersCount@NodeImpl@AdobeXMPCore_Int@@$4PPPPPPPM@A@EBA_KXZ 000000018005fb4c f i ArrayNodeImpl.obj
 0001:0005eb58       ?IsThreadSafe@ThreadSafeImpl@AdobeXMPCore_Int@@$2PPPPPPPM@A@EBA_NXZ 000000018005fb58 f i ArrayNodeImpl.obj
 0001:0005eb64       ?removeNodeAtIndex@IArrayNode_I@AdobeXMPCore_Int@@$2PPPPPPPM@A@EAAPEAVINode_v1@AdobeXMPCore@@_KAEAPEBVIError_v1@AdobeXMPCommon@@@Z 000000018005fb64 f i ArrayNodeImpl.obj
 0001:0005eb70       ?convertToSimpleNode@INode_I@AdobeXMPCore_Int@@$R2DI@CE@PPPPPPPM@DI@EAAPEAVISimpleNode_v1@AdobeXMPCore@@AEAPEBVIError_v1@AdobeXMPCommon@@@Z 000000018005fb70 f i ArrayNodeImpl.obj
 0001:0005eb88       ?getInterfacePointer@IArrayNode_I@AdobeXMPCore_Int@@$2PPPPPPPM@A@EAAPEAX_KKAEAPEBVIError_v1@AdobeXMPCommon@@@Z 000000018005fb88 f i ArrayNodeImpl.obj
 0001:0005eb94       ?hasContent@INode_I@AdobeXMPCore_Int@@$R2DA@CA@PPPPPPPM@DI@EBAKAEAPEBVIError_v1@AdobeXMPCommon@@@Z 000000018005fb94 f i ArrayNodeImpl.obj
 0001:0005ebb0       ?getIndex@INode_I@AdobeXMPCore_Int@@$R2DA@CA@PPPPPPPM@DI@EBA_KAEAPEBVIError_v1@AdobeXMPCommon@@@Z 000000018005fbb0 f i ArrayNodeImpl.obj
 0001:0005ebcc       ?getNodeType@INode_I@AdobeXMPCore_Int@@$2PPPPPPPM@A@EBAKAEAPEBVIError_v1@AdobeXMPCommon@@@Z 000000018005fbcc f i ArrayNodeImpl.obj
 0001:0005ebd8       ?replaceQualifier@INode_I@AdobeXMPCore_Int@@$2PPPPPPPM@A@EAAPEAVINode_v1@AdobeXMPCore@@PEAV34@AEAPEBVIError_v1@AdobeXMPCommon@@@Z 000000018005fbd8 f i ArrayNodeImpl.obj
 0001:0005ebe4       ??1IConfigurable@AdobeXMPCommon@@MEAA@XZ 000000018005fbe4 f i ClientDOMParserWrapperImpl.obj
 0001:0005ebf0       ??_GIConfigurable@AdobeXMPCommon@@MEAAPEAXI@Z 000000018005fbf0 f i ClientDOMParserWrapperImpl.obj
 0001:0005ebf0       ??_EIConfigurable@AdobeXMPCommon@@MEAAPEAXI@Z 000000018005fbf0 f i * CIL library *:* CIL module *
 0001:0005ec1c       ??1IDOMParser_v1@AdobeXMPCore@@MEAA@XZ 000000018005fc1c f i ClientDOMParserWrapperImpl.obj
 0001:0005ec64       ??_GIDOMParser_v1@AdobeXMPCore@@MEAAPEAXI@Z 000000018005fc64 f i ClientDOMParserWrapperImpl.obj
 0001:0005ec64       ??_EIDOMParser_v1@AdobeXMPCore@@MEAAPEAXI@Z 000000018005fc64 f i * CIL library *:* CIL module *
 0001:0005ecd4       ?ModifyKey@IConfigurable_I@AdobeXMPCore_Int@@UEBA_KAEB_K@Z 000000018005fcd4 f i ClientDOMParserWrapperImpl.obj
 0001:0005ecd8       ??1IConfigurable_I@AdobeXMPCore_Int@@MEAA@XZ 000000018005fcd8 f i ClientDOMParserWrapperImpl.obj
 0001:0005ed0c       ??_EIConfigurable_I@AdobeXMPCore_Int@@MEAAPEAXI@Z 000000018005fd0c f i * CIL library *:* CIL module *
 0001:0005ed0c       ??_GIConfigurable_I@AdobeXMPCore_Int@@MEAAPEAXI@Z 000000018005fd0c f i ClientDOMParserWrapperImpl.obj
 0001:0005ed60       ?GetActualIDOMParser@IDOMParser_I@AdobeXMPCore_Int@@UEAAPEAVIDOMParser_v1@AdobeXMPCore@@XZ 000000018005fd60 f i ClientDOMParserWrapperImpl.obj
 0001:0005ed60       ?GetActualIDOMSerializer@IDOMSerializer_I@AdobeXMPCore_Int@@UEAAPEAVIDOMSerializer_v1@AdobeXMPCore@@XZ 000000018005fd60 f i ClientDOMSerializerWrapperImpl.obj
 0001:0005ed84       ?GetISharedObject_I@IDOMSerializer_I@AdobeXMPCore_Int@@UEAAPEAVISharedObject_I@AdobeXMPCommon_Int@@XZ 000000018005fd84 f i ClientDOMSerializerWrapperImpl.obj
 0001:0005ed84       ?GetISharedObject_I@IDOMParser_I@AdobeXMPCore_Int@@UEAAPEAVISharedObject_I@AdobeXMPCommon_Int@@XZ 000000018005fd84 f i ClientDOMParserWrapperImpl.obj
 0001:0005eda8       ??1IDOMParser_I@AdobeXMPCore_Int@@MEAA@XZ 000000018005fda8 f i ClientDOMParserWrapperImpl.obj
 0001:0005ee58       ??_EIDOMParser_I@AdobeXMPCore_Int@@MEAAPEAXI@Z 000000018005fe58 f i * CIL library *:* CIL module *
 0001:0005ee58       ??_GIDOMParser_I@AdobeXMPCore_Int@@MEAAPEAXI@Z 000000018005fe58 f i ClientDOMParserWrapperImpl.obj
 0001:0005ee90       ??0ConfigurableImpl@AdobeXMPCore_Int@@QEAA@XZ 000000018005fe90 f i ClientDOMParserWrapperImpl.obj
 0001:0005ef28       ??_EConfigurableImpl@AdobeXMPCore_Int@@UEAAPEAXI@Z 000000018005ff28 f i * CIL library *:* CIL module *
 0001:0005ef28       ??_GConfigurableImpl@AdobeXMPCore_Int@@UEAAPEAXI@Z 000000018005ff28 f i ClientDOMParserWrapperImpl.obj
 0001:0005ef60       ??1DOMParserImpl@AdobeXMPCore_Int@@MEAA@XZ 000000018005ff60 f i ClientDOMParserWrapperImpl.obj
 0001:0005f0a8       ??_GDOMParserImpl@AdobeXMPCore_Int@@MEAAPEAXI@Z 00000001800600a8 f i ClientDOMParserWrapperImpl.obj
 0001:0005f0a8       ??_EDOMParserImpl@AdobeXMPCore_Int@@MEAAPEAXI@Z 00000001800600a8 f i * CIL library *:* CIL module *
 0001:0005f108       ?MakeShared@IError_v1@AdobeXMPCommon@@SA?AV?$shared_ptr@$$CBVIError_v1@AdobeXMPCommon@@@std@@PEBV12@@Z 0000000180060108 f i ClientDOMParserWrapperImpl.obj
 0001:0005f180       ??0ClientDOMParserWrapperImpl@AdobeXMPCore_Int@@QEAA@PEAVIClientDOMParser_v1@AdobeXMPCore@@@Z 0000000180060180 f   ClientDOMParserWrapperImpl.obj
 0001:0005f6dc       ??_GClientDOMParserWrapperImpl@AdobeXMPCore_Int@@MEAAPEAXI@Z 00000001800606dc f i ClientDOMParserWrapperImpl.obj
 0001:0005f6dc       ??_EClientDOMParserWrapperImpl@AdobeXMPCore_Int@@MEAAPEAXI@Z 00000001800606dc f i * CIL library *:* CIL module *
 0001:0005f860       ?ParseAsNode@ClientDOMParserWrapperImpl@AdobeXMPCore_Int@@UEAA?AV?$shared_ptr@VINode_v1@AdobeXMPCore@@@std@@PEBD_K@Z 0000000180060860 f   ClientDOMParserWrapperImpl.obj
 0001:0005fa28       ??1ClientDOMParserWrapperImpl@AdobeXMPCore_Int@@MEAA@XZ 0000000180060a28 f   ClientDOMParserWrapperImpl.obj
 0001:0005fb68       ?ValidateValue@ClientDOMParserWrapperImpl@AdobeXMPCore_Int@@UEBA?AW4eConfigurableErrorCode@AdobeXMPCommon@@AEB_KW4eDataType@IConfigurable@4@AEBTCombinedDataValue@64@@Z 0000000180060b68 f   ClientDOMParserWrapperImpl.obj
 0001:0005fcc0       ?clone@ClientDOMParserWrapperImpl@AdobeXMPCore_Int@@UEBAPEAVDOMParserImpl@2@XZ 0000000180060cc0 f   ClientDOMParserWrapperImpl.obj
 0001:0005fd28       ?erase@?$_Tree@V?$_Tmap_traits@_KU?$pair@W4eDataType@IConfigurable@AdobeXMPCommon@@TCombinedDataValue@23@@std@@U?$less@_K@2@V?$TAllocator@U?$pair@_KU?$pair@W4eDataType@IConfigurable@AdobeXMPCommon@@TCombinedDataValue@23@@std@@@std@@@AdobeXMPCore_Int@@$0A@@std@@@std@@QEAA?AV?$_Tree_iterator@V?$_Tree_val@U?$_Tree_simple_types@U?$pair@$$CB_KU?$pair@W4eDataType@IConfigurable@AdobeXMPCommon@@TCombinedDataValue@23@@std@@@std@@@std@@@std@@@2@V?$_Tree_const_iterator@V?$_Tree_val@U?$_Tree_simple_types@U?$pair@$$CB_KU?$pair@W4eDataType@IConfigurable@AdobeXMPCommon@@TCombinedDataValue@23@@std@@@std@@@std@@@std@@@2@0@Z 0000000180060d28 f i ClientDOMParserWrapperImpl.obj
 0001:0005fe44       ?erase@?$_Tree@V?$_Tset_traits@_KU?$less@_K@std@@V?$TAllocator@_K@AdobeXMPCore_Int@@$0A@@std@@@std@@QEAA?AV?$_Tree_const_iterator@V?$_Tree_val@U?$_Tree_simple_types@_K@std@@@std@@@2@V32@@Z 0000000180060e44 f i DOMParserImpl.obj
 0001:0005fe44       ?erase@?$_Tree@V?$_Tmap_traits@_KW4eDataType@IConfigurable@AdobeXMPCommon@@U?$less@_K@std@@V?$TAllocator@U?$pair@_KW4eDataType@IConfigurable@AdobeXMPCommon@@@std@@@AdobeXMPCore_Int@@$0A@@std@@@std@@QEAA?AV?$_Tree_iterator@V?$_Tree_val@U?$_Tree_simple_types@U?$pair@$$CB_KW4eDataType@IConfigurable@AdobeXMPCommon@@@std@@@std@@@std@@@2@V?$_Tree_const_iterator@V?$_Tree_val@U?$_Tree_simple_types@U?$pair@$$CB_KW4eDataType@IConfigurable@AdobeXMPCommon@@@std@@@std@@@std@@@2@@Z 0000000180060e44 f i DOMParserImpl.obj
 0001:0005fe44       ?erase@?$_Tree@V?$_Tmap_traits@_KU?$pair@W4eDataType@IConfigurable@AdobeXMPCommon@@TCombinedDataValue@23@@std@@U?$less@_K@2@V?$TAllocator@U?$pair@_KU?$pair@W4eDataType@IConfigurable@AdobeXMPCommon@@TCombinedDataValue@23@@std@@@std@@@AdobeXMPCore_Int@@$0A@@std@@@std@@QEAA?AV?$_Tree_iterator@V?$_Tree_val@U?$_Tree_simple_types@U?$pair@$$CB_KU?$pair@W4eDataType@IConfigurable@AdobeXMPCommon@@TCombinedDataValue@23@@std@@@std@@@std@@@std@@@2@V?$_Tree_const_iterator@V?$_Tree_val@U?$_Tree_simple_types@U?$pair@$$CB_KU?$pair@W4eDataType@IConfigurable@AdobeXMPCommon@@TCombinedDataValue@23@@std@@@std@@@std@@@std@@@2@@Z 0000000180060e44 f i ClientDOMParserWrapperImpl.obj
 0001:000602dc       ?_Buyheadnode@?$_Tree_comp_alloc@V?$_Tmap_traits@_KU?$pair@W4eDataType@IConfigurable@AdobeXMPCommon@@TCombinedDataValue@23@@std@@U?$less@_K@2@V?$TAllocator@U?$pair@_KU?$pair@W4eDataType@IConfigurable@AdobeXMPCommon@@TCombinedDataValue@23@@std@@@std@@@AdobeXMPCore_Int@@$0A@@std@@@std@@QEAAPEAU?$_Tree_node@U?$pair@$$CB_KU?$pair@W4eDataType@IConfigurable@AdobeXMPCommon@@TCombinedDataValue@23@@std@@@std@@PEAX@2@XZ 00000001800612dc f i ClientDOMParserWrapperImpl.obj
 0001:0006032c       ?_Erase@?$_Tree@V?$_Tmap_traits@_KU?$pair@W4eDataType@IConfigurable@AdobeXMPCommon@@TCombinedDataValue@23@@std@@U?$less@_K@2@V?$TAllocator@U?$pair@_KU?$pair@W4eDataType@IConfigurable@AdobeXMPCommon@@TCombinedDataValue@23@@std@@@std@@@AdobeXMPCore_Int@@$0A@@std@@@std@@IEAAXPEAU?$_Tree_node@U?$pair@$$CB_KU?$pair@W4eDataType@IConfigurable@AdobeXMPCommon@@TCombinedDataValue@23@@std@@@std@@PEAX@2@@Z 000000018006132c f i ClientDOMParserWrapperImpl.obj
 0001:0006032c       ?_Erase@?$_Tree@V?$_Tmap_traits@_KW4eDataType@IConfigurable@AdobeXMPCommon@@U?$less@_K@std@@V?$TAllocator@U?$pair@_KW4eDataType@IConfigurable@AdobeXMPCommon@@@std@@@AdobeXMPCore_Int@@$0A@@std@@@std@@IEAAXPEAU?$_Tree_node@U?$pair@$$CB_KW4eDataType@IConfigurable@AdobeXMPCommon@@@std@@PEAX@2@@Z 000000018006132c f i DOMParserImpl.obj
 0001:0006032c       ?_Erase@?$_Tree@V?$_Tset_traits@_KU?$less@_K@std@@V?$TAllocator@_K@AdobeXMPCore_Int@@$0A@@std@@@std@@IEAAXPEAU?$_Tree_node@_KPEAX@2@@Z 000000018006132c f i DOMParserImpl.obj
 0001:00060390       ?parseWithSpecificAction@IDOMParser_I@AdobeXMPCore_Int@@$R2FI@BM@PPPPPPPM@EI@EAAXPEBD_KKPEAVINode_v1@AdobeXMPCore@@AEAPEBVIError_v1@AdobeXMPCommon@@@Z 0000000180061390 f i ClientDOMParserWrapperImpl.obj
 0001:000603ac       ?SetParameter@IConfigurable_I@AdobeXMPCore_Int@@$4PPPPPPPM@A@EAAXAEB_K_N@Z 00000001800613ac f i ClientDOMParserWrapperImpl.obj
 0001:000603b8       ?SetParameter@IConfigurable_I@AdobeXMPCore_Int@@$4PPPPPPPM@A@EAAXAEB_K_K@Z 00000001800613b8 f i ClientDOMParserWrapperImpl.obj
 0001:000603c4       ?SetParameter@IConfigurable_I@AdobeXMPCore_Int@@$4PPPPPPPM@A@EAAXAEB_K_J@Z 00000001800613c4 f i ClientDOMParserWrapperImpl.obj
 0001:000603d0       ?SetParameter@IConfigurable_I@AdobeXMPCore_Int@@$4PPPPPPPM@A@EAAXAEB_KN@Z 00000001800613d0 f i ClientDOMParserWrapperImpl.obj
 0001:000603dc       ?SetParameter@IConfigurable_I@AdobeXMPCore_Int@@$4PPPPPPPM@A@EAAXAEB_KD@Z 00000001800613dc f i ClientDOMParserWrapperImpl.obj
 0001:000603e8       ?SetParameter@IConfigurable_I@AdobeXMPCore_Int@@$4PPPPPPPM@A@EAAXAEB_KPEBD@Z 00000001800613e8 f i ClientDOMParserWrapperImpl.obj
 0001:000603f4       ?SetParameter@IConfigurable_I@AdobeXMPCore_Int@@$4PPPPPPPM@A@EAAXAEB_KPEBX@Z 00000001800613f4 f i ClientDOMParserWrapperImpl.obj
 0001:00060400       ?SetParameter@IConfigurable_I@AdobeXMPCore_Int@@$R4BA@BE@PPPPPPPM@BI@EAAXAEB_K_N@Z 0000000180061400 f i ClientDOMParserWrapperImpl.obj
 0001:0006041c       ?SetParameter@IConfigurable_I@AdobeXMPCore_Int@@$R4BA@BE@PPPPPPPM@BI@EAAXAEB_K_K@Z 000000018006141c f i ClientDOMParserWrapperImpl.obj
 0001:00060438       ?SetParameter@IConfigurable_I@AdobeXMPCore_Int@@$R4BA@BE@PPPPPPPM@BI@EAAXAEB_K_J@Z 0000000180061438 f i ClientDOMParserWrapperImpl.obj
 0001:00060454       ?SetParameter@IConfigurable_I@AdobeXMPCore_Int@@$R4BA@BE@PPPPPPPM@BI@EAAXAEB_KN@Z 0000000180061454 f i ClientDOMParserWrapperImpl.obj
 0001:00060470       ?SetParameter@IConfigurable_I@AdobeXMPCore_Int@@$R4BA@BE@PPPPPPPM@BI@EAAXAEB_KD@Z 0000000180061470 f i ClientDOMParserWrapperImpl.obj
 0001:0006048c       ?SetParameter@IConfigurable_I@AdobeXMPCore_Int@@$R4BA@BE@PPPPPPPM@BI@EAAXAEB_KPEBD@Z 000000018006148c f i ClientDOMParserWrapperImpl.obj
 0001:000604a8       ?SetParameter@IConfigurable_I@AdobeXMPCore_Int@@$R4BA@BE@PPPPPPPM@BI@EAAXAEB_KPEBX@Z 00000001800614a8 f i ClientDOMParserWrapperImpl.obj
 0001:000604c4       ?SetAllowedKeys@ConfigurableImpl@AdobeXMPCore_Int@@$R4GA@CA@PPPPPPPM@FA@EAAXPEA_K_K@Z 00000001800614c4 f i ClientDOMParserWrapperImpl.obj
 0001:000604e0       ??_EClientDOMParserWrapperImpl@AdobeXMPCore_Int@@$2PPPPPPPM@A@EAAPEAXI@Z 00000001800614e0 f i ClientDOMParserWrapperImpl.obj
 0001:000604ec       ?setParameter@IConfigurable_I@AdobeXMPCore_Int@@$R2BI@BE@PPPPPPPM@BI@EAAXAEB_KKAEBTCombinedDataValue@IConfigurable@AdobeXMPCommon@@AEAPEBVIError_v1@5@@Z 00000001800614ec f i ClientDOMParserWrapperImpl.obj
 0001:00060504       ?GetIDOMParser_I@IDOMParser_I@AdobeXMPCore_Int@@$R4FI@BM@PPPPPPPM@EI@EAAPEAV12@XZ 0000000180061504 f i ClientDOMParserWrapperImpl.obj
 0001:00060520       ?GetISharedObject_I@IDOMParser_I@AdobeXMPCore_Int@@$R4DI@BM@PPPPPPPM@CI@EAAPEAVISharedObject_I@AdobeXMPCommon_Int@@XZ 0000000180061520 f i ClientDOMParserWrapperImpl.obj
 0001:0006053c       ??_EDOMParserImpl@AdobeXMPCore_Int@@$2PPPPPPPM@A@EAAPEAXI@Z 000000018006153c f i ClientDOMParserWrapperImpl.obj
 0001:00060548       ?getDataType@IConfigurable_I@AdobeXMPCore_Int@@$R2CI@BE@PPPPPPPM@BI@EBAKAEB_KAEAPEBVIError_v1@AdobeXMPCommon@@@Z 0000000180061548 f i ClientDOMParserWrapperImpl.obj
 0001:00060564       ?removeParameter@IConfigurable_I@AdobeXMPCore_Int@@$R2DI@7PPPPPPPM@BI@EAAKAEB_KAEAPEBVIError_v1@AdobeXMPCommon@@@Z 0000000180061564 f i ClientDOMParserWrapperImpl.obj
 0001:00060580       ??_EIDOMParser_v1@AdobeXMPCore@@O7EAAPEAXI@Z 0000000180061580 f i ClientDOMParserWrapperImpl.obj
 0001:0006058c       ??_EClientDOMParserWrapperImpl@AdobeXMPCore_Int@@$2PPPPPPPM@CA@EAAPEAXI@Z 000000018006158c f i ClientDOMParserWrapperImpl.obj
 0001:0006059c       ??_EDOMParserImpl@AdobeXMPCore_Int@@$2PPPPPPPM@CA@EAAPEAXI@Z 000000018006159c f i ClientDOMParserWrapperImpl.obj
 0001:000605ac       ?AcquireInternal@SharedObjectImpl@AdobeXMPCore_Int@@$R4HI@CE@PPPPPPPM@DA@EBAXXZ 00000001800615ac f i ClientDOMParserWrapperImpl.obj
 0001:000605c8       ?getParameter@IConfigurable_I@AdobeXMPCore_Int@@$R2BI@BE@PPPPPPPM@BI@EBAKAEB_KKAEATCombinedDataValue@IConfigurable@AdobeXMPCommon@@AEAPEBVIError_v1@5@@Z 00000001800615c8 f i ClientDOMParserWrapperImpl.obj
 0001:000605e0       ?GetParameter@IConfigurable_I@AdobeXMPCore_Int@@$R4DI@7PPPPPPPM@BI@EBA_NAEB_KAEA_N@Z 00000001800615e0 f i ClientDOMParserWrapperImpl.obj
 0001:000605fc       ?GetParameter@IConfigurable_I@AdobeXMPCore_Int@@$R4DI@7PPPPPPPM@BI@EBA_NAEB_KAEA_K@Z 00000001800615fc f i ClientDOMParserWrapperImpl.obj
 0001:00060618       ?GetParameter@IConfigurable_I@AdobeXMPCore_Int@@$R4DI@7PPPPPPPM@BI@EBA_NAEB_KAEA_J@Z 0000000180061618 f i ClientDOMParserWrapperImpl.obj
 0001:00060634       ?GetParameter@IConfigurable_I@AdobeXMPCore_Int@@$R4DI@7PPPPPPPM@BI@EBA_NAEB_KAEAN@Z 0000000180061634 f i ClientDOMParserWrapperImpl.obj
 0001:00060650       ?GetParameter@IConfigurable_I@AdobeXMPCore_Int@@$R4DI@7PPPPPPPM@BI@EBA_NAEB_KAEAD@Z 0000000180061650 f i ClientDOMParserWrapperImpl.obj
 0001:0006066c       ?GetParameter@IConfigurable_I@AdobeXMPCore_Int@@$R4DI@7PPPPPPPM@BI@EBA_NAEB_KAEAPEBD@Z 000000018006166c f i ClientDOMParserWrapperImpl.obj
 0001:00060688       ?GetParameter@IConfigurable_I@AdobeXMPCore_Int@@$R4DI@7PPPPPPPM@BI@EBA_NAEB_KAEAPEBX@Z 0000000180061688 f i ClientDOMParserWrapperImpl.obj
 0001:000606a4       ?getInterfacePointer@IDOMParser_I@AdobeXMPCore_Int@@$2PPPPPPPM@A@EAAPEAX_KKAEAPEBVIError_v1@AdobeXMPCommon@@@Z 00000001800616a4 f i ClientDOMParserWrapperImpl.obj
 0001:000606b0       ?GetParameter@ConfigurableImpl@AdobeXMPCore_Int@@$R4GA@CA@PPPPPPPM@FA@EBA_NAEB_KW4eDataType@IConfigurable@AdobeXMPCommon@@AEATCombinedDataValue@45@@Z 00000001800616b0 f i ClientDOMParserWrapperImpl.obj
 0001:000606cc       ?removeParameter@IConfigurable_I@AdobeXMPCore_Int@@$2PPPPPPPM@A@EAAKAEB_KAEAPEBVIError_v1@AdobeXMPCommon@@@Z 00000001800616cc f i ClientDOMParserWrapperImpl.obj
 0001:000606d8       ?removeParameter@IConfigurable_I@AdobeXMPCore_Int@@$R2BA@BE@PPPPPPPM@BI@EAAKAEB_KAEAPEBVIError_v1@AdobeXMPCommon@@@Z 00000001800616d8 f i ClientDOMParserWrapperImpl.obj
 0001:000606f4       ?getDataType@IConfigurable_I@AdobeXMPCore_Int@@$R2DI@7PPPPPPPM@BI@EBAKAEB_KAEAPEBVIError_v1@AdobeXMPCommon@@@Z 00000001800616f4 f i ClientDOMParserWrapperImpl.obj
 0001:00060710       ?ValidateValue@ClientDOMParserWrapperImpl@AdobeXMPCore_Int@@$4PPPPPPPM@A@EBA?AW4eConfigurableErrorCode@AdobeXMPCommon@@AEB_KW4eDataType@IConfigurable@4@AEBTCombinedDataValue@64@@Z 0000000180061710 f i ClientDOMParserWrapperImpl.obj
 0001:0006071c       ?getAllParameters@IConfigurable_I@AdobeXMPCore_Int@@$R2BI@BE@PPPPPPPM@BI@EBAXPEA_K_K@Z 000000018006171c f i ClientDOMParserWrapperImpl.obj
 0001:00060734       ?RemoveParameter@ConfigurableImpl@AdobeXMPCore_Int@@$R4BI@CA@PPPPPPPM@EA@EAA_NAEB_K@Z 0000000180061734 f i ClientDOMParserWrapperImpl.obj
 0001:00060750       ?getInterfacePointer@IDOMParser_I@AdobeXMPCore_Int@@$R2EI@BM@PPPPPPPM@DI@EAAPEAX_KKAEAPEBVIError_v1@AdobeXMPCommon@@@Z 0000000180061750 f i ClientDOMParserWrapperImpl.obj
 0001:0006076c       ?GetParameter@IConfigurable_I@AdobeXMPCore_Int@@$4PPPPPPPM@A@EBA_NAEB_KAEA_N@Z 000000018006176c f i ClientDOMParserWrapperImpl.obj
 0001:00060778       ?GetParameter@IConfigurable_I@AdobeXMPCore_Int@@$4PPPPPPPM@A@EBA_NAEB_KAEA_K@Z 0000000180061778 f i ClientDOMParserWrapperImpl.obj
 0001:00060784       ?GetParameter@IConfigurable_I@AdobeXMPCore_Int@@$4PPPPPPPM@A@EBA_NAEB_KAEA_J@Z 0000000180061784 f i ClientDOMParserWrapperImpl.obj
 0001:00060790       ?GetParameter@IConfigurable_I@AdobeXMPCore_Int@@$4PPPPPPPM@A@EBA_NAEB_KAEAN@Z 0000000180061790 f i ClientDOMParserWrapperImpl.obj
 0001:0006079c       ?GetParameter@IConfigurable_I@AdobeXMPCore_Int@@$4PPPPPPPM@A@EBA_NAEB_KAEAD@Z 000000018006179c f i ClientDOMParserWrapperImpl.obj
 0001:000607a8       ?GetParameter@IConfigurable_I@AdobeXMPCore_Int@@$4PPPPPPPM@A@EBA_NAEB_KAEAPEBD@Z 00000001800617a8 f i ClientDOMParserWrapperImpl.obj
 0001:000607b4       ?GetParameter@IConfigurable_I@AdobeXMPCore_Int@@$4PPPPPPPM@A@EBA_NAEB_KAEAPEBX@Z 00000001800617b4 f i ClientDOMParserWrapperImpl.obj
 0001:000607c0       ?GetParameter@IConfigurable_I@AdobeXMPCore_Int@@$R4BA@BE@PPPPPPPM@BI@EBA_NAEB_KAEA_N@Z 00000001800617c0 f i ClientDOMParserWrapperImpl.obj
 0001:000607dc       ?GetParameter@IConfigurable_I@AdobeXMPCore_Int@@$R4BA@BE@PPPPPPPM@BI@EBA_NAEB_KAEA_K@Z 00000001800617dc f i ClientDOMParserWrapperImpl.obj
 0001:000607f8       ?GetParameter@IConfigurable_I@AdobeXMPCore_Int@@$R4BA@BE@PPPPPPPM@BI@EBA_NAEB_KAEA_J@Z 00000001800617f8 f i ClientDOMParserWrapperImpl.obj
 0001:00060814       ?GetParameter@IConfigurable_I@AdobeXMPCore_Int@@$R4BA@BE@PPPPPPPM@BI@EBA_NAEB_KAEAN@Z 0000000180061814 f i ClientDOMParserWrapperImpl.obj
 0001:00060830       ?GetParameter@IConfigurable_I@AdobeXMPCore_Int@@$R4BA@BE@PPPPPPPM@BI@EBA_NAEB_KAEAD@Z 0000000180061830 f i ClientDOMParserWrapperImpl.obj
 0001:0006084c       ?GetParameter@IConfigurable_I@AdobeXMPCore_Int@@$R4BA@BE@PPPPPPPM@BI@EBA_NAEB_KAEAPEBD@Z 000000018006184c f i ClientDOMParserWrapperImpl.obj
 0001:00060868       ?GetParameter@IConfigurable_I@AdobeXMPCore_Int@@$R4BA@BE@PPPPPPPM@BI@EBA_NAEB_KAEAPEBX@Z 0000000180061868 f i ClientDOMParserWrapperImpl.obj
 0001:00060884       ?Clone@DOMParserImpl@AdobeXMPCore_Int@@$R4EI@CM@PPPPPPPM@GA@EBA?AV?$shared_ptr@VIDOMParser_v1@AdobeXMPCore@@@std@@XZ 0000000180061884 f i ClientDOMParserWrapperImpl.obj
 0001:000608a0       ?GetDataType@ConfigurableImpl@AdobeXMPCore_Int@@$R4BI@CA@PPPPPPPM@EA@EBA?AW4eDataType@IConfigurable@AdobeXMPCommon@@AEB_K@Z 00000001800618a0 f i ClientDOMParserWrapperImpl.obj
 0001:000608bc       ?GetAllParameters@ConfigurableImpl@AdobeXMPCore_Int@@$R4BI@CA@PPPPPPPM@EA@EBA?AV?$vector@_KV?$allocator@_K@std@@@std@@XZ 00000001800618bc f i ClientDOMParserWrapperImpl.obj
 0001:000608d8       ?Release@SharedObjectImpl@AdobeXMPCore_Int@@$R4DI@CE@PPPPPPPM@CA@EBAXXZ 00000001800618d8 f i ClientDOMParserWrapperImpl.obj
 0001:000608f4       ?Size@ConfigurableImpl@AdobeXMPCore_Int@@$R4CI@CA@PPPPPPPM@EA@EBA_KXZ 00000001800618f4 f i ClientDOMParserWrapperImpl.obj
 0001:00060910       ?SetAllowedKeys@ConfigurableImpl@AdobeXMPCore_Int@@$4PPPPPPPM@A@EAAXPEA_K_K@Z 0000000180061910 f i ClientDOMParserWrapperImpl.obj
 0001:0006091c       ?RemoveParameter@ConfigurableImpl@AdobeXMPCore_Int@@$4PPPPPPPM@A@EAA_NAEB_K@Z 000000018006191c f i ClientDOMParserWrapperImpl.obj
 0001:00060928       ?clone@IDOMParser_I@AdobeXMPCore_Int@@$2PPPPPPPM@A@EBAPEAVIDOMParser_v1@AdobeXMPCore@@AEAPEBVIError_v1@AdobeXMPCommon@@@Z 0000000180061928 f i ClientDOMParserWrapperImpl.obj
 0001:00060934       ?GetDataType@ConfigurableImpl@AdobeXMPCore_Int@@$4PPPPPPPM@A@EBA?AW4eDataType@IConfigurable@AdobeXMPCommon@@AEB_K@Z 0000000180061934 f i ClientDOMParserWrapperImpl.obj
 0001:00060940       ?GetAllParameters@ConfigurableImpl@AdobeXMPCore_Int@@$4PPPPPPPM@A@EBA?AV?$vector@_KV?$allocator@_K@std@@@std@@XZ 0000000180061940 f i ClientDOMParserWrapperImpl.obj
 0001:0006094c       ?getDataType@IConfigurable_I@AdobeXMPCore_Int@@$2PPPPPPPM@A@EBAKAEB_KAEAPEBVIError_v1@AdobeXMPCommon@@@Z 000000018006194c f i ClientDOMParserWrapperImpl.obj
 0001:00060958       ?getDataType@IConfigurable_I@AdobeXMPCore_Int@@$R2BA@BE@PPPPPPPM@BI@EBAKAEB_KAEAPEBVIError_v1@AdobeXMPCommon@@@Z 0000000180061958 f i ClientDOMParserWrapperImpl.obj
 0001:00060974       ?SetParameter@IConfigurable_I@AdobeXMPCore_Int@@$R4BI@BE@PPPPPPPM@BI@EAAXAEB_K_N@Z 0000000180061974 f i ClientDOMParserWrapperImpl.obj
 0001:0006098c       ?SetParameter@IConfigurable_I@AdobeXMPCore_Int@@$R4BI@BE@PPPPPPPM@BI@EAAXAEB_K_K@Z 000000018006198c f i ClientDOMParserWrapperImpl.obj
 0001:000609a4       ?SetParameter@IConfigurable_I@AdobeXMPCore_Int@@$R4BI@BE@PPPPPPPM@BI@EAAXAEB_K_J@Z 00000001800619a4 f i ClientDOMParserWrapperImpl.obj
 0001:000609bc       ?SetParameter@IConfigurable_I@AdobeXMPCore_Int@@$R4BI@BE@PPPPPPPM@BI@EAAXAEB_KN@Z 00000001800619bc f i ClientDOMParserWrapperImpl.obj
 0001:000609d4       ?SetParameter@IConfigurable_I@AdobeXMPCore_Int@@$R4BI@BE@PPPPPPPM@BI@EAAXAEB_KD@Z 00000001800619d4 f i ClientDOMParserWrapperImpl.obj
 0001:000609ec       ?SetParameter@IConfigurable_I@AdobeXMPCore_Int@@$R4BI@BE@PPPPPPPM@BI@EAAXAEB_KPEBD@Z 00000001800619ec f i ClientDOMParserWrapperImpl.obj
 0001:00060a04       ?SetParameter@IConfigurable_I@AdobeXMPCore_Int@@$R4BI@BE@PPPPPPPM@BI@EAAXAEB_KPEBX@Z 0000000180061a04 f i ClientDOMParserWrapperImpl.obj
 0001:00060a1c       ?Clone@DOMParserImpl@AdobeXMPCore_Int@@$4PPPPPPPM@A@EBA?AV?$shared_ptr@VIDOMParser_v1@AdobeXMPCore@@@std@@XZ 0000000180061a1c f i ClientDOMParserWrapperImpl.obj
 0001:00060a28       ??_EIDOMParser_v1@AdobeXMPCore@@OBA@EAAPEAXI@Z 0000000180061a28 f i ClientDOMParserWrapperImpl.obj
 0001:00060a34       ?SetParameter@ConfigurableImpl@AdobeXMPCore_Int@@$R4GA@CA@PPPPPPPM@FA@EAAXAEB_KW4eDataType@IConfigurable@AdobeXMPCommon@@AEBTCombinedDataValue@45@@Z 0000000180061a34 f i ClientDOMParserWrapperImpl.obj
 0001:00060a50       ?GetParameter@ConfigurableImpl@AdobeXMPCore_Int@@$4PPPPPPPM@A@EBA_NAEB_KW4eDataType@IConfigurable@AdobeXMPCommon@@AEATCombinedDataValue@45@@Z 0000000180061a50 f i ClientDOMParserWrapperImpl.obj
 0001:00060a5c       ?parse@IDOMParser_I@AdobeXMPCore_Int@@$R2EI@BM@PPPPPPPM@EI@EAAPEAVIMetadata_v1@AdobeXMPCore@@PEBD_KAEAPEBVIError_v1@AdobeXMPCommon@@@Z 0000000180061a5c f i ClientDOMParserWrapperImpl.obj
 0001:00060a74       ?Acquire@SharedObjectImpl@AdobeXMPCore_Int@@$R4CI@CE@PPPPPPPM@CA@EBAXXZ 0000000180061a74 f i ClientDOMParserWrapperImpl.obj
 0001:00060a90       ?clone@IDOMParser_I@AdobeXMPCore_Int@@$R2FI@BM@PPPPPPPM@EI@EBAPEAVIDOMParser_v1@AdobeXMPCore@@AEAPEBVIError_v1@AdobeXMPCommon@@@Z 0000000180061a90 f i ClientDOMParserWrapperImpl.obj
 0001:00060aac       ?GetActualIDOMParser@IDOMParser_I@AdobeXMPCore_Int@@$4PPPPPPPM@A@EAAPEAVIDOMParser_v1@AdobeXMPCore@@XZ 0000000180061aac f i ClientDOMParserWrapperImpl.obj
 0001:00060aac       ?GetActualIDOMSerializer@IDOMSerializer_I@AdobeXMPCore_Int@@$4PPPPPPPM@A@EAAPEAVIDOMSerializer_v1@AdobeXMPCore@@XZ 0000000180061aac f i ClientDOMSerializerWrapperImpl.obj
 0001:00060ab8       ??_EIDOMParser_I@AdobeXMPCore_Int@@$2PPPPPPPM@A@EAAPEAXI@Z 0000000180061ab8 f i ClientDOMParserWrapperImpl.obj
 0001:00060ac4       ?TreatKeyAsCaseInsensitive@ConfigurableImpl@AdobeXMPCore_Int@@$R4GA@CA@PPPPPPPM@FA@EAAX_N@Z 0000000180061ac4 f i ClientDOMParserWrapperImpl.obj
 0001:00060ae0       ??_EIDOMParser_I@AdobeXMPCore_Int@@$2PPPPPPPM@CA@EAAPEAXI@Z 0000000180061ae0 f i ClientDOMParserWrapperImpl.obj
 0001:00060af0       ?GetInterfacePointer@IDOMParser_I@AdobeXMPCore_Int@@$R4DI@BM@PPPPPPPM@DI@EAAPEAX_KK@Z 0000000180061af0 f i ClientDOMParserWrapperImpl.obj
 0001:00060b08       ?removeParameter@IConfigurable_I@AdobeXMPCore_Int@@$R2BI@BE@PPPPPPPM@BI@EAAKAEB_KAEAPEBVIError_v1@AdobeXMPCommon@@@Z 0000000180061b08 f i ClientDOMParserWrapperImpl.obj
 0001:00060b20       ?GetMutex@DOMParserImpl@AdobeXMPCore_Int@@$4PPPPPPPM@A@EBA?AV?$shared_ptr@VISharedMutex@AdobeXMPCore_Int@@@std@@XZ 0000000180061b20 f i ClientDOMParserWrapperImpl.obj
 0001:00060b20       ?GetNameSpace@PathSegmentImpl@AdobeXMPCore_Int@@$4PPPPPPPM@A@EBA?AV?$shared_ptr@$$CBVIUTF8String_v1@AdobeXMPCommon@@@std@@XZ 0000000180061b20 f i PathSegmentImpl.obj
 0001:00060b2c       ?SetAllowedValueTypesForKeys@ConfigurableImpl@AdobeXMPCore_Int@@$R4GA@CA@PPPPPPPM@FA@EAAXPEAU?$pair@_KW4eDataType@IConfigurable@AdobeXMPCommon@@@std@@_K@Z 0000000180061b2c f i ClientDOMParserWrapperImpl.obj
 0001:00060b48       ?AllowDifferentValueTypesForExistingEntries@ConfigurableImpl@AdobeXMPCore_Int@@$R4GA@CA@PPPPPPPM@FA@EAAX_N@Z 0000000180061b48 f i ClientDOMParserWrapperImpl.obj
 0001:00060b64       ?GetParameter@IConfigurable_I@AdobeXMPCore_Int@@$R4BI@BE@PPPPPPPM@BI@EBA_NAEB_KAEA_N@Z 0000000180061b64 f i ClientDOMParserWrapperImpl.obj
 0001:00060b7c       ?GetParameter@IConfigurable_I@AdobeXMPCore_Int@@$R4BI@BE@PPPPPPPM@BI@EBA_NAEB_KAEA_K@Z 0000000180061b7c f i ClientDOMParserWrapperImpl.obj
 0001:00060b94       ?GetParameter@IConfigurable_I@AdobeXMPCore_Int@@$R4BI@BE@PPPPPPPM@BI@EBA_NAEB_KAEA_J@Z 0000000180061b94 f i ClientDOMParserWrapperImpl.obj
 0001:00060bac       ?GetParameter@IConfigurable_I@AdobeXMPCore_Int@@$R4BI@BE@PPPPPPPM@BI@EBA_NAEB_KAEAN@Z 0000000180061bac f i ClientDOMParserWrapperImpl.obj
 0001:00060bc4       ?GetParameter@IConfigurable_I@AdobeXMPCore_Int@@$R4BI@BE@PPPPPPPM@BI@EBA_NAEB_KAEAD@Z 0000000180061bc4 f i ClientDOMParserWrapperImpl.obj
 0001:00060bdc       ?GetParameter@IConfigurable_I@AdobeXMPCore_Int@@$R4BI@BE@PPPPPPPM@BI@EBA_NAEB_KAEAPEBD@Z 0000000180061bdc f i ClientDOMParserWrapperImpl.obj
 0001:00060bf4       ?GetParameter@IConfigurable_I@AdobeXMPCore_Int@@$R4BI@BE@PPPPPPPM@BI@EBA_NAEB_KAEAPEBX@Z 0000000180061bf4 f i ClientDOMParserWrapperImpl.obj
 0001:00060c0c       ?GetActualIDOMParser@IDOMParser_I@AdobeXMPCore_Int@@$R4FI@BM@PPPPPPPM@EI@EAAPEAVIDOMParser_v1@AdobeXMPCore@@XZ 0000000180061c0c f i ClientDOMParserWrapperImpl.obj
 0001:00060c28       ?SetErrorCallback@DOMParserImpl@AdobeXMPCore_Int@@$R4JA@CM@PPPPPPPM@KI@EAAXPEAVErrorCallbackInfo@XMPMeta@@@Z 0000000180061c28 f i ClientDOMParserWrapperImpl.obj
 0001:00060c44       ?parseWithSpecificAction@IDOMParser_I@AdobeXMPCore_Int@@$R2EI@BM@PPPPPPPM@EI@EAAXPEBD_KKPEAVINode_v1@AdobeXMPCore@@AEAPEBVIError_v1@AdobeXMPCommon@@@Z 0000000180061c44 f i ClientDOMParserWrapperImpl.obj
 0001:00060c5c       ?SetAllowedKeys@ConfigurableImpl@AdobeXMPCore_Int@@$R4HA@CA@PPPPPPPM@FA@EAAXPEA_K_K@Z 0000000180061c5c f i ClientDOMParserWrapperImpl.obj
 0001:00060c78       ?setParameter@IConfigurable_I@AdobeXMPCore_Int@@$R2CI@BE@PPPPPPPM@BI@EAAXAEB_KKAEBTCombinedDataValue@IConfigurable@AdobeXMPCommon@@AEAPEBVIError_v1@5@@Z 0000000180061c78 f i ClientDOMParserWrapperImpl.obj
 0001:00060c94       ?SetParameter@ConfigurableImpl@AdobeXMPCore_Int@@$4PPPPPPPM@A@EAAXAEB_KW4eDataType@IConfigurable@AdobeXMPCommon@@AEBTCombinedDataValue@45@@Z 0000000180061c94 f i ClientDOMParserWrapperImpl.obj
 0001:00060ca0       ?GetIDOMSerializer_I@IDOMSerializer_I@AdobeXMPCore_Int@@$R4EI@BM@PPPPPPPM@EI@EAAPEAV12@XZ 0000000180061ca0 f i ClientDOMSerializerWrapperImpl.obj
 0001:00060ca0       ?GetIDOMParser_I@IDOMParser_I@AdobeXMPCore_Int@@$R4EI@BM@PPPPPPPM@EI@EAAPEAV12@XZ 0000000180061ca0 f i ClientDOMParserWrapperImpl.obj
 0001:00060ca0       ?GetICoreConfigurationManager_I@ICoreConfigurationManager_I@AdobeXMPCore_Int@@$R4EI@BM@PPPPPPPM@EI@EAAPEAV12@XZ 0000000180061ca0 f i CoreConfigurationManagerImpl.obj
 0001:00060cb8       ??_EClientDOMParserWrapperImpl@AdobeXMPCore_Int@@$2PPPPPPPM@BA@EAAPEAXI@Z 0000000180061cb8 f i ClientDOMParserWrapperImpl.obj
 0001:00060cc8       ?GetISharedObject_I@IDOMParser_I@AdobeXMPCore_Int@@$R4CI@BM@PPPPPPPM@CI@EAAPEAVISharedObject_I@AdobeXMPCommon_Int@@XZ 0000000180061cc8 f i ClientDOMParserWrapperImpl.obj
 0001:00060cc8       ?GetISharedObject_I@IDOMSerializer_I@AdobeXMPCore_Int@@$R4CI@BM@PPPPPPPM@CI@EAAPEAVISharedObject_I@AdobeXMPCommon_Int@@XZ 0000000180061cc8 f i ClientDOMSerializerWrapperImpl.obj
 0001:00060ce0       ?getDataType@IConfigurable_I@AdobeXMPCore_Int@@$R2BI@BE@PPPPPPPM@BI@EBAKAEB_KAEAPEBVIError_v1@AdobeXMPCommon@@@Z 0000000180061ce0 f i ClientDOMParserWrapperImpl.obj
 0001:00060cf8       ??_EDOMParserImpl@AdobeXMPCore_Int@@$2PPPPPPPM@BA@EAAPEAXI@Z 0000000180061cf8 f i ClientDOMParserWrapperImpl.obj
 0001:00060d08       ?AcquireInternal@SharedObjectImpl@AdobeXMPCore_Int@@$R4II@CE@PPPPPPPM@DA@EBAXXZ 0000000180061d08 f i ClientDOMParserWrapperImpl.obj
 0001:00060d24       ?getParameter@IConfigurable_I@AdobeXMPCore_Int@@$R2CI@BE@PPPPPPPM@BI@EBAKAEB_KKAEATCombinedDataValue@IConfigurable@AdobeXMPCommon@@AEAPEBVIError_v1@5@@Z 0000000180061d24 f i ClientDOMParserWrapperImpl.obj
 0001:00060d40       ?TreatKeyAsCaseInsensitive@ConfigurableImpl@AdobeXMPCore_Int@@$4PPPPPPPM@A@EAAX_N@Z 0000000180061d40 f i ClientDOMParserWrapperImpl.obj
 0001:00060d4c       ??_EIConfigurable_I@AdobeXMPCore_Int@@$2PPPPPPPM@A@EAAPEAXI@Z 0000000180061d4c f i ClientDOMParserWrapperImpl.obj
 0001:00060d58       ?GetParameter@ConfigurableImpl@AdobeXMPCore_Int@@$R4HA@CA@PPPPPPPM@FA@EBA_NAEB_KW4eDataType@IConfigurable@AdobeXMPCommon@@AEATCombinedDataValue@45@@Z 0000000180061d58 f i ClientDOMParserWrapperImpl.obj
 0001:00060d74       ?clone@ClientDOMParserWrapperImpl@AdobeXMPCore_Int@@$4PPPPPPPM@A@EBAPEAVDOMParserImpl@2@XZ 0000000180061d74 f i ClientDOMParserWrapperImpl.obj
 0001:00060d80       ?ParseAsNode@ClientDOMParserWrapperImpl@AdobeXMPCore_Int@@$4PPPPPPPM@A@EAA?AV?$shared_ptr@VINode_v1@AdobeXMPCore@@@std@@PEBD_K@Z 0000000180061d80 f i ClientDOMParserWrapperImpl.obj
 0001:00060d8c       ?setParameter@IConfigurable_I@AdobeXMPCore_Int@@$R2DI@7PPPPPPPM@BI@EAAXAEB_KKAEBTCombinedDataValue@IConfigurable@AdobeXMPCommon@@AEAPEBVIError_v1@5@@Z 0000000180061d8c f i ClientDOMParserWrapperImpl.obj
 0001:00060da8       ?ParseWithSpecificAction@DOMParserImpl@AdobeXMPCore_Int@@$R4EI@CM@PPPPPPPM@GA@EAAXPEBD_KW4eActionType@IDOMParser_v1@AdobeXMPCore@@AEAV?$shared_ptr@VINode_v1@AdobeXMPCore@@@std@@@Z 0000000180061da8 f i ClientDOMParserWrapperImpl.obj
 0001:00060dc4       ?Parse@DOMParserImpl@AdobeXMPCore_Int@@$R4EI@CM@PPPPPPPM@GA@EAA?AV?$shared_ptr@VIMetadata_v1@AdobeXMPCore@@@std@@PEBD_K@Z 0000000180061dc4 f i ClientDOMParserWrapperImpl.obj
 0001:00060de0       ?getAllParameters@IConfigurable_I@AdobeXMPCore_Int@@$R2CI@BE@PPPPPPPM@BI@EBAXPEA_K_K@Z 0000000180061de0 f i ClientDOMParserWrapperImpl.obj
 0001:00060dfc       ?RemoveParameter@ConfigurableImpl@AdobeXMPCore_Int@@$R4CI@CA@PPPPPPPM@EA@EAA_NAEB_K@Z 0000000180061dfc f i ClientDOMParserWrapperImpl.obj
 0001:00060e18       ?SetAllowedValueTypesForKeys@ConfigurableImpl@AdobeXMPCore_Int@@$4PPPPPPPM@A@EAAXPEAU?$pair@_KW4eDataType@IConfigurable@AdobeXMPCommon@@@std@@_K@Z 0000000180061e18 f i ClientDOMParserWrapperImpl.obj
 0001:00060e24       ?AllowDifferentValueTypesForExistingEntries@ConfigurableImpl@AdobeXMPCore_Int@@$4PPPPPPPM@A@EAAX_N@Z 0000000180061e24 f i ClientDOMParserWrapperImpl.obj
 0001:00060e30       ?getInterfacePointer@IDOMParser_I@AdobeXMPCore_Int@@$R2DI@BM@PPPPPPPM@DI@EAAPEAX_KKAEAPEBVIError_v1@AdobeXMPCommon@@@Z 0000000180061e30 f i ClientDOMParserWrapperImpl.obj
 0001:00060e48       ?GetDataType@ConfigurableImpl@AdobeXMPCore_Int@@$R4CI@CA@PPPPPPPM@EA@EBA?AW4eDataType@IConfigurable@AdobeXMPCommon@@AEB_K@Z 0000000180061e48 f i ClientDOMParserWrapperImpl.obj
 0001:00060e64       ?GetAllParameters@ConfigurableImpl@AdobeXMPCore_Int@@$R4CI@CA@PPPPPPPM@EA@EBA?AV?$vector@_KV?$allocator@_K@std@@@std@@XZ 0000000180061e64 f i ClientDOMParserWrapperImpl.obj
 0001:00060e80       ??_EConfigurableImpl@AdobeXMPCore_Int@@$4PPPPPPPM@A@EAAPEAXI@Z 0000000180061e80 f i ClientDOMParserWrapperImpl.obj
 0001:00060e8c       ?getParameter@IConfigurable_I@AdobeXMPCore_Int@@$R2DI@7PPPPPPPM@BI@EBAKAEB_KKAEATCombinedDataValue@IConfigurable@AdobeXMPCommon@@AEAPEBVIError_v1@5@@Z 0000000180061e8c f i ClientDOMParserWrapperImpl.obj
 0001:00060ea8       ?parse@IDOMParser_I@AdobeXMPCore_Int@@$2PPPPPPPM@A@EAAPEAVIMetadata_v1@AdobeXMPCore@@PEBD_KAEAPEBVIError_v1@AdobeXMPCommon@@@Z 0000000180061ea8 f i ClientDOMParserWrapperImpl.obj
 0001:00060eb4       ?Release@SharedObjectImpl@AdobeXMPCore_Int@@$R4CI@CE@PPPPPPPM@CA@EBAXXZ 0000000180061eb4 f i ClientDOMParserWrapperImpl.obj
 0001:00060ed0       ?Size@ConfigurableImpl@AdobeXMPCore_Int@@$R4BI@CA@PPPPPPPM@EA@EBA_KXZ 0000000180061ed0 f i ClientDOMParserWrapperImpl.obj
 0001:00060eec       ?ParseWithSpecificAction@DOMParserImpl@AdobeXMPCore_Int@@$4PPPPPPPM@A@EAAXPEBD_KW4eActionType@IDOMParser_v1@AdobeXMPCore@@AEAV?$shared_ptr@VINode_v1@AdobeXMPCore@@@std@@@Z 0000000180061eec f i ClientDOMParserWrapperImpl.obj
 0001:00060ef8       ?Parse@DOMParserImpl@AdobeXMPCore_Int@@$4PPPPPPPM@A@EAA?AV?$shared_ptr@VIMetadata_v1@AdobeXMPCore@@@std@@PEBD_K@Z 0000000180061ef8 f i ClientDOMParserWrapperImpl.obj
 0001:00060f04       ?setParameter@IConfigurable_I@AdobeXMPCore_Int@@$2PPPPPPPM@A@EAAXAEB_KKAEBTCombinedDataValue@IConfigurable@AdobeXMPCommon@@AEAPEBVIError_v1@5@@Z 0000000180061f04 f i ClientDOMParserWrapperImpl.obj
 0001:00060f10       ?setParameter@IConfigurable_I@AdobeXMPCore_Int@@$R2BA@BE@PPPPPPPM@BI@EAAXAEB_KKAEBTCombinedDataValue@IConfigurable@AdobeXMPCommon@@AEAPEBVIError_v1@5@@Z 0000000180061f10 f i ClientDOMParserWrapperImpl.obj
 0001:00060f2c       ?SetParameter@IConfigurable_I@AdobeXMPCore_Int@@$R4CI@BE@PPPPPPPM@BI@EAAXAEB_K_N@Z 0000000180061f2c f i ClientDOMParserWrapperImpl.obj
 0001:00060f48       ?SetParameter@IConfigurable_I@AdobeXMPCore_Int@@$R4CI@BE@PPPPPPPM@BI@EAAXAEB_K_K@Z 0000000180061f48 f i ClientDOMParserWrapperImpl.obj
 0001:00060f64       ?SetParameter@IConfigurable_I@AdobeXMPCore_Int@@$R4CI@BE@PPPPPPPM@BI@EAAXAEB_K_J@Z 0000000180061f64 f i ClientDOMParserWrapperImpl.obj
 0001:00060f80       ?SetParameter@IConfigurable_I@AdobeXMPCore_Int@@$R4CI@BE@PPPPPPPM@BI@EAAXAEB_KN@Z 0000000180061f80 f i ClientDOMParserWrapperImpl.obj
 0001:00060f9c       ?SetParameter@IConfigurable_I@AdobeXMPCore_Int@@$R4CI@BE@PPPPPPPM@BI@EAAXAEB_KD@Z 0000000180061f9c f i ClientDOMParserWrapperImpl.obj
 0001:00060fb8       ?SetParameter@IConfigurable_I@AdobeXMPCore_Int@@$R4CI@BE@PPPPPPPM@BI@EAAXAEB_KPEBD@Z 0000000180061fb8 f i ClientDOMParserWrapperImpl.obj
 0001:00060fd4       ?SetParameter@IConfigurable_I@AdobeXMPCore_Int@@$R4CI@BE@PPPPPPPM@BI@EAAXAEB_KPEBX@Z 0000000180061fd4 f i ClientDOMParserWrapperImpl.obj
 0001:00060ff0       ?Size@ConfigurableImpl@AdobeXMPCore_Int@@$4PPPPPPPM@A@EBA_KXZ 0000000180061ff0 f i ClientDOMParserWrapperImpl.obj
 0001:00060ffc       ?SetParameter@ConfigurableImpl@AdobeXMPCore_Int@@$R4HA@CA@PPPPPPPM@FA@EAAXAEB_KW4eDataType@IConfigurable@AdobeXMPCommon@@AEBTCombinedDataValue@45@@Z 0000000180061ffc f i ClientDOMParserWrapperImpl.obj
 0001:00061018       ?getAllParameters@IConfigurable_I@AdobeXMPCore_Int@@$R2DI@7PPPPPPPM@BI@EBAXPEA_K_K@Z 0000000180062018 f i ClientDOMParserWrapperImpl.obj
 0001:00061034       ?getParameter@IConfigurable_I@AdobeXMPCore_Int@@$2PPPPPPPM@A@EBAKAEB_KKAEATCombinedDataValue@IConfigurable@AdobeXMPCommon@@AEAPEBVIError_v1@5@@Z 0000000180062034 f i ClientDOMParserWrapperImpl.obj
 0001:00061040       ?GetInterfacePointer@IDOMParser_I@AdobeXMPCore_Int@@$4PPPPPPPM@A@EAAPEAX_KK@Z 0000000180062040 f i ClientDOMParserWrapperImpl.obj
 0001:0006104c       ?getParameter@IConfigurable_I@AdobeXMPCore_Int@@$R2BA@BE@PPPPPPPM@BI@EBAKAEB_KKAEATCombinedDataValue@IConfigurable@AdobeXMPCommon@@AEAPEBVIError_v1@5@@Z 000000018006204c f i ClientDOMParserWrapperImpl.obj
 0001:00061068       ?parse@IDOMParser_I@AdobeXMPCore_Int@@$R2FI@BM@PPPPPPPM@EI@EAAPEAVIMetadata_v1@AdobeXMPCore@@PEBD_KAEAPEBVIError_v1@AdobeXMPCommon@@@Z 0000000180062068 f i ClientDOMParserWrapperImpl.obj
 0001:00061084       ?Acquire@SharedObjectImpl@AdobeXMPCore_Int@@$R4DI@CE@PPPPPPPM@CA@EBAXXZ 0000000180062084 f i ClientDOMParserWrapperImpl.obj
 0001:000610a0       ?clone@IDOMParser_I@AdobeXMPCore_Int@@$R2EI@BM@PPPPPPPM@EI@EBAPEAVIDOMParser_v1@AdobeXMPCore@@AEAPEBVIError_v1@AdobeXMPCommon@@@Z 00000001800620a0 f i ClientDOMParserWrapperImpl.obj
 0001:000610b8       ?TreatKeyAsCaseInsensitive@ConfigurableImpl@AdobeXMPCore_Int@@$R4HA@CA@PPPPPPPM@FA@EAAX_N@Z 00000001800620b8 f i ClientDOMParserWrapperImpl.obj
 0001:000610d4       ?parseWithSpecificAction@IDOMParser_I@AdobeXMPCore_Int@@$2PPPPPPPM@A@EAAXPEBD_KKPEAVINode_v1@AdobeXMPCore@@AEAPEBVIError_v1@AdobeXMPCommon@@@Z 00000001800620d4 f i ClientDOMParserWrapperImpl.obj
 0001:000610e0       ??_EIDOMParser_I@AdobeXMPCore_Int@@$2PPPPPPPM@BA@EAAPEAXI@Z 00000001800620e0 f i ClientDOMParserWrapperImpl.obj
 0001:000610f0       ?GetInterfacePointer@IDOMParser_I@AdobeXMPCore_Int@@$R4EI@BM@PPPPPPPM@DI@EAAPEAX_KK@Z 00000001800620f0 f i ClientDOMParserWrapperImpl.obj
 0001:0006110c       ?removeParameter@IConfigurable_I@AdobeXMPCore_Int@@$R2CI@BE@PPPPPPPM@BI@EAAKAEB_KAEAPEBVIError_v1@AdobeXMPCommon@@@Z 000000018006210c f i ClientDOMParserWrapperImpl.obj
 0001:00061128       ?SetParameter@IConfigurable_I@AdobeXMPCore_Int@@$R4DI@7PPPPPPPM@BI@EAAXAEB_K_N@Z 0000000180062128 f i ClientDOMParserWrapperImpl.obj
 0001:00061144       ?SetParameter@IConfigurable_I@AdobeXMPCore_Int@@$R4DI@7PPPPPPPM@BI@EAAXAEB_K_K@Z 0000000180062144 f i ClientDOMParserWrapperImpl.obj
 0001:00061160       ?SetParameter@IConfigurable_I@AdobeXMPCore_Int@@$R4DI@7PPPPPPPM@BI@EAAXAEB_K_J@Z 0000000180062160 f i ClientDOMParserWrapperImpl.obj
 0001:0006117c       ?SetParameter@IConfigurable_I@AdobeXMPCore_Int@@$R4DI@7PPPPPPPM@BI@EAAXAEB_KN@Z 000000018006217c f i ClientDOMParserWrapperImpl.obj
 0001:00061198       ?SetParameter@IConfigurable_I@AdobeXMPCore_Int@@$R4DI@7PPPPPPPM@BI@EAAXAEB_KD@Z 0000000180062198 f i ClientDOMParserWrapperImpl.obj
 0001:000611b4       ?SetParameter@IConfigurable_I@AdobeXMPCore_Int@@$R4DI@7PPPPPPPM@BI@EAAXAEB_KPEBD@Z 00000001800621b4 f i ClientDOMParserWrapperImpl.obj
 0001:000611d0       ?SetParameter@IConfigurable_I@AdobeXMPCore_Int@@$R4DI@7PPPPPPPM@BI@EAAXAEB_KPEBX@Z 00000001800621d0 f i ClientDOMParserWrapperImpl.obj
 0001:000611ec       ?getAllParameters@IConfigurable_I@AdobeXMPCore_Int@@$2PPPPPPPM@A@EBAXPEA_K_K@Z 00000001800621ec f i ClientDOMParserWrapperImpl.obj
 0001:000611f8       ?getAllParameters@IConfigurable_I@AdobeXMPCore_Int@@$R2BA@BE@PPPPPPPM@BI@EBAXPEA_K_K@Z 00000001800621f8 f i ClientDOMParserWrapperImpl.obj
 0001:00061214       ?GetMutex@DOMParserImpl@AdobeXMPCore_Int@@$R4GA@CM@PPPPPPPM@HI@EBA?AV?$shared_ptr@VISharedMutex@AdobeXMPCore_Int@@@std@@XZ 0000000180062214 f i ClientDOMParserWrapperImpl.obj
 0001:00061230       ?SetErrorCallback@DOMParserImpl@AdobeXMPCore_Int@@$4PPPPPPPM@A@EAAXPEAVErrorCallbackInfo@XMPMeta@@@Z 0000000180062230 f i ClientDOMParserWrapperImpl.obj
 0001:00061230       ?SetErrorCallback@RDFDOMParserImpl@AdobeXMPCore_Int@@$4PPPPPPPM@A@EAAXPEAVErrorCallbackInfo@XMPMeta@@@Z 0000000180062230 f i DOMImplementationRegistryImpl.obj
 0001:0006123c       ?SetAllowedValueTypesForKeys@ConfigurableImpl@AdobeXMPCore_Int@@$R4HA@CA@PPPPPPPM@FA@EAAXPEAU?$pair@_KW4eDataType@IConfigurable@AdobeXMPCommon@@@std@@_K@Z 000000018006223c f i ClientDOMParserWrapperImpl.obj
 0001:00061258       ?AllowDifferentValueTypesForExistingEntries@ConfigurableImpl@AdobeXMPCore_Int@@$R4HA@CA@PPPPPPPM@FA@EAAX_N@Z 0000000180062258 f i ClientDOMParserWrapperImpl.obj
 0001:00061274       ?GetParameter@IConfigurable_I@AdobeXMPCore_Int@@$R4CI@BE@PPPPPPPM@BI@EBA_NAEB_KAEA_N@Z 0000000180062274 f i ClientDOMParserWrapperImpl.obj
 0001:00061290       ?GetParameter@IConfigurable_I@AdobeXMPCore_Int@@$R4CI@BE@PPPPPPPM@BI@EBA_NAEB_KAEA_K@Z 0000000180062290 f i ClientDOMParserWrapperImpl.obj
 0001:000612ac       ?GetParameter@IConfigurable_I@AdobeXMPCore_Int@@$R4CI@BE@PPPPPPPM@BI@EBA_NAEB_KAEA_J@Z 00000001800622ac f i ClientDOMParserWrapperImpl.obj
 0001:000612c8       ?GetParameter@IConfigurable_I@AdobeXMPCore_Int@@$R4CI@BE@PPPPPPPM@BI@EBA_NAEB_KAEAN@Z 00000001800622c8 f i ClientDOMParserWrapperImpl.obj
 0001:000612e4       ?GetParameter@IConfigurable_I@AdobeXMPCore_Int@@$R4CI@BE@PPPPPPPM@BI@EBA_NAEB_KAEAD@Z 00000001800622e4 f i ClientDOMParserWrapperImpl.obj
 0001:00061300       ?GetParameter@IConfigurable_I@AdobeXMPCore_Int@@$R4CI@BE@PPPPPPPM@BI@EBA_NAEB_KAEAPEBD@Z 0000000180062300 f i ClientDOMParserWrapperImpl.obj
 0001:0006131c       ?GetParameter@IConfigurable_I@AdobeXMPCore_Int@@$R4CI@BE@PPPPPPPM@BI@EBA_NAEB_KAEAPEBX@Z 000000018006231c f i ClientDOMParserWrapperImpl.obj
 0001:00061338       ?GetISharedObject_I@IDOMParser_I@AdobeXMPCore_Int@@$4PPPPPPPM@A@EAAPEAVISharedObject_I@AdobeXMPCommon_Int@@XZ 0000000180062338 f i ClientDOMParserWrapperImpl.obj
 0001:00061338       ?GetISharedObject_I@IDOMSerializer_I@AdobeXMPCore_Int@@$4PPPPPPPM@A@EAAPEAVISharedObject_I@AdobeXMPCommon_Int@@XZ 0000000180062338 f i ClientDOMSerializerWrapperImpl.obj
 0001:00061344       ?GetActualIDOMSerializer@IDOMSerializer_I@AdobeXMPCore_Int@@$R4EI@BM@PPPPPPPM@EI@EAAPEAVIDOMSerializer_v1@AdobeXMPCore@@XZ 0000000180062344 f i ClientDOMSerializerWrapperImpl.obj
 0001:00061344       ?GetActualIDOMParser@IDOMParser_I@AdobeXMPCore_Int@@$R4EI@BM@PPPPPPPM@EI@EAAPEAVIDOMParser_v1@AdobeXMPCore@@XZ 0000000180062344 f i ClientDOMParserWrapperImpl.obj
 0001:0006135c       ??1IDOMSerializer_v1@AdobeXMPCore@@MEAA@XZ 000000018006235c f i ClientDOMSerializerWrapperImpl.obj
 0001:000613a4       ??_EIDOMSerializer_v1@AdobeXMPCore@@MEAAPEAXI@Z 00000001800623a4 f i * CIL library *:* CIL module *
 0001:000613a4       ??_GIDOMSerializer_v1@AdobeXMPCore@@MEAAPEAXI@Z 00000001800623a4 f i ClientDOMSerializerWrapperImpl.obj
 0001:00061414       ??1IDOMSerializer_I@AdobeXMPCore_Int@@MEAA@XZ 0000000180062414 f i ClientDOMSerializerWrapperImpl.obj
 0001:000614c4       ??_EIDOMSerializer_I@AdobeXMPCore_Int@@MEAAPEAXI@Z 00000001800624c4 f i * CIL library *:* CIL module *
 0001:000614c4       ??_GIDOMSerializer_I@AdobeXMPCore_Int@@MEAAPEAXI@Z 00000001800624c4 f i ClientDOMSerializerWrapperImpl.obj
 0001:000614fc       ??1DOMSerializerImpl@AdobeXMPCore_Int@@MEAA@XZ 00000001800624fc f i ClientDOMSerializerWrapperImpl.obj
 0001:00061630       ??_GDOMSerializerImpl@AdobeXMPCore_Int@@MEAAPEAXI@Z 0000000180062630 f i ClientDOMSerializerWrapperImpl.obj
 0001:00061630       ??_EDOMSerializerImpl@AdobeXMPCore_Int@@MEAAPEAXI@Z 0000000180062630 f i * CIL library *:* CIL module *
 0001:00061690       ??0ClientDOMSerializerWrapperImpl@AdobeXMPCore_Int@@QEAA@PEAVIClientDOMSerializer_v1@AdobeXMPCore@@@Z 0000000180062690 f   ClientDOMSerializerWrapperImpl.obj
 0001:00061bec       ??_EClientDOMSerializerWrapperImpl@AdobeXMPCore_Int@@MEAAPEAXI@Z 0000000180062bec f i * CIL library *:* CIL module *
 0001:00061bec       ??_GClientDOMSerializerWrapperImpl@AdobeXMPCore_Int@@MEAAPEAXI@Z 0000000180062bec f i ClientDOMSerializerWrapperImpl.obj
 0001:00061d70       ??1ClientDOMSerializerWrapperImpl@AdobeXMPCore_Int@@MEAA@XZ 0000000180062d70 f   ClientDOMSerializerWrapperImpl.obj
 0001:00061eb0       ?clone@ClientDOMSerializerWrapperImpl@AdobeXMPCore_Int@@MEBAPEAVDOMSerializerImpl@2@XZ 0000000180062eb0 f   ClientDOMSerializerWrapperImpl.obj
 0001:00061f18       ?Serialize@ClientDOMSerializerWrapperImpl@AdobeXMPCore_Int@@UEAA?AV?$shared_ptr@VIUTF8String_v1@AdobeXMPCommon@@@std@@AEBV?$shared_ptr@VINode_v1@AdobeXMPCore@@@4@AEBV?$shared_ptr@$$CBVINameSpacePrefixMap_v1@AdobeXMPCore@@@4@@Z 0000000180062f18 f   ClientDOMSerializerWrapperImpl.obj
 0001:00062244       ?ValidateValue@ClientDOMSerializerWrapperImpl@AdobeXMPCore_Int@@UEBA?AW4eConfigurableErrorCode@AdobeXMPCommon@@AEB_KW4eDataType@IConfigurable@4@AEBTCombinedDataValue@64@@Z 0000000180063244 f   ClientDOMSerializerWrapperImpl.obj
 0001:0006239c       ?SerializeInternal@ClientDOMSerializerWrapperImpl@AdobeXMPCore_Int@@UEBA?AV?$shared_ptr@VIUTF8String_v1@AdobeXMPCommon@@@std@@AEBV?$shared_ptr@VINode_v1@AdobeXMPCore@@@4@K_KPEBD21AEBV?$shared_ptr@$$CBVINameSpacePrefixMap_v1@AdobeXMPCore@@@4@@Z 000000018006339c f   ClientDOMSerializerWrapperImpl.obj
 0001:0006239c       ?ConvertToMetadata@NodeImpl@AdobeXMPCore_Int@@UEAA?AV?$shared_ptr@VIMetadata_v1@AdobeXMPCore@@@std@@XZ 000000018006339c f   NodeImpl.obj
 0001:0006239c       ?ConvertToArrayNode@NodeImpl@AdobeXMPCore_Int@@UEAA?AV?$shared_ptr@VIArrayNode_v1@AdobeXMPCore@@@std@@XZ 000000018006339c f   NodeImpl.obj
 0001:0006239c       ?ConvertToStructureNode@NodeImpl@AdobeXMPCore_Int@@UEAA?AV?$shared_ptr@VIStructureNode_v1@AdobeXMPCore@@@std@@XZ 000000018006339c f   NodeImpl.obj
 0001:0006239c       ?ConvertToSimpleNode@NodeImpl@AdobeXMPCore_Int@@UEAA?AV?$shared_ptr@VISimpleNode_v1@AdobeXMPCore@@@std@@XZ 000000018006339c f   NodeImpl.obj
 0001:0006239c       ?GetParent@MetadataImpl@AdobeXMPCore_Int@@MEAA?AV?$shared_ptr@VINode_v1@AdobeXMPCore@@@std@@XZ 000000018006339c f   MetadataImpl.obj
 0001:000623ac       ?GetActualIDOMSerializer@IDOMSerializer_I@AdobeXMPCore_Int@@$R4FA@BM@PPPPPPPM@EI@EAAPEAVIDOMSerializer_v1@AdobeXMPCore@@XZ 00000001800633ac f i ClientDOMSerializerWrapperImpl.obj
 0001:000623c8       ??_EDOMSerializerImpl@AdobeXMPCore_Int@@$2PPPPPPPM@A@EAAPEAXI@Z 00000001800633c8 f i ClientDOMSerializerWrapperImpl.obj
 0001:000623d4       ?Clone@DOMSerializerImpl@AdobeXMPCore_Int@@$R4EI@CM@PPPPPPPM@FI@EBA?AV?$shared_ptr@VIDOMSerializer_v1@AdobeXMPCore@@@std@@XZ 00000001800633d4 f i ClientDOMSerializerWrapperImpl.obj
 0001:000623f0       ?GetIDOMSerializer_I@IDOMSerializer_I@AdobeXMPCore_Int@@$R4FA@BM@PPPPPPPM@EI@EAAPEAV12@XZ 00000001800633f0 f i ClientDOMSerializerWrapperImpl.obj
 0001:0006240c       ??_EDOMSerializerImpl@AdobeXMPCore_Int@@$2PPPPPPPM@CA@EAAPEAXI@Z 000000018006340c f i ClientDOMSerializerWrapperImpl.obj
 0001:0006241c       ?getInterfacePointer@IDOMSerializer_I@AdobeXMPCore_Int@@$2PPPPPPPM@A@EAAPEAX_KKAEAPEBVIError_v1@AdobeXMPCommon@@@Z 000000018006341c f i ClientDOMSerializerWrapperImpl.obj
 0001:00062428       ?clone@ClientDOMSerializerWrapperImpl@AdobeXMPCore_Int@@$2PPPPPPPM@A@EBAPEAVDOMSerializerImpl@2@XZ 0000000180063428 f i ClientDOMSerializerWrapperImpl.obj
 0001:00062434       ?SetAllowedKeys@ConfigurableImpl@AdobeXMPCore_Int@@$R4GI@CA@PPPPPPPM@FA@EAAXPEA_K_K@Z 0000000180063434 f i ClientDOMSerializerWrapperImpl.obj
 0001:00062450       ?setParameter@IConfigurable_I@AdobeXMPCore_Int@@$R2CA@BE@PPPPPPPM@BI@EAAXAEB_KKAEBTCombinedDataValue@IConfigurable@AdobeXMPCommon@@AEAPEBVIError_v1@5@@Z 0000000180063450 f i ClientDOMSerializerWrapperImpl.obj
 0001:0006246c       ?Serialize@ClientDOMSerializerWrapperImpl@AdobeXMPCore_Int@@$4PPPPPPPM@A@EAA?AV?$shared_ptr@VIUTF8String_v1@AdobeXMPCommon@@@std@@AEBV?$shared_ptr@VINode_v1@AdobeXMPCore@@@4@AEBV?$shared_ptr@$$CBVINameSpacePrefixMap_v1@AdobeXMPCore@@@4@@Z 000000018006346c f i ClientDOMSerializerWrapperImpl.obj
 0001:00062478       ??_EClientDOMSerializerWrapperImpl@AdobeXMPCore_Int@@$2PPPPPPPM@BA@EAAPEAXI@Z 0000000180063478 f i ClientDOMSerializerWrapperImpl.obj
 0001:00062488       ?AcquireInternal@SharedObjectImpl@AdobeXMPCore_Int@@$R4IA@CE@PPPPPPPM@DA@EBAXXZ 0000000180063488 f i ClientDOMSerializerWrapperImpl.obj
 0001:000624a4       ?getParameter@IConfigurable_I@AdobeXMPCore_Int@@$R2CA@BE@PPPPPPPM@BI@EBAKAEB_KKAEATCombinedDataValue@IConfigurable@AdobeXMPCommon@@AEAPEBVIError_v1@5@@Z 00000001800634a4 f i ClientDOMSerializerWrapperImpl.obj
 0001:000624c0       ?GetInterfacePointer@IDOMSerializer_I@AdobeXMPCore_Int@@$R4DI@BM@PPPPPPPM@DI@EAAPEAX_KK@Z 00000001800634c0 f i ClientDOMSerializerWrapperImpl.obj
 0001:000624d8       ?GetParameter@ConfigurableImpl@AdobeXMPCore_Int@@$R4GI@CA@PPPPPPPM@FA@EBA_NAEB_KW4eDataType@IConfigurable@AdobeXMPCommon@@AEATCombinedDataValue@45@@Z 00000001800634d8 f i ClientDOMSerializerWrapperImpl.obj
 0001:000624f4       ?Clone@DOMSerializerImpl@AdobeXMPCore_Int@@$4PPPPPPPM@A@EBA?AV?$shared_ptr@VIDOMSerializer_v1@AdobeXMPCore@@@std@@XZ 00000001800634f4 f i ClientDOMSerializerWrapperImpl.obj
 0001:00062500       ??_EIDOMSerializer_v1@AdobeXMPCore@@O7EAAPEAXI@Z 0000000180063500 f i ClientDOMSerializerWrapperImpl.obj
 0001:0006250c       ?getAllParameters@IConfigurable_I@AdobeXMPCore_Int@@$R2CA@BE@PPPPPPPM@BI@EBAXPEA_K_K@Z 000000018006350c f i ClientDOMSerializerWrapperImpl.obj
 0001:00062528       ?RemoveParameter@ConfigurableImpl@AdobeXMPCore_Int@@$R4CA@CA@PPPPPPPM@EA@EAA_NAEB_K@Z 0000000180063528 f i ClientDOMSerializerWrapperImpl.obj
 0001:00062544       ?GetDataType@ConfigurableImpl@AdobeXMPCore_Int@@$R4CA@CA@PPPPPPPM@EA@EBA?AW4eDataType@IConfigurable@AdobeXMPCommon@@AEB_K@Z 0000000180063544 f i ClientDOMSerializerWrapperImpl.obj
 0001:00062560       ?GetAllParameters@ConfigurableImpl@AdobeXMPCore_Int@@$R4CA@CA@PPPPPPPM@EA@EBA?AV?$vector@_KV?$allocator@_K@std@@@std@@XZ 0000000180063560 f i ClientDOMSerializerWrapperImpl.obj
 0001:0006257c       ??_EIDOMSerializer_I@AdobeXMPCore_Int@@$2PPPPPPPM@BA@EAAPEAXI@Z 000000018006357c f i ClientDOMSerializerWrapperImpl.obj
 0001:0006258c       ??_EDOMSerializerImpl@AdobeXMPCore_Int@@$2PPPPPPPM@BA@EAAPEAXI@Z 000000018006358c f i ClientDOMSerializerWrapperImpl.obj
 0001:0006259c       ?SetParameter@IConfigurable_I@AdobeXMPCore_Int@@$R4CA@BE@PPPPPPPM@BI@EAAXAEB_K_N@Z 000000018006359c f i ClientDOMSerializerWrapperImpl.obj
 0001:000625b8       ?SetParameter@IConfigurable_I@AdobeXMPCore_Int@@$R4CA@BE@PPPPPPPM@BI@EAAXAEB_K_K@Z 00000001800635b8 f i ClientDOMSerializerWrapperImpl.obj
 0001:000625d4       ?SetParameter@IConfigurable_I@AdobeXMPCore_Int@@$R4CA@BE@PPPPPPPM@BI@EAAXAEB_K_J@Z 00000001800635d4 f i ClientDOMSerializerWrapperImpl.obj
 0001:000625f0       ?SetParameter@IConfigurable_I@AdobeXMPCore_Int@@$R4CA@BE@PPPPPPPM@BI@EAAXAEB_KN@Z 00000001800635f0 f i ClientDOMSerializerWrapperImpl.obj
 0001:0006260c       ?SetParameter@IConfigurable_I@AdobeXMPCore_Int@@$R4CA@BE@PPPPPPPM@BI@EAAXAEB_KD@Z 000000018006360c f i ClientDOMSerializerWrapperImpl.obj
 0001:00062628       ?SetParameter@IConfigurable_I@AdobeXMPCore_Int@@$R4CA@BE@PPPPPPPM@BI@EAAXAEB_KPEBD@Z 0000000180063628 f i ClientDOMSerializerWrapperImpl.obj
 0001:00062644       ?SetParameter@IConfigurable_I@AdobeXMPCore_Int@@$R4CA@BE@PPPPPPPM@BI@EAAXAEB_KPEBX@Z 0000000180063644 f i ClientDOMSerializerWrapperImpl.obj
 0001:00062660       ?SetParameter@ConfigurableImpl@AdobeXMPCore_Int@@$R4GI@CA@PPPPPPPM@FA@EAAXAEB_KW4eDataType@IConfigurable@AdobeXMPCommon@@AEBTCombinedDataValue@45@@Z 0000000180063660 f i ClientDOMSerializerWrapperImpl.obj
 0001:0006267c       ?clone@IDOMSerializer_I@AdobeXMPCore_Int@@$R2EI@BM@PPPPPPPM@EI@EBAPEAVIDOMSerializer_v1@AdobeXMPCore@@AEAPEBVIError_v1@AdobeXMPCommon@@@Z 000000018006367c f i ClientDOMSerializerWrapperImpl.obj
 0001:00062694       ?GetInterfacePointer@IDOMSerializer_I@AdobeXMPCore_Int@@$R4EA@BM@PPPPPPPM@DI@EAAPEAX_KK@Z 0000000180063694 f i ClientDOMSerializerWrapperImpl.obj
 0001:000626b0       ?Acquire@SharedObjectImpl@AdobeXMPCore_Int@@$R4DA@CE@PPPPPPPM@CA@EBAXXZ 00000001800636b0 f i ClientDOMSerializerWrapperImpl.obj
 0001:000626cc       ?serialize@IDOMSerializer_I@AdobeXMPCore_Int@@$R2EI@BM@PPPPPPPM@EI@EAAPEAVIUTF8String_v1@AdobeXMPCommon@@PEAVINode_v1@AdobeXMPCore@@PEBVINameSpacePrefixMap_v1@6@AEAPEBVIError_v1@4@@Z 00000001800636cc f i ClientDOMSerializerWrapperImpl.obj
 0001:000626e4       ?GetMutex@DOMSerializerImpl@AdobeXMPCore_Int@@$4PPPPPPPM@A@EBA?AV?$shared_ptr@VISharedMutex@AdobeXMPCore_Int@@@std@@XZ 00000001800636e4 f i ClientDOMSerializerWrapperImpl.obj
 0001:000626e4       ?GetMessage@ErrorImpl@AdobeXMPCore_Int@@$4PPPPPPPM@A@EBA?AV?$shared_ptr@$$CBVIUTF8String_v1@AdobeXMPCommon@@@std@@XZ 00000001800636e4 f i ErrorImpl.obj
 0001:000626f0       ?TreatKeyAsCaseInsensitive@ConfigurableImpl@AdobeXMPCore_Int@@$R4GI@CA@PPPPPPPM@FA@EAAX_N@Z 00000001800636f0 f i ClientDOMSerializerWrapperImpl.obj
 0001:0006270c       ??_EIDOMSerializer_v1@AdobeXMPCore@@OBA@EAAPEAXI@Z 000000018006370c f i ClientDOMSerializerWrapperImpl.obj
 0001:00062718       ?removeParameter@IConfigurable_I@AdobeXMPCore_Int@@$R2CA@BE@PPPPPPPM@BI@EAAKAEB_KAEAPEBVIError_v1@AdobeXMPCommon@@@Z 0000000180063718 f i ClientDOMSerializerWrapperImpl.obj
 0001:00062734       ?SetAllowedValueTypesForKeys@ConfigurableImpl@AdobeXMPCore_Int@@$R4GI@CA@PPPPPPPM@FA@EAAXPEAU?$pair@_KW4eDataType@IConfigurable@AdobeXMPCommon@@@std@@_K@Z 0000000180063734 f i ClientDOMSerializerWrapperImpl.obj
 0001:00062750       ?AllowDifferentValueTypesForExistingEntries@ConfigurableImpl@AdobeXMPCore_Int@@$R4GI@CA@PPPPPPPM@FA@EAAX_N@Z 0000000180063750 f i ClientDOMSerializerWrapperImpl.obj
 0001:0006276c       ?GetISharedObject_I@IDOMSerializer_I@AdobeXMPCore_Int@@$R4DA@BM@PPPPPPPM@CI@EAAPEAVISharedObject_I@AdobeXMPCommon_Int@@XZ 000000018006376c f i ClientDOMSerializerWrapperImpl.obj
 0001:00062788       ?GetParameter@IConfigurable_I@AdobeXMPCore_Int@@$R4CA@BE@PPPPPPPM@BI@EBA_NAEB_KAEA_N@Z 0000000180063788 f i ClientDOMSerializerWrapperImpl.obj
 0001:000627a4       ?GetParameter@IConfigurable_I@AdobeXMPCore_Int@@$R4CA@BE@PPPPPPPM@BI@EBA_NAEB_KAEA_K@Z 00000001800637a4 f i ClientDOMSerializerWrapperImpl.obj
 0001:000627c0       ?GetParameter@IConfigurable_I@AdobeXMPCore_Int@@$R4CA@BE@PPPPPPPM@BI@EBA_NAEB_KAEA_J@Z 00000001800637c0 f i ClientDOMSerializerWrapperImpl.obj
 0001:000627dc       ?GetParameter@IConfigurable_I@AdobeXMPCore_Int@@$R4CA@BE@PPPPPPPM@BI@EBA_NAEB_KAEAN@Z 00000001800637dc f i ClientDOMSerializerWrapperImpl.obj
 0001:000627f8       ?GetParameter@IConfigurable_I@AdobeXMPCore_Int@@$R4CA@BE@PPPPPPPM@BI@EBA_NAEB_KAEAD@Z 00000001800637f8 f i ClientDOMSerializerWrapperImpl.obj
 0001:00062814       ?GetParameter@IConfigurable_I@AdobeXMPCore_Int@@$R4CA@BE@PPPPPPPM@BI@EBA_NAEB_KAEAPEBD@Z 0000000180063814 f i ClientDOMSerializerWrapperImpl.obj
 0001:00062830       ?GetParameter@IConfigurable_I@AdobeXMPCore_Int@@$R4CA@BE@PPPPPPPM@BI@EBA_NAEB_KAEAPEBX@Z 0000000180063830 f i ClientDOMSerializerWrapperImpl.obj
 0001:0006284c       ?ValidateValue@ClientDOMSerializerWrapperImpl@AdobeXMPCore_Int@@$4PPPPPPPM@A@EBA?AW4eConfigurableErrorCode@AdobeXMPCommon@@AEB_KW4eDataType@IConfigurable@4@AEBTCombinedDataValue@64@@Z 000000018006384c f i ClientDOMSerializerWrapperImpl.obj
 0001:00062858       ?getInterfacePointer@IDOMSerializer_I@AdobeXMPCore_Int@@$R2DI@BM@PPPPPPPM@DI@EAAPEAX_KKAEAPEBVIError_v1@AdobeXMPCommon@@@Z 0000000180063858 f i ClientDOMSerializerWrapperImpl.obj
 0001:00062870       ?GetInterfacePointer@IDOMSerializer_I@AdobeXMPCore_Int@@$4PPPPPPPM@A@EAAPEAX_KK@Z 0000000180063870 f i ClientDOMSerializerWrapperImpl.obj
 0001:0006287c       ?getDataType@IConfigurable_I@AdobeXMPCore_Int@@$R2CA@BE@PPPPPPPM@BI@EBAKAEB_KAEAPEBVIError_v1@AdobeXMPCommon@@@Z 000000018006387c f i ClientDOMSerializerWrapperImpl.obj
 0001:00062898       ??_EClientDOMSerializerWrapperImpl@AdobeXMPCore_Int@@$2PPPPPPPM@A@EAAPEAXI@Z 0000000180063898 f i ClientDOMSerializerWrapperImpl.obj
 0001:000628a4       ?clone@IDOMSerializer_I@AdobeXMPCore_Int@@$R2FA@BM@PPPPPPPM@EI@EBAPEAVIDOMSerializer_v1@AdobeXMPCore@@AEAPEBVIError_v1@AdobeXMPCommon@@@Z 00000001800638a4 f i ClientDOMSerializerWrapperImpl.obj
 0001:000628c0       ?GetMutex@DOMSerializerImpl@AdobeXMPCore_Int@@$R4GA@CM@PPPPPPPM@HA@EBA?AV?$shared_ptr@VISharedMutex@AdobeXMPCore_Int@@@std@@XZ 00000001800638c0 f i ClientDOMSerializerWrapperImpl.obj
 0001:000628dc       ??_EClientDOMSerializerWrapperImpl@AdobeXMPCore_Int@@$2PPPPPPPM@CA@EAAPEAXI@Z 00000001800638dc f i ClientDOMSerializerWrapperImpl.obj
 0001:000628ec       ?serialize@IDOMSerializer_I@AdobeXMPCore_Int@@$R2FA@BM@PPPPPPPM@EI@EAAPEAVIUTF8String_v1@AdobeXMPCommon@@PEAVINode_v1@AdobeXMPCore@@PEBVINameSpacePrefixMap_v1@6@AEAPEBVIError_v1@4@@Z 00000001800638ec f i ClientDOMSerializerWrapperImpl.obj
 0001:00062908       ?clone@IDOMSerializer_I@AdobeXMPCore_Int@@$2PPPPPPPM@A@EBAPEAVIDOMSerializer_v1@AdobeXMPCore@@AEAPEBVIError_v1@AdobeXMPCommon@@@Z 0000000180063908 f i ClientDOMSerializerWrapperImpl.obj
 0001:00062914       ??_EIDOMSerializer_I@AdobeXMPCore_Int@@$2PPPPPPPM@A@EAAPEAXI@Z 0000000180063914 f i ClientDOMSerializerWrapperImpl.obj
 0001:00062920       ?getInterfacePointer@IDOMSerializer_I@AdobeXMPCore_Int@@$R2EA@BM@PPPPPPPM@DI@EAAPEAX_KKAEAPEBVIError_v1@AdobeXMPCommon@@@Z 0000000180063920 f i ClientDOMSerializerWrapperImpl.obj
 0001:0006293c       ?Release@SharedObjectImpl@AdobeXMPCore_Int@@$R4DA@CE@PPPPPPPM@CA@EBAXXZ 000000018006393c f i ClientDOMSerializerWrapperImpl.obj
 0001:00062958       ?Size@ConfigurableImpl@AdobeXMPCore_Int@@$R4CA@CA@PPPPPPPM@EA@EBA_KXZ 0000000180063958 f i ClientDOMSerializerWrapperImpl.obj
 0001:00062974       ?serialize@IDOMSerializer_I@AdobeXMPCore_Int@@$2PPPPPPPM@A@EAAPEAVIUTF8String_v1@AdobeXMPCommon@@PEAVINode_v1@AdobeXMPCore@@PEBVINameSpacePrefixMap_v1@6@AEAPEBVIError_v1@4@@Z 0000000180063974 f i ClientDOMSerializerWrapperImpl.obj
 0001:00062980       ??_EIDOMSerializer_I@AdobeXMPCore_Int@@$2PPPPPPPM@CA@EAAPEAXI@Z 0000000180063980 f i ClientDOMSerializerWrapperImpl.obj
 0001:00062990       ?GetSimpleQualifier@INode_I@AdobeXMPCore_Int@@QEAA?AV?$shared_ptr@VISimpleNode_v1@AdobeXMPCore@@@std@@AEBV?$shared_ptr@$$CBVIUTF8String_v1@AdobeXMPCommon@@@4@0@Z 0000000180063990 f i CompositeNodeImpl.obj
 0001:00062cd4       ?GetNodeTypeAtPath@CompositeNodeImpl@AdobeXMPCore_Int@@UEBA?AW4eNodeType@INode_v1@AdobeXMPCore@@AEBV?$shared_ptr@$$CBVIPath_v1@AdobeXMPCore@@@std@@@Z 0000000180063cd4 f   CompositeNodeImpl.obj
 0001:00062d64       ?GetNodeAtPath@CompositeNodeImpl@AdobeXMPCore_Int@@UEAA?AV?$shared_ptr@VINode_v1@AdobeXMPCore@@@std@@AEBV?$shared_ptr@$$CBVIPath_v1@AdobeXMPCore@@@4@@Z 0000000180063d64 f   CompositeNodeImpl.obj
 0001:0006365c       ?InsertNodeAtPath@CompositeNodeImpl@AdobeXMPCore_Int@@UEAAXAEBV?$shared_ptr@VINode_v1@AdobeXMPCore@@@std@@AEBV?$shared_ptr@$$CBVIPath_v1@AdobeXMPCore@@@4@@Z 000000018006465c f   CompositeNodeImpl.obj
 0001:00063724       ?ReplaceNodeAtPath@CompositeNodeImpl@AdobeXMPCore_Int@@UEAA?AV?$shared_ptr@VINode_v1@AdobeXMPCore@@@std@@AEBV34@AEBV?$shared_ptr@$$CBVIPath_v1@AdobeXMPCore@@@4@@Z 0000000180064724 f   CompositeNodeImpl.obj
 0001:000637ec       ?RemoveNodeAtPath@CompositeNodeImpl@AdobeXMPCore_Int@@UEAA?AV?$shared_ptr@VINode_v1@AdobeXMPCore@@@std@@AEBV?$shared_ptr@$$CBVIPath_v1@AdobeXMPCore@@@4@@Z 00000001800647ec f   CompositeNodeImpl.obj
 0001:00063b60       ?CheckSuitabilityToBeUsedAsChildNode@CompositeNodeImpl@AdobeXMPCore_Int@@UEBA_NAEBV?$shared_ptr@$$CBVINode_v1@AdobeXMPCore@@@std@@@Z 0000000180064b60 f   CompositeNodeImpl.obj
 0001:00063cfc       ??$MakeUncheckedSharedPointer@VCompositeNodeImpl@AdobeXMPCore_Int@@@AdobeXMPCore_Int@@YA?AV?$shared_ptr@VCompositeNodeImpl@AdobeXMPCore_Int@@@std@@PEAVCompositeNodeImpl@0@PEBD_K_N@Z 0000000180064cfc f i CompositeNodeImpl.obj
 0001:00063d70       ??$_Resetp@VCompositeNodeImpl@AdobeXMPCore_Int@@V?$_Mem_fn@P8NodeImpl@AdobeXMPCore_Int@@EBAXXZ@std@@V?$TAllocator@VCompositeNodeImpl@AdobeXMPCore_Int@@@2@@?$shared_ptr@VCompositeNodeImpl@AdobeXMPCore_Int@@@std@@AEAAXPEAVCompositeNodeImpl@AdobeXMPCore_Int@@V?$_Mem_fn@P8NodeImpl@AdobeXMPCore_Int@@EBAXXZ@1@V?$TAllocator@VCompositeNodeImpl@AdobeXMPCore_Int@@@3@@Z 0000000180064d70 f i CompositeNodeImpl.obj
 0001:00063e34       ?_Destroy@?$_Ref_count_del_alloc@VCompositeNodeImpl@AdobeXMPCore_Int@@V?$_Mem_fn@P8NodeImpl@AdobeXMPCore_Int@@EBAXXZ@std@@V?$TAllocator@VCompositeNodeImpl@AdobeXMPCore_Int@@@2@@std@@EEAAXXZ 0000000180064e34 f i CompositeNodeImpl.obj
 0001:00063e98       ??_EIConfigurationManager_v1@AdobeXMPCommon@@UEAAPEAXI@Z 0000000180064e98 f i * CIL library *:* CIL module *
 0001:00063e98       ??_GIConfigurationManager_v1@AdobeXMPCommon@@UEAAPEAXI@Z 0000000180064e98 f i CoreConfigurationManagerImpl.obj
 0001:00063ef0       ??_GICoreConfigurationManager_v1@AdobeXMPCore@@MEAAPEAXI@Z 0000000180064ef0 f i CoreConfigurationManagerImpl.obj
 0001:00063ef0       ??_EICoreConfigurationManager_v1@AdobeXMPCore@@MEAAPEAXI@Z 0000000180064ef0 f i * CIL library *:* CIL module *
 0001:00063f60       ??_GIConfigurationManager_I@AdobeXMPCore_Int@@UEAAPEAXI@Z 0000000180064f60 f i CoreConfigurationManagerImpl.obj
 0001:00063f60       ??_EIConfigurationManager_I@AdobeXMPCore_Int@@UEAAPEAXI@Z 0000000180064f60 f i * CIL library *:* CIL module *
 0001:00063ff4       ?GetActualICoreConfigurationManager@ICoreConfigurationManager_I@AdobeXMPCore_Int@@UEAAPEAVICoreConfigurationManager_v1@AdobeXMPCore@@XZ 0000000180064ff4 f i CoreConfigurationManagerImpl.obj
 0001:00064010       ?GetISharedObject_I@ICoreConfigurationManager_I@AdobeXMPCore_Int@@UEAAPEAVISharedObject_I@AdobeXMPCommon_Int@@XZ 0000000180065010 f i CoreConfigurationManagerImpl.obj
 0001:0006402c       ??1ICoreConfigurationManager_I@AdobeXMPCore_Int@@MEAA@XZ 000000018006502c f i CoreConfigurationManagerImpl.obj
 0001:000640d4       ??_EICoreConfigurationManager_I@AdobeXMPCore_Int@@MEAAPEAXI@Z 00000001800650d4 f i * CIL library *:* CIL module *
 0001:000640d4       ??_GICoreConfigurationManager_I@AdobeXMPCore_Int@@MEAAPEAXI@Z 00000001800650d4 f i CoreConfigurationManagerImpl.obj
 0001:0006410c       ??_EConfigurationManagerImpl@AdobeXMPCore_Int@@MEAAPEAXI@Z 000000018006510c f i * CIL library *:* CIL module *
 0001:0006410c       ??_GConfigurationManagerImpl@AdobeXMPCore_Int@@MEAAPEAXI@Z 000000018006510c f i CoreConfigurationManagerImpl.obj
 0001:000642d8       ??1CoreConfigurationManagerImpl@AdobeXMPCore_Int@@MEAA@XZ 00000001800652d8 f i CoreConfigurationManagerImpl.obj
 0001:00064390       ??_ECoreConfigurationManagerImpl@AdobeXMPCore_Int@@MEAAPEAXI@Z 0000000180065390 f i * CIL library *:* CIL module *
 0001:00064390       ??_GCoreConfigurationManagerImpl@AdobeXMPCore_Int@@MEAAPEAXI@Z 0000000180065390 f i CoreConfigurationManagerImpl.obj
 0001:000643f0       ??_DCoreConfigurationManagerImpl@AdobeXMPCore_Int@@IEAAXXZ 00000001800653f0 f i CoreConfigurationManagerImpl.obj
 0001:00064630       ??0CoreConfigurationManagerImpl@AdobeXMPCore_Int@@QEAA@XZ 0000000180065630 f   CoreConfigurationManagerImpl.obj
 0001:00064c74       ?GetCoreConfigurationManager@ICoreConfigurationManager_v1@AdobeXMPCore@@SA?AV?$shared_ptr@VICoreConfigurationManager_v1@AdobeXMPCore@@@std@@XZ 0000000180065c74 f   CoreConfigurationManagerImpl.obj
 0001:00064c94       ??$MakeUncheckedSharedPointer@VCoreConfigurationManagerImpl@AdobeXMPCore_Int@@@AdobeXMPCore_Int@@YA?AV?$shared_ptr@VCoreConfigurationManagerImpl@AdobeXMPCore_Int@@@std@@PEAVCoreConfigurationManagerImpl@0@PEBD_K_N@Z 0000000180065c94 f i CoreConfigurationManagerImpl.obj
 0001:00064d98       ??$_Resetp@VCoreConfigurationManagerImpl@AdobeXMPCore_Int@@V?$_Mem_fn@P8SharedObjectImpl@AdobeXMPCore_Int@@EBAXXZ@std@@V?$TAllocator@VCoreConfigurationManagerImpl@AdobeXMPCore_Int@@@2@@?$shared_ptr@VCoreConfigurationManagerImpl@AdobeXMPCore_Int@@@std@@AEAAXPEAVCoreConfigurationManagerImpl@AdobeXMPCore_Int@@V?$_Mem_fn@P8SharedObjectImpl@AdobeXMPCore_Int@@EBAXXZ@1@V?$TAllocator@VCoreConfigurationManagerImpl@AdobeXMPCore_Int@@@3@@Z 0000000180065d98 f i CoreConfigurationManagerImpl.obj
 0001:00064e5c       ?_Destroy@?$_Ref_count_del_alloc@VNameSpacePrefixMapImpl@AdobeXMPCore_Int@@V?$_Mem_fn@P8SharedObjectImpl@AdobeXMPCore_Int@@EBAXXZ@std@@V?$TAllocator@VNameSpacePrefixMapImpl@AdobeXMPCore_Int@@@2@@std@@EEAAXXZ 0000000180065e5c f i NameSpacePrefixMapImpl.obj
 0001:00064e5c       ?_Destroy@?$_Ref_count_del_alloc@VCoreConfigurationManagerImpl@AdobeXMPCore_Int@@V?$_Mem_fn@P8SharedObjectImpl@AdobeXMPCore_Int@@EBAXXZ@std@@V?$TAllocator@VCoreConfigurationManagerImpl@AdobeXMPCore_Int@@@2@@std@@EEAAXXZ 0000000180065e5c f i CoreConfigurationManagerImpl.obj
 0001:00064eb4       ?registerErrorNotifier@IConfigurationManager_I@AdobeXMPCore_Int@@$R2DI@BE@PPPPPPPM@CI@EAAKPEAVIErrorNotifier_v1@AdobeXMPCommon@@AEAPEBVIError_v1@4@@Z 0000000180065eb4 f i CoreConfigurationManagerImpl.obj
 0001:00064ed0       ?DisableMultiThreading@ConfigurationManagerImpl@AdobeXMPCore_Int@@$4PPPPPPPM@A@EAA_NXZ 0000000180065ed0 f i CoreConfigurationManagerImpl.obj
 0001:00064edc       ?GetActualICoreConfigurationManager@ICoreConfigurationManager_I@AdobeXMPCore_Int@@$4PPPPPPPM@A@EAAPEAVICoreConfigurationManager_v1@AdobeXMPCore@@XZ 0000000180065edc f i CoreConfigurationManagerImpl.obj
 0001:00064ee8       ?GetInterfacePointer@ICoreConfigurationManager_I@AdobeXMPCore_Int@@$4PPPPPPPM@A@EAAPEAX_KK@Z 0000000180065ee8 f i CoreConfigurationManagerImpl.obj
 0001:00064ef4       ?AcquireInternal@SharedObjectImpl@AdobeXMPCore_Int@@$R4GA@CA@PPPPPPPM@DA@EBAXXZ 0000000180065ef4 f i CoreConfigurationManagerImpl.obj
 0001:00064f10       ?RegisterErrorNotifier@ConfigurationManagerImpl@AdobeXMPCore_Int@@$R4DA@CI@PPPPPPPM@DI@EAA_NPEAVIErrorNotifier_v1@AdobeXMPCommon@@@Z 0000000180065f10 f i CoreConfigurationManagerImpl.obj
 0001:00064f2c       ?GetInterfacePointer@ICoreConfigurationManager_I@AdobeXMPCore_Int@@$R4CA@BM@PPPPPPPM@CA@EAAPEAX_KK@Z 0000000180065f2c f i CoreConfigurationManagerImpl.obj
 0001:00064f44       ??_EICoreConfigurationManager_v1@AdobeXMPCore@@O7EAAPEAXI@Z 0000000180065f44 f i CoreConfigurationManagerImpl.obj
 0001:00064f50       ?registerErrorNotifier@IConfigurationManager_I@AdobeXMPCore_Int@@$2PPPPPPPM@A@EAAKPEAVIErrorNotifier_v1@AdobeXMPCommon@@AEAPEBVIError_v1@4@@Z 0000000180065f50 f i CoreConfigurationManagerImpl.obj
 0001:00064f5c       ?IsMultiThreaded@ConfigurationManagerImpl@AdobeXMPCore_Int@@$R4DA@CI@PPPPPPPM@DI@EBA_NXZ 0000000180065f5c f i CoreConfigurationManagerImpl.obj
 0001:00064f78       ??_ECoreConfigurationManagerImpl@AdobeXMPCore_Int@@$2PPPPPPPM@BA@EAAPEAXI@Z 0000000180065f78 f i CoreConfigurationManagerImpl.obj
 0001:00064f88       ??_EConfigurationManagerImpl@AdobeXMPCore_Int@@$2PPPPPPPM@A@EAAPEAXI@Z 0000000180065f88 f i CoreConfigurationManagerImpl.obj
 0001:00064f94       ?isMultiThreaded@IConfigurationManager_I@AdobeXMPCore_Int@@$R2DA@BI@PPPPPPPM@CI@EBAKAEAPEBVIError_v1@AdobeXMPCommon@@@Z 0000000180065f94 f i CoreConfigurationManagerImpl.obj
 0001:00064fb0       ?disableMultiThreading@IConfigurationManager_I@AdobeXMPCore_Int@@$R2DA@BI@PPPPPPPM@CI@EAAKAEAPEBVIError_v1@AdobeXMPCommon@@@Z 0000000180065fb0 f i CoreConfigurationManagerImpl.obj
 0001:00064fcc       ?AcquireInternal@SharedObjectImpl@AdobeXMPCore_Int@@$R4FA@BI@PPPPPPPM@DA@EBAXXZ 0000000180065fcc f i CoreConfigurationManagerImpl.obj
 0001:00064fe8       ?Acquire@SharedObjectImpl@AdobeXMPCore_Int@@$R4BA@CA@PPPPPPPM@CA@EBAXXZ 0000000180065fe8 f i CoreConfigurationManagerImpl.obj
 0001:00065004       ?isMultiThreaded@IConfigurationManager_I@AdobeXMPCore_Int@@$R2DI@BE@PPPPPPPM@CI@EBAKAEAPEBVIError_v1@AdobeXMPCommon@@@Z 0000000180066004 f i CoreConfigurationManagerImpl.obj
 0001:00065020       ?Acquire@SharedObjectImpl@AdobeXMPCore_Int@@$R4BI@BI@PPPPPPPM@CA@EBAXXZ 0000000180066020 f i CoreConfigurationManagerImpl.obj
 0001:0006503c       ?registerMemoryAllocator@IConfigurationManager_I@AdobeXMPCore_Int@@$R2DA@BI@PPPPPPPM@CI@EAAKPEAVIMemoryAllocator_v1@AdobeXMPCommon@@AEAPEBVIError_v1@4@@Z 000000018006603c f i CoreConfigurationManagerImpl.obj
 0001:00065058       ?RegisterMemoryAllocator@ConfigurationManagerImpl@AdobeXMPCore_Int@@$R4DA@CI@PPPPPPPM@DI@EAA_NPEAVIMemoryAllocator_v1@AdobeXMPCommon@@@Z 0000000180066058 f i CoreConfigurationManagerImpl.obj
 0001:00065074       ?disableMultiThreading@IConfigurationManager_I@AdobeXMPCore_Int@@$R2DI@BE@PPPPPPPM@CI@EAAKAEAPEBVIError_v1@AdobeXMPCommon@@@Z 0000000180066074 f i CoreConfigurationManagerImpl.obj
 0001:00065090       ?RegisterErrorNotifier@ConfigurationManagerImpl@AdobeXMPCore_Int@@$4PPPPPPPM@A@EAA_NPEAVIErrorNotifier_v1@AdobeXMPCommon@@@Z 0000000180066090 f i CoreConfigurationManagerImpl.obj
 0001:0006509c       ??_EICoreConfigurationManager_I@AdobeXMPCore_Int@@$2PPPPPPPM@BA@EAAPEAXI@Z 000000018006609c f i CoreConfigurationManagerImpl.obj
 0001:000650ac       ?IsMultiThreaded@ConfigurationManagerImpl@AdobeXMPCore_Int@@$4PPPPPPPM@A@EBA_NXZ 00000001800660ac f i CoreConfigurationManagerImpl.obj
 0001:000650b8       ?GetActualIConfigurationManager@IConfigurationManager_I@AdobeXMPCore_Int@@$R4DA@BI@PPPPPPPM@CI@EAAPEAVIConfigurationManager_v1@AdobeXMPCommon@@XZ 00000001800660b8 f i CoreConfigurationManagerImpl.obj
 0001:000650d4       ?registerMemoryAllocator@IConfigurationManager_I@AdobeXMPCore_Int@@$R2DI@BE@PPPPPPPM@CI@EAAKPEAVIMemoryAllocator_v1@AdobeXMPCommon@@AEAPEBVIError_v1@4@@Z 00000001800660d4 f i CoreConfigurationManagerImpl.obj
 0001:000650f0       ?getInterfacePointer@ICoreConfigurationManager_I@AdobeXMPCore_Int@@$2PPPPPPPM@A@EAAPEAX_KKAEAPEBVIError_v1@AdobeXMPCommon@@@Z 00000001800660f0 f i CoreConfigurationManagerImpl.obj
 0001:000650fc       ?getInterfacePointer@ICoreConfigurationManager_I@AdobeXMPCore_Int@@$R2CA@BM@PPPPPPPM@CA@EAAPEAX_KKAEAPEBVIError_v1@AdobeXMPCommon@@@Z 00000001800660fc f i CoreConfigurationManagerImpl.obj
 0001:00065114       ?isMultiThreaded@IConfigurationManager_I@AdobeXMPCore_Int@@$2PPPPPPPM@A@EBAKAEAPEBVIError_v1@AdobeXMPCommon@@@Z 0000000180066114 f i CoreConfigurationManagerImpl.obj
 0001:00065120       ?GetActualIConfigurationManager@IConfigurationManager_I@AdobeXMPCore_Int@@$R4DI@BE@PPPPPPPM@CI@EAAPEAVIConfigurationManager_v1@AdobeXMPCommon@@XZ 0000000180066120 f i CoreConfigurationManagerImpl.obj
 0001:0006513c       ?GetISharedObject_I@ISharedObject_I@AdobeXMPCommon_Int@@$R4BI@BA@PPPPPPPM@BA@EAAPEAV12@XZ 000000018006613c f i CoreConfigurationManagerImpl.obj
 0001:00065158       ?disableMultiThreading@IConfigurationManager_I@AdobeXMPCore_Int@@$2PPPPPPPM@A@EAAKAEAPEBVIError_v1@AdobeXMPCommon@@@Z 0000000180066158 f i CoreConfigurationManagerImpl.obj
 0001:00065164       ?GetActualICoreConfigurationManager@ICoreConfigurationManager_I@AdobeXMPCore_Int@@$R4EI@BM@PPPPPPPM@EI@EAAPEAVICoreConfigurationManager_v1@AdobeXMPCore@@XZ 0000000180066164 f i CoreConfigurationManagerImpl.obj
 0001:0006517c       ??_ECoreConfigurationManagerImpl@AdobeXMPCore_Int@@$2PPPPPPPM@A@EAAPEAXI@Z 000000018006617c f i CoreConfigurationManagerImpl.obj
 0001:00065188       ?GetInterfacePointer@IConfigurationManager_I@AdobeXMPCore_Int@@$R4CI@BE@PPPPPPPM@BI@EAAPEAX_KK@Z 0000000180066188 f i CoreConfigurationManagerImpl.obj
 0001:000651a4       ??_EIConfigurationManager_v1@AdobeXMPCommon@@W7EAAPEAXI@Z 00000001800661a4 f i CoreConfigurationManagerImpl.obj
 0001:000651b0       ?RegisterMemoryAllocator@ConfigurationManagerImpl@AdobeXMPCore_Int@@$4PPPPPPPM@A@EAA_NPEAVIMemoryAllocator_v1@AdobeXMPCommon@@@Z 00000001800661b0 f i CoreConfigurationManagerImpl.obj
 0001:000651bc       ?getInterfacePointer@IConfigurationManager_I@AdobeXMPCore_Int@@$R2CI@BE@PPPPPPPM@BI@EAAPEAX_KKAEAPEBVIError_v1@AdobeXMPCommon@@@Z 00000001800661bc f i CoreConfigurationManagerImpl.obj
 0001:000651d8       ??_EConfigurationManagerImpl@AdobeXMPCore_Int@@$2PPPPPPPM@BA@EAAPEAXI@Z 00000001800661d8 f i CoreConfigurationManagerImpl.obj
 0001:000651e8       ?registerMemoryAllocator@IConfigurationManager_I@AdobeXMPCore_Int@@$2PPPPPPPM@A@EAAKPEAVIMemoryAllocator_v1@AdobeXMPCommon@@AEAPEBVIError_v1@4@@Z 00000001800661e8 f i CoreConfigurationManagerImpl.obj
 0001:000651f4       ?DisableMultiThreading@ConfigurationManagerImpl@AdobeXMPCore_Int@@$R4DA@CI@PPPPPPPM@DI@EAA_NXZ 00000001800661f4 f i CoreConfigurationManagerImpl.obj
 0001:00065210       ?GetISharedObject_I@ICoreConfigurationManager_I@AdobeXMPCore_Int@@$R4BA@BM@PPPPPPPM@BA@EAAPEAVISharedObject_I@AdobeXMPCommon_Int@@XZ 0000000180066210 f i CoreConfigurationManagerImpl.obj
 0001:00065228       ?GetISharedObject_I@ICoreConfigurationManager_I@AdobeXMPCore_Int@@$4PPPPPPPM@A@EAAPEAVISharedObject_I@AdobeXMPCommon_Int@@XZ 0000000180066228 f i CoreConfigurationManagerImpl.obj
 0001:00065234       ?Release@SharedObjectImpl@AdobeXMPCore_Int@@$R4BA@CA@PPPPPPPM@CA@EBAXXZ 0000000180066234 f i CoreConfigurationManagerImpl.obj
 0001:00065250       ?Release@SharedObjectImpl@AdobeXMPCore_Int@@$R4BI@BI@PPPPPPPM@CA@EBAXXZ 0000000180066250 f i CoreConfigurationManagerImpl.obj
 0001:0006526c       ??_EIConfigurationManager_I@AdobeXMPCore_Int@@$4PPPPPPPM@BA@EAAPEAXI@Z 000000018006626c f i CoreConfigurationManagerImpl.obj
 0001:0006527c       ?registerErrorNotifier@IConfigurationManager_I@AdobeXMPCore_Int@@$R2DA@BI@PPPPPPPM@CI@EAAKPEAVIErrorNotifier_v1@AdobeXMPCommon@@AEAPEBVIError_v1@4@@Z 000000018006627c f i CoreConfigurationManagerImpl.obj
 0001:00065298       ?GetInterfacePointer@IConfigurationManager_I@AdobeXMPCore_Int@@$4PPPPPPPM@A@EAAPEAX_KK@Z 0000000180066298 f i CoreConfigurationManagerImpl.obj
 0001:000652a4       ??_EICoreConfigurationManager_I@AdobeXMPCore_Int@@$2PPPPPPPM@A@EAAPEAXI@Z 00000001800662a4 f i CoreConfigurationManagerImpl.obj
 0001:000652b0       ?getInterfacePointer@IConfigurationManager_I@AdobeXMPCore_Int@@$2PPPPPPPM@A@EAAPEAX_KKAEAPEBVIError_v1@AdobeXMPCommon@@@Z 00000001800662b0 f i CoreConfigurationManagerImpl.obj
 0001:000652bc       ??_GICoreObjectFactory_v1@AdobeXMPCore@@MEAAPEAXI@Z 00000001800662bc f i CoreObjectFactoryImpl.obj
 0001:000652bc       ??_EICoreObjectFactory_v1@AdobeXMPCore@@MEAAPEAXI@Z 00000001800662bc f i * CIL library *:* CIL module *
 0001:00065300       ?GetActualICoreObjectFactory@ICoreObjectFactory_I@AdobeXMPCore_Int@@UEAAPEAVICoreObjectFactory_v1@AdobeXMPCore@@XZ 0000000180066300 f i CoreObjectFactoryImpl.obj
 0001:0006531c       ?GetICoreObjectFactory_I@ICoreObjectFactory_I@AdobeXMPCore_Int@@UEAAPEAV12@XZ 000000018006631c f i CoreObjectFactoryImpl.obj
 0001:00065324       ??_GICoreObjectFactory_I@AdobeXMPCore_Int@@MEAAPEAXI@Z 0000000180066324 f i CoreObjectFactoryImpl.obj
 0001:00065324       ??_EICoreObjectFactory_I@AdobeXMPCore_Int@@MEAAPEAXI@Z 0000000180066324 f i * CIL library *:* CIL module *
 0001:00065394       ??_ECoreObjectFactoryImpl@AdobeXMPCore_Int@@UEAAPEAXI@Z 0000000180066394 f i * CIL library *:* CIL module *
 0001:00065394       ??_GCoreObjectFactoryImpl@AdobeXMPCore_Int@@UEAAPEAXI@Z 0000000180066394 f i CoreObjectFactoryImpl.obj
 0001:0006546c       ?CreateArrayIndexPathSegment@CoreObjectFactoryImpl@AdobeXMPCore_Int@@UEAAPEBVIPathSegment_v1@AdobeXMPCore@@PEBD_K1AEAPEBVIError_v1@AdobeXMPCommon@@@Z 000000018006646c f   CoreObjectFactoryImpl.obj
 0001:00065490       ?CreateArrayNode@CoreObjectFactoryImpl@AdobeXMPCore_Int@@UEAAPEAVIArrayNode_v1@AdobeXMPCore@@KPEBD_K01AEAPEBVIError_v1@AdobeXMPCommon@@@Z 0000000180066490 f   CoreObjectFactoryImpl.obj
 0001:00065538       ?CreateMetadata@CoreObjectFactoryImpl@AdobeXMPCore_Int@@UEAAPEAVIMetadata_v1@AdobeXMPCore@@AEAPEBVIError_v1@AdobeXMPCommon@@@Z 0000000180066538 f   CoreObjectFactoryImpl.obj
 0001:00065540       ?CreateNameSpacePrefixMap@CoreObjectFactoryImpl@AdobeXMPCore_Int@@UEAAPEAVINameSpacePrefixMap_v1@AdobeXMPCore@@AEAPEBVIError_v1@AdobeXMPCommon@@@Z 0000000180066540 f   CoreObjectFactoryImpl.obj
 0001:00065548       ?CreatePath@CoreObjectFactoryImpl@AdobeXMPCore_Int@@UEAAPEAVIPath_v1@AdobeXMPCore@@AEAPEBVIError_v1@AdobeXMPCommon@@@Z 0000000180066548 f   CoreObjectFactoryImpl.obj
 0001:00065550       ?CreatePropertyPathSegment@CoreObjectFactoryImpl@AdobeXMPCore_Int@@UEAAPEBVIPathSegment_v1@AdobeXMPCore@@PEBD_K01AEAPEBVIError_v1@AdobeXMPCommon@@@Z 0000000180066550 f   CoreObjectFactoryImpl.obj
 0001:00065588       ?CreateQualifierPathSegment@CoreObjectFactoryImpl@AdobeXMPCore_Int@@UEAAPEBVIPathSegment_v1@AdobeXMPCore@@PEBD_K01AEAPEBVIError_v1@AdobeXMPCommon@@@Z 0000000180066588 f   CoreObjectFactoryImpl.obj
 0001:000655c0       ?CreateQualifierSelectorPathSegment@CoreObjectFactoryImpl@AdobeXMPCore_Int@@UEAAPEBVIPathSegment_v1@AdobeXMPCore@@PEBD_K0101AEAPEBVIError_v1@AdobeXMPCommon@@@Z 00000001800665c0 f   CoreObjectFactoryImpl.obj
 0001:0006560c       ?CreateSimpleNode@CoreObjectFactoryImpl@AdobeXMPCore_Int@@UEAAPEAVISimpleNode_v1@AdobeXMPCore@@PEBD_K0101AEAPEBVIError_v1@AdobeXMPCommon@@@Z 000000018006660c f   CoreObjectFactoryImpl.obj
 0001:00065658       ?CreateStructureNode@CoreObjectFactoryImpl@AdobeXMPCore_Int@@UEAAPEAVIStructureNode_v1@AdobeXMPCore@@PEBD_K01AEAPEBVIError_v1@AdobeXMPCommon@@@Z 0000000180066658 f   CoreObjectFactoryImpl.obj
 0001:00065684       ?GetCoreConfigurationManager@CoreObjectFactoryImpl@AdobeXMPCore_Int@@UEAAPEAVICoreConfigurationManager_v1@AdobeXMPCore@@AEAPEBVIError_v1@AdobeXMPCommon@@@Z 0000000180066684 f   CoreObjectFactoryImpl.obj
 0001:0006568c       ?GetDOMImplementationRegistry@CoreObjectFactoryImpl@AdobeXMPCore_Int@@UEAAPEAVIDOMImplementationRegistry_v1@AdobeXMPCore@@AEAPEBVIError_v1@AdobeXMPCommon@@@Z 000000018006668c f   CoreObjectFactoryImpl.obj
 0001:00065694       ?GetDefaultNameSpacePrefixMap@CoreObjectFactoryImpl@AdobeXMPCore_Int@@UEAAPEBVINameSpacePrefixMap_v1@AdobeXMPCore@@AEAPEBVIError_v1@AdobeXMPCommon@@@Z 0000000180066694 f   CoreObjectFactoryImpl.obj
 0001:0006569c       ?ParsePath@CoreObjectFactoryImpl@AdobeXMPCore_Int@@UEAAPEAVIPath_v1@AdobeXMPCore@@PEBD_KPEBVINameSpacePrefixMap_v1@4@AEAPEBVIError_v1@AdobeXMPCommon@@@Z 000000018006669c f   CoreObjectFactoryImpl.obj
 0001:0006571c       ?CreateError@CoreObjectFactoryImpl@AdobeXMPCore_Int@@UEAAPEAVIError_v1@AdobeXMPCommon@@KKKAEAPEBV34@@Z 000000018006671c f   CoreObjectFactoryImpl.obj
 0001:00065740       ?CreateUTF8String@CoreObjectFactoryImpl@AdobeXMPCore_Int@@UEAAPEAVIUTF8String_v1@AdobeXMPCommon@@PEBD_KAEAPEBVIError_v1@4@@Z 0000000180066740 f   CoreObjectFactoryImpl.obj
 0001:0006582c       WXMPMeta_GetXMPDOMFactoryInstance_1 000000018006682c f   CoreObjectFactoryImpl.obj
 0001:00065834       ??$ReturnRawPointerFromSharedPointer@$$CBVIPathSegment_v1@AdobeXMPCore@@PEBV12@PEBD_K_K@AdobeXMPCore_Int@@YAPEBVIPathSegment_v1@AdobeXMPCore@@P6A?AV?$shared_ptr@$$CBVIPathSegment_v1@AdobeXMPCore@@@std@@PEBD_K1@ZAEAPEBVIError_v1@AdobeXMPCommon@@01011@Z 0000000180066834 f i CoreObjectFactoryImpl.obj
 0001:0006593c       ??$ReturnRawPointerFromSharedPointer@VIArrayNode_v1@AdobeXMPCore@@PEAV12@PEBD_KPEBD_K@AdobeXMPCore_Int@@YAPEAVIArrayNode_v1@AdobeXMPCore@@P6A?AV?$shared_ptr@VIArrayNode_v1@AdobeXMPCore@@@std@@PEBD_K01@ZAEAPEBVIError_v1@AdobeXMPCommon@@010101@Z 000000018006693c f i CoreObjectFactoryImpl.obj
 0001:0006593c       ??$ReturnRawPointerFromSharedPointer@$$CBVIPathSegment_v1@AdobeXMPCore@@PEBV12@PEBD_KPEBD_K@AdobeXMPCore_Int@@YAPEBVIPathSegment_v1@AdobeXMPCore@@P6A?AV?$shared_ptr@$$CBVIPathSegment_v1@AdobeXMPCore@@@std@@PEBD_K01@ZAEAPEBVIError_v1@AdobeXMPCommon@@010101@Z 000000018006693c f i CoreObjectFactoryImpl.obj
 0001:00065a5c       ??$ReturnRawPointerFromSharedPointer@VIMetadata_v1@AdobeXMPCore@@PEAV12@@AdobeXMPCore_Int@@YAPEAVIMetadata_v1@AdobeXMPCore@@P6A?AV?$shared_ptr@VIMetadata_v1@AdobeXMPCore@@@std@@XZAEAPEBVIError_v1@AdobeXMPCommon@@PEBD_K@Z 0000000180066a5c f i CoreObjectFactoryImpl.obj
 0001:00065b4c       ??$ReturnRawPointerFromSharedPointer@VINameSpacePrefixMap_v1@AdobeXMPCore@@PEAV12@@AdobeXMPCore_Int@@YAPEAVINameSpacePrefixMap_v1@AdobeXMPCore@@P6A?AV?$shared_ptr@VINameSpacePrefixMap_v1@AdobeXMPCore@@@std@@XZAEAPEBVIError_v1@AdobeXMPCommon@@PEBD_K@Z 0000000180066b4c f i CoreObjectFactoryImpl.obj
 0001:00065c3c       ??$ReturnRawPointerFromSharedPointer@VIPath_v1@AdobeXMPCore@@PEAV12@@AdobeXMPCore_Int@@YAPEAVIPath_v1@AdobeXMPCore@@P6A?AV?$shared_ptr@VIPath_v1@AdobeXMPCore@@@std@@XZAEAPEBVIError_v1@AdobeXMPCommon@@PEBD_K@Z 0000000180066c3c f i CoreObjectFactoryImpl.obj
 0001:00065d2c       ??$ReturnRawPointerFromSharedPointer@$$CBVIPathSegment_v1@AdobeXMPCore@@PEBV12@PEBD_KPEBD_KPEBD_K@AdobeXMPCore_Int@@YAPEBVIPathSegment_v1@AdobeXMPCore@@P6A?AV?$shared_ptr@$$CBVIPathSegment_v1@AdobeXMPCore@@@std@@PEBD_K0101@ZAEAPEBVIError_v1@AdobeXMPCommon@@01010101@Z 0000000180066d2c f i CoreObjectFactoryImpl.obj
 0001:00065e5c       ??$ReturnRawPointerFromSharedPointer@VISimpleNode_v1@AdobeXMPCore@@PEAV12@PEBD_KPEBD_KPEBD_K@AdobeXMPCore_Int@@YAPEAVISimpleNode_v1@AdobeXMPCore@@P6A?AV?$shared_ptr@VISimpleNode_v1@AdobeXMPCore@@@std@@PEBD_K0101@ZAEAPEBVIError_v1@AdobeXMPCommon@@01010101@Z 0000000180066e5c f i CoreObjectFactoryImpl.obj
 0001:00065f8c       ??$ReturnRawPointerFromSharedPointer@VIStructureNode_v1@AdobeXMPCore@@PEAV12@PEBD_KPEBD_K@AdobeXMPCore_Int@@YAPEAVIStructureNode_v1@AdobeXMPCore@@P6A?AV?$shared_ptr@VIStructureNode_v1@AdobeXMPCore@@@std@@PEBD_K01@ZAEAPEBVIError_v1@AdobeXMPCommon@@010101@Z 0000000180066f8c f i CoreObjectFactoryImpl.obj
 0001:000660a4       ??$ReturnRawPointerFromSharedPointer@VICoreConfigurationManager_v1@AdobeXMPCore@@PEAV12@@AdobeXMPCore_Int@@YAPEAVICoreConfigurationManager_v1@AdobeXMPCore@@P6A?AV?$shared_ptr@VICoreConfigurationManager_v1@AdobeXMPCore@@@std@@XZAEAPEBVIError_v1@AdobeXMPCommon@@PEBD_K@Z 00000001800670a4 f i CoreObjectFactoryImpl.obj
 0001:00066194       ??$ReturnRawPointerFromSharedPointer@VIDOMImplementationRegistry_v1@AdobeXMPCore@@PEAV12@@AdobeXMPCore_Int@@YAPEAVIDOMImplementationRegistry_v1@AdobeXMPCore@@P6A?AV?$shared_ptr@VIDOMImplementationRegistry_v1@AdobeXMPCore@@@std@@XZAEAPEBVIError_v1@AdobeXMPCommon@@PEBD_K@Z 0000000180067194 f i CoreObjectFactoryImpl.obj
 0001:00066284       ??$ReturnRawPointerFromSharedPointer@$$CBVINameSpacePrefixMap_v1@AdobeXMPCore@@PEBV12@@AdobeXMPCore_Int@@YAPEBVINameSpacePrefixMap_v1@AdobeXMPCore@@P6A?AV?$shared_ptr@$$CBVINameSpacePrefixMap_v1@AdobeXMPCore@@@std@@XZAEAPEBVIError_v1@AdobeXMPCommon@@PEBD_K@Z 0000000180067284 f i CoreObjectFactoryImpl.obj
 0001:00066374       ??$ReturnRawPointerFromSharedPointer@VIPath_v1@AdobeXMPCore@@PEAV12@PEBD_KAEBV?$shared_ptr@$$CBVINameSpacePrefixMap_v1@AdobeXMPCore@@@std@@@AdobeXMPCore_Int@@YAPEAVIPath_v1@AdobeXMPCore@@P6A?AV?$shared_ptr@VIPath_v1@AdobeXMPCore@@@std@@PEBD_KAEBV?$shared_ptr@$$CBVINameSpacePrefixMap_v1@AdobeXMPCore@@@4@@ZAEAPEBVIError_v1@AdobeXMPCommon@@01012@Z 0000000180067374 f i CoreObjectFactoryImpl.obj
 0001:0006647c       ??$ReturnRawPointerFromSharedPointer@VIError_I@AdobeXMPCore_Int@@PEAVIError_v1@AdobeXMPCommon@@W4eErrorDomain@34@KW4eErrorSeverity@34@@AdobeXMPCore_Int@@YAPEAVIError_v1@AdobeXMPCommon@@P6A?AV?$shared_ptr@VIError_I@AdobeXMPCore_Int@@@std@@W4eErrorDomain@12@KW4eErrorSeverity@12@@ZAEAPEBV12@PEBD_K0K1@Z 000000018006747c f i CoreObjectFactoryImpl.obj
 0001:00066594       ??$ReturnRawPointerFromSharedPointer@VIUTF8String_v1@AdobeXMPCommon@@PEAV12@PEBD_K@AdobeXMPCore_Int@@YAPEAVIUTF8String_v1@AdobeXMPCommon@@P6A?AV?$shared_ptr@VIUTF8String_v1@AdobeXMPCommon@@@std@@PEBD_K@ZAEAPEBVIError_v1@2@0101@Z 0000000180067594 f i CoreObjectFactoryImpl.obj
 0001:00066694       ?CreateQualifierPathSegment@CoreObjectFactoryImpl@AdobeXMPCore_Int@@$4PPPPPPPM@A@EAAPEBVIPathSegment_v1@AdobeXMPCore@@PEBD_K01AEAPEBVIError_v1@AdobeXMPCommon@@@Z 0000000180067694 f i CoreObjectFactoryImpl.obj
 0001:000666a0       ?GetICoreObjectFactory_I@ICoreObjectFactory_I@AdobeXMPCore_Int@@$4PPPPPPPM@A@EAAPEAV12@XZ 00000001800676a0 f i CoreObjectFactoryImpl.obj
 0001:000666ac       ?CreateArrayNode@CoreObjectFactoryImpl@AdobeXMPCore_Int@@$4PPPPPPPM@A@EAAPEAVIArrayNode_v1@AdobeXMPCore@@KPEBD_K01AEAPEBVIError_v1@AdobeXMPCommon@@@Z 00000001800676ac f i CoreObjectFactoryImpl.obj
 0001:000666b8       ?CreateError@CoreObjectFactoryImpl@AdobeXMPCore_Int@@$4PPPPPPPM@A@EAAPEAVIError_v1@AdobeXMPCommon@@KKKAEAPEBV34@@Z 00000001800676b8 f i CoreObjectFactoryImpl.obj
 0001:000666c4       ?CreateSimpleNode@CoreObjectFactoryImpl@AdobeXMPCore_Int@@$4PPPPPPPM@A@EAAPEAVISimpleNode_v1@AdobeXMPCore@@PEBD_K0101AEAPEBVIError_v1@AdobeXMPCommon@@@Z 00000001800676c4 f i CoreObjectFactoryImpl.obj
 0001:000666d0       ?GetCoreConfigurationManager@CoreObjectFactoryImpl@AdobeXMPCore_Int@@$4PPPPPPPM@A@EAAPEAVICoreConfigurationManager_v1@AdobeXMPCore@@AEAPEBVIError_v1@AdobeXMPCommon@@@Z 00000001800676d0 f i CoreObjectFactoryImpl.obj
 0001:000666dc       ?getInterfacePointer@ICoreObjectFactory_I@AdobeXMPCore_Int@@$2PPPPPPPM@PPPPPPNA@EAAPEAX_KKAEAPEBVIError_v1@AdobeXMPCommon@@@Z 00000001800676dc f i CoreObjectFactoryImpl.obj
 0001:000666ec       ?GetActualICoreObjectFactory@ICoreObjectFactory_I@AdobeXMPCore_Int@@$R4CA@M@PPPPPPPM@CA@EAAPEAVICoreObjectFactory_v1@AdobeXMPCore@@XZ 00000001800676ec f i CoreObjectFactoryImpl.obj
 0001:00066704       ?CreateUTF8String@CoreObjectFactoryImpl@AdobeXMPCore_Int@@$4PPPPPPPM@A@EAAPEAVIUTF8String_v1@AdobeXMPCommon@@PEBD_KAEAPEBVIError_v1@4@@Z 0000000180067704 f i CoreObjectFactoryImpl.obj
 0001:00066710       ?GetInterfacePointer@ICoreObjectFactory_I@AdobeXMPCore_Int@@$4PPPPPPPM@PPPPPPNA@EAAPEAX_KK@Z 0000000180067710 f i CoreObjectFactoryImpl.obj
 0001:00066720       ?CreatePath@CoreObjectFactoryImpl@AdobeXMPCore_Int@@$4PPPPPPPM@A@EAAPEAVIPath_v1@AdobeXMPCore@@AEAPEBVIError_v1@AdobeXMPCommon@@@Z 0000000180067720 f i CoreObjectFactoryImpl.obj
 0001:0006672c       ?CreateNameSpacePrefixMap@CoreObjectFactoryImpl@AdobeXMPCore_Int@@$4PPPPPPPM@A@EAAPEAVINameSpacePrefixMap_v1@AdobeXMPCore@@AEAPEBVIError_v1@AdobeXMPCommon@@@Z 000000018006772c f i CoreObjectFactoryImpl.obj
 0001:00066738       ??_EICoreObjectFactory_I@AdobeXMPCore_Int@@$2PPPPPPPM@A@EAAPEAXI@Z 0000000180067738 f i CoreObjectFactoryImpl.obj
 0001:00066744       ?CreateArrayIndexPathSegment@CoreObjectFactoryImpl@AdobeXMPCore_Int@@$4PPPPPPPM@A@EAAPEBVIPathSegment_v1@AdobeXMPCore@@PEBD_K1AEAPEBVIError_v1@AdobeXMPCommon@@@Z 0000000180067744 f i CoreObjectFactoryImpl.obj
 0001:00066750       ?CreateMetadata@CoreObjectFactoryImpl@AdobeXMPCore_Int@@$4PPPPPPPM@A@EAAPEAVIMetadata_v1@AdobeXMPCore@@AEAPEBVIError_v1@AdobeXMPCommon@@@Z 0000000180067750 f i CoreObjectFactoryImpl.obj
 0001:0006675c       ?GetICoreObjectFactory_I@ICoreObjectFactory_I@AdobeXMPCore_Int@@$R4CA@M@PPPPPPPM@CA@EAAPEAV12@XZ 000000018006775c f i CoreObjectFactoryImpl.obj
 0001:00066774       ?GetDefaultNameSpacePrefixMap@CoreObjectFactoryImpl@AdobeXMPCore_Int@@$4PPPPPPPM@A@EAAPEBVINameSpacePrefixMap_v1@AdobeXMPCore@@AEAPEBVIError_v1@AdobeXMPCommon@@@Z 0000000180067774 f i CoreObjectFactoryImpl.obj
 0001:00066780       ?ParsePath@CoreObjectFactoryImpl@AdobeXMPCore_Int@@$4PPPPPPPM@A@EAAPEAVIPath_v1@AdobeXMPCore@@PEBD_KPEBVINameSpacePrefixMap_v1@4@AEAPEBVIError_v1@AdobeXMPCommon@@@Z 0000000180067780 f i CoreObjectFactoryImpl.obj
 0001:0006678c       ?CreateQualifierSelectorPathSegment@CoreObjectFactoryImpl@AdobeXMPCore_Int@@$4PPPPPPPM@A@EAAPEBVIPathSegment_v1@AdobeXMPCore@@PEBD_K0101AEAPEBVIError_v1@AdobeXMPCommon@@@Z 000000018006778c f i CoreObjectFactoryImpl.obj
 0001:00066798       ?GetDOMImplementationRegistry@CoreObjectFactoryImpl@AdobeXMPCore_Int@@$4PPPPPPPM@A@EAAPEAVIDOMImplementationRegistry_v1@AdobeXMPCore@@AEAPEBVIError_v1@AdobeXMPCommon@@@Z 0000000180067798 f i CoreObjectFactoryImpl.obj
 0001:000667a4       ?GetActualICoreObjectFactory@ICoreObjectFactory_I@AdobeXMPCore_Int@@$4PPPPPPPM@A@EAAPEAVICoreObjectFactory_v1@AdobeXMPCore@@XZ 00000001800677a4 f i CoreObjectFactoryImpl.obj
 0001:000667b0       ?getInterfacePointer@ICoreObjectFactory_I@AdobeXMPCore_Int@@$2PPPPPPPM@A@EAAPEAX_KKAEAPEBVIError_v1@AdobeXMPCommon@@@Z 00000001800677b0 f i CoreObjectFactoryImpl.obj
 0001:000667bc       ?CreateStructureNode@CoreObjectFactoryImpl@AdobeXMPCore_Int@@$4PPPPPPPM@A@EAAPEAVIStructureNode_v1@AdobeXMPCore@@PEBD_K01AEAPEBVIError_v1@AdobeXMPCommon@@@Z 00000001800677bc f i CoreObjectFactoryImpl.obj
 0001:000667c8       ?GetInterfacePointer@ICoreObjectFactory_I@AdobeXMPCore_Int@@$4PPPPPPPM@A@EAAPEAX_KK@Z 00000001800677c8 f i CoreObjectFactoryImpl.obj
 0001:000667d4       ?CreatePropertyPathSegment@CoreObjectFactoryImpl@AdobeXMPCore_Int@@$4PPPPPPPM@A@EAAPEBVIPathSegment_v1@AdobeXMPCore@@PEBD_K01AEAPEBVIError_v1@AdobeXMPCommon@@@Z 00000001800677d4 f i CoreObjectFactoryImpl.obj
 0001:000667e0       ??_ECoreObjectFactoryImpl@AdobeXMPCore_Int@@$4PPPPPPPM@A@EAAPEAXI@Z 00000001800677e0 f i CoreObjectFactoryImpl.obj
 0001:000667ec       ??1IDOMImplementationRegistry_v1@AdobeXMPCore@@MEAA@XZ 00000001800677ec f i DOMImplementationRegistryImpl.obj
 0001:00066820       ??_GIDOMImplementationRegistry_v1@AdobeXMPCore@@MEAAPEAXI@Z 0000000180067820 f i DOMImplementationRegistryImpl.obj
 0001:00066820       ??_EIDOMImplementationRegistry_v1@AdobeXMPCore@@MEAAPEAXI@Z 0000000180067820 f i * CIL library *:* CIL module *
 0001:00066878       ?GetActualIError@IError_I@AdobeXMPCore_Int@@UEAAPEAVIError_v1@AdobeXMPCommon@@XZ 0000000180067878 f i ErrorImpl.obj
 0001:00066878       ?GetActualIDOMImplementationRegistry@IDOMImplementationRegistry_I@AdobeXMPCore_Int@@UEAAPEAVIDOMImplementationRegistry_v1@AdobeXMPCore@@XZ 0000000180067878 f i DOMImplementationRegistryImpl.obj
 0001:0006689c       ?GetISharedObject_I@IError_I@AdobeXMPCore_Int@@UEAAPEAVISharedObject_I@AdobeXMPCommon_Int@@XZ 000000018006789c f i ErrorImpl.obj
 0001:0006689c       ?GetISharedObject_I@IDOMImplementationRegistry_I@AdobeXMPCore_Int@@UEAAPEAVISharedObject_I@AdobeXMPCommon_Int@@XZ 000000018006789c f i DOMImplementationRegistryImpl.obj
 0001:000668c0       ??1IDOMImplementationRegistry_I@AdobeXMPCore_Int@@MEAA@XZ 00000001800678c0 f i DOMImplementationRegistryImpl.obj
 0001:00066950       ??_EIDOMImplementationRegistry_I@AdobeXMPCore_Int@@MEAAPEAXI@Z 0000000180067950 f i * CIL library *:* CIL module *
 0001:00066950       ??_GIDOMImplementationRegistry_I@AdobeXMPCore_Int@@MEAAPEAXI@Z 0000000180067950 f i DOMImplementationRegistryImpl.obj
 0001:00066a04       ??0DOMImplementationRegistryImpl@AdobeXMPCore_Int@@QEAA@XZ 0000000180067a04 f i DOMImplementationRegistryImpl.obj
 0001:00066cd4       ??1DOMImplementationRegistryImpl@AdobeXMPCore_Int@@MEAA@XZ 0000000180067cd4 f i DOMImplementationRegistryImpl.obj
 0001:00066da4       ??_GDOMImplementationRegistryImpl@AdobeXMPCore_Int@@MEAAPEAXI@Z 0000000180067da4 f i DOMImplementationRegistryImpl.obj
 0001:00066da4       ??_EDOMImplementationRegistryImpl@AdobeXMPCore_Int@@MEAAPEAXI@Z 0000000180067da4 f i * CIL library *:* CIL module *
 0001:00066f6c       ??1?$map@V?$shared_ptr@$$CBVIUTF8String_v1@AdobeXMPCommon@@@std@@V?$shared_ptr@$$CBVIDOMParser_v1@AdobeXMPCore@@@2@UIUTF8StringComparator@AdobeXMPCore_Int@@V?$TAllocator@V?$shared_ptr@$$CBVIUTF8String_v1@AdobeXMPCommon@@@std@@@5@@std@@QEAA@XZ 0000000180067f6c f i DOMImplementationRegistryImpl.obj
 0001:00066f74       ??0RDFDOMParserImpl@AdobeXMPCore_Int@@QEAA@XZ 0000000180067f74 f i DOMImplementationRegistryImpl.obj
 0001:00067354       ??1RDFDOMParserImpl@AdobeXMPCore_Int@@MEAA@XZ 0000000180068354 f i DOMImplementationRegistryImpl.obj
 0001:0006747c       ??_ERDFDOMParserImpl@AdobeXMPCore_Int@@MEAAPEAXI@Z 000000018006847c f i * CIL library *:* CIL module *
 0001:0006747c       ??_GRDFDOMParserImpl@AdobeXMPCore_Int@@MEAAPEAXI@Z 000000018006847c f i DOMImplementationRegistryImpl.obj
 0001:00067600       ??0RDFDOMSerializerImpl@AdobeXMPCore_Int@@QEAA@XZ 0000000180068600 f i DOMImplementationRegistryImpl.obj
 0001:000679d0       ??1RDFDOMSerializerImpl@AdobeXMPCore_Int@@MEAA@XZ 00000001800689d0 f i DOMImplementationRegistryImpl.obj
 0001:00067af8       ??_ERDFDOMSerializerImpl@AdobeXMPCore_Int@@MEAAPEAXI@Z 0000000180068af8 f i * CIL library *:* CIL module *
 0001:00067af8       ??_GRDFDOMSerializerImpl@AdobeXMPCore_Int@@MEAAPEAXI@Z 0000000180068af8 f i DOMImplementationRegistryImpl.obj
 0001:00067c7c       ?RegisterParser@DOMImplementationRegistryImpl@AdobeXMPCore_Int@@UEAA_NPEBDAEBV?$shared_ptr@$$CBVIDOMParser_v1@AdobeXMPCore@@@std@@@Z 0000000180068c7c f   DOMImplementationRegistryImpl.obj
 0001:00067e1c       ??1?$pair@V?$shared_ptr@$$CBVIUTF8String_v1@AdobeXMPCommon@@@std@@V?$shared_ptr@$$CBVIDOMSerializer_v1@AdobeXMPCore@@@2@@std@@QEAA@XZ 0000000180068e1c f i DOMImplementationRegistryImpl.obj
 0001:00067e1c       ??1?$pair@V?$shared_ptr@$$CBVIUTF8String_v1@AdobeXMPCommon@@@std@@V?$shared_ptr@$$CBVIDOMParser_v1@AdobeXMPCore@@@2@@std@@QEAA@XZ 0000000180068e1c f i DOMImplementationRegistryImpl.obj
 0001:00067e1c       ??1QualifiedName@StructureNodeImpl@AdobeXMPCore_Int@@QEAA@XZ 0000000180068e1c f i MetadataImpl.obj
 0001:00067e1c       ??1?$pair@$$CBV?$shared_ptr@$$CBVIUTF8String_v1@AdobeXMPCommon@@@std@@V12@@std@@QEAA@XZ 0000000180068e1c f i NameSpacePrefixMapImpl.obj
 0001:00067ea4       ?RegisterSerializer@DOMImplementationRegistryImpl@AdobeXMPCore_Int@@UEAA_NPEBDAEBV?$shared_ptr@$$CBVIDOMSerializer_v1@AdobeXMPCore@@@std@@@Z 0000000180068ea4 f   DOMImplementationRegistryImpl.obj
 0001:00068044       ?GetParser@DOMImplementationRegistryImpl@AdobeXMPCore_Int@@UEBA?AV?$shared_ptr@VIDOMParser_v1@AdobeXMPCore@@@std@@PEBD@Z 0000000180069044 f   DOMImplementationRegistryImpl.obj
 0001:0006819c       ?GetSerializer@DOMImplementationRegistryImpl@AdobeXMPCore_Int@@UEBA?AV?$shared_ptr@VIDOMSerializer_v1@AdobeXMPCore@@@std@@PEBD@Z 000000018006919c f   DOMImplementationRegistryImpl.obj
 0001:000686c0       ?GetDOMImplementationRegistry@IDOMImplementationRegistry_v1@AdobeXMPCore@@SA?AV?$shared_ptr@VIDOMImplementationRegistry_v1@AdobeXMPCore@@@std@@XZ 00000001800696c0 f   DOMImplementationRegistryImpl.obj
 0001:000686e0       ??1?$_Tree@V?$_Tmap_traits@V?$shared_ptr@$$CBVIUTF8String_v1@AdobeXMPCommon@@@std@@V?$shared_ptr@$$CBVIDOMSerializer_v1@AdobeXMPCore@@@2@UIUTF8StringComparator@AdobeXMPCore_Int@@V?$TAllocator@V?$shared_ptr@$$CBVIUTF8String_v1@AdobeXMPCommon@@@std@@@5@$0A@@std@@@std@@QEAA@XZ 00000001800696e0 f i DOMImplementationRegistryImpl.obj
 0001:000686e0       ??1?$_Tree@V?$_Tmap_traits@V?$shared_ptr@$$CBVIUTF8String_v1@AdobeXMPCommon@@@std@@V?$shared_ptr@$$CBVIDOMParser_v1@AdobeXMPCore@@@2@UIUTF8StringComparator@AdobeXMPCore_Int@@V?$TAllocator@V?$shared_ptr@$$CBVIUTF8String_v1@AdobeXMPCommon@@@std@@@5@$0A@@std@@@std@@QEAA@XZ 00000001800696e0 f i DOMImplementationRegistryImpl.obj
 0001:00068800       ??0?$shared_ptr@VIDOMImplementationRegistry_v1@AdobeXMPCore@@@std@@QEAA@AEBV01@@Z 0000000180069800 f i DOMImplementationRegistryImpl.obj
 0001:0006888c       ?erase@?$_Tree@V?$_Tmap_traits@V?$shared_ptr@$$CBVIUTF8String_v1@AdobeXMPCommon@@@std@@V?$shared_ptr@$$CBVIDOMSerializer_v1@AdobeXMPCore@@@2@UIUTF8StringComparator@AdobeXMPCore_Int@@V?$TAllocator@V?$shared_ptr@$$CBVIUTF8String_v1@AdobeXMPCommon@@@std@@@5@$0A@@std@@@std@@QEAA?AV?$_Tree_iterator@V?$_Tree_val@U?$_Tree_simple_types@U?$pair@$$CBV?$shared_ptr@$$CBVIUTF8String_v1@AdobeXMPCommon@@@std@@V?$shared_ptr@$$CBVIDOMSerializer_v1@AdobeXMPCore@@@2@@std@@@std@@@std@@@2@V?$_Tree_const_iterator@V?$_Tree_val@U?$_Tree_simple_types@U?$pair@$$CBV?$shared_ptr@$$CBVIUTF8String_v1@AdobeXMPCommon@@@std@@V?$shared_ptr@$$CBVIDOMSerializer_v1@AdobeXMPCore@@@2@@std@@@std@@@std@@@2@@Z 000000018006988c f i DOMImplementationRegistryImpl.obj
 0001:0006888c       ?erase@?$_Tree@V?$_Tmap_traits@V?$shared_ptr@$$CBVIUTF8String_v1@AdobeXMPCommon@@@std@@V?$shared_ptr@$$CBVIDOMParser_v1@AdobeXMPCore@@@2@UIUTF8StringComparator@AdobeXMPCore_Int@@V?$TAllocator@V?$shared_ptr@$$CBVIUTF8String_v1@AdobeXMPCommon@@@std@@@5@$0A@@std@@@std@@QEAA?AV?$_Tree_iterator@V?$_Tree_val@U?$_Tree_simple_types@U?$pair@$$CBV?$shared_ptr@$$CBVIUTF8String_v1@AdobeXMPCommon@@@std@@V?$shared_ptr@$$CBVIDOMParser_v1@AdobeXMPCore@@@2@@std@@@std@@@std@@@2@V?$_Tree_const_iterator@V?$_Tree_val@U?$_Tree_simple_types@U?$pair@$$CBV?$shared_ptr@$$CBVIUTF8String_v1@AdobeXMPCommon@@@std@@V?$shared_ptr@$$CBVIDOMParser_v1@AdobeXMPCore@@@2@@std@@@std@@@std@@@2@@Z 000000018006988c f i DOMImplementationRegistryImpl.obj
 0001:00068d34       ?_Buyheadnode@?$_Tree_comp_alloc@V?$_Tmap_traits@V?$shared_ptr@$$CBVIUTF8String_v1@AdobeXMPCommon@@@std@@V?$shared_ptr@$$CBVIDOMParser_v1@AdobeXMPCore@@@2@UIUTF8StringComparator@AdobeXMPCore_Int@@V?$TAllocator@V?$shared_ptr@$$CBVIUTF8String_v1@AdobeXMPCommon@@@std@@@5@$0A@@std@@@std@@QEAAPEAU?$_Tree_node@U?$pair@$$CBV?$shared_ptr@$$CBVIUTF8String_v1@AdobeXMPCommon@@@std@@V?$shared_ptr@$$CBVIDOMParser_v1@AdobeXMPCore@@@2@@std@@PEAX@2@XZ 0000000180069d34 f i DOMImplementationRegistryImpl.obj
 0001:00068d34       ?_Buyheadnode@?$_Tree_comp_alloc@V?$_Tmap_traits@V?$shared_ptr@$$CBVIUTF8String_v1@AdobeXMPCommon@@@std@@V12@UIUTF8StringComparator@AdobeXMPCore_Int@@V?$TAllocator@V?$shared_ptr@$$CBVIUTF8String_v1@AdobeXMPCommon@@@std@@@4@$0A@@std@@@std@@QEAAPEAU?$_Tree_node@U?$pair@$$CBV?$shared_ptr@$$CBVIUTF8String_v1@AdobeXMPCommon@@@std@@V12@@std@@PEAX@2@XZ 0000000180069d34 f i NameSpacePrefixMapImpl.obj
 0001:00068d34       ?_Buyheadnode@?$_Tree_comp_alloc@V?$_Tmap_traits@V?$shared_ptr@$$CBVIUTF8String_v1@AdobeXMPCommon@@@std@@V?$shared_ptr@$$CBVIDOMSerializer_v1@AdobeXMPCore@@@2@UIUTF8StringComparator@AdobeXMPCore_Int@@V?$TAllocator@V?$shared_ptr@$$CBVIUTF8String_v1@AdobeXMPCommon@@@std@@@5@$0A@@std@@@std@@QEAAPEAU?$_Tree_node@U?$pair@$$CBV?$shared_ptr@$$CBVIUTF8String_v1@AdobeXMPCommon@@@std@@V?$shared_ptr@$$CBVIDOMSerializer_v1@AdobeXMPCore@@@2@@std@@PEAX@2@XZ 0000000180069d34 f i DOMImplementationRegistryImpl.obj
 0001:00068d84       ?_Erase@?$_Tree@V?$_Tmap_traits@V?$shared_ptr@$$CBVIUTF8String_v1@AdobeXMPCommon@@@std@@V?$shared_ptr@$$CBVIDOMSerializer_v1@AdobeXMPCore@@@2@UIUTF8StringComparator@AdobeXMPCore_Int@@V?$TAllocator@V?$shared_ptr@$$CBVIUTF8String_v1@AdobeXMPCommon@@@std@@@5@$0A@@std@@@std@@IEAAXPEAU?$_Tree_node@U?$pair@$$CBV?$shared_ptr@$$CBVIUTF8String_v1@AdobeXMPCommon@@@std@@V?$shared_ptr@$$CBVIDOMSerializer_v1@AdobeXMPCore@@@2@@std@@PEAX@2@@Z 0000000180069d84 f i DOMImplementationRegistryImpl.obj
 0001:00068d84       ?_Erase@?$_Tree@V?$_Tmap_traits@V?$shared_ptr@$$CBVIUTF8String_v1@AdobeXMPCommon@@@std@@V?$shared_ptr@$$CBVIDOMParser_v1@AdobeXMPCore@@@2@UIUTF8StringComparator@AdobeXMPCore_Int@@V?$TAllocator@V?$shared_ptr@$$CBVIUTF8String_v1@AdobeXMPCommon@@@std@@@5@$0A@@std@@@std@@IEAAXPEAU?$_Tree_node@U?$pair@$$CBV?$shared_ptr@$$CBVIUTF8String_v1@AdobeXMPCommon@@@std@@V?$shared_ptr@$$CBVIDOMParser_v1@AdobeXMPCore@@@2@@std@@PEAX@2@@Z 0000000180069d84 f i DOMImplementationRegistryImpl.obj
 0001:00068df4       ??$MakeUncheckedSharedPointer@VRDFDOMParserImpl@AdobeXMPCore_Int@@@AdobeXMPCore_Int@@YA?AV?$shared_ptr@VRDFDOMParserImpl@AdobeXMPCore_Int@@@std@@PEAVRDFDOMParserImpl@0@PEBD_K_N@Z 0000000180069df4 f i DOMImplementationRegistryImpl.obj
 0001:00068ef8       ??$MakeUncheckedSharedPointer@VRDFDOMSerializerImpl@AdobeXMPCore_Int@@@AdobeXMPCore_Int@@YA?AV?$shared_ptr@VRDFDOMSerializerImpl@AdobeXMPCore_Int@@@std@@PEAVRDFDOMSerializerImpl@0@PEBD_K_N@Z 0000000180069ef8 f i DOMImplementationRegistryImpl.obj
 0001:00068ffc       ??$MakeUncheckedSharedPointer@VDOMImplementationRegistryImpl@AdobeXMPCore_Int@@@AdobeXMPCore_Int@@YA?AV?$shared_ptr@VDOMImplementationRegistryImpl@AdobeXMPCore_Int@@@std@@PEAVDOMImplementationRegistryImpl@0@PEBD_K_N@Z 0000000180069ffc f i DOMImplementationRegistryImpl.obj
 0001:00069100       ??$destroy@U?$pair@$$CBV?$shared_ptr@$$CBVIUTF8String_v1@AdobeXMPCommon@@@std@@V?$shared_ptr@$$CBVIDOMSerializer_v1@AdobeXMPCore@@@2@@std@@@?$_Wrap_alloc@V?$TAllocator@U?$_Tree_node@U?$pair@$$CBV?$shared_ptr@$$CBVIUTF8String_v1@AdobeXMPCommon@@@std@@V?$shared_ptr@$$CBVIDOMSerializer_v1@AdobeXMPCore@@@2@@std@@PEAX@std@@@AdobeXMPCore_Int@@@std@@QEAAXPEAU?$pair@$$CBV?$shared_ptr@$$CBVIUTF8String_v1@AdobeXMPCommon@@@std@@V?$shared_ptr@$$CBVIDOMSerializer_v1@AdobeXMPCore@@@2@@1@@Z 000000018006a100 f i DOMImplementationRegistryImpl.obj
 0001:00069100       ??$destroy@U?$pair@$$CBV?$shared_ptr@$$CBVIUTF8String_v1@AdobeXMPCommon@@@std@@V?$shared_ptr@$$CBVIDOMParser_v1@AdobeXMPCore@@@2@@std@@@?$_Wrap_alloc@V?$TAllocator@U?$_Tree_node@U?$pair@$$CBV?$shared_ptr@$$CBVIUTF8String_v1@AdobeXMPCommon@@@std@@V?$shared_ptr@$$CBVIDOMParser_v1@AdobeXMPCore@@@2@@std@@PEAX@std@@@AdobeXMPCore_Int@@@std@@QEAAXPEAU?$pair@$$CBV?$shared_ptr@$$CBVIUTF8String_v1@AdobeXMPCommon@@@std@@V?$shared_ptr@$$CBVIDOMParser_v1@AdobeXMPCore@@@2@@1@@Z 000000018006a100 f i DOMImplementationRegistryImpl.obj
 0001:00069188       ??$_Buynode@U?$pair@V?$shared_ptr@$$CBVIUTF8String_v1@AdobeXMPCommon@@@std@@V?$shared_ptr@$$CBVIDOMParser_v1@AdobeXMPCore@@@2@@std@@@?$_Tree_comp_alloc@V?$_Tmap_traits@V?$shared_ptr@$$CBVIUTF8String_v1@AdobeXMPCommon@@@std@@V?$shared_ptr@$$CBVIDOMParser_v1@AdobeXMPCore@@@2@UIUTF8StringComparator@AdobeXMPCore_Int@@V?$TAllocator@V?$shared_ptr@$$CBVIUTF8String_v1@AdobeXMPCommon@@@std@@@5@$0A@@std@@@std@@QEAAPEAU?$_Tree_node@U?$pair@$$CBV?$shared_ptr@$$CBVIUTF8String_v1@AdobeXMPCommon@@@std@@V?$shared_ptr@$$CBVIDOMParser_v1@AdobeXMPCore@@@2@@std@@PEAX@1@$$QEAU?$pair@V?$shared_ptr@$$CBVIUTF8String_v1@AdobeXMPCommon@@@std@@V?$shared_ptr@$$CBVIDOMParser_v1@AdobeXMPCore@@@2@@1@@Z 000000018006a188 f i DOMImplementationRegistryImpl.obj
 0001:00069188       ??$_Buynode@U?$pair@V?$shared_ptr@$$CBVIUTF8String_v1@AdobeXMPCommon@@@std@@V?$shared_ptr@$$CBVIDOMSerializer_v1@AdobeXMPCore@@@2@@std@@@?$_Tree_comp_alloc@V?$_Tmap_traits@V?$shared_ptr@$$CBVIUTF8String_v1@AdobeXMPCommon@@@std@@V?$shared_ptr@$$CBVIDOMSerializer_v1@AdobeXMPCore@@@2@UIUTF8StringComparator@AdobeXMPCore_Int@@V?$TAllocator@V?$shared_ptr@$$CBVIUTF8String_v1@AdobeXMPCommon@@@std@@@5@$0A@@std@@@std@@QEAAPEAU?$_Tree_node@U?$pair@$$CBV?$shared_ptr@$$CBVIUTF8String_v1@AdobeXMPCommon@@@std@@V?$shared_ptr@$$CBVIDOMSerializer_v1@AdobeXMPCore@@@2@@std@@PEAX@1@$$QEAU?$pair@V?$shared_ptr@$$CBVIUTF8String_v1@AdobeXMPCommon@@@std@@V?$shared_ptr@$$CBVIDOMSerializer_v1@AdobeXMPCore@@@2@@1@@Z 000000018006a188 f i DOMImplementationRegistryImpl.obj
 0001:000691e0       ??$_Insert_nohint@AEAU?$pair@$$CBV?$shared_ptr@$$CBVIUTF8String_v1@AdobeXMPCommon@@@std@@V?$shared_ptr@$$CBVIDOMSerializer_v1@AdobeXMPCore@@@2@@std@@PEAU?$_Tree_node@U?$pair@$$CBV?$shared_ptr@$$CBVIUTF8String_v1@AdobeXMPCommon@@@std@@V?$shared_ptr@$$CBVIDOMSerializer_v1@AdobeXMPCore@@@2@@std@@PEAX@2@@?$_Tree@V?$_Tmap_traits@V?$shared_ptr@$$CBVIUTF8String_v1@AdobeXMPCommon@@@std@@V?$shared_ptr@$$CBVIDOMSerializer_v1@AdobeXMPCore@@@2@UIUTF8StringComparator@AdobeXMPCore_Int@@V?$TAllocator@V?$shared_ptr@$$CBVIUTF8String_v1@AdobeXMPCommon@@@std@@@5@$0A@@std@@@std@@IEAA?AU?$pair@V?$_Tree_iterator@V?$_Tree_val@U?$_Tree_simple_types@U?$pair@$$CBV?$shared_ptr@$$CBVIUTF8String_v1@AdobeXMPCommon@@@std@@V?$shared_ptr@$$CBVIDOMSerializer_v1@AdobeXMPCore@@@2@@std@@@std@@@std@@@std@@_N@1@_NAEAU?$pair@$$CBV?$shared_ptr@$$CBVIUTF8String_v1@AdobeXMPCommon@@@std@@V?$shared_ptr@$$CBVIDOMSerializer_v1@AdobeXMPCore@@@2@@1@PEAU?$_Tree_node@U?$pair@$$CBV?$shared_ptr@$$CBVIUTF8String_v1@AdobeXMPCommon@@@std@@V?$shared_ptr@$$CBVIDOMSerializer_v1@AdobeXMPCore@@@2@@std@@PEAX@1@@Z 000000018006a1e0 f i DOMImplementationRegistryImpl.obj
 0001:000691e0       ??$_Insert_nohint@AEAU?$pair@$$CBV?$shared_ptr@$$CBVIUTF8String_v1@AdobeXMPCommon@@@std@@V?$shared_ptr@$$CBVIDOMParser_v1@AdobeXMPCore@@@2@@std@@PEAU?$_Tree_node@U?$pair@$$CBV?$shared_ptr@$$CBVIUTF8String_v1@AdobeXMPCommon@@@std@@V?$shared_ptr@$$CBVIDOMParser_v1@AdobeXMPCore@@@2@@std@@PEAX@2@@?$_Tree@V?$_Tmap_traits@V?$shared_ptr@$$CBVIUTF8String_v1@AdobeXMPCommon@@@std@@V?$shared_ptr@$$CBVIDOMParser_v1@AdobeXMPCore@@@2@UIUTF8StringComparator@AdobeXMPCore_Int@@V?$TAllocator@V?$shared_ptr@$$CBVIUTF8String_v1@AdobeXMPCommon@@@std@@@5@$0A@@std@@@std@@IEAA?AU?$pair@V?$_Tree_iterator@V?$_Tree_val@U?$_Tree_simple_types@U?$pair@$$CBV?$shared_ptr@$$CBVIUTF8String_v1@AdobeXMPCommon@@@std@@V?$shared_ptr@$$CBVIDOMParser_v1@AdobeXMPCore@@@2@@std@@@std@@@std@@@std@@_N@1@_NAEAU?$pair@$$CBV?$shared_ptr@$$CBVIUTF8String_v1@AdobeXMPCommon@@@std@@V?$shared_ptr@$$CBVIDOMParser_v1@AdobeXMPCore@@@2@@1@PEAU?$_Tree_node@U?$pair@$$CBV?$shared_ptr@$$CBVIUTF8String_v1@AdobeXMPCommon@@@std@@V?$shared_ptr@$$CBVIDOMParser_v1@AdobeXMPCore@@@2@@std@@PEAX@1@@Z 000000018006a1e0 f i DOMImplementationRegistryImpl.obj
 0001:00069374       ?_Buynode0@?$_Tree_comp_alloc@V?$_Tmap_traits@V?$shared_ptr@$$CBVIUTF8String_v1@AdobeXMPCommon@@@std@@V12@UIUTF8StringComparator@AdobeXMPCore_Int@@V?$TAllocator@V?$shared_ptr@$$CBVIUTF8String_v1@AdobeXMPCommon@@@std@@@4@$0A@@std@@@std@@QEAAPEAU?$_Tree_node@U?$pair@$$CBV?$shared_ptr@$$CBVIUTF8String_v1@AdobeXMPCommon@@@std@@V12@@std@@PEAX@2@XZ 000000018006a374 f i NameSpacePrefixMapImpl.obj
 0001:00069374       ?_Buynode0@?$_Tree_comp_alloc@V?$_Tmap_traits@V?$shared_ptr@$$CBVIUTF8String_v1@AdobeXMPCommon@@@std@@V?$shared_ptr@$$CBVIDOMParser_v1@AdobeXMPCore@@@2@UIUTF8StringComparator@AdobeXMPCore_Int@@V?$TAllocator@V?$shared_ptr@$$CBVIUTF8String_v1@AdobeXMPCommon@@@std@@@5@$0A@@std@@@std@@QEAAPEAU?$_Tree_node@U?$pair@$$CBV?$shared_ptr@$$CBVIUTF8String_v1@AdobeXMPCommon@@@std@@V?$shared_ptr@$$CBVIDOMParser_v1@AdobeXMPCore@@@2@@std@@PEAX@2@XZ 000000018006a374 f i DOMImplementationRegistryImpl.obj
 0001:00069374       ?_Buynode0@?$_Tree_comp_alloc@V?$_Tmap_traits@V?$shared_ptr@$$CBVIUTF8String_v1@AdobeXMPCommon@@@std@@V?$shared_ptr@$$CBVIDOMSerializer_v1@AdobeXMPCore@@@2@UIUTF8StringComparator@AdobeXMPCore_Int@@V?$TAllocator@V?$shared_ptr@$$CBVIUTF8String_v1@AdobeXMPCommon@@@std@@@5@$0A@@std@@@std@@QEAAPEAU?$_Tree_node@U?$pair@$$CBV?$shared_ptr@$$CBVIUTF8String_v1@AdobeXMPCommon@@@std@@V?$shared_ptr@$$CBVIDOMSerializer_v1@AdobeXMPCore@@@2@@std@@PEAX@2@XZ 000000018006a374 f i DOMImplementationRegistryImpl.obj
 0001:000693d0       ??$_Insert_at@AEAU?$pair@$$CBV?$shared_ptr@$$CBVIUTF8String_v1@AdobeXMPCommon@@@std@@V?$shared_ptr@$$CBVIDOMParser_v1@AdobeXMPCore@@@2@@std@@PEAU?$_Tree_node@U?$pair@$$CBV?$shared_ptr@$$CBVIUTF8String_v1@AdobeXMPCommon@@@std@@V?$shared_ptr@$$CBVIDOMParser_v1@AdobeXMPCore@@@2@@std@@PEAX@2@@?$_Tree@V?$_Tmap_traits@V?$shared_ptr@$$CBVIUTF8String_v1@AdobeXMPCommon@@@std@@V?$shared_ptr@$$CBVIDOMParser_v1@AdobeXMPCore@@@2@UIUTF8StringComparator@AdobeXMPCore_Int@@V?$TAllocator@V?$shared_ptr@$$CBVIUTF8String_v1@AdobeXMPCommon@@@std@@@5@$0A@@std@@@std@@IEAA?AV?$_Tree_iterator@V?$_Tree_val@U?$_Tree_simple_types@U?$pair@$$CBV?$shared_ptr@$$CBVIUTF8String_v1@AdobeXMPCommon@@@std@@V?$shared_ptr@$$CBVIDOMParser_v1@AdobeXMPCore@@@2@@std@@@std@@@std@@@1@_NPEAU?$_Tree_node@U?$pair@$$CBV?$shared_ptr@$$CBVIUTF8String_v1@AdobeXMPCommon@@@std@@V?$shared_ptr@$$CBVIDOMParser_v1@AdobeXMPCore@@@2@@std@@PEAX@1@AEAU?$pair@$$CBV?$shared_ptr@$$CBVIUTF8String_v1@AdobeXMPCommon@@@std@@V?$shared_ptr@$$CBVIDOMParser_v1@AdobeXMPCore@@@2@@1@1@Z 000000018006a3d0 f i DOMImplementationRegistryImpl.obj
 0001:000693d0       ??$_Insert_at@AEAU?$pair@$$CBV?$shared_ptr@$$CBVIUTF8String_v1@AdobeXMPCommon@@@std@@V?$shared_ptr@$$CBVIDOMSerializer_v1@AdobeXMPCore@@@2@@std@@PEAU?$_Tree_node@U?$pair@$$CBV?$shared_ptr@$$CBVIUTF8String_v1@AdobeXMPCommon@@@std@@V?$shared_ptr@$$CBVIDOMSerializer_v1@AdobeXMPCore@@@2@@std@@PEAX@2@@?$_Tree@V?$_Tmap_traits@V?$shared_ptr@$$CBVIUTF8String_v1@AdobeXMPCommon@@@std@@V?$shared_ptr@$$CBVIDOMSerializer_v1@AdobeXMPCore@@@2@UIUTF8StringComparator@AdobeXMPCore_Int@@V?$TAllocator@V?$shared_ptr@$$CBVIUTF8String_v1@AdobeXMPCommon@@@std@@@5@$0A@@std@@@std@@IEAA?AV?$_Tree_iterator@V?$_Tree_val@U?$_Tree_simple_types@U?$pair@$$CBV?$shared_ptr@$$CBVIUTF8String_v1@AdobeXMPCommon@@@std@@V?$shared_ptr@$$CBVIDOMSerializer_v1@AdobeXMPCore@@@2@@std@@@std@@@std@@@1@_NPEAU?$_Tree_node@U?$pair@$$CBV?$shared_ptr@$$CBVIUTF8String_v1@AdobeXMPCommon@@@std@@V?$shared_ptr@$$CBVIDOMSerializer_v1@AdobeXMPCore@@@2@@std@@PEAX@1@AEAU?$pair@$$CBV?$shared_ptr@$$CBVIUTF8String_v1@AdobeXMPCommon@@@std@@V?$shared_ptr@$$CBVIDOMSerializer_v1@AdobeXMPCore@@@2@@1@1@Z 000000018006a3d0 f i DOMImplementationRegistryImpl.obj
 0001:0006966c       ??$_Resetp@VRDFDOMParserImpl@AdobeXMPCore_Int@@V?$_Mem_fn@P8SharedObjectImpl@AdobeXMPCore_Int@@EBAXXZ@std@@V?$TAllocator@VRDFDOMParserImpl@AdobeXMPCore_Int@@@2@@?$shared_ptr@VRDFDOMParserImpl@AdobeXMPCore_Int@@@std@@AEAAXPEAVRDFDOMParserImpl@AdobeXMPCore_Int@@V?$_Mem_fn@P8SharedObjectImpl@AdobeXMPCore_Int@@EBAXXZ@1@V?$TAllocator@VRDFDOMParserImpl@AdobeXMPCore_Int@@@3@@Z 000000018006a66c f i DOMImplementationRegistryImpl.obj
 0001:00069730       ??$_Resetp@VRDFDOMSerializerImpl@AdobeXMPCore_Int@@V?$_Mem_fn@P8SharedObjectImpl@AdobeXMPCore_Int@@EBAXXZ@std@@V?$TAllocator@VRDFDOMSerializerImpl@AdobeXMPCore_Int@@@2@@?$shared_ptr@VRDFDOMSerializerImpl@AdobeXMPCore_Int@@@std@@AEAAXPEAVRDFDOMSerializerImpl@AdobeXMPCore_Int@@V?$_Mem_fn@P8SharedObjectImpl@AdobeXMPCore_Int@@EBAXXZ@1@V?$TAllocator@VRDFDOMSerializerImpl@AdobeXMPCore_Int@@@3@@Z 000000018006a730 f i DOMImplementationRegistryImpl.obj
 0001:000697f4       ??$_Resetp@VDOMImplementationRegistryImpl@AdobeXMPCore_Int@@V?$_Mem_fn@P8SharedObjectImpl@AdobeXMPCore_Int@@EBAXXZ@std@@V?$TAllocator@VDOMImplementationRegistryImpl@AdobeXMPCore_Int@@@2@@?$shared_ptr@VDOMImplementationRegistryImpl@AdobeXMPCore_Int@@@std@@AEAAXPEAVDOMImplementationRegistryImpl@AdobeXMPCore_Int@@V?$_Mem_fn@P8SharedObjectImpl@AdobeXMPCore_Int@@EBAXXZ@1@V?$TAllocator@VDOMImplementationRegistryImpl@AdobeXMPCore_Int@@@3@@Z 000000018006a7f4 f i DOMImplementationRegistryImpl.obj
 0001:000698b8       ?_Destroy@?$_Ref_count_del_alloc@VRDFDOMParserImpl@AdobeXMPCore_Int@@V?$_Mem_fn@P8SharedObjectImpl@AdobeXMPCore_Int@@EBAXXZ@std@@V?$TAllocator@VRDFDOMParserImpl@AdobeXMPCore_Int@@@2@@std@@EEAAXXZ 000000018006a8b8 f i DOMImplementationRegistryImpl.obj
 0001:000698b8       ?_Destroy@?$_Ref_count_del_alloc@VRDFDOMSerializerImpl@AdobeXMPCore_Int@@V?$_Mem_fn@P8SharedObjectImpl@AdobeXMPCore_Int@@EBAXXZ@std@@V?$TAllocator@VRDFDOMSerializerImpl@AdobeXMPCore_Int@@@2@@std@@EEAAXXZ 000000018006a8b8 f i DOMImplementationRegistryImpl.obj
 0001:000698b8       ?_Destroy@?$_Ref_count_del_alloc@VClientDOMParserWrapperImpl@AdobeXMPCore_Int@@V?$_Mem_fn@P8SharedObjectImpl@AdobeXMPCore_Int@@EBAXXZ@std@@V?$TAllocator@VClientDOMParserWrapperImpl@AdobeXMPCore_Int@@@2@@std@@EEAAXXZ 000000018006a8b8 f i DOMParserImpl.obj
 0001:000698b8       ?_Destroy@?$_Ref_count_del_alloc@VClientDOMSerializerWrapperImpl@AdobeXMPCore_Int@@V?$_Mem_fn@P8SharedObjectImpl@AdobeXMPCore_Int@@EBAXXZ@std@@V?$TAllocator@VClientDOMSerializerWrapperImpl@AdobeXMPCore_Int@@@2@@std@@EEAAXXZ 000000018006a8b8 f i DOMSerializerImpl.obj
 0001:00069910       ??_EIDOMImplementationRegistry_I@AdobeXMPCore_Int@@$2PPPPPPPM@A@EAAPEAXI@Z 000000018006a910 f i DOMImplementationRegistryImpl.obj
 0001:0006991c       ?SetParameter@ConfigurableImpl@AdobeXMPCore_Int@@$R4FI@CA@PPPPPPPM@FA@EAAXAEB_KW4eDataType@IConfigurable@AdobeXMPCommon@@AEBTCombinedDataValue@45@@Z 000000018006a91c f i DOMImplementationRegistryImpl.obj
 0001:00069938       ??_ERDFDOMSerializerImpl@AdobeXMPCore_Int@@$2PPPPPPPM@BA@EAAPEAXI@Z 000000018006a938 f i DOMImplementationRegistryImpl.obj
 0001:00069948       ?RegisterParser@DOMImplementationRegistryImpl@AdobeXMPCore_Int@@$4PPPPPPPM@A@EAA_NPEBDAEBV?$shared_ptr@$$CBVIDOMParser_v1@AdobeXMPCore@@@std@@@Z 000000018006a948 f i DOMImplementationRegistryImpl.obj
 0001:00069954       ?GetParser@DOMImplementationRegistryImpl@AdobeXMPCore_Int@@$4PPPPPPPM@A@EBA?AV?$shared_ptr@VIDOMParser_v1@AdobeXMPCore@@@std@@PEBD@Z 000000018006a954 f i DOMImplementationRegistryImpl.obj
 0001:00069960       ?registerSerializer@IDOMImplementationRegistry_I@AdobeXMPCore_Int@@$2PPPPPPPM@A@EAAKPEBDPEAVIClientDOMSerializer_v1@AdobeXMPCore@@AEAPEBVIError_v1@AdobeXMPCommon@@@Z 000000018006a960 f i DOMImplementationRegistryImpl.obj
 0001:0006996c       ?GetInterfacePointer@IDOMImplementationRegistry_I@AdobeXMPCore_Int@@$4PPPPPPPM@A@EAAPEAX_KK@Z 000000018006a96c f i DOMImplementationRegistryImpl.obj
 0001:00069978       ?GetInterfacePointer@IDOMSerializer_I@AdobeXMPCore_Int@@$R4DA@BM@PPPPPPPM@DI@EAAPEAX_KK@Z 000000018006a978 f i DOMImplementationRegistryImpl.obj
 0001:00069994       ?Acquire@SharedObjectImpl@AdobeXMPCore_Int@@$R4CA@CE@PPPPPPPM@CA@EBAXXZ 000000018006a994 f i DOMImplementationRegistryImpl.obj
 0001:000699ac       ?getSerializer@IDOMImplementationRegistry_I@AdobeXMPCore_Int@@$2PPPPPPPM@A@EBAPEAVIDOMSerializer_v1@AdobeXMPCore@@PEBDAEAPEBVIError_v1@AdobeXMPCommon@@@Z 000000018006a9ac f i DOMImplementationRegistryImpl.obj
 0001:000699b8       ?TreatKeyAsCaseInsensitive@ConfigurableImpl@AdobeXMPCore_Int@@$R4FI@CA@PPPPPPPM@FA@EAAX_N@Z 000000018006a9b8 f i DOMImplementationRegistryImpl.obj
 0001:000699d4       ?ValidateValue@RDFDOMSerializerImpl@AdobeXMPCore_Int@@$4PPPPPPPM@A@EBA?AW4eConfigurableErrorCode@AdobeXMPCommon@@AEB_KW4eDataType@IConfigurable@4@AEBTCombinedDataValue@64@@Z 000000018006a9d4 f i DOMImplementationRegistryImpl.obj
 0001:000699e0       ?GetInterfacePointer@IDOMImplementationRegistry_I@AdobeXMPCore_Int@@$R4EA@BE@PPPPPPPM@CI@EAAPEAX_KK@Z 000000018006a9e0 f i DOMImplementationRegistryImpl.obj
 0001:000699fc       ?registerSerializer@IDOMImplementationRegistry_I@AdobeXMPCore_Int@@$R2FA@BE@PPPPPPPM@DI@EAAKPEBDPEAVIClientDOMSerializer_v1@AdobeXMPCore@@AEAPEBVIError_v1@AdobeXMPCommon@@@Z 000000018006a9fc f i DOMImplementationRegistryImpl.obj
 0001:00069a18       ?registerParser@IDOMImplementationRegistry_I@AdobeXMPCore_Int@@$2PPPPPPPM@A@EAAKPEBDPEAVIClientDOMParser_v1@AdobeXMPCore@@AEAPEBVIError_v1@AdobeXMPCommon@@@Z 000000018006aa18 f i DOMImplementationRegistryImpl.obj
 0001:00069a24       ?AcquireInternal@SharedObjectImpl@AdobeXMPCore_Int@@$R4GI@BI@PPPPPPPM@DA@EBAXXZ 000000018006aa24 f i DOMImplementationRegistryImpl.obj
 0001:00069a40       ?getSerializer@IDOMImplementationRegistry_I@AdobeXMPCore_Int@@$R2FA@BE@PPPPPPPM@DI@EBAPEAVIDOMSerializer_v1@AdobeXMPCore@@PEBDAEAPEBVIError_v1@AdobeXMPCommon@@@Z 000000018006aa40 f i DOMImplementationRegistryImpl.obj
 0001:00069a5c       ?GetIDOMImplementationRegistry_I@IDOMImplementationRegistry_I@AdobeXMPCore_Int@@$R4FA@BE@PPPPPPPM@DI@EAAPEAV12@XZ 000000018006aa5c f i DOMImplementationRegistryImpl.obj
 0001:00069a78       ?SetAllowedValueTypesForKeys@ConfigurableImpl@AdobeXMPCore_Int@@$R4FI@CA@PPPPPPPM@FA@EAAXPEAU?$pair@_KW4eDataType@IConfigurable@AdobeXMPCommon@@@std@@_K@Z 000000018006aa78 f i DOMImplementationRegistryImpl.obj
 0001:00069a94       ?AllowDifferentValueTypesForExistingEntries@ConfigurableImpl@AdobeXMPCore_Int@@$R4FI@CA@PPPPPPPM@FA@EAAX_N@Z 000000018006aa94 f i DOMImplementationRegistryImpl.obj
 0001:00069ab0       ?GetISharedObject_I@IDOMSerializer_I@AdobeXMPCore_Int@@$R4CA@BM@PPPPPPPM@CI@EAAPEAVISharedObject_I@AdobeXMPCommon_Int@@XZ 000000018006aab0 f i DOMImplementationRegistryImpl.obj
 0001:00069acc       ?Acquire@SharedObjectImpl@AdobeXMPCore_Int@@$R4DA@BI@PPPPPPPM@CA@EBAXXZ 000000018006aacc f i DOMImplementationRegistryImpl.obj
 0001:00069ae8       ??_EIDOMImplementationRegistry_v1@AdobeXMPCore@@O7EAAPEAXI@Z 000000018006aae8 f i DOMImplementationRegistryImpl.obj
 0001:00069af4       ?registerParser@IDOMImplementationRegistry_I@AdobeXMPCore_Int@@$R2FA@BE@PPPPPPPM@DI@EAAKPEBDPEAVIClientDOMParser_v1@AdobeXMPCore@@AEAPEBVIError_v1@AdobeXMPCommon@@@Z 000000018006aaf4 f i DOMImplementationRegistryImpl.obj
 0001:00069b10       ?clone@IDOMSerializer_I@AdobeXMPCore_Int@@$R2EA@BM@PPPPPPPM@EI@EBAPEAVIDOMSerializer_v1@AdobeXMPCore@@AEAPEBVIError_v1@AdobeXMPCommon@@@Z 000000018006ab10 f i DOMImplementationRegistryImpl.obj
 0001:00069b2c       ?UnlockShared@SharedMutexImpl@AdobeXMPCore_Int@@$4PPPPPPPM@A@EAA?AW4eMultiThreadingErrorCode@AdobeXMPCommon_Int@@XZ 000000018006ab2c f i SharedMutexImpl.obj
 0001:00069b2c       ?ValidateValue@RDFDOMParserImpl@AdobeXMPCore_Int@@$4PPPPPPPM@A@EBA?AW4eConfigurableErrorCode@AdobeXMPCommon@@AEB_KW4eDataType@IConfigurable@4@AEBTCombinedDataValue@64@@Z 000000018006ab2c f i DOMImplementationRegistryImpl.obj
 0001:00069b2c       ?LockShared@SharedMutexImpl@AdobeXMPCore_Int@@$4PPPPPPPM@A@EAA?AW4eMultiThreadingErrorCode@AdobeXMPCommon_Int@@XZ 000000018006ab2c f i SharedMutexImpl.obj
 0001:00069b2c       ?TryLockShared@SharedMutexImpl@AdobeXMPCore_Int@@$4PPPPPPPM@A@EAA?AW4eMultiThreadingErrorCode@AdobeXMPCommon_Int@@XZ 000000018006ab2c f i SharedMutexImpl.obj
 0001:00069b2c       ?Lock@SharedMutexImpl@AdobeXMPCore_Int@@$4PPPPPPPM@A@EAA?AW4eMultiThreadingErrorCode@AdobeXMPCommon_Int@@XZ 000000018006ab2c f i SharedMutexImpl.obj
 0001:00069b2c       ?TryLock@SharedMutexImpl@AdobeXMPCore_Int@@$4PPPPPPPM@A@EAA?AW4eMultiThreadingErrorCode@AdobeXMPCommon_Int@@XZ 000000018006ab2c f i SharedMutexImpl.obj
 0001:00069b2c       ?GetParentNodeType@MetadataImpl@AdobeXMPCore_Int@@$2PPPPPPPM@A@EBA?AW4eNodeType@INode_v1@AdobeXMPCore@@XZ 000000018006ab2c f i MetadataImpl.obj
 0001:00069b2c       ?Unlock@SharedMutexImpl@AdobeXMPCore_Int@@$4PPPPPPPM@A@EAA?AW4eMultiThreadingErrorCode@AdobeXMPCommon_Int@@XZ 000000018006ab2c f i SharedMutexImpl.obj
 0001:00069b38       ?RegisterSerializer@IDOMImplementationRegistry_I@AdobeXMPCore_Int@@$4PPPPPPPM@A@EAA_NPEBDPEAVIClientDOMSerializer_v1@AdobeXMPCore@@@Z 000000018006ab38 f i DOMImplementationRegistryImpl.obj
 0001:00069b44       ?serialize@IDOMSerializer_I@AdobeXMPCore_Int@@$R2EA@BM@PPPPPPPM@EI@EAAPEAVIUTF8String_v1@AdobeXMPCommon@@PEAVINode_v1@AdobeXMPCore@@PEBVINameSpacePrefixMap_v1@6@AEAPEBVIError_v1@4@@Z 000000018006ab44 f i DOMImplementationRegistryImpl.obj
 0001:00069b60       ?Serialize@RDFDOMSerializerImpl@AdobeXMPCore_Int@@$4PPPPPPPM@A@EAA?AV?$shared_ptr@VIUTF8String_v1@AdobeXMPCommon@@@std@@AEBV?$shared_ptr@VINode_v1@AdobeXMPCore@@@4@AEBV?$shared_ptr@$$CBVINameSpacePrefixMap_v1@AdobeXMPCore@@@4@@Z 000000018006ab60 f i DOMImplementationRegistryImpl.obj
 0001:00069b6c       ?RegisterSerializer@IDOMImplementationRegistry_I@AdobeXMPCore_Int@@$R4FA@BE@PPPPPPPM@DI@EAA_NPEBDPEAVIClientDOMSerializer_v1@AdobeXMPCore@@@Z 000000018006ab6c f i DOMImplementationRegistryImpl.obj
 0001:00069b88       ?RegisterParser@IDOMImplementationRegistry_I@AdobeXMPCore_Int@@$4PPPPPPPM@A@EAA_NPEBDPEAVIClientDOMParser_v1@AdobeXMPCore@@@Z 000000018006ab88 f i DOMImplementationRegistryImpl.obj
 0001:00069b94       ??_ERDFDOMParserImpl@AdobeXMPCore_Int@@$2PPPPPPPM@A@EAAPEAXI@Z 000000018006ab94 f i DOMImplementationRegistryImpl.obj
 0001:00069ba0       ?getInterfacePointer@IDOMSerializer_I@AdobeXMPCore_Int@@$R2DA@BM@PPPPPPPM@DI@EAAPEAX_KKAEAPEBVIError_v1@AdobeXMPCommon@@@Z 000000018006aba0 f i DOMImplementationRegistryImpl.obj
 0001:00069bbc       ?Release@SharedObjectImpl@AdobeXMPCore_Int@@$R4CA@CE@PPPPPPPM@CA@EBAXXZ 000000018006abbc f i DOMImplementationRegistryImpl.obj
 0001:00069bd4       ?Size@ConfigurableImpl@AdobeXMPCore_Int@@$R4BA@CA@PPPPPPPM@EA@EBA_KXZ 000000018006abd4 f i DOMImplementationRegistryImpl.obj
 0001:00069bf0       ??_ERDFDOMParserImpl@AdobeXMPCore_Int@@$2PPPPPPPM@CA@EAAPEAXI@Z 000000018006abf0 f i DOMImplementationRegistryImpl.obj
 0001:00069c00       ??_EDOMImplementationRegistryImpl@AdobeXMPCore_Int@@$2PPPPPPPM@BA@EAAPEAXI@Z 000000018006ac00 f i DOMImplementationRegistryImpl.obj
 0001:00069c10       ?GetActualIDOMSerializer@IDOMSerializer_I@AdobeXMPCore_Int@@$R4EA@BM@PPPPPPPM@EI@EAAPEAVIDOMSerializer_v1@AdobeXMPCore@@XZ 000000018006ac10 f i DOMImplementationRegistryImpl.obj
 0001:00069c2c       ?RegisterParser@IDOMImplementationRegistry_I@AdobeXMPCore_Int@@$R4FA@BE@PPPPPPPM@DI@EAA_NPEBDPEAVIClientDOMParser_v1@AdobeXMPCore@@@Z 000000018006ac2c f i DOMImplementationRegistryImpl.obj
 0001:00069c48       ?GetIDOMSerializer_I@IDOMSerializer_I@AdobeXMPCore_Int@@$R4EA@BM@PPPPPPPM@EI@EAAPEAV12@XZ 000000018006ac48 f i DOMImplementationRegistryImpl.obj
 0001:00069c64       ??_ERDFDOMSerializerImpl@AdobeXMPCore_Int@@$2PPPPPPPM@A@EAAPEAXI@Z 000000018006ac64 f i DOMImplementationRegistryImpl.obj
 0001:00069c70       ??_EIDOMImplementationRegistry_I@AdobeXMPCore_Int@@$2PPPPPPPM@BA@EAAPEAXI@Z 000000018006ac70 f i DOMImplementationRegistryImpl.obj
 0001:00069c80       ?GetMutex@DOMSerializerImpl@AdobeXMPCore_Int@@$R4FI@CM@PPPPPPPM@HA@EBA?AV?$shared_ptr@VISharedMutex@AdobeXMPCore_Int@@@std@@XZ 000000018006ac80 f i DOMImplementationRegistryImpl.obj
 0001:00069c9c       ??_ERDFDOMSerializerImpl@AdobeXMPCore_Int@@$2PPPPPPPM@CA@EAAPEAXI@Z 000000018006ac9c f i DOMImplementationRegistryImpl.obj
 0001:00069cac       ?GetSerializer@DOMImplementationRegistryImpl@AdobeXMPCore_Int@@$4PPPPPPPM@A@EBA?AV?$shared_ptr@VIDOMSerializer_v1@AdobeXMPCore@@@std@@PEBD@Z 000000018006acac f i DOMImplementationRegistryImpl.obj
 0001:00069cb8       ?SerializeInternal@RDFDOMSerializerImpl@AdobeXMPCore_Int@@$4PPPPPPPM@A@EBA?AV?$shared_ptr@VIUTF8String_v1@AdobeXMPCommon@@@std@@AEBV?$shared_ptr@VINode_v1@AdobeXMPCore@@@4@K_KPEBD21AEBV?$shared_ptr@$$CBVINameSpacePrefixMap_v1@AdobeXMPCore@@@4@@Z 000000018006acb8 f i DOMImplementationRegistryImpl.obj
 0001:00069cc4       ?Release@SharedObjectImpl@AdobeXMPCore_Int@@$R4DA@BI@PPPPPPPM@CA@EBAXXZ 000000018006acc4 f i DOMImplementationRegistryImpl.obj
 0001:00069ce0       ?clone@RDFDOMParserImpl@AdobeXMPCore_Int@@$2PPPPPPPM@A@EBAPEAVDOMParserImpl@2@XZ 000000018006ace0 f i DOMImplementationRegistryImpl.obj
 0001:00069cec       ?RegisterSerializer@DOMImplementationRegistryImpl@AdobeXMPCore_Int@@$4PPPPPPPM@A@EAA_NPEBDAEBV?$shared_ptr@$$CBVIDOMSerializer_v1@AdobeXMPCore@@@std@@@Z 000000018006acec f i DOMImplementationRegistryImpl.obj
 0001:00069cf8       ?getParser@IDOMImplementationRegistry_I@AdobeXMPCore_Int@@$2PPPPPPPM@A@EBAPEAVIDOMParser_v1@AdobeXMPCore@@PEBDAEAPEBVIError_v1@AdobeXMPCommon@@@Z 000000018006acf8 f i DOMImplementationRegistryImpl.obj
 0001:00069d04       ?SetAllowedKeys@ConfigurableImpl@AdobeXMPCore_Int@@$R4FI@CA@PPPPPPPM@FA@EAAXPEA_K_K@Z 000000018006ad04 f i DOMImplementationRegistryImpl.obj
 0001:00069d20       ?Clone@DOMSerializerImpl@AdobeXMPCore_Int@@$R4EA@CM@PPPPPPPM@FI@EBA?AV?$shared_ptr@VIDOMSerializer_v1@AdobeXMPCore@@@std@@XZ 000000018006ad20 f i DOMImplementationRegistryImpl.obj
 0001:00069d3c       ?AcquireInternal@SharedObjectImpl@AdobeXMPCore_Int@@$R4HA@CE@PPPPPPPM@DA@EBAXXZ 000000018006ad3c f i DOMImplementationRegistryImpl.obj
 0001:00069d58       ?getParser@IDOMImplementationRegistry_I@AdobeXMPCore_Int@@$R2FA@BE@PPPPPPPM@DI@EBAPEAVIDOMParser_v1@AdobeXMPCore@@PEBDAEAPEBVIError_v1@AdobeXMPCommon@@@Z 000000018006ad58 f i DOMImplementationRegistryImpl.obj
 0001:00069d74       ?getInterfacePointer@IDOMImplementationRegistry_I@AdobeXMPCore_Int@@$2PPPPPPPM@A@EAAPEAX_KKAEAPEBVIError_v1@AdobeXMPCommon@@@Z 000000018006ad74 f i DOMImplementationRegistryImpl.obj
 0001:00069d80       ?GetParameter@ConfigurableImpl@AdobeXMPCore_Int@@$R4FI@CA@PPPPPPPM@FA@EBA_NAEB_KW4eDataType@IConfigurable@AdobeXMPCommon@@AEATCombinedDataValue@45@@Z 000000018006ad80 f i DOMImplementationRegistryImpl.obj
 0001:00069d9c       ?GetActualIDOMImplementationRegistry@IDOMImplementationRegistry_I@AdobeXMPCore_Int@@$4PPPPPPPM@A@EAAPEAVIDOMImplementationRegistry_v1@AdobeXMPCore@@XZ 000000018006ad9c f i DOMImplementationRegistryImpl.obj
 0001:00069d9c       ?GetActualIError@IError_I@AdobeXMPCore_Int@@$4PPPPPPPM@A@EAAPEAVIError_v1@AdobeXMPCommon@@XZ 000000018006ad9c f i ErrorImpl.obj
 0001:00069da8       ?getInterfacePointer@IDOMImplementationRegistry_I@AdobeXMPCore_Int@@$R2EA@BE@PPPPPPPM@CI@EAAPEAX_KKAEAPEBVIError_v1@AdobeXMPCommon@@@Z 000000018006ada8 f i DOMImplementationRegistryImpl.obj
 0001:00069dc4       ?clone@RDFDOMSerializerImpl@AdobeXMPCore_Int@@$2PPPPPPPM@A@EBAPEAVDOMSerializerImpl@2@XZ 000000018006adc4 f i DOMImplementationRegistryImpl.obj
 0001:00069dd0       ?RemoveParameter@ConfigurableImpl@AdobeXMPCore_Int@@$R4BA@CA@PPPPPPPM@EA@EAA_NAEB_K@Z 000000018006add0 f i DOMImplementationRegistryImpl.obj
 0001:00069dec       ?ParseAsNode@RDFDOMParserImpl@AdobeXMPCore_Int@@$4PPPPPPPM@A@EAA?AV?$shared_ptr@VINode_v1@AdobeXMPCore@@@std@@PEBD_K@Z 000000018006adec f i DOMImplementationRegistryImpl.obj
 0001:00069df8       ?GetDataType@ConfigurableImpl@AdobeXMPCore_Int@@$R4BA@CA@PPPPPPPM@EA@EBA?AW4eDataType@IConfigurable@AdobeXMPCommon@@AEB_K@Z 000000018006adf8 f i DOMImplementationRegistryImpl.obj
 0001:00069e14       ?GetAllParameters@ConfigurableImpl@AdobeXMPCore_Int@@$R4BA@CA@PPPPPPPM@EA@EBA?AV?$vector@_KV?$allocator@_K@std@@@std@@XZ 000000018006ae14 f i DOMImplementationRegistryImpl.obj
 0001:00069e30       ??_ERDFDOMParserImpl@AdobeXMPCore_Int@@$2PPPPPPPM@BA@EAAPEAXI@Z 000000018006ae30 f i DOMImplementationRegistryImpl.obj
 0001:00069e40       ?GetActualIDOMImplementationRegistry@IDOMImplementationRegistry_I@AdobeXMPCore_Int@@$R4FA@BE@PPPPPPPM@DI@EAAPEAVIDOMImplementationRegistry_v1@AdobeXMPCore@@XZ 000000018006ae40 f i DOMImplementationRegistryImpl.obj
 0001:00069e5c       ??_EDOMImplementationRegistryImpl@AdobeXMPCore_Int@@$2PPPPPPPM@A@EAAPEAXI@Z 000000018006ae5c f i DOMImplementationRegistryImpl.obj
 0001:00069e68       ?GetISharedObject_I@IDOMImplementationRegistry_I@AdobeXMPCore_Int@@$4PPPPPPPM@A@EAAPEAVISharedObject_I@AdobeXMPCommon_Int@@XZ 000000018006ae68 f i DOMImplementationRegistryImpl.obj
 0001:00069e68       ?GetISharedObject_I@IError_I@AdobeXMPCore_Int@@$4PPPPPPPM@A@EAAPEAVISharedObject_I@AdobeXMPCommon_Int@@XZ 000000018006ae68 f i ErrorImpl.obj
 0001:00069e74       ?GetISharedObject_I@IDOMImplementationRegistry_I@AdobeXMPCore_Int@@$R4DA@BE@PPPPPPPM@BI@EAAPEAVISharedObject_I@AdobeXMPCommon_Int@@XZ 000000018006ae74 f i DOMImplementationRegistryImpl.obj
 0001:00069e90       ??0DOMParserImpl@AdobeXMPCore_Int@@QEAA@XZ 000000018006ae90 f   DOMParserImpl.obj
 0001:00069fb0       ?Clone@DOMParserImpl@AdobeXMPCore_Int@@UEBA?AV?$shared_ptr@VIDOMParser_v1@AdobeXMPCore@@@std@@XZ 000000018006afb0 f   DOMParserImpl.obj
 0001:0006a1f4       ?Parse@DOMParserImpl@AdobeXMPCore_Int@@UEAA?AV?$shared_ptr@VIMetadata_v1@AdobeXMPCore@@@std@@PEBD_K@Z 000000018006b1f4 f   DOMParserImpl.obj
 0001:0006c524       ?ParseWithSpecificAction@DOMParserImpl@AdobeXMPCore_Int@@UEAAXPEBD_KW4eActionType@IDOMParser_v1@AdobeXMPCore@@AEAV?$shared_ptr@VINode_v1@AdobeXMPCore@@@std@@@Z 000000018006d524 f   DOMParserImpl.obj
 0001:0006c734       ?GetNameSpace@PathSegmentImpl@AdobeXMPCore_Int@@UEBA?AV?$shared_ptr@$$CBVIUTF8String_v1@AdobeXMPCommon@@@std@@XZ 000000018006d734 f   PathSegmentImpl.obj
 0001:0006c734       ?GetMutex@DOMParserImpl@AdobeXMPCore_Int@@UEBA?AV?$shared_ptr@VISharedMutex@AdobeXMPCore_Int@@@std@@XZ 000000018006d734 f   DOMParserImpl.obj
 0001:0006c754       ?CreateDOMParser@IDOMParser_I@AdobeXMPCore_Int@@SA?AV?$shared_ptr@VIDOMParser_v1@AdobeXMPCore@@@std@@PEAVIClientDOMParser_v1@AdobeXMPCore@@@Z 000000018006d754 f   DOMParserImpl.obj
 0001:0006c814       ?SetErrorCallback@DOMParserImpl@AdobeXMPCore_Int@@UEAAXPEAVErrorCallbackInfo@XMPMeta@@@Z 000000018006d814 f   DOMParserImpl.obj
 0001:0006c814       ?SetErrorCallback@RDFDOMParserImpl@AdobeXMPCore_Int@@UEAAXPEAVErrorCallbackInfo@XMPMeta@@@Z 000000018006d814 f   RDFDOMParserImpl.obj
 0001:0006c81c       ??A?$map@_KU?$pair@W4eDataType@IConfigurable@AdobeXMPCommon@@TCombinedDataValue@23@@std@@U?$less@_K@2@V?$TAllocator@U?$pair@_KU?$pair@W4eDataType@IConfigurable@AdobeXMPCommon@@TCombinedDataValue@23@@std@@@std@@@AdobeXMPCore_Int@@@std@@QEAAAEAU?$pair@W4eDataType@IConfigurable@AdobeXMPCommon@@TCombinedDataValue@23@@1@AEB_K@Z 000000018006d81c f i DOMParserImpl.obj
 0001:0006c8a4       ??$?0V?$_Tree_const_iterator@V?$_Tree_val@U?$_Tree_simple_types@_K@std@@@std@@@std@@@?$set@_KU?$less@_K@std@@V?$TAllocator@_K@AdobeXMPCore_Int@@@std@@QEAA@V?$_Tree_const_iterator@V?$_Tree_val@U?$_Tree_simple_types@_K@std@@@std@@@1@0@Z 000000018006d8a4 f i DOMParserImpl.obj
 0001:0006c954       ??$?0V?$_Tree_iterator@V?$_Tree_val@U?$_Tree_simple_types@U?$pair@$$CB_KW4eDataType@IConfigurable@AdobeXMPCommon@@@std@@@std@@@std@@@std@@@?$map@_KW4eDataType@IConfigurable@AdobeXMPCommon@@U?$less@_K@std@@V?$TAllocator@U?$pair@_KW4eDataType@IConfigurable@AdobeXMPCommon@@@std@@@AdobeXMPCore_Int@@@std@@QEAA@V?$_Tree_iterator@V?$_Tree_val@U?$_Tree_simple_types@U?$pair@$$CB_KW4eDataType@IConfigurable@AdobeXMPCommon@@@std@@@std@@@std@@@1@0@Z 000000018006d954 f i DOMParserImpl.obj
 0001:0006ca10       ??$MakeUncheckedSharedPointer@VDOMParserImpl@AdobeXMPCore_Int@@@AdobeXMPCore_Int@@YA?AV?$shared_ptr@VDOMParserImpl@AdobeXMPCore_Int@@@std@@PEAVDOMParserImpl@0@PEBD_K_N@Z 000000018006da10 f i DOMParserImpl.obj
 0001:0006cb18       ??$MakeUncheckedSharedPointer@VIMetadata_v1@AdobeXMPCore@@@AdobeXMPCore_Int@@YA?AV?$shared_ptr@VIMetadata_v1@AdobeXMPCore@@@std@@PEAVIMetadata_v1@AdobeXMPCore@@PEBD_K_N@Z 000000018006db18 f i DOMParserImpl.obj
 0001:0006cb6c       ??$MakeUncheckedSharedPointer@VClientDOMParserWrapperImpl@AdobeXMPCore_Int@@@AdobeXMPCore_Int@@YA?AV?$shared_ptr@VClientDOMParserWrapperImpl@AdobeXMPCore_Int@@@std@@PEAVClientDOMParserWrapperImpl@0@PEBD_K_N@Z 000000018006db6c f i DOMParserImpl.obj
 0001:0006cc74       ??1?$_Tree@V?$_Tset_traits@_KU?$less@_K@std@@V?$TAllocator@_K@AdobeXMPCore_Int@@$0A@@std@@@std@@QEAA@XZ 000000018006dc74 f i DOMParserImpl.obj
 0001:0006cc74       ??1?$_Tree@V?$_Tmap_traits@_KW4eDataType@IConfigurable@AdobeXMPCommon@@U?$less@_K@std@@V?$TAllocator@U?$pair@_KW4eDataType@IConfigurable@AdobeXMPCommon@@@std@@@AdobeXMPCore_Int@@$0A@@std@@@std@@QEAA@XZ 000000018006dc74 f i DOMParserImpl.obj
 0001:0006cd8c       ?_Buyheadnode@?$_Tree_comp_alloc@V?$_Tmap_traits@_KW4eDataType@IConfigurable@AdobeXMPCommon@@U?$less@_K@std@@V?$TAllocator@U?$pair@_KW4eDataType@IConfigurable@AdobeXMPCommon@@@std@@@AdobeXMPCore_Int@@$0A@@std@@@std@@QEAAPEAU?$_Tree_node@U?$pair@$$CB_KW4eDataType@IConfigurable@AdobeXMPCommon@@@std@@PEAX@2@XZ 000000018006dd8c f i DOMParserImpl.obj
 0001:0006cddc       ?_Buyheadnode@?$_Tree_comp_alloc@V?$_Tset_traits@_KU?$less@_K@std@@V?$TAllocator@_K@AdobeXMPCore_Int@@$0A@@std@@@std@@QEAAPEAU?$_Tree_node@_KPEAX@2@XZ 000000018006dddc f i DOMParserImpl.obj
 0001:0006ce2c       ??$_Buynode@AEBUpiecewise_construct_t@std@@V?$tuple@AEB_K@2@V?$tuple@$$V@2@@?$_Tree_comp_alloc@V?$_Tmap_traits@_KU?$pair@W4eDataType@IConfigurable@AdobeXMPCommon@@TCombinedDataValue@23@@std@@U?$less@_K@2@V?$TAllocator@U?$pair@_KU?$pair@W4eDataType@IConfigurable@AdobeXMPCommon@@TCombinedDataValue@23@@std@@@std@@@AdobeXMPCore_Int@@$0A@@std@@@std@@QEAAPEAU?$_Tree_node@U?$pair@$$CB_KU?$pair@W4eDataType@IConfigurable@AdobeXMPCommon@@TCombinedDataValue@23@@std@@@std@@PEAX@1@AEBUpiecewise_construct_t@1@$$QEAV?$tuple@AEB_K@1@$$QEAV?$tuple@$$V@1@@Z 000000018006de2c f i DOMParserImpl.obj
 0001:0006ce64       ??$_Insert_hint@AEAU?$pair@$$CB_KU?$pair@W4eDataType@IConfigurable@AdobeXMPCommon@@TCombinedDataValue@23@@std@@@std@@PEAU?$_Tree_node@U?$pair@$$CB_KU?$pair@W4eDataType@IConfigurable@AdobeXMPCommon@@TCombinedDataValue@23@@std@@@std@@PEAX@2@@?$_Tree@V?$_Tmap_traits@_KU?$pair@W4eDataType@IConfigurable@AdobeXMPCommon@@TCombinedDataValue@23@@std@@U?$less@_K@2@V?$TAllocator@U?$pair@_KU?$pair@W4eDataType@IConfigurable@AdobeXMPCommon@@TCombinedDataValue@23@@std@@@std@@@AdobeXMPCore_Int@@$0A@@std@@@std@@IEAA?AV?$_Tree_iterator@V?$_Tree_val@U?$_Tree_simple_types@U?$pair@$$CB_KU?$pair@W4eDataType@IConfigurable@AdobeXMPCommon@@TCombinedDataValue@23@@std@@@std@@@std@@@std@@@1@V?$_Tree_const_iterator@V?$_Tree_val@U?$_Tree_simple_types@U?$pair@$$CB_KU?$pair@W4eDataType@IConfigurable@AdobeXMPCommon@@TCombinedDataValue@23@@std@@@std@@@std@@@std@@@1@AEAU?$pair@$$CB_KU?$pair@W4eDataType@IConfigurable@AdobeXMPCommon@@TCombinedDataValue@23@@std@@@1@PEAU?$_Tree_node@U?$pair@$$CB_KU?$pair@W4eDataType@IConfigurable@AdobeXMPCommon@@TCombinedDataValue@23@@std@@@std@@PEAX@1@@Z 000000018006de64 f i DOMParserImpl.obj
 0001:0006d080       ?_Buynode0@?$_Tree_comp_alloc@V?$_Tmap_traits@_KU?$pair@W4eDataType@IConfigurable@AdobeXMPCommon@@TCombinedDataValue@23@@std@@U?$less@_K@2@V?$TAllocator@U?$pair@_KU?$pair@W4eDataType@IConfigurable@AdobeXMPCommon@@TCombinedDataValue@23@@std@@@std@@@AdobeXMPCore_Int@@$0A@@std@@@std@@QEAAPEAU?$_Tree_node@U?$pair@$$CB_KU?$pair@W4eDataType@IConfigurable@AdobeXMPCommon@@TCombinedDataValue@23@@std@@@std@@PEAX@2@XZ 000000018006e080 f i DOMParserImpl.obj
 0001:0006d0dc       ??$_Resetp@VDOMParserImpl@AdobeXMPCore_Int@@V?$_Mem_fn@P8SharedObjectImpl@AdobeXMPCore_Int@@EBAXXZ@std@@V?$TAllocator@VDOMParserImpl@AdobeXMPCore_Int@@@2@@?$shared_ptr@VDOMParserImpl@AdobeXMPCore_Int@@@std@@AEAAXPEAVDOMParserImpl@AdobeXMPCore_Int@@V?$_Mem_fn@P8SharedObjectImpl@AdobeXMPCore_Int@@EBAXXZ@1@V?$TAllocator@VDOMParserImpl@AdobeXMPCore_Int@@@3@@Z 000000018006e0dc f i DOMParserImpl.obj
 0001:0006d1a0       ??$_Resetp@VIMetadata_v1@AdobeXMPCore@@V?$_Mem_fn@P8ISharedObject@AdobeXMPCommon@@EBAXXZ@std@@V?$TAllocator@VIMetadata_v1@AdobeXMPCore@@@AdobeXMPCore_Int@@@?$shared_ptr@VIMetadata_v1@AdobeXMPCore@@@std@@AEAAXPEAVIMetadata_v1@AdobeXMPCore@@V?$_Mem_fn@P8ISharedObject@AdobeXMPCommon@@EBAXXZ@1@V?$TAllocator@VIMetadata_v1@AdobeXMPCore@@@AdobeXMPCore_Int@@@Z 000000018006e1a0 f i DOMParserImpl.obj
 0001:0006d264       ??$_Resetp@VClientDOMParserWrapperImpl@AdobeXMPCore_Int@@V?$_Mem_fn@P8SharedObjectImpl@AdobeXMPCore_Int@@EBAXXZ@std@@V?$TAllocator@VClientDOMParserWrapperImpl@AdobeXMPCore_Int@@@2@@?$shared_ptr@VClientDOMParserWrapperImpl@AdobeXMPCore_Int@@@std@@AEAAXPEAVClientDOMParserWrapperImpl@AdobeXMPCore_Int@@V?$_Mem_fn@P8SharedObjectImpl@AdobeXMPCore_Int@@EBAXXZ@1@V?$TAllocator@VClientDOMParserWrapperImpl@AdobeXMPCore_Int@@@3@@Z 000000018006e264 f i DOMParserImpl.obj
 0001:0006d328       ??$_Insert_at@AEAU?$pair@$$CB_KU?$pair@W4eDataType@IConfigurable@AdobeXMPCommon@@TCombinedDataValue@23@@std@@@std@@PEAU?$_Tree_node@U?$pair@$$CB_KU?$pair@W4eDataType@IConfigurable@AdobeXMPCommon@@TCombinedDataValue@23@@std@@@std@@PEAX@2@@?$_Tree@V?$_Tmap_traits@_KU?$pair@W4eDataType@IConfigurable@AdobeXMPCommon@@TCombinedDataValue@23@@std@@U?$less@_K@2@V?$TAllocator@U?$pair@_KU?$pair@W4eDataType@IConfigurable@AdobeXMPCommon@@TCombinedDataValue@23@@std@@@std@@@AdobeXMPCore_Int@@$0A@@std@@@std@@IEAA?AV?$_Tree_iterator@V?$_Tree_val@U?$_Tree_simple_types@U?$pair@$$CB_KU?$pair@W4eDataType@IConfigurable@AdobeXMPCommon@@TCombinedDataValue@23@@std@@@std@@@std@@@std@@@1@_NPEAU?$_Tree_node@U?$pair@$$CB_KU?$pair@W4eDataType@IConfigurable@AdobeXMPCommon@@TCombinedDataValue@23@@std@@@std@@PEAX@1@AEAU?$pair@$$CB_KU?$pair@W4eDataType@IConfigurable@AdobeXMPCommon@@TCombinedDataValue@23@@std@@@1@1@Z 000000018006e328 f i DOMParserImpl.obj
 0001:0006d5b8       ??$_Insert_nohint@AEAU?$pair@$$CB_KU?$pair@W4eDataType@IConfigurable@AdobeXMPCommon@@TCombinedDataValue@23@@std@@@std@@PEAU?$_Tree_node@U?$pair@$$CB_KU?$pair@W4eDataType@IConfigurable@AdobeXMPCommon@@TCombinedDataValue@23@@std@@@std@@PEAX@2@@?$_Tree@V?$_Tmap_traits@_KU?$pair@W4eDataType@IConfigurable@AdobeXMPCommon@@TCombinedDataValue@23@@std@@U?$less@_K@2@V?$TAllocator@U?$pair@_KU?$pair@W4eDataType@IConfigurable@AdobeXMPCommon@@TCombinedDataValue@23@@std@@@std@@@AdobeXMPCore_Int@@$0A@@std@@@std@@IEAA?AU?$pair@V?$_Tree_iterator@V?$_Tree_val@U?$_Tree_simple_types@U?$pair@$$CB_KU?$pair@W4eDataType@IConfigurable@AdobeXMPCommon@@TCombinedDataValue@23@@std@@@std@@@std@@@std@@@std@@_N@1@_NAEAU?$pair@$$CB_KU?$pair@W4eDataType@IConfigurable@AdobeXMPCommon@@TCombinedDataValue@23@@std@@@1@PEAU?$_Tree_node@U?$pair@$$CB_KU?$pair@W4eDataType@IConfigurable@AdobeXMPCommon@@TCombinedDataValue@23@@std@@@std@@PEAX@1@@Z 000000018006e5b8 f i DOMParserImpl.obj
 0001:0006d6e8       ?_Destroy@?$_Ref_count_del_alloc@VDOMParserImpl@AdobeXMPCore_Int@@V?$_Mem_fn@P8SharedObjectImpl@AdobeXMPCore_Int@@EBAXXZ@std@@V?$TAllocator@VDOMParserImpl@AdobeXMPCore_Int@@@2@@std@@EEAAXXZ 000000018006e6e8 f i DOMParserImpl.obj
 0001:0006d6e8       ?_Destroy@?$_Ref_count_del_alloc@VDOMSerializerImpl@AdobeXMPCore_Int@@V?$_Mem_fn@P8SharedObjectImpl@AdobeXMPCore_Int@@EBAXXZ@std@@V?$TAllocator@VDOMSerializerImpl@AdobeXMPCore_Int@@@2@@std@@EEAAXXZ 000000018006e6e8 f i DOMSerializerImpl.obj
 0001:0006d744       ??$_Buynode@AEB_K@?$_Tree_comp_alloc@V?$_Tset_traits@_KU?$less@_K@std@@V?$TAllocator@_K@AdobeXMPCore_Int@@$0A@@std@@@std@@QEAAPEAU?$_Tree_node@_KPEAX@1@AEB_K@Z 000000018006e744 f i DOMParserImpl.obj
 0001:0006d770       ??$_Insert_nohint@AEA_KPEAU?$_Tree_node@_KPEAX@std@@@?$_Tree@V?$_Tset_traits@_KU?$less@_K@std@@V?$TAllocator@_K@AdobeXMPCore_Int@@$0A@@std@@@std@@IEAA?AU?$pair@V?$_Tree_const_iterator@V?$_Tree_val@U?$_Tree_simple_types@_K@std@@@std@@@std@@_N@1@_NAEA_KPEAU?$_Tree_node@_KPEAX@1@@Z 000000018006e770 f i DOMParserImpl.obj
 0001:0006d8a0       ??$_Buynode@AEAU?$pair@$$CB_KW4eDataType@IConfigurable@AdobeXMPCommon@@@std@@@?$_Tree_comp_alloc@V?$_Tmap_traits@_KW4eDataType@IConfigurable@AdobeXMPCommon@@U?$less@_K@std@@V?$TAllocator@U?$pair@_KW4eDataType@IConfigurable@AdobeXMPCommon@@@std@@@AdobeXMPCore_Int@@$0A@@std@@@std@@QEAAPEAU?$_Tree_node@U?$pair@$$CB_KW4eDataType@IConfigurable@AdobeXMPCommon@@@std@@PEAX@1@AEAU?$pair@$$CB_KW4eDataType@IConfigurable@AdobeXMPCommon@@@1@@Z 000000018006e8a0 f i DOMParserImpl.obj
 0001:0006d8cc       ??$_Insert_hint@AEAU?$pair@$$CB_KW4eDataType@IConfigurable@AdobeXMPCommon@@@std@@PEAU?$_Tree_node@U?$pair@$$CB_KW4eDataType@IConfigurable@AdobeXMPCommon@@@std@@PEAX@2@@?$_Tree@V?$_Tmap_traits@_KW4eDataType@IConfigurable@AdobeXMPCommon@@U?$less@_K@std@@V?$TAllocator@U?$pair@_KW4eDataType@IConfigurable@AdobeXMPCommon@@@std@@@AdobeXMPCore_Int@@$0A@@std@@@std@@IEAA?AV?$_Tree_iterator@V?$_Tree_val@U?$_Tree_simple_types@U?$pair@$$CB_KW4eDataType@IConfigurable@AdobeXMPCommon@@@std@@@std@@@std@@@1@V?$_Tree_const_iterator@V?$_Tree_val@U?$_Tree_simple_types@U?$pair@$$CB_KW4eDataType@IConfigurable@AdobeXMPCommon@@@std@@@std@@@std@@@1@AEAU?$pair@$$CB_KW4eDataType@IConfigurable@AdobeXMPCommon@@@1@PEAU?$_Tree_node@U?$pair@$$CB_KW4eDataType@IConfigurable@AdobeXMPCommon@@@std@@PEAX@1@@Z 000000018006e8cc f i DOMParserImpl.obj
 0001:0006dae8       ?_Buynode0@?$_Tree_comp_alloc@V?$_Tmap_traits@_KW4eDataType@IConfigurable@AdobeXMPCommon@@U?$less@_K@std@@V?$TAllocator@U?$pair@_KW4eDataType@IConfigurable@AdobeXMPCommon@@@std@@@AdobeXMPCore_Int@@$0A@@std@@@std@@QEAAPEAU?$_Tree_node@U?$pair@$$CB_KW4eDataType@IConfigurable@AdobeXMPCommon@@@std@@PEAX@2@XZ 000000018006eae8 f i DOMParserImpl.obj
 0001:0006db44       ?_Buynode0@?$_Tree_comp_alloc@V?$_Tset_traits@_KU?$less@_K@std@@V?$TAllocator@_K@AdobeXMPCore_Int@@$0A@@std@@@std@@QEAAPEAU?$_Tree_node@_KPEAX@2@XZ 000000018006eb44 f i DOMParserImpl.obj
 0001:0006dba0       ??$_Insert_at@AEA_KPEAU?$_Tree_node@_KPEAX@std@@@?$_Tree@V?$_Tset_traits@_KU?$less@_K@std@@V?$TAllocator@_K@AdobeXMPCore_Int@@$0A@@std@@@std@@IEAA?AV?$_Tree_const_iterator@V?$_Tree_val@U?$_Tree_simple_types@_K@std@@@std@@@1@_NPEAU?$_Tree_node@_KPEAX@1@AEA_K1@Z 000000018006eba0 f i DOMParserImpl.obj
 0001:0006de30       ??$_Insert_at@AEAU?$pair@$$CB_KW4eDataType@IConfigurable@AdobeXMPCommon@@@std@@PEAU?$_Tree_node@U?$pair@$$CB_KW4eDataType@IConfigurable@AdobeXMPCommon@@@std@@PEAX@2@@?$_Tree@V?$_Tmap_traits@_KW4eDataType@IConfigurable@AdobeXMPCommon@@U?$less@_K@std@@V?$TAllocator@U?$pair@_KW4eDataType@IConfigurable@AdobeXMPCommon@@@std@@@AdobeXMPCore_Int@@$0A@@std@@@std@@IEAA?AV?$_Tree_iterator@V?$_Tree_val@U?$_Tree_simple_types@U?$pair@$$CB_KW4eDataType@IConfigurable@AdobeXMPCommon@@@std@@@std@@@std@@@1@_NPEAU?$_Tree_node@U?$pair@$$CB_KW4eDataType@IConfigurable@AdobeXMPCommon@@@std@@PEAX@1@AEAU?$pair@$$CB_KW4eDataType@IConfigurable@AdobeXMPCommon@@@1@1@Z 000000018006ee30 f i DOMParserImpl.obj
 0001:0006e0c0       ??$_Insert_nohint@AEAU?$pair@$$CB_KW4eDataType@IConfigurable@AdobeXMPCommon@@@std@@PEAU?$_Tree_node@U?$pair@$$CB_KW4eDataType@IConfigurable@AdobeXMPCommon@@@std@@PEAX@2@@?$_Tree@V?$_Tmap_traits@_KW4eDataType@IConfigurable@AdobeXMPCommon@@U?$less@_K@std@@V?$TAllocator@U?$pair@_KW4eDataType@IConfigurable@AdobeXMPCommon@@@std@@@AdobeXMPCore_Int@@$0A@@std@@@std@@IEAA?AU?$pair@V?$_Tree_iterator@V?$_Tree_val@U?$_Tree_simple_types@U?$pair@$$CB_KW4eDataType@IConfigurable@AdobeXMPCommon@@@std@@@std@@@std@@@std@@_N@1@_NAEAU?$pair@$$CB_KW4eDataType@IConfigurable@AdobeXMPCommon@@@1@PEAU?$_Tree_node@U?$pair@$$CB_KW4eDataType@IConfigurable@AdobeXMPCommon@@@std@@PEAX@1@@Z 000000018006f0c0 f i DOMParserImpl.obj
 0001:0006e1f0       ??0DOMSerializerImpl@AdobeXMPCore_Int@@QEAA@XZ 000000018006f1f0 f   DOMSerializerImpl.obj
 0001:0006e2fc       ?GetMutex@DOMSerializerImpl@AdobeXMPCore_Int@@UEBA?AV?$shared_ptr@VISharedMutex@AdobeXMPCore_Int@@@std@@XZ 000000018006f2fc f   DOMSerializerImpl.obj
 0001:0006e2fc       ?GetMessage@ErrorImpl@AdobeXMPCore_Int@@UEBA?AV?$shared_ptr@$$CBVIUTF8String_v1@AdobeXMPCommon@@@std@@XZ 000000018006f2fc f   ErrorImpl.obj
 0001:0006e31c       ?Clone@DOMSerializerImpl@AdobeXMPCore_Int@@UEBA?AV?$shared_ptr@VIDOMSerializer_v1@AdobeXMPCore@@@std@@XZ 000000018006f31c f   DOMSerializerImpl.obj
 0001:0006e560       ?CreateDOMSerializer@IDOMSerializer_I@AdobeXMPCore_Int@@SA?AV?$shared_ptr@VIDOMSerializer_v1@AdobeXMPCore@@@std@@PEAVIClientDOMSerializer_v1@AdobeXMPCore@@@Z 000000018006f560 f   DOMSerializerImpl.obj
 0001:0006e620       ??$MakeUncheckedSharedPointer@VDOMSerializerImpl@AdobeXMPCore_Int@@@AdobeXMPCore_Int@@YA?AV?$shared_ptr@VDOMSerializerImpl@AdobeXMPCore_Int@@@std@@PEAVDOMSerializerImpl@0@PEBD_K_N@Z 000000018006f620 f i DOMSerializerImpl.obj
 0001:0006e728       ??$MakeUncheckedSharedPointer@VClientDOMSerializerWrapperImpl@AdobeXMPCore_Int@@@AdobeXMPCore_Int@@YA?AV?$shared_ptr@VClientDOMSerializerWrapperImpl@AdobeXMPCore_Int@@@std@@PEAVClientDOMSerializerWrapperImpl@0@PEBD_K_N@Z 000000018006f728 f i DOMSerializerImpl.obj
 0001:0006e82c       ??$_Resetp@VDOMSerializerImpl@AdobeXMPCore_Int@@V?$_Mem_fn@P8SharedObjectImpl@AdobeXMPCore_Int@@EBAXXZ@std@@V?$TAllocator@VDOMSerializerImpl@AdobeXMPCore_Int@@@2@@?$shared_ptr@VDOMSerializerImpl@AdobeXMPCore_Int@@@std@@AEAAXPEAVDOMSerializerImpl@AdobeXMPCore_Int@@V?$_Mem_fn@P8SharedObjectImpl@AdobeXMPCore_Int@@EBAXXZ@1@V?$TAllocator@VDOMSerializerImpl@AdobeXMPCore_Int@@@3@@Z 000000018006f82c f i DOMSerializerImpl.obj
 0001:0006e8f0       ??$_Resetp@VClientDOMSerializerWrapperImpl@AdobeXMPCore_Int@@V?$_Mem_fn@P8SharedObjectImpl@AdobeXMPCore_Int@@EBAXXZ@std@@V?$TAllocator@VClientDOMSerializerWrapperImpl@AdobeXMPCore_Int@@@2@@?$shared_ptr@VClientDOMSerializerWrapperImpl@AdobeXMPCore_Int@@@std@@AEAAXPEAVClientDOMSerializerWrapperImpl@AdobeXMPCore_Int@@V?$_Mem_fn@P8SharedObjectImpl@AdobeXMPCore_Int@@EBAXXZ@1@V?$TAllocator@VClientDOMSerializerWrapperImpl@AdobeXMPCore_Int@@@3@@Z 000000018006f8f0 f i DOMSerializerImpl.obj
 0001:0006e9b4       ?GetSimpleQualifier@INode_v1@AdobeXMPCore@@QEAA?AV?$shared_ptr@VISimpleNode_v1@AdobeXMPCore@@@std@@PEBD_K01@Z 000000018006f9b4 f i MetadataImpl.obj
 0001:0006ea68       ??1IStructureNode_v1@AdobeXMPCore@@MEAA@XZ 000000018006fa68 f i MetadataImpl.obj
 0001:0006eadc       ??_EIStructureNode_v1@AdobeXMPCore@@MEAAPEAXI@Z 000000018006fadc f i * CIL library *:* CIL module *
 0001:0006eadc       ??_GIStructureNode_v1@AdobeXMPCore@@MEAAPEAXI@Z 000000018006fadc f i MetadataImpl.obj
 0001:0006eb74       ??1IMetadata_v1@AdobeXMPCore@@MEAA@XZ 000000018006fb74 f i MetadataImpl.obj
 0001:0006ebfc       ??_GIMetadata_v1@AdobeXMPCore@@MEAAPEAXI@Z 000000018006fbfc f i MetadataImpl.obj
 0001:0006ebfc       ??_EIMetadata_v1@AdobeXMPCore@@MEAAPEAXI@Z 000000018006fbfc f i * CIL library *:* CIL module *
 0001:0006eca8       ?GetActualIStructureNode@IStructureNode_I@AdobeXMPCore_Int@@UEAAPEAVIStructureNode_v1@AdobeXMPCore@@XZ 000000018006fca8 f i MetadataImpl.obj
 0001:0006eccc       ??1IStructureNode_I@AdobeXMPCore_Int@@MEAA@XZ 000000018006fccc f i MetadataImpl.obj
 0001:0006edd0       ??_EIStructureNode_I@AdobeXMPCore_Int@@MEAAPEAXI@Z 000000018006fdd0 f i * CIL library *:* CIL module *
 0001:0006edd0       ??_GIStructureNode_I@AdobeXMPCore_Int@@MEAAPEAXI@Z 000000018006fdd0 f i MetadataImpl.obj
 0001:0006ee08       ?GetActualIMetadata@IMetadata_I@AdobeXMPCore_Int@@UEAAPEAVIMetadata_v1@AdobeXMPCore@@XZ 000000018006fe08 f i MetadataImpl.obj
 0001:0006ee24       ?GetISharedObject_I@IMetadata_I@AdobeXMPCore_Int@@UEAAPEAVISharedObject_I@AdobeXMPCommon_Int@@XZ 000000018006fe24 f i MetadataImpl.obj
 0001:0006ee40       ?GetIMetadata_I@IMetadata_I@AdobeXMPCore_Int@@UEAAPEAV12@XZ 000000018006fe40 f i MetadataImpl.obj
 0001:0006ee48       ??1IMetadata_I@AdobeXMPCore_Int@@MEAA@XZ 000000018006fe48 f i MetadataImpl.obj
 0001:0006ef88       ??_GIMetadata_I@AdobeXMPCore_Int@@MEAAPEAXI@Z 000000018006ff88 f i MetadataImpl.obj
 0001:0006ef88       ??_EIMetadata_I@AdobeXMPCore_Int@@MEAAPEAXI@Z 000000018006ff88 f i * CIL library *:* CIL module *
 0001:0006efc0       ??1StructureNodeImpl@AdobeXMPCore_Int@@MEAA@XZ 000000018006ffc0 f i MetadataImpl.obj
 0001:0006f178       ??_GStructureNodeImpl@AdobeXMPCore_Int@@MEAAPEAXI@Z 0000000180070178 f i MetadataImpl.obj
 0001:0006f178       ??_EStructureNodeImpl@AdobeXMPCore_Int@@MEAAPEAXI@Z 0000000180070178 f i * CIL library *:* CIL module *
 0001:0006f1d8       ??_DStructureNodeImpl@AdobeXMPCore_Int@@IEAAXXZ 00000001800701d8 f i MetadataImpl.obj
 0001:0006f3e8       ??1MetadataImpl@AdobeXMPCore_Int@@MEAA@XZ 00000001800703e8 f i MetadataImpl.obj
 0001:0006f600       ??_GMetadataImpl@AdobeXMPCore_Int@@MEAAPEAXI@Z 0000000180070600 f i MetadataImpl.obj
 0001:0006f600       ??_EMetadataImpl@AdobeXMPCore_Int@@MEAAPEAXI@Z 0000000180070600 f i * CIL library *:* CIL module *
 0001:0006f660       ??_DMetadataImpl@AdobeXMPCore_Int@@IEAAXXZ 0000000180070660 f i MetadataImpl.obj
 0001:0006f934       ??0MetadataImpl@AdobeXMPCore_Int@@QEAA@XZ 0000000180070934 f   MetadataImpl.obj
 0001:0007022c       ??0IStructureNode_I@AdobeXMPCore_Int@@QEAA@XZ 000000018007122c f i MetadataImpl.obj
 0001:00070328       ?GetAboutURI@MetadataImpl@AdobeXMPCore_Int@@MEBA?AV?$shared_ptr@$$CBVIUTF8String_v1@AdobeXMPCommon@@@std@@XZ 0000000180071328 f   MetadataImpl.obj
 0001:00070388       ?SetAboutURI@MetadataImpl@AdobeXMPCore_Int@@MEAAXPEBD_K@Z 0000000180071388 f   MetadataImpl.obj
 0001:00070428       ?GetName@MetadataImpl@AdobeXMPCore_Int@@MEBA?AV?$shared_ptr@$$CBVIUTF8String_v1@AdobeXMPCommon@@@std@@XZ 0000000180071428 f   MetadataImpl.obj
 0001:00070428       ?GetNameSpace@MetadataImpl@AdobeXMPCore_Int@@MEBA?AV?$shared_ptr@$$CBVIUTF8String_v1@AdobeXMPCommon@@@std@@XZ 0000000180071428 f   MetadataImpl.obj
 0001:000704a4       ?ClearContents@MetadataImpl@AdobeXMPCore_Int@@MEAAXXZ 00000001800714a4 f   MetadataImpl.obj
 0001:00070514       ?CloneContents@MetadataImpl@AdobeXMPCore_Int@@MEBA?AV?$shared_ptr@VINode_v1@AdobeXMPCore@@@std@@_N0_K@Z 0000000180071514 f   MetadataImpl.obj
 0001:000706ac       ?ConvertToMetadata@MetadataImpl@AdobeXMPCore_Int@@MEAA?AV?$shared_ptr@VIMetadata_v1@AdobeXMPCore@@@std@@XZ 00000001800716ac f   MetadataImpl.obj
 0001:00070748       ?EnableFeature@MetadataImpl@AdobeXMPCore_Int@@MEBAXPEBD_K@Z 0000000180071748 f   MetadataImpl.obj
 0001:0007083c       ?DisableFeature@MetadataImpl@AdobeXMPCore_Int@@MEBAXPEBD_K@Z 000000018007183c f   MetadataImpl.obj
 0001:00070930       ?IsNodeAlias@AdobeXMPCore_Int@@YA_NPEBD0AEAV?$vector@VXPathStepInfo@@V?$allocator@VXPathStepInfo@@@std@@@std@@@Z 0000000180071930 f   MetadataImpl.obj
 0001:00070ccc       ?HandleConstAlias@AdobeXMPCore_Int@@YA_NAEBV?$shared_ptr@VIMetadata_v1@AdobeXMPCore@@@std@@AEAV?$shared_ptr@VINode_v1@AdobeXMPCore@@@3@AEBV?$vector@VXPathStepInfo@@V?$allocator@VXPathStepInfo@@@std@@@3@AEA_K@Z 0000000180071ccc f   MetadataImpl.obj
 0001:00071384       ?CreateTerminalNode@AdobeXMPCore_Int@@YA?AV?$shared_ptr@VINode_v1@AdobeXMPCore@@@std@@PEBD0KAEBV?$shared_ptr@$$CBVINode_v1@AdobeXMPCore@@@3@@Z 0000000180072384 f   MetadataImpl.obj
 0001:00071538       ?HandleNonConstAlias@AdobeXMPCore_Int@@YA_NAEBV?$shared_ptr@VIMetadata_v1@AdobeXMPCore@@@std@@AEAV?$vector@VXPathStepInfo@@V?$allocator@VXPathStepInfo@@@std@@@3@_NKAEAV?$shared_ptr@VINode_v1@AdobeXMPCore@@@3@AEA_K2AEBV53@@Z 0000000180072538 f   MetadataImpl.obj
 0001:0007264c       ?ReplaceNode@MetadataImpl@AdobeXMPCore_Int@@MEAA?AV?$shared_ptr@VINode_v1@AdobeXMPCore@@@std@@AEBV34@@Z 000000018007364c f   MetadataImpl.obj
 0001:00072f4c       ?InsertNode@MetadataImpl@AdobeXMPCore_Int@@MEAAXAEBV?$shared_ptr@VINode_v1@AdobeXMPCore@@@std@@@Z 0000000180073f4c f   MetadataImpl.obj
 0001:000731ec       ?RemoveNode@MetadataImpl@AdobeXMPCore_Int@@MEAA?AV?$shared_ptr@VINode_v1@AdobeXMPCore@@@std@@AEBV?$shared_ptr@$$CBVIUTF8String_v1@AdobeXMPCommon@@@4@0@Z 00000001800741ec f   MetadataImpl.obj
 0001:0007356c       ?GetNode@MetadataImpl@AdobeXMPCore_Int@@MEAA?AV?$shared_ptr@VINode_v1@AdobeXMPCore@@@std@@AEBV?$shared_ptr@$$CBVIUTF8String_v1@AdobeXMPCommon@@@4@0@Z 000000018007456c f   MetadataImpl.obj
 0001:000737ac       ?CreateMetadata@IMetadata_v1@AdobeXMPCore@@SA?AV?$shared_ptr@VIMetadata_v1@AdobeXMPCore@@@std@@XZ 00000001800747ac f   MetadataImpl.obj
 0001:00073874       ??1?$basic_string@DU?$char_traits@D@std@@V?$TAllocator@D@AdobeXMPCore_Int@@@std@@QEAA@XZ 0000000180074874 f i MetadataImpl.obj
 0001:000738cc       ?count@?$_Tree@V?$_Tmap_traits@V?$basic_string@DU?$char_traits@D@std@@V?$allocator@D@2@@std@@V?$vector@VXPathStepInfo@@V?$allocator@VXPathStepInfo@@@std@@@2@U?$less@V?$basic_string@DU?$char_traits@D@std@@V?$allocator@D@2@@std@@@2@V?$allocator@U?$pair@$$CBV?$basic_string@DU?$char_traits@D@std@@V?$allocator@D@2@@std@@V?$vector@VXPathStepInfo@@V?$allocator@VXPathStepInfo@@@std@@@2@@std@@@2@$0A@@std@@@std@@QEBA_KAEBV?$basic_string@DU?$char_traits@D@std@@V?$allocator@D@2@@2@@Z 00000001800748cc f i MetadataImpl.obj
 0001:000739dc       ??1?$_Tree@V?$_Tmap_traits@UQualifiedName@StructureNodeImpl@AdobeXMPCore_Int@@V?$shared_ptr@VINode_v1@AdobeXMPCore@@@std@@UCompareQualifiedName@23@V?$TAllocator@V?$shared_ptr@VINode_v1@AdobeXMPCore@@@std@@@3@$0A@@std@@@std@@QEAA@XZ 00000001800749dc f i MetadataImpl.obj
 0001:00073ab0       ?assign@?$basic_string@DU?$char_traits@D@std@@V?$TAllocator@D@AdobeXMPCore_Int@@@std@@QEAAAEAV12@PEBD_K@Z 0000000180074ab0 f i MetadataImpl.obj
 0001:00073bb4       ?assign@?$basic_string@DU?$char_traits@D@std@@V?$TAllocator@D@AdobeXMPCore_Int@@@std@@QEAAAEAV12@AEBV12@_K1@Z 0000000180074bb4 f i MetadataImpl.obj
 0001:00073cd4       ?_Copy@?$basic_string@DU?$char_traits@D@std@@V?$TAllocator@D@AdobeXMPCore_Int@@@std@@QEAAX_K0@Z 0000000180074cd4 f i MetadataImpl.obj
 0001:00073e0c       ?erase@?$_Tree@V?$_Tmap_traits@UQualifiedName@StructureNodeImpl@AdobeXMPCore_Int@@V?$shared_ptr@VINode_v1@AdobeXMPCore@@@std@@UCompareQualifiedName@23@V?$TAllocator@V?$shared_ptr@VINode_v1@AdobeXMPCore@@@std@@@3@$0A@@std@@@std@@QEAA?AV?$_Tree_iterator@V?$_Tree_val@U?$_Tree_simple_types@U?$pair@$$CBUQualifiedName@StructureNodeImpl@AdobeXMPCore_Int@@V?$shared_ptr@VINode_v1@AdobeXMPCore@@@std@@@std@@@std@@@std@@@2@V?$_Tree_const_iterator@V?$_Tree_val@U?$_Tree_simple_types@U?$pair@$$CBUQualifiedName@StructureNodeImpl@AdobeXMPCore_Int@@V?$shared_ptr@VINode_v1@AdobeXMPCore@@@std@@@std@@@std@@@std@@@2@@Z 0000000180074e0c f i MetadataImpl.obj
 0001:000742e4       ?_Erase@?$_Tree@V?$_Tmap_traits@UQualifiedName@StructureNodeImpl@AdobeXMPCore_Int@@V?$shared_ptr@VINode_v1@AdobeXMPCore@@@std@@UCompareQualifiedName@23@V?$TAllocator@V?$shared_ptr@VINode_v1@AdobeXMPCore@@@std@@@3@$0A@@std@@@std@@IEAAXPEAU?$_Tree_node@U?$pair@$$CBUQualifiedName@StructureNodeImpl@AdobeXMPCore_Int@@V?$shared_ptr@VINode_v1@AdobeXMPCore@@@std@@@std@@PEAX@2@@Z 00000001800752e4 f i MetadataImpl.obj
 0001:00074398       ??$MakeUncheckedSharedPointer@VMetadataImpl@AdobeXMPCore_Int@@@AdobeXMPCore_Int@@YA?AV?$shared_ptr@VMetadataImpl@AdobeXMPCore_Int@@@std@@PEAVMetadataImpl@0@PEBD_K_N@Z 0000000180075398 f i MetadataImpl.obj
 0001:000744b0       ??$?0VMetadataImpl@AdobeXMPCore_Int@@X@?$shared_ptr@VIMetadata_v1@AdobeXMPCore@@@std@@QEAA@AEBV?$shared_ptr@VMetadataImpl@AdobeXMPCore_Int@@@1@@Z 00000001800754b0 f i MetadataImpl.obj
 0001:00074548       ??$_Buynode@AEBUpiecewise_construct_t@std@@V?$tuple@$$QEAV?$basic_string@DU?$char_traits@D@std@@V?$allocator@D@2@@std@@@2@V?$tuple@$$V@2@@?$_Tree_comp_alloc@V?$_Tmap_traits@V?$basic_string@DU?$char_traits@D@std@@V?$allocator@D@2@@std@@V?$vector@VXPathStepInfo@@V?$allocator@VXPathStepInfo@@@std@@@2@U?$less@V?$basic_string@DU?$char_traits@D@std@@V?$allocator@D@2@@std@@@2@V?$allocator@U?$pair@$$CBV?$basic_string@DU?$char_traits@D@std@@V?$allocator@D@2@@std@@V?$vector@VXPathStepInfo@@V?$allocator@VXPathStepInfo@@@std@@@2@@std@@@2@$0A@@std@@@std@@QEAAPEAU?$_Tree_node@U?$pair@$$CBV?$basic_string@DU?$char_traits@D@std@@V?$allocator@D@2@@std@@V?$vector@VXPathStepInfo@@V?$allocator@VXPathStepInfo@@@std@@@2@@std@@PEAX@1@AEBUpiecewise_construct_t@1@$$QEAV?$tuple@$$QEAV?$basic_string@DU?$char_traits@D@std@@V?$allocator@D@2@@std@@@1@$$QEAV?$tuple@$$V@1@@Z 0000000180075548 f i MetadataImpl.obj
 0001:000745a0       ??$_Insert_hint@AEAU?$pair@$$CBV?$basic_string@DU?$char_traits@D@std@@V?$allocator@D@2@@std@@V?$vector@VXPathStepInfo@@V?$allocator@VXPathStepInfo@@@std@@@2@@std@@PEAU?$_Tree_node@U?$pair@$$CBV?$basic_string@DU?$char_traits@D@std@@V?$allocator@D@2@@std@@V?$vector@VXPathStepInfo@@V?$allocator@VXPathStepInfo@@@std@@@2@@std@@PEAX@2@@?$_Tree@V?$_Tmap_traits@V?$basic_string@DU?$char_traits@D@std@@V?$allocator@D@2@@std@@V?$vector@VXPathStepInfo@@V?$allocator@VXPathStepInfo@@@std@@@2@U?$less@V?$basic_string@DU?$char_traits@D@std@@V?$allocator@D@2@@std@@@2@V?$allocator@U?$pair@$$CBV?$basic_string@DU?$char_traits@D@std@@V?$allocator@D@2@@std@@V?$vector@VXPathStepInfo@@V?$allocator@VXPathStepInfo@@@std@@@2@@std@@@2@$0A@@std@@@std@@IEAA?AV?$_Tree_iterator@V?$_Tree_val@U?$_Tree_simple_types@U?$pair@$$CBV?$basic_string@DU?$char_traits@D@std@@V?$allocator@D@2@@std@@V?$vector@VXPathStepInfo@@V?$allocator@VXPathStepInfo@@@std@@@2@@std@@@std@@@std@@@1@V?$_Tree_const_iterator@V?$_Tree_val@U?$_Tree_simple_types@U?$pair@$$CBV?$basic_string@DU?$char_traits@D@std@@V?$allocator@D@2@@std@@V?$vector@VXPathStepInfo@@V?$allocator@VXPathStepInfo@@@std@@@2@@std@@@std@@@std@@@1@AEAU?$pair@$$CBV?$basic_string@DU?$char_traits@D@std@@V?$allocator@D@2@@std@@V?$vector@VXPathStepInfo@@V?$allocator@VXPathStepInfo@@@std@@@2@@1@PEAU?$_Tree_node@U?$pair@$$CBV?$basic_string@DU?$char_traits@D@std@@V?$allocator@D@2@@std@@V?$vector@VXPathStepInfo@@V?$allocator@VXPathStepInfo@@@std@@@2@@std@@PEAX@1@@Z 00000001800755a0 f i MetadataImpl.obj
 0001:00074834       ??$_Resetp@VMetadataImpl@AdobeXMPCore_Int@@V?$_Mem_fn@P8NodeImpl@AdobeXMPCore_Int@@EBAXXZ@std@@V?$TAllocator@VMetadataImpl@AdobeXMPCore_Int@@@2@@?$shared_ptr@VMetadataImpl@AdobeXMPCore_Int@@@std@@AEAAXPEAVMetadataImpl@AdobeXMPCore_Int@@V?$_Mem_fn@P8NodeImpl@AdobeXMPCore_Int@@EBAXXZ@1@V?$TAllocator@VMetadataImpl@AdobeXMPCore_Int@@@3@@Z 0000000180075834 f i MetadataImpl.obj
 0001:000748f8       ??$_Insert_at@AEAU?$pair@$$CBV?$basic_string@DU?$char_traits@D@std@@V?$allocator@D@2@@std@@V?$vector@VXPathStepInfo@@V?$allocator@VXPathStepInfo@@@std@@@2@@std@@PEAU?$_Tree_node@U?$pair@$$CBV?$basic_string@DU?$char_traits@D@std@@V?$allocator@D@2@@std@@V?$vector@VXPathStepInfo@@V?$allocator@VXPathStepInfo@@@std@@@2@@std@@PEAX@2@@?$_Tree@V?$_Tmap_traits@V?$basic_string@DU?$char_traits@D@std@@V?$allocator@D@2@@std@@V?$vector@VXPathStepInfo@@V?$allocator@VXPathStepInfo@@@std@@@2@U?$less@V?$basic_string@DU?$char_traits@D@std@@V?$allocator@D@2@@std@@@2@V?$allocator@U?$pair@$$CBV?$basic_string@DU?$char_traits@D@std@@V?$allocator@D@2@@std@@V?$vector@VXPathStepInfo@@V?$allocator@VXPathStepInfo@@@std@@@2@@std@@@2@$0A@@std@@@std@@IEAA?AV?$_Tree_iterator@V?$_Tree_val@U?$_Tree_simple_types@U?$pair@$$CBV?$basic_string@DU?$char_traits@D@std@@V?$allocator@D@2@@std@@V?$vector@VXPathStepInfo@@V?$allocator@VXPathStepInfo@@@std@@@2@@std@@@std@@@std@@@1@_NPEAU?$_Tree_node@U?$pair@$$CBV?$basic_string@DU?$char_traits@D@std@@V?$allocator@D@2@@std@@V?$vector@VXPathStepInfo@@V?$allocator@VXPathStepInfo@@@std@@@2@@std@@PEAX@1@AEAU?$pair@$$CBV?$basic_string@DU?$char_traits@D@std@@V?$allocator@D@2@@std@@V?$vector@VXPathStepInfo@@V?$allocator@VXPathStepInfo@@@std@@@2@@1@1@Z 00000001800758f8 f i MetadataImpl.obj
 0001:00074bc8       ??$_Insert_nohint@AEAU?$pair@$$CBV?$basic_string@DU?$char_traits@D@std@@V?$allocator@D@2@@std@@V?$vector@VXPathStepInfo@@V?$allocator@VXPathStepInfo@@@std@@@2@@std@@PEAU?$_Tree_node@U?$pair@$$CBV?$basic_string@DU?$char_traits@D@std@@V?$allocator@D@2@@std@@V?$vector@VXPathStepInfo@@V?$allocator@VXPathStepInfo@@@std@@@2@@std@@PEAX@2@@?$_Tree@V?$_Tmap_traits@V?$basic_string@DU?$char_traits@D@std@@V?$allocator@D@2@@std@@V?$vector@VXPathStepInfo@@V?$allocator@VXPathStepInfo@@@std@@@2@U?$less@V?$basic_string@DU?$char_traits@D@std@@V?$allocator@D@2@@std@@@2@V?$allocator@U?$pair@$$CBV?$basic_string@DU?$char_traits@D@std@@V?$allocator@D@2@@std@@V?$vector@VXPathStepInfo@@V?$allocator@VXPathStepInfo@@@std@@@2@@std@@@2@$0A@@std@@@std@@IEAA?AU?$pair@V?$_Tree_iterator@V?$_Tree_val@U?$_Tree_simple_types@U?$pair@$$CBV?$basic_string@DU?$char_traits@D@std@@V?$allocator@D@2@@std@@V?$vector@VXPathStepInfo@@V?$allocator@VXPathStepInfo@@@std@@@2@@std@@@std@@@std@@@std@@_N@1@_NAEAU?$pair@$$CBV?$basic_string@DU?$char_traits@D@std@@V?$allocator@D@2@@std@@V?$vector@VXPathStepInfo@@V?$allocator@VXPathStepInfo@@@std@@@2@@1@PEAU?$_Tree_node@U?$pair@$$CBV?$basic_string@DU?$char_traits@D@std@@V?$allocator@D@2@@std@@V?$vector@VXPathStepInfo@@V?$allocator@VXPathStepInfo@@@std@@@2@@std@@PEAX@1@@Z 0000000180075bc8 f i MetadataImpl.obj
 0001:00074d6c       ?_Destroy@?$_Ref_count_del_alloc@VMetadataImpl@AdobeXMPCore_Int@@V?$_Mem_fn@P8NodeImpl@AdobeXMPCore_Int@@EBAXXZ@std@@V?$TAllocator@VMetadataImpl@AdobeXMPCore_Int@@@2@@std@@EEAAXXZ 0000000180075d6c f i MetadataImpl.obj
 0001:00074dc8       ?GetIStructureNode_I@IStructureNode_I@AdobeXMPCore_Int@@$R4II@DA@PPPPPPPM@GI@EAAPEAV12@XZ 0000000180075dc8 f i MetadataImpl.obj
 0001:00074de4       ?iterator@ICompositeNode_I@AdobeXMPCore_Int@@$R2HA@CM@PPPPPPPM@EI@EAAPEAVINodeIterator_v1@AdobeXMPCore@@AEAPEBVIError_v1@AdobeXMPCommon@@@Z 0000000180075de4 f i MetadataImpl.obj
 0001:00074e00       ?insertQualifier@INode_I@AdobeXMPCore_Int@@$R2FI@CI@PPPPPPPM@DI@EAAXPEAVINode_v1@AdobeXMPCore@@AEAPEBVIError_v1@AdobeXMPCommon@@@Z 0000000180075e00 f i MetadataImpl.obj
 0001:00074e1c       ?GetInterfacePointer@IMetadata_I@AdobeXMPCore_Int@@$R4DI@DE@PPPPPPPM@CA@EAAPEAX_KK@Z 0000000180075e1c f i MetadataImpl.obj
 0001:00074e38       ?resetChangesForChildren@StructureNodeImpl@AdobeXMPCore_Int@@$2PPPPPPPM@A@EBAXXZ 0000000180075e38 f i MetadataImpl.obj
 0001:00074e44       ?RemoveQualifier@NodeImpl@AdobeXMPCore_Int@@$R4MI@DM@PPPPPPPM@PA@EAA?AV?$shared_ptr@VINode_v1@AdobeXMPCore@@@std@@AEBV?$shared_ptr@$$CBVIUTF8String_v1@AdobeXMPCommon@@@4@0@Z 0000000180075e44 f i MetadataImpl.obj
 0001:00074e60       ?GetNodeTypeAtPath@CompositeNodeImpl@AdobeXMPCore_Int@@$R4GI@EA@PPPPPPPM@GA@EBA?AW4eNodeType@INode_v1@AdobeXMPCore@@AEBV?$shared_ptr@$$CBVIPath_v1@AdobeXMPCore@@@std@@@Z 0000000180075e60 f i MetadataImpl.obj
 0001:00074e7c       ?GetINode_I@INode_I@AdobeXMPCore_Int@@$R4FA@CE@PPPPPPPM@DI@EAAPEAV12@XZ 0000000180075e7c f i MetadataImpl.obj
 0001:00074e98       ?GetQualifierNodeType@NodeImpl@AdobeXMPCore_Int@@$R4FA@DM@PPPPPPPM@KI@EBA?AW4eNodeType@INode_v1@AdobeXMPCore@@PEBD_K01@Z 0000000180075e98 f i MetadataImpl.obj
 0001:00074eb4       ??_EStructureNodeImpl@AdobeXMPCore_Int@@$2PPPPPPPM@BA@EAAPEAXI@Z 0000000180075eb4 f i MetadataImpl.obj
 0001:00074ec4       ?getNameSpace@INode_I@AdobeXMPCore_Int@@$R2DI@CI@PPPPPPPM@DI@EBAPEBVIUTF8String_v1@AdobeXMPCommon@@AEAPEBVIError_v1@4@@Z 0000000180075ec4 f i MetadataImpl.obj
 0001:00074edc       ??_EIStructureNode_I@AdobeXMPCore_Int@@$2PPPPPPPM@BA@EAAPEAXI@Z 0000000180075edc f i MetadataImpl.obj
 0001:00074eec       ?RemoveNode@MetadataImpl@AdobeXMPCore_Int@@$2PPPPPPPM@A@EAA?AV?$shared_ptr@VINode_v1@AdobeXMPCore@@@std@@AEBV?$shared_ptr@$$CBVIUTF8String_v1@AdobeXMPCommon@@@4@0@Z 0000000180075eec f i MetadataImpl.obj
 0001:00074ef8       ?ChangeParent@NodeImpl@AdobeXMPCore_Int@@$R4OI@EE@PPPPPPPM@PA@EAAXPEAVINode_v1@AdobeXMPCore@@@Z 0000000180075ef8 f i MetadataImpl.obj
 0001:00074f14       ?EnableFeature@MetadataImpl@AdobeXMPCore_Int@@$2PPPPPPPM@A@EBAXPEBD_K@Z 0000000180075f14 f i MetadataImpl.obj
 0001:00074f20       ?ReplaceNode@MetadataImpl@AdobeXMPCore_Int@@$2PPPPPPPM@A@EAA?AV?$shared_ptr@VINode_v1@AdobeXMPCore@@@std@@AEBV34@@Z 0000000180075f20 f i MetadataImpl.obj
 0001:00074f2c       ?getNameSpace@INode_I@AdobeXMPCore_Int@@$R2FI@CI@PPPPPPPM@DI@EBAPEBVIUTF8String_v1@AdobeXMPCommon@@AEAPEBVIError_v1@4@@Z 0000000180075f2c f i MetadataImpl.obj
 0001:00074f48       ?Release@IErrorProxy@AdobeXMPCommon@@$4PPPPPPPM@A@EBAXXZ 0000000180075f48 f i IError.obj
 0001:00074f48       ?Acquire@IUTF8StringProxy@AdobeXMPCommon@@$4PPPPPPPM@A@EBAXXZ 0000000180075f48 f i IUTF8String.obj
 0001:00074f48       ?Release@IUTF8StringProxy@AdobeXMPCommon@@$4PPPPPPPM@A@EBAXXZ 0000000180075f48 f i IUTF8String.obj
 0001:00074f48       ?SetNameSpace@MetadataImpl@AdobeXMPCore_Int@@$2PPPPPPPM@A@EAAXPEBD_K@Z 0000000180075f48 f i MetadataImpl.obj
 0001:00074f48       ?Acquire@IErrorProxy@AdobeXMPCommon@@$4PPPPPPPM@A@EBAXXZ 0000000180075f48 f i IError.obj
 0001:00074f48       ?resetChangesForChildren@SimpleNodeImpl@AdobeXMPCore_Int@@$2PPPPPPPM@A@EBAXXZ 0000000180075f48 f i SimpleNodeImpl.obj
 0001:00074f48       ?SetName@MetadataImpl@AdobeXMPCore_Int@@$2PPPPPPPM@A@EAAXPEBD_K@Z 0000000180075f48 f i MetadataImpl.obj
 0001:00074f54       ??_EMetadataImpl@AdobeXMPCore_Int@@$2PPPPPPPM@BA@EAAPEAXI@Z 0000000180075f54 f i MetadataImpl.obj
 0001:00074f64       ?SetIsQualifierNode@NodeImpl@AdobeXMPCore_Int@@$R4MI@DM@PPPPPPPM@PA@EAAX_N@Z 0000000180075f64 f i MetadataImpl.obj
 0001:00074f80       ?replaceNode@IStructureNode_I@AdobeXMPCore_Int@@$R2IA@CM@PPPPPPPM@GI@EAAPEAVINode_v1@AdobeXMPCore@@PEAV34@AEAPEBVIError_v1@AdobeXMPCommon@@@Z 0000000180075f80 f i MetadataImpl.obj
 0001:00074f9c       ?getNode@IStructureNode_I@AdobeXMPCore_Int@@$R2IA@CM@PPPPPPPM@GI@EAAPEAVINode_v1@AdobeXMPCore@@PEBD_K01AEAPEBVIError_v1@AdobeXMPCommon@@@Z 0000000180075f9c f i MetadataImpl.obj
 0001:00074fb8       ?IsArrayItem@NodeImpl@AdobeXMPCore_Int@@$R4FA@DM@PPPPPPPM@KI@EBA_NXZ 0000000180075fb8 f i MetadataImpl.obj
 0001:00074fd4       ?clone@INode_I@AdobeXMPCore_Int@@$R2DI@CI@PPPPPPPM@DI@EBAPEAVINode_v1@AdobeXMPCore@@KKAEAPEBVIError_v1@AdobeXMPCommon@@@Z 0000000180075fd4 f i MetadataImpl.obj
 0001:00074fec       ?GetActualICompositeNode@ICompositeNode_I@AdobeXMPCore_Int@@$R4EI@CI@PPPPPPPM@EI@EAAPEAVICompositeNode_v1@AdobeXMPCore@@XZ 0000000180075fec f i MetadataImpl.obj
 0001:00075004       ?isEmpty@INode_I@AdobeXMPCore_Int@@$R2DA@CE@PPPPPPPM@DI@EBAKAEAPEBVIError_v1@AdobeXMPCommon@@@Z 0000000180076004 f i MetadataImpl.obj
 0001:00075020       ?getParent@INode_I@AdobeXMPCore_Int@@$R2DA@CE@PPPPPPPM@DI@EAAPEAVINode_v1@AdobeXMPCore@@AEAPEBVIError_v1@AdobeXMPCommon@@@Z 0000000180076020 f i MetadataImpl.obj
 0001:0007503c       ?GetQualifier@NodeImpl@AdobeXMPCore_Int@@$R4OI@EE@PPPPPPPM@PA@EAA?AV?$shared_ptr@VINode_v1@AdobeXMPCore@@@std@@AEBV?$shared_ptr@$$CBVIUTF8String_v1@AdobeXMPCommon@@@4@0@Z 000000018007603c f i MetadataImpl.obj
 0001:00075058       ?clone@INode_I@AdobeXMPCore_Int@@$R2FI@CI@PPPPPPPM@DI@EBAPEAVINode_v1@AdobeXMPCore@@KKAEAPEBVIError_v1@AdobeXMPCommon@@@Z 0000000180076058 f i MetadataImpl.obj
 0001:00075074       ?Acquire@NodeImpl@AdobeXMPCore_Int@@$R4CI@EE@PPPPPPPM@HI@EBAXXZ 0000000180076074 f i MetadataImpl.obj
 0001:00075090       ?GetActualICompositeNode@ICompositeNode_I@AdobeXMPCore_Int@@$R4GI@CI@PPPPPPPM@EI@EAAPEAVICompositeNode_v1@AdobeXMPCore@@XZ 0000000180076090 f i MetadataImpl.obj
 0001:000750ac       ?Iterator@StructureNodeImpl@AdobeXMPCore_Int@@$4PPPPPPPM@A@EAA?AV?$shared_ptr@VINodeIterator_v1@AdobeXMPCore@@@std@@XZ 00000001800760ac f i MetadataImpl.obj
 0001:000750b8       ?isEmpty@INode_I@AdobeXMPCore_Int@@$R2FA@CE@PPPPPPPM@DI@EBAKAEAPEBVIError_v1@AdobeXMPCommon@@@Z 00000001800760b8 f i MetadataImpl.obj
 0001:000750d4       ?getParent@INode_I@AdobeXMPCore_Int@@$R2FA@CE@PPPPPPPM@DI@EAAPEAVINode_v1@AdobeXMPCore@@AEAPEBVIError_v1@AdobeXMPCommon@@@Z 00000001800760d4 f i MetadataImpl.obj
 0001:000750f0       ?convertToMetadata@INode_I@AdobeXMPCore_Int@@$R2DI@CI@PPPPPPPM@DI@EAAPEAVIMetadata_v1@AdobeXMPCore@@AEAPEBVIError_v1@AdobeXMPCommon@@@Z 00000001800760f0 f i MetadataImpl.obj
 0001:00075108       ?replaceNode@IStructureNode_I@AdobeXMPCore_Int@@$2PPPPPPPM@A@EAAPEAVINode_v1@AdobeXMPCore@@PEAV34@AEAPEBVIError_v1@AdobeXMPCommon@@@Z 0000000180076108 f i MetadataImpl.obj
 0001:00075114       ?getNode@IStructureNode_I@AdobeXMPCore_Int@@$2PPPPPPPM@A@EAAPEAVINode_v1@AdobeXMPCore@@PEBD_K01AEAPEBVIError_v1@AdobeXMPCommon@@@Z 0000000180076114 f i MetadataImpl.obj
 0001:00075120       ?removeNodeAtPath@ICompositeNode_I@AdobeXMPCore_Int@@$R2EI@CI@PPPPPPPM@EI@EAAPEAVINode_v1@AdobeXMPCore@@PEBVIPath_v1@4@AEAPEBVIError_v1@AdobeXMPCommon@@@Z 0000000180076120 f i MetadataImpl.obj
 0001:00075138       ?setName@INode_I@AdobeXMPCore_Int@@$R2DA@CE@PPPPPPPM@DI@EAAXPEBD_KAEAPEBVIError_v1@AdobeXMPCommon@@@Z 0000000180076138 f i MetadataImpl.obj
 0001:00075154       ?SetQualifiers@NodeImpl@AdobeXMPCore_Int@@$R4OI@EE@PPPPPPPM@PA@EAAXAEBV?$shared_ptr@VIStructureNode_v1@AdobeXMPCore@@@std@@@Z 0000000180076154 f i MetadataImpl.obj
 0001:00075170       ?convertToMetadata@INode_I@AdobeXMPCore_Int@@$R2FI@CI@PPPPPPPM@DI@EAAPEAVIMetadata_v1@AdobeXMPCore@@AEAPEBVIError_v1@AdobeXMPCommon@@@Z 0000000180076170 f i MetadataImpl.obj
 0001:0007518c       ?GetQualifier@NodeImpl@AdobeXMPCore_Int@@$R4FI@EE@PPPPPPPM@KI@EAA?AV?$shared_ptr@VINode_v1@AdobeXMPCore@@@std@@PEBD_K01@Z 000000018007618c f i MetadataImpl.obj
 0001:000751a8       ?GetNodeType@StructureNodeImpl@AdobeXMPCore_Int@@$R4FI@EM@PPPPPPPM@FA@EBA?AW4eNodeType@INode_v1@AdobeXMPCore@@XZ 00000001800761a8 f i MetadataImpl.obj
 0001:000751c4       ?EnableThreadSafety@ThreadSafeImpl@AdobeXMPCore_Int@@$R2EI@EA@PPPPPPPM@CI@EBAXXZ 00000001800761c4 f i MetadataImpl.obj
 0001:000751e0       ?removeNodeAtPath@ICompositeNode_I@AdobeXMPCore_Int@@$R2GI@CI@PPPPPPPM@EI@EAAPEAVINode_v1@AdobeXMPCore@@PEBVIPath_v1@4@AEAPEBVIError_v1@AdobeXMPCommon@@@Z 00000001800761e0 f i MetadataImpl.obj
 0001:000751fc       ?setName@INode_I@AdobeXMPCore_Int@@$R2FA@CE@PPPPPPPM@DI@EAAXPEBD_KAEAPEBVIError_v1@AdobeXMPCommon@@@Z 00000001800761fc f i MetadataImpl.obj
 0001:00075218       ?insertNode@IStructureNode_I@AdobeXMPCore_Int@@$R2GI@DA@PPPPPPPM@GI@EAAXPEAVINode_v1@AdobeXMPCore@@AEAPEBVIError_v1@AdobeXMPCommon@@@Z 0000000180076218 f i MetadataImpl.obj
 0001:00075230       ?convertToSimpleNode@INode_I@AdobeXMPCore_Int@@$R2DI@CI@PPPPPPPM@DI@EAAPEAVISimpleNode_v1@AdobeXMPCore@@AEAPEBVIError_v1@AdobeXMPCommon@@@Z 0000000180076230 f i MetadataImpl.obj
 0001:00075248       ?isThreadSafe@IThreadSafe_I@AdobeXMPCommon_Int@@WPPPPPPHI@EBAKXZ 0000000180076248 f i MetadataImpl.obj
 0001:00075254       ?hasContent@INode_I@AdobeXMPCore_Int@@$R2DA@CE@PPPPPPPM@DI@EBAKAEAPEBVIError_v1@AdobeXMPCommon@@@Z 0000000180076254 f i MetadataImpl.obj
 0001:00075270       ?getIndex@INode_I@AdobeXMPCore_Int@@$R2DA@CE@PPPPPPPM@DI@EBA_KAEAPEBVIError_v1@AdobeXMPCommon@@@Z 0000000180076270 f i MetadataImpl.obj
 0001:0007528c       ?insertNode@IStructureNode_I@AdobeXMPCore_Int@@$R2II@DA@PPPPPPPM@GI@EAAXPEAVINode_v1@AdobeXMPCore@@AEAPEBVIError_v1@AdobeXMPCommon@@@Z 000000018007628c f i MetadataImpl.obj
 0001:000752a8       ?convertToSimpleNode@INode_I@AdobeXMPCore_Int@@$R2FI@CI@PPPPPPPM@DI@EAAPEAVISimpleNode_v1@AdobeXMPCore@@AEAPEBVIError_v1@AdobeXMPCommon@@@Z 00000001800762a8 f i MetadataImpl.obj
 0001:000752c4       ?hasContent@INode_I@AdobeXMPCore_Int@@$R2FA@CE@PPPPPPPM@DI@EBAKAEAPEBVIError_v1@AdobeXMPCommon@@@Z 00000001800762c4 f i MetadataImpl.obj
 0001:000752e0       ?getIndex@INode_I@AdobeXMPCore_Int@@$R2FA@CE@PPPPPPPM@DI@EBA_KAEAPEBVIError_v1@AdobeXMPCommon@@@Z 00000001800762e0 f i MetadataImpl.obj
 0001:000752fc       ?isThreadSafe@IThreadSafe_I@AdobeXMPCommon_Int@@$R4EA@CA@PPPPPPPM@BA@EBAKXZ 00000001800762fc f i MetadataImpl.obj
 0001:00075318       ?GetICompositeNode_I@ICompositeNode_I@AdobeXMPCore_Int@@$R4FA@CM@PPPPPPPM@EI@EAAPEAV12@XZ 0000000180076318 f i MetadataImpl.obj
 0001:00075334       ?GetICompositeNode_I@ICompositeNode_I@AdobeXMPCore_Int@@$R4HA@CM@PPPPPPPM@EI@EAAPEAV12@XZ 0000000180076334 f i MetadataImpl.obj
 0001:00075350       ?ChildCount@StructureNodeImpl@AdobeXMPCore_Int@@$R4HA@EM@PPPPPPPM@GI@EBA_KXZ 0000000180076350 f i MetadataImpl.obj
 0001:0007536c       ?HasChanged@NodeImpl@AdobeXMPCore_Int@@$R4FI@EE@PPPPPPPM@KI@EBA_NXZ 000000018007636c f i MetadataImpl.obj
 0001:00075388       ?QualifiersIterator@NodeImpl@AdobeXMPCore_Int@@$R4FI@EE@PPPPPPPM@KI@EAA?AV?$shared_ptr@VINodeIterator_v1@AdobeXMPCore@@@std@@XZ 0000000180076388 f i MetadataImpl.obj
 0001:000753a4       ?GetIThreadSafe_I@IThreadSafe_I@AdobeXMPCommon_Int@@$R4EI@CE@PPPPPPPM@BA@EAAPEAV12@XZ 00000001800763a4 f i MetadataImpl.obj
 0001:000753c0       ?GetNodeAtPath@CompositeNodeImpl@AdobeXMPCore_Int@@$R4GI@EA@PPPPPPPM@GA@EAA?AV?$shared_ptr@VINode_v1@AdobeXMPCore@@@std@@AEBV?$shared_ptr@$$CBVIPath_v1@AdobeXMPCore@@@4@@Z 00000001800763c0 f i MetadataImpl.obj
 0001:000753dc       ?ConvertToSimpleNode@NodeImpl@AdobeXMPCore_Int@@$R4FA@DM@PPPPPPPM@KI@EAA?AV?$shared_ptr@VISimpleNode_v1@AdobeXMPCore@@@std@@XZ 00000001800763dc f i MetadataImpl.obj
 0001:000753dc       ?ConvertToArrayNode@NodeImpl@AdobeXMPCore_Int@@$R4FA@DM@PPPPPPPM@KI@EAA?AV?$shared_ptr@VIArrayNode_v1@AdobeXMPCore@@@std@@XZ 00000001800763dc f i MetadataImpl.obj
 0001:000753dc       ?ConvertToMetadata@NodeImpl@AdobeXMPCore_Int@@$R4FA@DM@PPPPPPPM@KI@EAA?AV?$shared_ptr@VIMetadata_v1@AdobeXMPCore@@@std@@XZ 00000001800763dc f i MetadataImpl.obj
 0001:000753f8       ?GetNodeType@StructureNodeImpl@AdobeXMPCore_Int@@$4PPPPPPPM@A@EBA?AW4eNodeType@INode_v1@AdobeXMPCore@@XZ 00000001800763f8 f i MetadataImpl.obj
 0001:00075404       ?getChildNodeType@IStructureNode_I@AdobeXMPCore_Int@@$R2GI@DA@PPPPPPPM@GI@EBAKPEBD_K01AEAPEBVIError_v1@AdobeXMPCommon@@@Z 0000000180076404 f i MetadataImpl.obj
 0001:0007541c       ?convertToArrayNode@INode_I@AdobeXMPCore_Int@@$R2DI@CI@PPPPPPPM@DI@EAAPEAVIArrayNode_v1@AdobeXMPCore@@AEAPEBVIError_v1@AdobeXMPCommon@@@Z 000000018007641c f i MetadataImpl.obj
 0001:00075434       ?removeQualifier@INode_I@AdobeXMPCore_Int@@$R2DI@CI@PPPPPPPM@DI@EAAPEAVINode_v1@AdobeXMPCore@@PEBD_K01AEAPEBVIError_v1@AdobeXMPCommon@@@Z 0000000180076434 f i MetadataImpl.obj
 0001:0007544c       ?clear@INode_I@AdobeXMPCore_Int@@$R2DA@CE@PPPPPPPM@DI@EAAXKKAEAPEBVIError_v1@AdobeXMPCommon@@@Z 000000018007644c f i MetadataImpl.obj
 0001:00075468       ?getInterfacePointer@IStructureNode_I@AdobeXMPCore_Int@@$2PPPPPPPM@A@EAAPEAX_KKAEAPEBVIError_v1@AdobeXMPCommon@@@Z 0000000180076468 f i MetadataImpl.obj
 0001:00075474       ?getChildNodeType@IStructureNode_I@AdobeXMPCore_Int@@$R2II@DA@PPPPPPPM@GI@EBAKPEBD_K01AEAPEBVIError_v1@AdobeXMPCommon@@@Z 0000000180076474 f i MetadataImpl.obj
 0001:00075490       ?AppendNode@StructureNodeImpl@AdobeXMPCore_Int@@$R4HA@EM@PPPPPPPM@GI@EAAXAEBV?$shared_ptr@VINode_v1@AdobeXMPCore@@@std@@@Z 0000000180076490 f i MetadataImpl.obj
 0001:000754ac       ?convertToArrayNode@INode_I@AdobeXMPCore_Int@@$R2FI@CI@PPPPPPPM@DI@EAAPEAVIArrayNode_v1@AdobeXMPCore@@AEAPEBVIError_v1@AdobeXMPCommon@@@Z 00000001800764ac f i MetadataImpl.obj
 0001:000754c8       ?removeQualifier@INode_I@AdobeXMPCore_Int@@$R2FI@CI@PPPPPPPM@DI@EAAPEAVINode_v1@AdobeXMPCore@@PEBD_K01AEAPEBVIError_v1@AdobeXMPCommon@@@Z 00000001800764c8 f i MetadataImpl.obj
 0001:000754e4       ?GetNode@StructureNodeImpl@AdobeXMPCore_Int@@$4PPPPPPPM@A@EAA?AV?$shared_ptr@VINode_v1@AdobeXMPCore@@@std@@AEBV?$shared_ptr@$$CBVIUTF8String_v1@AdobeXMPCommon@@@4@0@Z 00000001800764e4 f i MetadataImpl.obj
 0001:000754f0       ?UnShareMutex@ThreadSafeImpl@AdobeXMPCore_Int@@$R2LA@DI@PPPPPPPM@DI@EAAXXZ 00000001800764f0 f i MetadataImpl.obj
 0001:0007550c       ?GetNode@StructureNodeImpl@AdobeXMPCore_Int@@$4PPPPPPPM@A@EAA?AV?$shared_ptr@VINode_v1@AdobeXMPCore@@@std@@PEBD_K01@Z 000000018007650c f i MetadataImpl.obj
 0001:00075518       ?clear@INode_I@AdobeXMPCore_Int@@$R2FA@CE@PPPPPPPM@DI@EAAXKKAEAPEBVIError_v1@AdobeXMPCommon@@@Z 0000000180076518 f i MetadataImpl.obj
 0001:00075534       ?InsertQualifier@NodeImpl@AdobeXMPCore_Int@@$R4FA@DM@PPPPPPPM@KI@EAAXAEBV?$shared_ptr@VINode_v1@AdobeXMPCore@@@std@@@Z 0000000180076534 f i MetadataImpl.obj
 0001:00075550       ?IsThreadSafe@ThreadSafeImpl@AdobeXMPCore_Int@@$R2EA@DI@PPPPPPPM@CI@EBA_NXZ 0000000180076550 f i MetadataImpl.obj
 0001:0007556c       ?getQualifier@INode_I@AdobeXMPCore_Int@@$R2DI@CI@PPPPPPPM@DI@EAAPEAVINode_v1@AdobeXMPCore@@PEBD_K01AEAPEBVIError_v1@AdobeXMPCommon@@@Z 000000018007656c f i MetadataImpl.obj
 0001:00075584       ?getName@INode_I@AdobeXMPCore_Int@@$R2DI@CI@PPPPPPPM@DI@EBAPEBVIUTF8String_v1@AdobeXMPCommon@@AEAPEBVIError_v1@4@@Z 0000000180076584 f i MetadataImpl.obj
 0001:0007559c       ?UnRegisterChange@NodeImpl@AdobeXMPCore_Int@@$R4OI@EE@PPPPPPPM@PA@EAAXXZ 000000018007659c f i MetadataImpl.obj
 0001:000755b8       ?GetNode@StructureNodeImpl@AdobeXMPCore_Int@@$R4II@EM@PPPPPPPM@IA@EAA?AV?$shared_ptr@VINode_v1@AdobeXMPCore@@@std@@PEBD_K01@Z 00000001800765b8 f i MetadataImpl.obj
 0001:000755d4       ?getQualifier@INode_I@AdobeXMPCore_Int@@$R2FI@CI@PPPPPPPM@DI@EAAPEAVINode_v1@AdobeXMPCore@@PEBD_K01AEAPEBVIError_v1@AdobeXMPCommon@@@Z 00000001800765d4 f i MetadataImpl.obj
 0001:000755f0       ?getName@INode_I@AdobeXMPCore_Int@@$R2FI@CI@PPPPPPPM@DI@EBAPEBVIUTF8String_v1@AdobeXMPCommon@@AEAPEBVIError_v1@4@@Z 00000001800765f0 f i MetadataImpl.obj
 0001:0007560c       ?ConvertToStructureNode@StructureNodeImpl@AdobeXMPCore_Int@@$R4FI@EM@PPPPPPPM@FA@EAA?AV?$shared_ptr@VIStructureNode_v1@AdobeXMPCore@@@std@@XZ 000000018007660c f i MetadataImpl.obj
 0001:00075628       ?AcquireInternal@NodeImpl@AdobeXMPCore_Int@@$R4JI@DM@PPPPPPPM@MA@EBAXXZ 0000000180076628 f i MetadataImpl.obj
 0001:00075644       ?RemoveNodeAtPath@CompositeNodeImpl@AdobeXMPCore_Int@@$R4GI@EA@PPPPPPPM@GA@EAA?AV?$shared_ptr@VINode_v1@AdobeXMPCore@@@std@@AEBV?$shared_ptr@$$CBVIPath_v1@AdobeXMPCore@@@4@@Z 0000000180076644 f i MetadataImpl.obj
 0001:00075660       ?getInterfacePointer@IStructureNode_I@AdobeXMPCore_Int@@$R2DA@CM@PPPPPPPM@CA@EAAPEAX_KKAEAPEBVIError_v1@AdobeXMPCommon@@@Z 0000000180076660 f i MetadataImpl.obj
 0001:0007567c       ?isArrayItem@INode_I@AdobeXMPCore_Int@@$R2DI@CI@PPPPPPPM@DI@EBAKAEAPEBVIError_v1@AdobeXMPCommon@@@Z 000000018007667c f i MetadataImpl.obj
 0001:00075694       ?RegisterChange@NodeImpl@AdobeXMPCore_Int@@$R4OI@EE@PPPPPPPM@PA@EAAXXZ 0000000180076694 f i MetadataImpl.obj
 0001:000756b0       ?SetIndex@NodeImpl@AdobeXMPCore_Int@@$R4OI@EE@PPPPPPPM@PA@EAAX_K@Z 00000001800766b0 f i MetadataImpl.obj
 0001:000756cc       ?ShareMutex@ThreadSafeImpl@AdobeXMPCore_Int@@$R2NA@EA@PPPPPPPM@DI@EAAXAEBV?$shared_ptr@VISharedMutex@AdobeXMPCore_Int@@@std@@@Z 00000001800766cc f i MetadataImpl.obj
 0001:000756ec       ?SetAboutURI@MetadataImpl@AdobeXMPCore_Int@@$2PPPPPPPM@A@EAAXPEBD_K@Z 00000001800766ec f i MetadataImpl.obj
 0001:000756f8       ?GetAboutURI@MetadataImpl@AdobeXMPCore_Int@@$2PPPPPPPM@A@EBA?AV?$shared_ptr@$$CBVIUTF8String_v1@AdobeXMPCommon@@@std@@XZ 00000001800766f8 f i MetadataImpl.obj
 0001:00075704       ?isArrayItem@INode_I@AdobeXMPCore_Int@@$R2FI@CI@PPPPPPPM@DI@EBAKAEAPEBVIError_v1@AdobeXMPCommon@@@Z 0000000180076704 f i MetadataImpl.obj
 0001:00075720       ?ReplaceQualifier@NodeImpl@AdobeXMPCore_Int@@$R4FI@EE@PPPPPPPM@KI@EAA?AV?$shared_ptr@VINode_v1@AdobeXMPCore@@@std@@AEBV34@@Z 0000000180076720 f i MetadataImpl.obj
 0001:0007573c       ??_EStructureNodeImpl@AdobeXMPCore_Int@@OPA@EAAPEAXI@Z 000000018007673c f i MetadataImpl.obj
 0001:00075748       ?GetActualIMetadata@IMetadata_I@AdobeXMPCore_Int@@$4PPPPPPPM@A@EAAPEAVIMetadata_v1@AdobeXMPCore@@XZ 0000000180076748 f i MetadataImpl.obj
 0001:00075754       ?getQualifierNodeType@INode_I@AdobeXMPCore_Int@@$R2DA@CE@PPPPPPPM@DI@EBAKPEBD_K01AEAPEBVIError_v1@AdobeXMPCommon@@@Z 0000000180076754 f i MetadataImpl.obj
 0001:00075770       ?qualifiersIterator@INode_I@AdobeXMPCore_Int@@$R2DA@CE@PPPPPPPM@DI@EAAPEAVINodeIterator_v1@AdobeXMPCore@@AEAPEBVIError_v1@AdobeXMPCommon@@@Z 0000000180076770 f i MetadataImpl.obj
 0001:0007578c       ?GetInterfacePointer@IStructureNode_I@AdobeXMPCore_Int@@$4PPPPPPPM@A@EAAPEAX_KK@Z 000000018007678c f i MetadataImpl.obj
 0001:00075798       ?RemoveQualifier@NodeImpl@AdobeXMPCore_Int@@$R4OI@EE@PPPPPPPM@PA@EAA?AV?$shared_ptr@VINode_v1@AdobeXMPCore@@@std@@AEBV?$shared_ptr@$$CBVIUTF8String_v1@AdobeXMPCommon@@@4@0@Z 0000000180076798 f i MetadataImpl.obj
 0001:000757b4       ?GetActualIMetadata@IMetadata_I@AdobeXMPCore_Int@@$R4KA@DE@PPPPPPPM@IA@EAAPEAVIMetadata_v1@AdobeXMPCore@@XZ 00000001800767b4 f i MetadataImpl.obj
 0001:000757d0       ?DisableFeature@MetadataImpl@AdobeXMPCore_Int@@$2PPPPPPPM@A@EBAXPEBD_K@Z 00000001800767d0 f i MetadataImpl.obj
 0001:000757dc       ?Clear@NodeImpl@AdobeXMPCore_Int@@$R4FI@EE@PPPPPPPM@KI@EAAX_N0@Z 00000001800767dc f i MetadataImpl.obj
 0001:000757f8       ?IsQualifierNode@NodeImpl@AdobeXMPCore_Int@@$R4FI@EE@PPPPPPPM@KI@EBA_NXZ 00000001800767f8 f i MetadataImpl.obj
 0001:00075814       ?getInterfacePointer@IMetadata_I@AdobeXMPCore_Int@@$R2DI@DE@PPPPPPPM@CA@EAAPEAX_KKAEAPEBVIError_v1@AdobeXMPCommon@@@Z 0000000180076814 f i MetadataImpl.obj
 0001:00075830       ?getQualifierNodeType@INode_I@AdobeXMPCore_Int@@$R2FA@CE@PPPPPPPM@DI@EBAKPEBD_K01AEAPEBVIError_v1@AdobeXMPCommon@@@Z 0000000180076830 f i MetadataImpl.obj
 0001:0007584c       ?qualifiersIterator@INode_I@AdobeXMPCore_Int@@$R2FA@CE@PPPPPPPM@DI@EAAPEAVINodeIterator_v1@AdobeXMPCore@@AEAPEBVIError_v1@AdobeXMPCommon@@@Z 000000018007684c f i MetadataImpl.obj
 0001:00075868       ?ConvertToStructureNode@StructureNodeImpl@AdobeXMPCore_Int@@$4PPPPPPPM@A@EAA?AV?$shared_ptr@VIStructureNode_v1@AdobeXMPCore@@@std@@XZ 0000000180076868 f i MetadataImpl.obj
 0001:00075874       ?GetISharedObject_I@ISharedObject_I@AdobeXMPCommon_Int@@$R4CA@BM@PPPPPPPM@BA@EAAPEAV12@XZ 0000000180076874 f i MetadataImpl.obj
 0001:00075890       ?appendNode@ICompositeNode_I@AdobeXMPCore_Int@@$R2FA@CM@PPPPPPPM@EI@EAAXPEAVINode_v1@AdobeXMPCore@@AEAPEBVIError_v1@AdobeXMPCommon@@@Z 0000000180076890 f i MetadataImpl.obj
 0001:000758ac       ?GetActualINode@INode_I@AdobeXMPCore_Int@@$R4DA@CE@PPPPPPPM@DI@EAAPEAVINode_v1@AdobeXMPCore@@XZ 00000001800768ac f i MetadataImpl.obj
 0001:000758c8       ??_EIStructureNode_v1@AdobeXMPCore@@O7EAAPEAXI@Z 00000001800768c8 f i MetadataImpl.obj
 0001:000758d4       ??_EMetadataImpl@AdobeXMPCore_Int@@OBBA@EAAPEAXI@Z 00000001800768d4 f i MetadataImpl.obj
 0001:000758e0       ?SetIsQualifierNode@NodeImpl@AdobeXMPCore_Int@@$R4OI@EE@PPPPPPPM@PA@EAAX_N@Z 00000001800768e0 f i MetadataImpl.obj
 0001:000758fc       ?appendNode@ICompositeNode_I@AdobeXMPCore_Int@@$R2HA@CM@PPPPPPPM@EI@EAAXPEAVINode_v1@AdobeXMPCore@@AEAPEBVIError_v1@AdobeXMPCommon@@@Z 00000001800768fc f i MetadataImpl.obj
 0001:00075918       ?Clone@NodeImpl@AdobeXMPCore_Int@@$R4FI@EE@PPPPPPPM@KI@EBA?AV?$shared_ptr@VINode_v1@AdobeXMPCore@@@std@@_N0@Z 0000000180076918 f i MetadataImpl.obj
 0001:00075934       ?IsEmpty@NodeImpl@AdobeXMPCore_Int@@$R4FI@EE@PPPPPPPM@KI@EBA_NXZ 0000000180076934 f i MetadataImpl.obj
 0001:00075950       ?RemoveQualifier@NodeImpl@AdobeXMPCore_Int@@$R4FI@EE@PPPPPPPM@KI@EAA?AV?$shared_ptr@VINode_v1@AdobeXMPCore@@@std@@PEBD_K01@Z 0000000180076950 f i MetadataImpl.obj
 0001:0007596c       ?GetPath@NodeImpl@AdobeXMPCore_Int@@$R4FI@EE@PPPPPPPM@KI@EBA?AV?$shared_ptr@VIPath_v1@AdobeXMPCore@@@std@@XZ 000000018007696c f i MetadataImpl.obj
 0001:00075988       ?GetActualIStructureNode@IStructureNode_I@AdobeXMPCore_Int@@$R4IA@CM@PPPPPPPM@GI@EAAPEAVIStructureNode_v1@AdobeXMPCore@@XZ 0000000180076988 f i MetadataImpl.obj
 0001:000759a4       ?GetActualINode@INode_I@AdobeXMPCore_Int@@$R4FA@CE@PPPPPPPM@DI@EAAPEAVINode_v1@AdobeXMPCore@@XZ 00000001800769a4 f i MetadataImpl.obj
 0001:000759c0       ?HasQualifiers@NodeImpl@AdobeXMPCore_Int@@$R4FA@DM@PPPPPPPM@KI@EBA_NXZ 00000001800769c0 f i MetadataImpl.obj
 0001:000759dc       ?GetInterfacePointer@IStructureNode_I@AdobeXMPCore_Int@@$R4DA@CM@PPPPPPPM@CA@EAAPEAX_KK@Z 00000001800769dc f i MetadataImpl.obj
 0001:000759f8       ?setNameSpace@INode_I@AdobeXMPCore_Int@@$R2DI@CI@PPPPPPPM@DI@EAAXPEBD_KAEAPEBVIError_v1@AdobeXMPCommon@@@Z 00000001800769f8 f i MetadataImpl.obj
 0001:00075a10       ?replaceNodeAtPath@ICompositeNode_I@AdobeXMPCore_Int@@$R2EI@CI@PPPPPPPM@EI@EAAPEAVINode_v1@AdobeXMPCore@@PEAV34@PEBVIPath_v1@4@AEAPEBVIError_v1@AdobeXMPCommon@@@Z 0000000180076a10 f i MetadataImpl.obj
 0001:00075a28       ?setNameSpace@INode_I@AdobeXMPCore_Int@@$R2FI@CI@PPPPPPPM@DI@EAAXPEBD_KAEAPEBVIError_v1@AdobeXMPCommon@@@Z 0000000180076a28 f i MetadataImpl.obj
 0001:00075a44       ?ConvertToArrayNode@NodeImpl@AdobeXMPCore_Int@@$R4FI@EE@PPPPPPPM@KI@EAA?AV?$shared_ptr@VIArrayNode_v1@AdobeXMPCore@@@std@@XZ 0000000180076a44 f i MetadataImpl.obj
 0001:00075a44       ?ConvertToSimpleNode@NodeImpl@AdobeXMPCore_Int@@$R4FI@EE@PPPPPPPM@KI@EAA?AV?$shared_ptr@VISimpleNode_v1@AdobeXMPCore@@@std@@XZ 0000000180076a44 f i MetadataImpl.obj
 0001:00075a60       ?replaceNodeAtPath@ICompositeNode_I@AdobeXMPCore_Int@@$R2GI@CI@PPPPPPPM@EI@EAAPEAVINode_v1@AdobeXMPCore@@PEAV34@PEBVIPath_v1@4@AEAPEBVIError_v1@AdobeXMPCommon@@@Z 0000000180076a60 f i MetadataImpl.obj
 0001:00075a7c       ?DisableThreadSafety@ThreadSafeImpl@AdobeXMPCore_Int@@$R2EA@DI@PPPPPPPM@CI@EBAXXZ 0000000180076a7c f i MetadataImpl.obj
 0001:00075a98       ?GetINode_I@INode_I@AdobeXMPCore_Int@@$R4DI@CI@PPPPPPPM@DI@EAAPEAV12@XZ 0000000180076a98 f i MetadataImpl.obj
 0001:00075ab0       ??_EIMetadata_I@AdobeXMPCore_Int@@$2PPPPPPPM@A@EAAPEAXI@Z 0000000180076ab0 f i MetadataImpl.obj
 0001:00075abc       ?GetActualIStructureNode@IStructureNode_I@AdobeXMPCore_Int@@$4PPPPPPPM@A@EAAPEAVIStructureNode_v1@AdobeXMPCore@@XZ 0000000180076abc f i MetadataImpl.obj
 0001:00075ac8       ??_EIMetadata_v1@AdobeXMPCore@@O7EAAPEAXI@Z 0000000180076ac8 f i MetadataImpl.obj
 0001:00075ad4       ?ReplaceNodeAtPath@CompositeNodeImpl@AdobeXMPCore_Int@@$R4HA@EI@PPPPPPPM@GA@EAA?AV?$shared_ptr@VINode_v1@AdobeXMPCore@@@std@@AEBV34@AEBV?$shared_ptr@$$CBVIPath_v1@AdobeXMPCore@@@4@@Z 0000000180076ad4 f i MetadataImpl.obj
 0001:00075af0       ?GetINode_I@INode_I@AdobeXMPCore_Int@@$R4FI@CI@PPPPPPPM@DI@EAAPEAV12@XZ 0000000180076af0 f i MetadataImpl.obj
 0001:00075b0c       ?replaceNode@IStructureNode_I@AdobeXMPCore_Int@@$R2GI@DA@PPPPPPPM@GI@EAAPEAVINode_v1@AdobeXMPCore@@PEAV34@AEAPEBVIError_v1@AdobeXMPCommon@@@Z 0000000180076b0c f i MetadataImpl.obj
 0001:00075b24       ?getNode@IStructureNode_I@AdobeXMPCore_Int@@$R2GI@DA@PPPPPPPM@GI@EAAPEAVINode_v1@AdobeXMPCore@@PEBD_K01AEAPEBVIError_v1@AdobeXMPCommon@@@Z 0000000180076b24 f i MetadataImpl.obj
 0001:00075b3c       ?convertToStructureNode@INode_I@AdobeXMPCore_Int@@$R2DA@CE@PPPPPPPM@DI@EAAPEAVIStructureNode_v1@AdobeXMPCore@@AEAPEBVIError_v1@AdobeXMPCommon@@@Z 0000000180076b3c f i MetadataImpl.obj
 0001:00075b58       ?hasChanged@INode_I@AdobeXMPCore_Int@@$R2DA@CE@PPPPPPPM@DI@EBAKAEAPEBVIError_v1@AdobeXMPCommon@@@Z 0000000180076b58 f i MetadataImpl.obj
 0001:00075b74       ?replaceNode@IStructureNode_I@AdobeXMPCore_Int@@$R2II@DA@PPPPPPPM@GI@EAAPEAVINode_v1@AdobeXMPCore@@PEAV34@AEAPEBVIError_v1@AdobeXMPCommon@@@Z 0000000180076b74 f i MetadataImpl.obj
 0001:00075b90       ?getNode@IStructureNode_I@AdobeXMPCore_Int@@$R2II@DA@PPPPPPPM@GI@EAAPEAVINode_v1@AdobeXMPCore@@PEBD_K01AEAPEBVIError_v1@AdobeXMPCommon@@@Z 0000000180076b90 f i MetadataImpl.obj
 0001:00075bac       ?GetNameSpace@MetadataImpl@AdobeXMPCore_Int@@$2PPPPPPPM@A@EBA?AV?$shared_ptr@$$CBVIUTF8String_v1@AdobeXMPCommon@@@std@@XZ 0000000180076bac f i MetadataImpl.obj
 0001:00075bac       ?GetName@MetadataImpl@AdobeXMPCore_Int@@$2PPPPPPPM@A@EBA?AV?$shared_ptr@$$CBVIUTF8String_v1@AdobeXMPCommon@@@std@@XZ 0000000180076bac f i MetadataImpl.obj
 0001:00075bb8       ?InsertNode@StructureNodeImpl@AdobeXMPCore_Int@@$4PPPPPPPM@A@EAAXAEBV?$shared_ptr@VINode_v1@AdobeXMPCore@@@std@@@Z 0000000180076bb8 f i MetadataImpl.obj
 0001:00075bc4       ?InsertNodeAtPath@CompositeNodeImpl@AdobeXMPCore_Int@@$R4GI@EA@PPPPPPPM@GA@EAAXAEBV?$shared_ptr@VINode_v1@AdobeXMPCore@@@std@@AEBV?$shared_ptr@$$CBVIPath_v1@AdobeXMPCore@@@4@@Z 0000000180076bc4 f i MetadataImpl.obj
 0001:00075be0       ?convertToStructureNode@INode_I@AdobeXMPCore_Int@@$R2FA@CE@PPPPPPPM@DI@EAAPEAVIStructureNode_v1@AdobeXMPCore@@AEAPEBVIError_v1@AdobeXMPCommon@@@Z 0000000180076be0 f i MetadataImpl.obj
 0001:00075bfc       ?hasChanged@INode_I@AdobeXMPCore_Int@@$R2FA@CE@PPPPPPPM@DI@EBAKAEAPEBVIError_v1@AdobeXMPCommon@@@Z 0000000180076bfc f i MetadataImpl.obj
 0001:00075c18       ?GetActualICompositeNode@ICompositeNode_I@AdobeXMPCore_Int@@$R4FA@CM@PPPPPPPM@EI@EAAPEAVICompositeNode_v1@AdobeXMPCore@@XZ 0000000180076c18 f i MetadataImpl.obj
 0001:00075c34       ?isEmpty@INode_I@AdobeXMPCore_Int@@$R2DI@CI@PPPPPPPM@DI@EBAKAEAPEBVIError_v1@AdobeXMPCommon@@@Z 0000000180076c34 f i MetadataImpl.obj
 0001:00075c4c       ?getParent@INode_I@AdobeXMPCore_Int@@$R2DI@CI@PPPPPPPM@DI@EAAPEAVINode_v1@AdobeXMPCore@@AEAPEBVIError_v1@AdobeXMPCommon@@@Z 0000000180076c4c f i MetadataImpl.obj
 0001:00075c64       ?GetInterfacePointer@IMetadata_I@AdobeXMPCore_Int@@$4PPPPPPPM@A@EAAPEAX_KK@Z 0000000180076c64 f i MetadataImpl.obj
 0001:00075c70       ?GetISharedObject_I@IMetadata_I@AdobeXMPCore_Int@@$4PPPPPPPM@A@EAAPEAVISharedObject_I@AdobeXMPCommon_Int@@XZ 0000000180076c70 f i MetadataImpl.obj
 0001:00075c7c       ?getNodeAtPath@ICompositeNode_I@AdobeXMPCore_Int@@$R2EI@CI@PPPPPPPM@EI@EAAPEAVINode_v1@AdobeXMPCore@@PEBVIPath_v1@4@AEAPEBVIError_v1@AdobeXMPCommon@@@Z 0000000180076c7c f i MetadataImpl.obj
 0001:00075c94       ?GetActualICompositeNode@ICompositeNode_I@AdobeXMPCore_Int@@$R4HA@CM@PPPPPPPM@EI@EAAPEAVICompositeNode_v1@AdobeXMPCore@@XZ 0000000180076c94 f i MetadataImpl.obj
 0001:00075cb0       ?isEmpty@INode_I@AdobeXMPCore_Int@@$R2FI@CI@PPPPPPPM@DI@EBAKAEAPEBVIError_v1@AdobeXMPCommon@@@Z 0000000180076cb0 f i MetadataImpl.obj
 0001:00075ccc       ?getParent@INode_I@AdobeXMPCore_Int@@$R2FI@CI@PPPPPPPM@DI@EAAPEAVINode_v1@AdobeXMPCore@@AEAPEBVIError_v1@AdobeXMPCommon@@@Z 0000000180076ccc f i MetadataImpl.obj
 0001:00075ce8       ?AcknowledgeChanges@NodeImpl@AdobeXMPCore_Int@@$R4FI@EE@PPPPPPPM@KI@EBAXXZ 0000000180076ce8 f i MetadataImpl.obj
 0001:00075d04       ?getNodeAtPath@ICompositeNode_I@AdobeXMPCore_Int@@$R2GI@CI@PPPPPPPM@EI@EAAPEAVINode_v1@AdobeXMPCore@@PEBVIPath_v1@4@AEAPEBVIError_v1@AdobeXMPCommon@@@Z 0000000180076d04 f i MetadataImpl.obj
 0001:00075d20       ?GetIndex@NodeImpl@AdobeXMPCore_Int@@$R4FA@DM@PPPPPPPM@KI@EBA_KXZ 0000000180076d20 f i MetadataImpl.obj
 0001:00075d3c       ?Release@NodeImpl@AdobeXMPCore_Int@@$R4CA@DM@PPPPPPPM@HI@EBAXXZ 0000000180076d3c f i MetadataImpl.obj
 0001:00075d58       ?GetIMetadata_I@IMetadata_I@AdobeXMPCore_Int@@$4PPPPPPPM@A@EAAPEAV12@XZ 0000000180076d58 f i MetadataImpl.obj
 0001:00075d64       ?removeNodeAtPath@ICompositeNode_I@AdobeXMPCore_Int@@$R2FA@CM@PPPPPPPM@EI@EAAPEAVINode_v1@AdobeXMPCore@@PEBVIPath_v1@4@AEAPEBVIError_v1@AdobeXMPCommon@@@Z 0000000180076d64 f i MetadataImpl.obj
 0001:00075d80       ?setName@INode_I@AdobeXMPCore_Int@@$R2DI@CI@PPPPPPPM@DI@EAAXPEBD_KAEAPEBVIError_v1@AdobeXMPCommon@@@Z 0000000180076d80 f i MetadataImpl.obj
 0001:00075d98       ?insertNodeAtPath@ICompositeNode_I@AdobeXMPCore_Int@@$R2EI@CI@PPPPPPPM@EI@EAAXPEAVINode_v1@AdobeXMPCore@@PEBVIPath_v1@4@AEAPEBVIError_v1@AdobeXMPCommon@@@Z 0000000180076d98 f i MetadataImpl.obj
 0001:00075db0       ?getNodeTypeAtPath@ICompositeNode_I@AdobeXMPCore_Int@@$R2EI@CI@PPPPPPPM@EI@EBAKPEBVIPath_v1@AdobeXMPCore@@AEAPEBVIError_v1@AdobeXMPCommon@@@Z 0000000180076db0 f i MetadataImpl.obj
 0001:00075dc8       ?getPath@INode_I@AdobeXMPCore_Int@@$R2DA@CE@PPPPPPPM@DI@EBAPEAVIPath_v1@AdobeXMPCore@@AEAPEBVIError_v1@AdobeXMPCommon@@@Z 0000000180076dc8 f i MetadataImpl.obj
 0001:00075de4       ?UnShareMutex@ThreadSafeImpl@AdobeXMPCore_Int@@$R2NA@EA@PPPPPPPM@DI@EAAXXZ 0000000180076de4 f i MetadataImpl.obj
 0001:00075e04       ?GetIMetadata_I@IMetadata_I@AdobeXMPCore_Int@@$R4KA@DE@PPPPPPPM@IA@EAAPEAV12@XZ 0000000180076e04 f i MetadataImpl.obj
 0001:00075e20       ?removeNodeAtPath@ICompositeNode_I@AdobeXMPCore_Int@@$R2HA@CM@PPPPPPPM@EI@EAAPEAVINode_v1@AdobeXMPCore@@PEBVIPath_v1@4@AEAPEBVIError_v1@AdobeXMPCommon@@@Z 0000000180076e20 f i MetadataImpl.obj
 0001:00075e3c       ?setName@INode_I@AdobeXMPCore_Int@@$R2FI@CI@PPPPPPPM@DI@EAAXPEBD_KAEAPEBVIError_v1@AdobeXMPCommon@@@Z 0000000180076e3c f i MetadataImpl.obj
 0001:00075e58       ?QualifiersCount@NodeImpl@AdobeXMPCore_Int@@$R4FI@EE@PPPPPPPM@KI@EBA_KXZ 0000000180076e58 f i MetadataImpl.obj
 0001:00075e74       ?RemoveNode@StructureNodeImpl@AdobeXMPCore_Int@@$4PPPPPPPM@A@EAA?AV?$shared_ptr@VINode_v1@AdobeXMPCore@@@std@@AEBV?$shared_ptr@$$CBVIUTF8String_v1@AdobeXMPCommon@@@4@0@Z 0000000180076e74 f i MetadataImpl.obj
 0001:00075e80       ?RemoveNode@StructureNodeImpl@AdobeXMPCore_Int@@$4PPPPPPPM@A@EAA?AV?$shared_ptr@VINode_v1@AdobeXMPCore@@@std@@PEBD_K01@Z 0000000180076e80 f i MetadataImpl.obj
 0001:00075e8c       ?insertNodeAtPath@ICompositeNode_I@AdobeXMPCore_Int@@$R2GI@CI@PPPPPPPM@EI@EAAXPEAVINode_v1@AdobeXMPCore@@PEBVIPath_v1@4@AEAPEBVIError_v1@AdobeXMPCommon@@@Z 0000000180076e8c f i MetadataImpl.obj
 0001:00075ea8       ?getNodeTypeAtPath@ICompositeNode_I@AdobeXMPCore_Int@@$R2GI@CI@PPPPPPPM@EI@EBAKPEBVIPath_v1@AdobeXMPCore@@AEAPEBVIError_v1@AdobeXMPCommon@@@Z 0000000180076ea8 f i MetadataImpl.obj
 0001:00075ec4       ?getPath@INode_I@AdobeXMPCore_Int@@$R2FA@CE@PPPPPPPM@DI@EBAPEAVIPath_v1@AdobeXMPCore@@AEAPEBVIError_v1@AdobeXMPCommon@@@Z 0000000180076ec4 f i MetadataImpl.obj
 0001:00075ee0       ?GetParentNodeType@NodeImpl@AdobeXMPCore_Int@@$R4FA@DM@PPPPPPPM@KI@EBA?AW4eNodeType@INode_v1@AdobeXMPCore@@XZ 0000000180076ee0 f i MetadataImpl.obj
 0001:00075efc       ??_EStructureNodeImpl@AdobeXMPCore_Int@@$2PPPPPPPM@A@EAAPEAXI@Z 0000000180076efc f i MetadataImpl.obj
 0001:00075f08       ?hasContent@INode_I@AdobeXMPCore_Int@@$R2DI@CI@PPPPPPPM@DI@EBAKAEAPEBVIError_v1@AdobeXMPCommon@@@Z 0000000180076f08 f i MetadataImpl.obj
 0001:00075f20       ?getIndex@INode_I@AdobeXMPCore_Int@@$R2DI@CI@PPPPPPPM@DI@EBA_KAEAPEBVIError_v1@AdobeXMPCommon@@@Z 0000000180076f20 f i MetadataImpl.obj
 0001:00075f38       ?hasQualifiers@INode_I@AdobeXMPCore_Int@@$R2DA@CE@PPPPPPPM@DI@EBAKAEAPEBVIError_v1@AdobeXMPCommon@@@Z 0000000180076f38 f i MetadataImpl.obj
 0001:00075f54       ?isQualifierNode@INode_I@AdobeXMPCore_Int@@$R2DA@CE@PPPPPPPM@DI@EBAKAEAPEBVIError_v1@AdobeXMPCommon@@@Z 0000000180076f54 f i MetadataImpl.obj
 0001:00075f70       ?getParentNodeType@INode_I@AdobeXMPCore_Int@@$R2DA@CE@PPPPPPPM@DI@EBAKAEAPEBVIError_v1@AdobeXMPCommon@@@Z 0000000180076f70 f i MetadataImpl.obj
 0001:00075f8c       ?AcquireInternal@NodeImpl@AdobeXMPCore_Int@@$R4LI@EE@PPPPPPPM@MA@EBAXXZ 0000000180076f8c f i MetadataImpl.obj
 0001:00075fa8       ?RemoveNode@StructureNodeImpl@AdobeXMPCore_Int@@$R4II@EM@PPPPPPPM@IA@EAA?AV?$shared_ptr@VINode_v1@AdobeXMPCore@@@std@@PEBD_K01@Z 0000000180076fa8 f i MetadataImpl.obj
 0001:00075fc4       ?GetNodeTypeAtPath@CompositeNodeImpl@AdobeXMPCore_Int@@$R4HA@EI@PPPPPPPM@GA@EBA?AW4eNodeType@INode_v1@AdobeXMPCore@@AEBV?$shared_ptr@$$CBVIPath_v1@AdobeXMPCore@@@std@@@Z 0000000180076fc4 f i MetadataImpl.obj
 0001:00075fe0       ?hasContent@INode_I@AdobeXMPCore_Int@@$R2FI@CI@PPPPPPPM@DI@EBAKAEAPEBVIError_v1@AdobeXMPCommon@@@Z 0000000180076fe0 f i MetadataImpl.obj
 0001:00075ffc       ?getIndex@INode_I@AdobeXMPCore_Int@@$R2FI@CI@PPPPPPPM@DI@EBA_KAEAPEBVIError_v1@AdobeXMPCommon@@@Z 0000000180076ffc f i MetadataImpl.obj
 0001:00076018       ?GetQualifierNodeType@NodeImpl@AdobeXMPCore_Int@@$R4FI@EE@PPPPPPPM@KI@EBA?AW4eNodeType@INode_v1@AdobeXMPCore@@PEBD_K01@Z 0000000180077018 f i MetadataImpl.obj
 0001:00076034       ?isThreadSafe@IThreadSafe_I@AdobeXMPCommon_Int@@$R4EI@CE@PPPPPPPM@BA@EBAKXZ 0000000180077034 f i MetadataImpl.obj
 0001:00076050       ??_EMetadataImpl@AdobeXMPCore_Int@@$2PPPPPPPM@A@EAAPEAXI@Z 0000000180077050 f i MetadataImpl.obj
 0001:0007605c       ?CloneContents@StructureNodeImpl@AdobeXMPCore_Int@@$4PPPPPPPM@A@EBA?AV?$shared_ptr@VINode_v1@AdobeXMPCore@@@std@@_N0_K@Z 000000018007705c f i MetadataImpl.obj
 0001:00076068       ?ValidateNameOrNameSpaceChangeForAChild@StructureNodeImpl@AdobeXMPCore_Int@@$4PPPPPPPM@A@EAA_NAEBV?$shared_ptr@$$CBVIUTF8String_v1@AdobeXMPCommon@@@std@@000@Z 0000000180077068 f i MetadataImpl.obj
 0001:00076074       ?GetRawParentPointer@NodeImpl@AdobeXMPCore_Int@@$R4MI@DM@PPPPPPPM@PA@EAAPEAVINode_v1@AdobeXMPCore@@XZ 0000000180077074 f i MetadataImpl.obj
 0001:00076090       ?removeNode@IStructureNode_I@AdobeXMPCore_Int@@$R2IA@CM@PPPPPPPM@GI@EAAPEAVINode_v1@AdobeXMPCore@@PEBD_K01AEAPEBVIError_v1@AdobeXMPCommon@@@Z 0000000180077090 f i MetadataImpl.obj
 0001:000760ac       ?hasQualifiers@INode_I@AdobeXMPCore_Int@@$R2FA@CE@PPPPPPPM@DI@EBAKAEAPEBVIError_v1@AdobeXMPCommon@@@Z 00000001800770ac f i MetadataImpl.obj
 0001:000760c8       ?isQualifierNode@INode_I@AdobeXMPCore_Int@@$R2FA@CE@PPPPPPPM@DI@EBAKAEAPEBVIError_v1@AdobeXMPCommon@@@Z 00000001800770c8 f i MetadataImpl.obj
 0001:000760e4       ?getParentNodeType@INode_I@AdobeXMPCore_Int@@$R2FA@CE@PPPPPPPM@DI@EBAKAEAPEBVIError_v1@AdobeXMPCommon@@@Z 00000001800770e4 f i MetadataImpl.obj
 0001:00076100       ?Iterator@StructureNodeImpl@AdobeXMPCore_Int@@$R4HA@EM@PPPPPPPM@GI@EAA?AV?$shared_ptr@VINodeIterator_v1@AdobeXMPCore@@@std@@XZ 0000000180077100 f i MetadataImpl.obj
 0001:0007611c       ?IsArrayItem@NodeImpl@AdobeXMPCore_Int@@$R4FI@EE@PPPPPPPM@KI@EBA_NXZ 000000018007711c f i MetadataImpl.obj
 0001:00076138       ?Acquire@NodeImpl@AdobeXMPCore_Int@@$R4CA@DM@PPPPPPPM@HI@EBAXXZ 0000000180077138 f i MetadataImpl.obj
 0001:00076154       ?getAboutURI@IMetadata_I@AdobeXMPCore_Int@@$2PPPPPPPM@A@EBAPEBVIUTF8String_v1@AdobeXMPCommon@@AEAPEBVIError_v1@4@@Z 0000000180077154 f i MetadataImpl.obj
 0001:00076160       ?clear@INode_I@AdobeXMPCore_Int@@$R2DI@CI@PPPPPPPM@DI@EAAXKKAEAPEBVIError_v1@AdobeXMPCommon@@@Z 0000000180077160 f i MetadataImpl.obj
 0001:00076178       ?removeNode@IStructureNode_I@AdobeXMPCore_Int@@$2PPPPPPPM@A@EAAPEAVINode_v1@AdobeXMPCore@@PEBD_K01AEAPEBVIError_v1@AdobeXMPCommon@@@Z 0000000180077178 f i MetadataImpl.obj
 0001:00076184       ?getNodeType@INode_I@AdobeXMPCore_Int@@$R2DA@CE@PPPPPPPM@DI@EBAKAEAPEBVIError_v1@AdobeXMPCommon@@@Z 0000000180077184 f i MetadataImpl.obj
 0001:000761a0       ?replaceQualifier@INode_I@AdobeXMPCore_Int@@$R2DA@CE@PPPPPPPM@DI@EAAPEAVINode_v1@AdobeXMPCore@@PEAV34@AEAPEBVIError_v1@AdobeXMPCommon@@@Z 00000001800771a0 f i MetadataImpl.obj
 0001:000761bc       ?getAboutURI@IMetadata_I@AdobeXMPCore_Int@@$R2KA@DE@PPPPPPPM@IA@EBAPEBVIUTF8String_v1@AdobeXMPCommon@@AEAPEBVIError_v1@4@@Z 00000001800771bc f i MetadataImpl.obj
 0001:000761d8       ?clear@INode_I@AdobeXMPCore_Int@@$R2FI@CI@PPPPPPPM@DI@EAAXKKAEAPEBVIError_v1@AdobeXMPCommon@@@Z 00000001800771d8 f i MetadataImpl.obj
 0001:000761f4       ?getNodeType@INode_I@AdobeXMPCore_Int@@$R2FA@CE@PPPPPPPM@DI@EBAKAEAPEBVIError_v1@AdobeXMPCommon@@@Z 00000001800771f4 f i MetadataImpl.obj
 0001:00076210       ?replaceQualifier@INode_I@AdobeXMPCore_Int@@$R2FA@CE@PPPPPPPM@DI@EAAPEAVINode_v1@AdobeXMPCore@@PEAV34@AEAPEBVIError_v1@AdobeXMPCommon@@@Z 0000000180077210 f i MetadataImpl.obj
 0001:0007622c       ?GetQualifier@NodeImpl@AdobeXMPCore_Int@@$R4FA@DM@PPPPPPPM@KI@EAA?AV?$shared_ptr@VINode_v1@AdobeXMPCore@@@std@@PEBD_K01@Z 000000018007722c f i MetadataImpl.obj
 0001:00076248       ?EnableThreadSafety@ThreadSafeImpl@AdobeXMPCore_Int@@$R2EA@DI@PPPPPPPM@CI@EBAXXZ 0000000180077248 f i MetadataImpl.obj
 0001:00076264       ?iterator@ICompositeNode_I@AdobeXMPCore_Int@@$R2EI@CI@PPPPPPPM@EI@EAAPEAVINodeIterator_v1@AdobeXMPCore@@AEAPEBVIError_v1@AdobeXMPCommon@@@Z 0000000180077264 f i MetadataImpl.obj
 0001:0007627c       ?insertQualifier@INode_I@AdobeXMPCore_Int@@$R2DA@CE@PPPPPPPM@DI@EAAXPEAVINode_v1@AdobeXMPCore@@AEAPEBVIError_v1@AdobeXMPCommon@@@Z 000000018007727c f i MetadataImpl.obj
 0001:00076298       ?GetIStructureNode_I@IStructureNode_I@AdobeXMPCore_Int@@$R4IA@CM@PPPPPPPM@GI@EAAPEAV12@XZ 0000000180077298 f i MetadataImpl.obj
 0001:000762b4       ?iterator@ICompositeNode_I@AdobeXMPCore_Int@@$R2GI@CI@PPPPPPPM@EI@EAAPEAVINodeIterator_v1@AdobeXMPCore@@AEAPEBVIError_v1@AdobeXMPCommon@@@Z 00000001800772b4 f i MetadataImpl.obj
 0001:000762d0       ?insertQualifier@INode_I@AdobeXMPCore_Int@@$R2FA@CE@PPPPPPPM@DI@EAAXPEAVINode_v1@AdobeXMPCore@@AEAPEBVIError_v1@AdobeXMPCommon@@@Z 00000001800772d0 f i MetadataImpl.obj
 0001:000762ec       ?GetName@NodeImpl@AdobeXMPCore_Int@@$R4FA@DM@PPPPPPPM@KI@EBA?AV?$shared_ptr@$$CBVIUTF8String_v1@AdobeXMPCommon@@@std@@XZ 00000001800772ec f i MetadataImpl.obj
 0001:00076308       ?GetParent@NodeImpl@AdobeXMPCore_Int@@$R4FA@DM@PPPPPPPM@KI@EAA?AV?$shared_ptr@VINode_v1@AdobeXMPCore@@@std@@XZ 0000000180077308 f i MetadataImpl.obj
 0001:00076324       ?getNameSpace@INode_I@AdobeXMPCore_Int@@$R2DA@CE@PPPPPPPM@DI@EBAPEBVIUTF8String_v1@AdobeXMPCommon@@AEAPEBVIError_v1@4@@Z 0000000180077324 f i MetadataImpl.obj
 0001:00076340       ?ClearContents@MetadataImpl@AdobeXMPCore_Int@@$2PPPPPPPM@A@EAAXXZ 0000000180077340 f i MetadataImpl.obj
 0001:0007634c       ?GetChildNodeType@StructureNodeImpl@AdobeXMPCore_Int@@$4PPPPPPPM@A@EBA?AW4eNodeType@INode_v1@AdobeXMPCore@@PEBD_K01@Z 000000018007734c f i MetadataImpl.obj
 0001:00076358       ?getNameSpace@INode_I@AdobeXMPCore_Int@@$R2FA@CE@PPPPPPPM@DI@EBAPEBVIUTF8String_v1@AdobeXMPCommon@@AEAPEBVIError_v1@4@@Z 0000000180077358 f i MetadataImpl.obj
 0001:00076374       ?HasChanged@NodeImpl@AdobeXMPCore_Int@@$R4FA@DM@PPPPPPPM@KI@EBA_NXZ 0000000180077374 f i MetadataImpl.obj
 0001:00076390       ?QualifiersIterator@NodeImpl@AdobeXMPCore_Int@@$R4FA@DM@PPPPPPPM@KI@EAA?AV?$shared_ptr@VINodeIterator_v1@AdobeXMPCore@@@std@@XZ 0000000180077390 f i MetadataImpl.obj
 0001:000763ac       ?getQualifierNodeType@INode_I@AdobeXMPCore_Int@@$R2DI@CI@PPPPPPPM@DI@EBAKPEBD_K01AEAPEBVIError_v1@AdobeXMPCommon@@@Z 00000001800773ac f i MetadataImpl.obj
 0001:000763c4       ?qualifiersIterator@INode_I@AdobeXMPCore_Int@@$R2DI@CI@PPPPPPPM@DI@EAAPEAVINodeIterator_v1@AdobeXMPCore@@AEAPEBVIError_v1@AdobeXMPCommon@@@Z 00000001800773c4 f i MetadataImpl.obj
 0001:000763dc       ?clone@INode_I@AdobeXMPCore_Int@@$R2DA@CE@PPPPPPPM@DI@EBAPEAVINode_v1@AdobeXMPCore@@KKAEAPEBVIError_v1@AdobeXMPCommon@@@Z 00000001800773dc f i MetadataImpl.obj
 0001:000763f8       ?GetChildNodeType@StructureNodeImpl@AdobeXMPCore_Int@@$R4II@EM@PPPPPPPM@IA@EBA?AW4eNodeType@INode_v1@AdobeXMPCore@@PEBD_K01@Z 00000001800773f8 f i MetadataImpl.obj
 0001:00076414       ?GetNodeAtPath@CompositeNodeImpl@AdobeXMPCore_Int@@$R4HA@EI@PPPPPPPM@GA@EAA?AV?$shared_ptr@VINode_v1@AdobeXMPCore@@@std@@AEBV?$shared_ptr@$$CBVIPath_v1@AdobeXMPCore@@@4@@Z 0000000180077414 f i MetadataImpl.obj
 0001:00076430       ?getQualifierNodeType@INode_I@AdobeXMPCore_Int@@$R2FI@CI@PPPPPPPM@DI@EBAKPEBD_K01AEAPEBVIError_v1@AdobeXMPCommon@@@Z 0000000180077430 f i MetadataImpl.obj
 0001:0007644c       ?qualifiersIterator@INode_I@AdobeXMPCore_Int@@$R2FI@CI@PPPPPPPM@DI@EAAPEAVINodeIterator_v1@AdobeXMPCore@@AEAPEBVIError_v1@AdobeXMPCommon@@@Z 000000018007744c f i MetadataImpl.obj
 0001:00076468       ?ChildCount@StructureNodeImpl@AdobeXMPCore_Int@@$4PPPPPPPM@A@EBA_KXZ 0000000180077468 f i MetadataImpl.obj
 0001:00076474       ?clone@INode_I@AdobeXMPCore_Int@@$R2FA@CE@PPPPPPPM@DI@EBAPEAVINode_v1@AdobeXMPCore@@KKAEAPEBVIError_v1@AdobeXMPCommon@@@Z 0000000180077474 f i MetadataImpl.obj
 0001:00076490       ?SetNameSpace@NodeImpl@AdobeXMPCore_Int@@$R4FA@DM@PPPPPPPM@KI@EAAXPEBD_K@Z 0000000180077490 f i MetadataImpl.obj
 0001:000764ac       ?GetActualIStructureNode@IStructureNode_I@AdobeXMPCore_Int@@$R4GI@DA@PPPPPPPM@GI@EAAPEAVIStructureNode_v1@AdobeXMPCore@@XZ 00000001800774ac f i MetadataImpl.obj
 0001:000764c4       ?GetActualINode@INode_I@AdobeXMPCore_Int@@$R4DI@CI@PPPPPPPM@DI@EAAPEAVINode_v1@AdobeXMPCore@@XZ 00000001800774c4 f i MetadataImpl.obj
 0001:000764dc       ?convertToMetadata@INode_I@AdobeXMPCore_Int@@$R2DA@CE@PPPPPPPM@DI@EAAPEAVIMetadata_v1@AdobeXMPCore@@AEAPEBVIError_v1@AdobeXMPCommon@@@Z 00000001800774dc f i MetadataImpl.obj
 0001:000764f8       ?GetActualIStructureNode@IStructureNode_I@AdobeXMPCore_Int@@$R4II@DA@PPPPPPPM@GI@EAAPEAVIStructureNode_v1@AdobeXMPCore@@XZ 00000001800774f8 f i MetadataImpl.obj
 0001:00076514       ?GetActualINode@INode_I@AdobeXMPCore_Int@@$R4FI@CI@PPPPPPPM@DI@EAAPEAVINode_v1@AdobeXMPCore@@XZ 0000000180077514 f i MetadataImpl.obj
 0001:00076530       ?InsertQualifier@NodeImpl@AdobeXMPCore_Int@@$R4FI@EE@PPPPPPPM@KI@EAAXAEBV?$shared_ptr@VINode_v1@AdobeXMPCore@@@std@@@Z 0000000180077530 f i MetadataImpl.obj
 0001:0007654c       ?IsThreadSafe@ThreadSafeImpl@AdobeXMPCore_Int@@$R2EI@EA@PPPPPPPM@CI@EBA_NXZ 000000018007754c f i MetadataImpl.obj
 0001:00076568       ?AppendNode@StructureNodeImpl@AdobeXMPCore_Int@@$4PPPPPPPM@A@EAAXAEBV?$shared_ptr@VINode_v1@AdobeXMPCore@@@std@@@Z 0000000180077568 f i MetadataImpl.obj
 0001:00076574       ?convertToMetadata@INode_I@AdobeXMPCore_Int@@$R2FA@CE@PPPPPPPM@DI@EAAPEAVIMetadata_v1@AdobeXMPCore@@AEAPEBVIError_v1@AdobeXMPCommon@@@Z 0000000180077574 f i MetadataImpl.obj
 0001:00076590       ?replaceNodeAtPath@ICompositeNode_I@AdobeXMPCore_Int@@$R2FA@CM@PPPPPPPM@EI@EAAPEAVINode_v1@AdobeXMPCore@@PEAV34@PEBVIPath_v1@4@AEAPEBVIError_v1@AdobeXMPCommon@@@Z 0000000180077590 f i MetadataImpl.obj
 0001:000765ac       ?getInterfacePointer@IMetadata_I@AdobeXMPCore_Int@@$2PPPPPPPM@A@EAAPEAX_KKAEAPEBVIError_v1@AdobeXMPCommon@@@Z 00000001800775ac f i MetadataImpl.obj
 0001:000765b8       ?convertToSimpleNode@INode_I@AdobeXMPCore_Int@@$R2DA@CE@PPPPPPPM@DI@EAAPEAVISimpleNode_v1@AdobeXMPCore@@AEAPEBVIError_v1@AdobeXMPCommon@@@Z 00000001800775b8 f i MetadataImpl.obj
 0001:000765d4       ?GetNode@MetadataImpl@AdobeXMPCore_Int@@$2PPPPPPPM@A@EAA?AV?$shared_ptr@VINode_v1@AdobeXMPCore@@@std@@AEBV?$shared_ptr@$$CBVIUTF8String_v1@AdobeXMPCommon@@@4@0@Z 00000001800775d4 f i MetadataImpl.obj
 0001:000765e0       ?replaceNodeAtPath@ICompositeNode_I@AdobeXMPCore_Int@@$R2HA@CM@PPPPPPPM@EI@EAAPEAVINode_v1@AdobeXMPCore@@PEAV34@PEBVIPath_v1@4@AEAPEBVIError_v1@AdobeXMPCommon@@@Z 00000001800775e0 f i MetadataImpl.obj
 0001:000765fc       ?RemoveNodeAtPath@CompositeNodeImpl@AdobeXMPCore_Int@@$R4HA@EI@PPPPPPPM@GA@EAA?AV?$shared_ptr@VINode_v1@AdobeXMPCore@@@std@@AEBV?$shared_ptr@$$CBVIPath_v1@AdobeXMPCore@@@4@@Z 00000001800775fc f i MetadataImpl.obj
 0001:00076618       ?ChangeParent@NodeImpl@AdobeXMPCore_Int@@$R4MI@DM@PPPPPPPM@PA@EAAXPEAVINode_v1@AdobeXMPCore@@@Z 0000000180077618 f i MetadataImpl.obj
 0001:00076634       ?insertNode@IStructureNode_I@AdobeXMPCore_Int@@$R2IA@CM@PPPPPPPM@GI@EAAXPEAVINode_v1@AdobeXMPCore@@AEAPEBVIError_v1@AdobeXMPCommon@@@Z 0000000180077634 f i MetadataImpl.obj
 0001:00076650       ?convertToSimpleNode@INode_I@AdobeXMPCore_Int@@$R2FA@CE@PPPPPPPM@DI@EAAPEAVISimpleNode_v1@AdobeXMPCore@@AEAPEBVIError_v1@AdobeXMPCommon@@@Z 0000000180077650 f i MetadataImpl.obj
 0001:0007666c       ?ReplaceQualifier@NodeImpl@AdobeXMPCore_Int@@$R4FA@DM@PPPPPPPM@KI@EAA?AV?$shared_ptr@VINode_v1@AdobeXMPCore@@@std@@AEBV34@@Z 000000018007766c f i MetadataImpl.obj
 0001:00076688       ?GetIThreadSafe_I@IThreadSafe_I@AdobeXMPCommon_Int@@WPPPPPPHI@EAAPEAV12@XZ 0000000180077688 f i MetadataImpl.obj
 0001:00076694       ?GetICompositeNode_I@ICompositeNode_I@AdobeXMPCore_Int@@$R4EI@CI@PPPPPPPM@EI@EAAPEAV12@XZ 0000000180077694 f i MetadataImpl.obj
 0001:000766ac       ?CloneContents@MetadataImpl@AdobeXMPCore_Int@@$2PPPPPPPM@A@EBA?AV?$shared_ptr@VINode_v1@AdobeXMPCore@@@std@@_N0_K@Z 00000001800776ac f i MetadataImpl.obj
 0001:000766b8       ?GetQualifier@NodeImpl@AdobeXMPCore_Int@@$R4MI@DM@PPPPPPPM@PA@EAA?AV?$shared_ptr@VINode_v1@AdobeXMPCore@@@std@@AEBV?$shared_ptr@$$CBVIUTF8String_v1@AdobeXMPCommon@@@4@0@Z 00000001800776b8 f i MetadataImpl.obj
 0001:000766d4       ?GetICompositeNode_I@ICompositeNode_I@AdobeXMPCore_Int@@$R4GI@CI@PPPPPPPM@EI@EAAPEAV12@XZ 00000001800776d4 f i MetadataImpl.obj
 0001:000766f0       ?Clear@NodeImpl@AdobeXMPCore_Int@@$R4FA@DM@PPPPPPPM@KI@EAAX_N0@Z 00000001800776f0 f i MetadataImpl.obj
 0001:0007670c       ?IsQualifierNode@NodeImpl@AdobeXMPCore_Int@@$R4FA@DM@PPPPPPPM@KI@EBA_NXZ 000000018007770c f i MetadataImpl.obj
 0001:00076728       ?GetIThreadSafe_I@IThreadSafe_I@AdobeXMPCommon_Int@@$R4EA@CA@PPPPPPPM@BA@EAAPEAV12@XZ 0000000180077728 f i MetadataImpl.obj
 0001:00076744       ?convertToStructureNode@INode_I@AdobeXMPCore_Int@@$R2DI@CI@PPPPPPPM@DI@EAAPEAVIStructureNode_v1@AdobeXMPCore@@AEAPEBVIError_v1@AdobeXMPCommon@@@Z 0000000180077744 f i MetadataImpl.obj
 0001:0007675c       ?hasChanged@INode_I@AdobeXMPCore_Int@@$R2DI@CI@PPPPPPPM@DI@EBAKAEAPEBVIError_v1@AdobeXMPCommon@@@Z 000000018007775c f i MetadataImpl.obj
 0001:00076774       ?insertNode@IStructureNode_I@AdobeXMPCore_Int@@$2PPPPPPPM@A@EAAXPEAVINode_v1@AdobeXMPCore@@AEAPEBVIError_v1@AdobeXMPCommon@@@Z 0000000180077774 f i MetadataImpl.obj
 0001:00076780       ?convertToArrayNode@INode_I@AdobeXMPCore_Int@@$R2DA@CE@PPPPPPPM@DI@EAAPEAVIArrayNode_v1@AdobeXMPCore@@AEAPEBVIError_v1@AdobeXMPCommon@@@Z 0000000180077780 f i MetadataImpl.obj
 0001:0007679c       ?removeQualifier@INode_I@AdobeXMPCore_Int@@$R2DA@CE@PPPPPPPM@DI@EAAPEAVINode_v1@AdobeXMPCore@@PEBD_K01AEAPEBVIError_v1@AdobeXMPCommon@@@Z 000000018007779c f i MetadataImpl.obj
 0001:000767b8       ?GetRawParentPointer@NodeImpl@AdobeXMPCore_Int@@$R4OI@EE@PPPPPPPM@PA@EAAPEAVINode_v1@AdobeXMPCore@@XZ 00000001800777b8 f i MetadataImpl.obj
 0001:000767d4       ?InsertNode@MetadataImpl@AdobeXMPCore_Int@@$2PPPPPPPM@A@EAAXAEBV?$shared_ptr@VINode_v1@AdobeXMPCore@@@std@@@Z 00000001800777d4 f i MetadataImpl.obj
